
Task5.elf:     file format elf32-avr

Sections:
Idx Name          Size      VMA       LMA       File off  Algn
  0 .text         000018ee  00000000  00000000  00000074  2**1
                  CONTENTS, ALLOC, LOAD, READONLY, CODE
  1 .bss          00000008  00800200  00800200  00001962  2**0
                  ALLOC
  2 .comment      00000030  00000000  00000000  00001962  2**0
                  CONTENTS, READONLY
  3 .debug_aranges 000002a8  00000000  00000000  00001992  2**0
                  CONTENTS, READONLY, DEBUGGING
  4 .debug_info   00003532  00000000  00000000  00001c3a  2**0
                  CONTENTS, READONLY, DEBUGGING
  5 .debug_abbrev 00000304  00000000  00000000  0000516c  2**0
                  CONTENTS, READONLY, DEBUGGING
  6 .debug_line   00003623  00000000  00000000  00005470  2**0
                  CONTENTS, READONLY, DEBUGGING
  7 .debug_frame  00000b28  00000000  00000000  00008a94  2**2
                  CONTENTS, READONLY, DEBUGGING
  8 .debug_str    000006e5  00000000  00000000  000095bc  2**0
                  CONTENTS, READONLY, DEBUGGING
  9 .debug_loc    00001724  00000000  00000000  00009ca1  2**0
                  CONTENTS, READONLY, DEBUGGING
 10 .debug_ranges 00000448  00000000  00000000  0000b3c5  2**0
                  CONTENTS, READONLY, DEBUGGING

Disassembly of section .text:

00000000 <__vectors>:
       0:	71 c0       	rjmp	.+226    	; 0xe4 <__ctors_end>
       2:	00 00       	nop
       4:	90 c0       	rjmp	.+288    	; 0x126 <__bad_interrupt>
       6:	00 00       	nop
       8:	8e c0       	rjmp	.+284    	; 0x126 <__bad_interrupt>
       a:	00 00       	nop
       c:	8c c0       	rjmp	.+280    	; 0x126 <__bad_interrupt>
       e:	00 00       	nop
      10:	8a c0       	rjmp	.+276    	; 0x126 <__bad_interrupt>
      12:	00 00       	nop
      14:	0c 94 00 0a 	jmp	0x1400	; 0x1400 <__vector_5>
      18:	0c 94 d3 09 	jmp	0x13a6	; 0x13a6 <__vector_6>
      1c:	84 c0       	rjmp	.+264    	; 0x126 <__bad_interrupt>
      1e:	00 00       	nop
      20:	82 c0       	rjmp	.+260    	; 0x126 <__bad_interrupt>
      22:	00 00       	nop
      24:	80 c0       	rjmp	.+256    	; 0x126 <__bad_interrupt>
      26:	00 00       	nop
      28:	7e c0       	rjmp	.+252    	; 0x126 <__bad_interrupt>
      2a:	00 00       	nop
      2c:	7c c0       	rjmp	.+248    	; 0x126 <__bad_interrupt>
      2e:	00 00       	nop
      30:	7a c0       	rjmp	.+244    	; 0x126 <__bad_interrupt>
      32:	00 00       	nop
      34:	78 c0       	rjmp	.+240    	; 0x126 <__bad_interrupt>
      36:	00 00       	nop
      38:	76 c0       	rjmp	.+236    	; 0x126 <__bad_interrupt>
      3a:	00 00       	nop
      3c:	74 c0       	rjmp	.+232    	; 0x126 <__bad_interrupt>
      3e:	00 00       	nop
      40:	72 c0       	rjmp	.+228    	; 0x126 <__bad_interrupt>
      42:	00 00       	nop
      44:	70 c0       	rjmp	.+224    	; 0x126 <__bad_interrupt>
      46:	00 00       	nop
      48:	6e c0       	rjmp	.+220    	; 0x126 <__bad_interrupt>
      4a:	00 00       	nop
      4c:	6c c0       	rjmp	.+216    	; 0x126 <__bad_interrupt>
      4e:	00 00       	nop
      50:	6a c0       	rjmp	.+212    	; 0x126 <__bad_interrupt>
      52:	00 00       	nop
      54:	68 c0       	rjmp	.+208    	; 0x126 <__bad_interrupt>
      56:	00 00       	nop
      58:	66 c0       	rjmp	.+204    	; 0x126 <__bad_interrupt>
      5a:	00 00       	nop
      5c:	64 c0       	rjmp	.+200    	; 0x126 <__bad_interrupt>
      5e:	00 00       	nop
      60:	62 c0       	rjmp	.+196    	; 0x126 <__bad_interrupt>
      62:	00 00       	nop
      64:	60 c0       	rjmp	.+192    	; 0x126 <__bad_interrupt>
      66:	00 00       	nop
      68:	5e c0       	rjmp	.+188    	; 0x126 <__bad_interrupt>
      6a:	00 00       	nop
      6c:	5c c0       	rjmp	.+184    	; 0x126 <__bad_interrupt>
      6e:	00 00       	nop
      70:	5a c0       	rjmp	.+180    	; 0x126 <__bad_interrupt>
      72:	00 00       	nop
      74:	58 c0       	rjmp	.+176    	; 0x126 <__bad_interrupt>
      76:	00 00       	nop
      78:	56 c0       	rjmp	.+172    	; 0x126 <__bad_interrupt>
      7a:	00 00       	nop
      7c:	54 c0       	rjmp	.+168    	; 0x126 <__bad_interrupt>
      7e:	00 00       	nop
      80:	52 c0       	rjmp	.+164    	; 0x126 <__bad_interrupt>
      82:	00 00       	nop
      84:	50 c0       	rjmp	.+160    	; 0x126 <__bad_interrupt>
      86:	00 00       	nop
      88:	4e c0       	rjmp	.+156    	; 0x126 <__bad_interrupt>
      8a:	00 00       	nop
      8c:	4c c0       	rjmp	.+152    	; 0x126 <__bad_interrupt>
      8e:	00 00       	nop
      90:	4a c0       	rjmp	.+148    	; 0x126 <__bad_interrupt>
      92:	00 00       	nop
      94:	48 c0       	rjmp	.+144    	; 0x126 <__bad_interrupt>
      96:	00 00       	nop
      98:	46 c0       	rjmp	.+140    	; 0x126 <__bad_interrupt>
      9a:	00 00       	nop
      9c:	44 c0       	rjmp	.+136    	; 0x126 <__bad_interrupt>
      9e:	00 00       	nop
      a0:	42 c0       	rjmp	.+132    	; 0x126 <__bad_interrupt>
      a2:	00 00       	nop
      a4:	40 c0       	rjmp	.+128    	; 0x126 <__bad_interrupt>
      a6:	00 00       	nop
      a8:	3e c0       	rjmp	.+124    	; 0x126 <__bad_interrupt>
      aa:	00 00       	nop
      ac:	3c c0       	rjmp	.+120    	; 0x126 <__bad_interrupt>
      ae:	00 00       	nop
      b0:	3a c0       	rjmp	.+116    	; 0x126 <__bad_interrupt>
      b2:	00 00       	nop
      b4:	38 c0       	rjmp	.+112    	; 0x126 <__bad_interrupt>
      b6:	00 00       	nop
      b8:	36 c0       	rjmp	.+108    	; 0x126 <__bad_interrupt>
      ba:	00 00       	nop
      bc:	34 c0       	rjmp	.+104    	; 0x126 <__bad_interrupt>
      be:	00 00       	nop
      c0:	32 c0       	rjmp	.+100    	; 0x126 <__bad_interrupt>
      c2:	00 00       	nop
      c4:	30 c0       	rjmp	.+96     	; 0x126 <__bad_interrupt>
      c6:	00 00       	nop
      c8:	2e c0       	rjmp	.+92     	; 0x126 <__bad_interrupt>
      ca:	00 00       	nop
      cc:	2c c0       	rjmp	.+88     	; 0x126 <__bad_interrupt>
      ce:	00 00       	nop
      d0:	2a c0       	rjmp	.+84     	; 0x126 <__bad_interrupt>
      d2:	00 00       	nop
      d4:	28 c0       	rjmp	.+80     	; 0x126 <__bad_interrupt>
      d6:	00 00       	nop
      d8:	26 c0       	rjmp	.+76     	; 0x126 <__bad_interrupt>
      da:	00 00       	nop
      dc:	24 c0       	rjmp	.+72     	; 0x126 <__bad_interrupt>
      de:	00 00       	nop
      e0:	22 c0       	rjmp	.+68     	; 0x126 <__bad_interrupt>
	...

000000e4 <__ctors_end>:
      e4:	11 24       	eor	r1, r1
      e6:	1f be       	out	0x3f, r1	; 63
      e8:	cf ef       	ldi	r28, 0xFF	; 255
      ea:	d1 e2       	ldi	r29, 0x21	; 33
      ec:	de bf       	out	0x3e, r29	; 62
      ee:	cd bf       	out	0x3d, r28	; 61
      f0:	00 e0       	ldi	r16, 0x00	; 0
      f2:	0c bf       	out	0x3c, r16	; 60

000000f4 <__do_copy_data>:
      f4:	12 e0       	ldi	r17, 0x02	; 2
      f6:	a0 e0       	ldi	r26, 0x00	; 0
      f8:	b2 e0       	ldi	r27, 0x02	; 2
      fa:	ee ee       	ldi	r30, 0xEE	; 238
      fc:	f8 e1       	ldi	r31, 0x18	; 24
      fe:	00 e0       	ldi	r16, 0x00	; 0
     100:	0b bf       	out	0x3b, r16	; 59
     102:	02 c0       	rjmp	.+4      	; 0x108 <__do_copy_data+0x14>
     104:	07 90       	elpm	r0, Z+
     106:	0d 92       	st	X+, r0
     108:	a0 30       	cpi	r26, 0x00	; 0
     10a:	b1 07       	cpc	r27, r17
     10c:	d9 f7       	brne	.-10     	; 0x104 <__do_copy_data+0x10>

0000010e <__do_clear_bss>:
     10e:	22 e0       	ldi	r18, 0x02	; 2
     110:	a0 e0       	ldi	r26, 0x00	; 0
     112:	b2 e0       	ldi	r27, 0x02	; 2
     114:	01 c0       	rjmp	.+2      	; 0x118 <.do_clear_bss_start>

00000116 <.do_clear_bss_loop>:
     116:	1d 92       	st	X+, r1

00000118 <.do_clear_bss_start>:
     118:	a8 30       	cpi	r26, 0x08	; 8
     11a:	b2 07       	cpc	r27, r18
     11c:	e1 f7       	brne	.-8      	; 0x116 <.do_clear_bss_loop>
     11e:	0e 94 1e 0b 	call	0x163c	; 0x163c <main>
     122:	0c 94 75 0c 	jmp	0x18ea	; 0x18ea <_exit>

00000126 <__bad_interrupt>:
     126:	6c cf       	rjmp	.-296    	; 0x0 <__vectors>

00000128 <lcd_port_config>:
{
	// 176 pulses for 360 degrees rotation 2.045 degrees per count
	soft_right_2();  //Turn reverse soft right
	Degrees=Degrees*2;
	angle_rotate(Degrees);
}
     128:	cf 93       	push	r28
     12a:	df 93       	push	r29
     12c:	cd b7       	in	r28, 0x3d	; 61
     12e:	de b7       	in	r29, 0x3e	; 62
     130:	87 e2       	ldi	r24, 0x27	; 39
     132:	90 e0       	ldi	r25, 0x00	; 0
     134:	27 e2       	ldi	r18, 0x27	; 39
     136:	30 e0       	ldi	r19, 0x00	; 0
     138:	f9 01       	movw	r30, r18
     13a:	20 81       	ld	r18, Z
     13c:	27 6f       	ori	r18, 0xF7	; 247
     13e:	fc 01       	movw	r30, r24
     140:	20 83       	st	Z, r18
     142:	88 e2       	ldi	r24, 0x28	; 40
     144:	90 e0       	ldi	r25, 0x00	; 0
     146:	28 e2       	ldi	r18, 0x28	; 40
     148:	30 e0       	ldi	r19, 0x00	; 0
     14a:	f9 01       	movw	r30, r18
     14c:	20 81       	ld	r18, Z
     14e:	28 70       	andi	r18, 0x08	; 8
     150:	fc 01       	movw	r30, r24
     152:	20 83       	st	Z, r18
     154:	df 91       	pop	r29
     156:	cf 91       	pop	r28
     158:	08 95       	ret

0000015a <lcd_set_4bit>:
     15a:	0f 93       	push	r16
     15c:	1f 93       	push	r17
     15e:	cf 93       	push	r28
     160:	df 93       	push	r29
     162:	cd b7       	in	r28, 0x3d	; 61
     164:	de b7       	in	r29, 0x3e	; 62
     166:	c0 57       	subi	r28, 0x70	; 112
     168:	d1 09       	sbc	r29, r1
     16a:	0f b6       	in	r0, 0x3f	; 63
     16c:	f8 94       	cli
     16e:	de bf       	out	0x3e, r29	; 62
     170:	0f be       	out	0x3f, r0	; 63
     172:	cd bf       	out	0x3d, r28	; 61
     174:	80 e0       	ldi	r24, 0x00	; 0
     176:	90 e0       	ldi	r25, 0x00	; 0
     178:	a0 e8       	ldi	r26, 0x80	; 128
     17a:	bf e3       	ldi	r27, 0x3F	; 63
     17c:	89 83       	std	Y+1, r24	; 0x01
     17e:	9a 83       	std	Y+2, r25	; 0x02
     180:	ab 83       	std	Y+3, r26	; 0x03
     182:	bc 83       	std	Y+4, r27	; 0x04
     184:	26 e6       	ldi	r18, 0x66	; 102
     186:	36 e6       	ldi	r19, 0x66	; 102
     188:	46 e6       	ldi	r20, 0x66	; 102
     18a:	55 e4       	ldi	r21, 0x45	; 69
     18c:	69 81       	ldd	r22, Y+1	; 0x01
     18e:	7a 81       	ldd	r23, Y+2	; 0x02
     190:	8b 81       	ldd	r24, Y+3	; 0x03
     192:	9c 81       	ldd	r25, Y+4	; 0x04
     194:	0e 94 12 0c 	call	0x1824	; 0x1824 <__mulsf3>
     198:	dc 01       	movw	r26, r24
     19a:	cb 01       	movw	r24, r22
     19c:	8d 83       	std	Y+5, r24	; 0x05
     19e:	9e 83       	std	Y+6, r25	; 0x06
     1a0:	af 83       	std	Y+7, r26	; 0x07
     1a2:	b8 87       	std	Y+8, r27	; 0x08
     1a4:	20 e0       	ldi	r18, 0x00	; 0
     1a6:	30 e0       	ldi	r19, 0x00	; 0
     1a8:	40 e8       	ldi	r20, 0x80	; 128
     1aa:	5f e3       	ldi	r21, 0x3F	; 63
     1ac:	6d 81       	ldd	r22, Y+5	; 0x05
     1ae:	7e 81       	ldd	r23, Y+6	; 0x06
     1b0:	8f 81       	ldd	r24, Y+7	; 0x07
     1b2:	98 85       	ldd	r25, Y+8	; 0x08
     1b4:	0e 94 2c 0b 	call	0x1658	; 0x1658 <__cmpsf2>
     1b8:	88 23       	and	r24, r24
     1ba:	2c f4       	brge	.+10     	; 0x1c6 <lcd_set_4bit+0x6c>
     1bc:	81 e0       	ldi	r24, 0x01	; 1
     1be:	90 e0       	ldi	r25, 0x00	; 0
     1c0:	9a 87       	std	Y+10, r25	; 0x0a
     1c2:	89 87       	std	Y+9, r24	; 0x09
     1c4:	3f c0       	rjmp	.+126    	; 0x244 <lcd_set_4bit+0xea>
     1c6:	20 e0       	ldi	r18, 0x00	; 0
     1c8:	3f ef       	ldi	r19, 0xFF	; 255
     1ca:	4f e7       	ldi	r20, 0x7F	; 127
     1cc:	57 e4       	ldi	r21, 0x47	; 71
     1ce:	6d 81       	ldd	r22, Y+5	; 0x05
     1d0:	7e 81       	ldd	r23, Y+6	; 0x06
     1d2:	8f 81       	ldd	r24, Y+7	; 0x07
     1d4:	98 85       	ldd	r25, Y+8	; 0x08
     1d6:	0e 94 0e 0c 	call	0x181c	; 0x181c <__gesf2>
     1da:	18 16       	cp	r1, r24
     1dc:	4c f5       	brge	.+82     	; 0x230 <lcd_set_4bit+0xd6>
     1de:	20 e0       	ldi	r18, 0x00	; 0
     1e0:	30 e0       	ldi	r19, 0x00	; 0
     1e2:	40 e2       	ldi	r20, 0x20	; 32
     1e4:	51 e4       	ldi	r21, 0x41	; 65
     1e6:	69 81       	ldd	r22, Y+1	; 0x01
     1e8:	7a 81       	ldd	r23, Y+2	; 0x02
     1ea:	8b 81       	ldd	r24, Y+3	; 0x03
     1ec:	9c 81       	ldd	r25, Y+4	; 0x04
     1ee:	0e 94 12 0c 	call	0x1824	; 0x1824 <__mulsf3>
     1f2:	dc 01       	movw	r26, r24
     1f4:	cb 01       	movw	r24, r22
     1f6:	bc 01       	movw	r22, r24
     1f8:	cd 01       	movw	r24, r26
     1fa:	0e 94 30 0b 	call	0x1660	; 0x1660 <__fixunssfsi>
     1fe:	dc 01       	movw	r26, r24
     200:	cb 01       	movw	r24, r22
     202:	9a 87       	std	Y+10, r25	; 0x0a
     204:	89 87       	std	Y+9, r24	; 0x09
     206:	0f c0       	rjmp	.+30     	; 0x226 <lcd_set_4bit+0xcc>
     208:	80 e7       	ldi	r24, 0x70	; 112
     20a:	91 e0       	ldi	r25, 0x01	; 1
     20c:	9c 87       	std	Y+12, r25	; 0x0c
     20e:	8b 87       	std	Y+11, r24	; 0x0b
     210:	8b 85       	ldd	r24, Y+11	; 0x0b
     212:	9c 85       	ldd	r25, Y+12	; 0x0c
     214:	01 97       	sbiw	r24, 0x01	; 1
     216:	f1 f7       	brne	.-4      	; 0x214 <lcd_set_4bit+0xba>
     218:	9c 87       	std	Y+12, r25	; 0x0c
     21a:	8b 87       	std	Y+11, r24	; 0x0b
     21c:	89 85       	ldd	r24, Y+9	; 0x09
     21e:	9a 85       	ldd	r25, Y+10	; 0x0a
     220:	01 97       	sbiw	r24, 0x01	; 1
     222:	9a 87       	std	Y+10, r25	; 0x0a
     224:	89 87       	std	Y+9, r24	; 0x09
     226:	89 85       	ldd	r24, Y+9	; 0x09
     228:	9a 85       	ldd	r25, Y+10	; 0x0a
     22a:	00 97       	sbiw	r24, 0x00	; 0
     22c:	69 f7       	brne	.-38     	; 0x208 <lcd_set_4bit+0xae>
     22e:	14 c0       	rjmp	.+40     	; 0x258 <lcd_set_4bit+0xfe>
     230:	6d 81       	ldd	r22, Y+5	; 0x05
     232:	7e 81       	ldd	r23, Y+6	; 0x06
     234:	8f 81       	ldd	r24, Y+7	; 0x07
     236:	98 85       	ldd	r25, Y+8	; 0x08
     238:	0e 94 30 0b 	call	0x1660	; 0x1660 <__fixunssfsi>
     23c:	dc 01       	movw	r26, r24
     23e:	cb 01       	movw	r24, r22
     240:	9a 87       	std	Y+10, r25	; 0x0a
     242:	89 87       	std	Y+9, r24	; 0x09
     244:	89 85       	ldd	r24, Y+9	; 0x09
     246:	9a 85       	ldd	r25, Y+10	; 0x0a
     248:	9e 87       	std	Y+14, r25	; 0x0e
     24a:	8d 87       	std	Y+13, r24	; 0x0d
     24c:	8d 85       	ldd	r24, Y+13	; 0x0d
     24e:	9e 85       	ldd	r25, Y+14	; 0x0e
     250:	01 97       	sbiw	r24, 0x01	; 1
     252:	f1 f7       	brne	.-4      	; 0x250 <lcd_set_4bit+0xf6>
     254:	9e 87       	std	Y+14, r25	; 0x0e
     256:	8d 87       	std	Y+13, r24	; 0x0d
     258:	88 e2       	ldi	r24, 0x28	; 40
     25a:	90 e0       	ldi	r25, 0x00	; 0
     25c:	28 e2       	ldi	r18, 0x28	; 40
     25e:	30 e0       	ldi	r19, 0x00	; 0
     260:	f9 01       	movw	r30, r18
     262:	20 81       	ld	r18, Z
     264:	2e 7f       	andi	r18, 0xFE	; 254
     266:	fc 01       	movw	r30, r24
     268:	20 83       	st	Z, r18
     26a:	88 e2       	ldi	r24, 0x28	; 40
     26c:	90 e0       	ldi	r25, 0x00	; 0
     26e:	28 e2       	ldi	r18, 0x28	; 40
     270:	30 e0       	ldi	r19, 0x00	; 0
     272:	f9 01       	movw	r30, r18
     274:	20 81       	ld	r18, Z
     276:	2d 7f       	andi	r18, 0xFD	; 253
     278:	fc 01       	movw	r30, r24
     27a:	20 83       	st	Z, r18
     27c:	88 e2       	ldi	r24, 0x28	; 40
     27e:	90 e0       	ldi	r25, 0x00	; 0
     280:	20 e3       	ldi	r18, 0x30	; 48
     282:	fc 01       	movw	r30, r24
     284:	20 83       	st	Z, r18
     286:	88 e2       	ldi	r24, 0x28	; 40
     288:	90 e0       	ldi	r25, 0x00	; 0
     28a:	28 e2       	ldi	r18, 0x28	; 40
     28c:	30 e0       	ldi	r19, 0x00	; 0
     28e:	f9 01       	movw	r30, r18
     290:	20 81       	ld	r18, Z
     292:	24 60       	ori	r18, 0x04	; 4
     294:	fc 01       	movw	r30, r24
     296:	20 83       	st	Z, r18
     298:	80 e0       	ldi	r24, 0x00	; 0
     29a:	90 e0       	ldi	r25, 0x00	; 0
     29c:	a0 ea       	ldi	r26, 0xA0	; 160
     29e:	b0 e4       	ldi	r27, 0x40	; 64
     2a0:	8f 87       	std	Y+15, r24	; 0x0f
     2a2:	98 8b       	std	Y+16, r25	; 0x10
     2a4:	a9 8b       	std	Y+17, r26	; 0x11
     2a6:	ba 8b       	std	Y+18, r27	; 0x12
     2a8:	26 e6       	ldi	r18, 0x66	; 102
     2aa:	36 e6       	ldi	r19, 0x66	; 102
     2ac:	46 e6       	ldi	r20, 0x66	; 102
     2ae:	55 e4       	ldi	r21, 0x45	; 69
     2b0:	6f 85       	ldd	r22, Y+15	; 0x0f
     2b2:	78 89       	ldd	r23, Y+16	; 0x10
     2b4:	89 89       	ldd	r24, Y+17	; 0x11
     2b6:	9a 89       	ldd	r25, Y+18	; 0x12
     2b8:	0e 94 12 0c 	call	0x1824	; 0x1824 <__mulsf3>
     2bc:	dc 01       	movw	r26, r24
     2be:	cb 01       	movw	r24, r22
     2c0:	8b 8b       	std	Y+19, r24	; 0x13
     2c2:	9c 8b       	std	Y+20, r25	; 0x14
     2c4:	ad 8b       	std	Y+21, r26	; 0x15
     2c6:	be 8b       	std	Y+22, r27	; 0x16
     2c8:	20 e0       	ldi	r18, 0x00	; 0
     2ca:	30 e0       	ldi	r19, 0x00	; 0
     2cc:	40 e8       	ldi	r20, 0x80	; 128
     2ce:	5f e3       	ldi	r21, 0x3F	; 63
     2d0:	6b 89       	ldd	r22, Y+19	; 0x13
     2d2:	7c 89       	ldd	r23, Y+20	; 0x14
     2d4:	8d 89       	ldd	r24, Y+21	; 0x15
     2d6:	9e 89       	ldd	r25, Y+22	; 0x16
     2d8:	0e 94 2c 0b 	call	0x1658	; 0x1658 <__cmpsf2>
     2dc:	88 23       	and	r24, r24
     2de:	2c f4       	brge	.+10     	; 0x2ea <lcd_set_4bit+0x190>
     2e0:	81 e0       	ldi	r24, 0x01	; 1
     2e2:	90 e0       	ldi	r25, 0x00	; 0
     2e4:	98 8f       	std	Y+24, r25	; 0x18
     2e6:	8f 8b       	std	Y+23, r24	; 0x17
     2e8:	3f c0       	rjmp	.+126    	; 0x368 <lcd_set_4bit+0x20e>
     2ea:	20 e0       	ldi	r18, 0x00	; 0
     2ec:	3f ef       	ldi	r19, 0xFF	; 255
     2ee:	4f e7       	ldi	r20, 0x7F	; 127
     2f0:	57 e4       	ldi	r21, 0x47	; 71
     2f2:	6b 89       	ldd	r22, Y+19	; 0x13
     2f4:	7c 89       	ldd	r23, Y+20	; 0x14
     2f6:	8d 89       	ldd	r24, Y+21	; 0x15
     2f8:	9e 89       	ldd	r25, Y+22	; 0x16
     2fa:	0e 94 0e 0c 	call	0x181c	; 0x181c <__gesf2>
     2fe:	18 16       	cp	r1, r24
     300:	4c f5       	brge	.+82     	; 0x354 <lcd_set_4bit+0x1fa>
     302:	20 e0       	ldi	r18, 0x00	; 0
     304:	30 e0       	ldi	r19, 0x00	; 0
     306:	40 e2       	ldi	r20, 0x20	; 32
     308:	51 e4       	ldi	r21, 0x41	; 65
     30a:	6f 85       	ldd	r22, Y+15	; 0x0f
     30c:	78 89       	ldd	r23, Y+16	; 0x10
     30e:	89 89       	ldd	r24, Y+17	; 0x11
     310:	9a 89       	ldd	r25, Y+18	; 0x12
     312:	0e 94 12 0c 	call	0x1824	; 0x1824 <__mulsf3>
     316:	dc 01       	movw	r26, r24
     318:	cb 01       	movw	r24, r22
     31a:	bc 01       	movw	r22, r24
     31c:	cd 01       	movw	r24, r26
     31e:	0e 94 30 0b 	call	0x1660	; 0x1660 <__fixunssfsi>
     322:	dc 01       	movw	r26, r24
     324:	cb 01       	movw	r24, r22
     326:	98 8f       	std	Y+24, r25	; 0x18
     328:	8f 8b       	std	Y+23, r24	; 0x17
     32a:	0f c0       	rjmp	.+30     	; 0x34a <lcd_set_4bit+0x1f0>
     32c:	80 e7       	ldi	r24, 0x70	; 112
     32e:	91 e0       	ldi	r25, 0x01	; 1
     330:	9a 8f       	std	Y+26, r25	; 0x1a
     332:	89 8f       	std	Y+25, r24	; 0x19
     334:	89 8d       	ldd	r24, Y+25	; 0x19
     336:	9a 8d       	ldd	r25, Y+26	; 0x1a
     338:	01 97       	sbiw	r24, 0x01	; 1
     33a:	f1 f7       	brne	.-4      	; 0x338 <lcd_set_4bit+0x1de>
     33c:	9a 8f       	std	Y+26, r25	; 0x1a
     33e:	89 8f       	std	Y+25, r24	; 0x19
     340:	8f 89       	ldd	r24, Y+23	; 0x17
     342:	98 8d       	ldd	r25, Y+24	; 0x18
     344:	01 97       	sbiw	r24, 0x01	; 1
     346:	98 8f       	std	Y+24, r25	; 0x18
     348:	8f 8b       	std	Y+23, r24	; 0x17
     34a:	8f 89       	ldd	r24, Y+23	; 0x17
     34c:	98 8d       	ldd	r25, Y+24	; 0x18
     34e:	00 97       	sbiw	r24, 0x00	; 0
     350:	69 f7       	brne	.-38     	; 0x32c <lcd_set_4bit+0x1d2>
     352:	14 c0       	rjmp	.+40     	; 0x37c <lcd_set_4bit+0x222>
     354:	6b 89       	ldd	r22, Y+19	; 0x13
     356:	7c 89       	ldd	r23, Y+20	; 0x14
     358:	8d 89       	ldd	r24, Y+21	; 0x15
     35a:	9e 89       	ldd	r25, Y+22	; 0x16
     35c:	0e 94 30 0b 	call	0x1660	; 0x1660 <__fixunssfsi>
     360:	dc 01       	movw	r26, r24
     362:	cb 01       	movw	r24, r22
     364:	98 8f       	std	Y+24, r25	; 0x18
     366:	8f 8b       	std	Y+23, r24	; 0x17
     368:	8f 89       	ldd	r24, Y+23	; 0x17
     36a:	98 8d       	ldd	r25, Y+24	; 0x18
     36c:	9c 8f       	std	Y+28, r25	; 0x1c
     36e:	8b 8f       	std	Y+27, r24	; 0x1b
     370:	8b 8d       	ldd	r24, Y+27	; 0x1b
     372:	9c 8d       	ldd	r25, Y+28	; 0x1c
     374:	01 97       	sbiw	r24, 0x01	; 1
     376:	f1 f7       	brne	.-4      	; 0x374 <lcd_set_4bit+0x21a>
     378:	9c 8f       	std	Y+28, r25	; 0x1c
     37a:	8b 8f       	std	Y+27, r24	; 0x1b
     37c:	88 e2       	ldi	r24, 0x28	; 40
     37e:	90 e0       	ldi	r25, 0x00	; 0
     380:	28 e2       	ldi	r18, 0x28	; 40
     382:	30 e0       	ldi	r19, 0x00	; 0
     384:	f9 01       	movw	r30, r18
     386:	20 81       	ld	r18, Z
     388:	2b 7f       	andi	r18, 0xFB	; 251
     38a:	fc 01       	movw	r30, r24
     38c:	20 83       	st	Z, r18
     38e:	80 e0       	ldi	r24, 0x00	; 0
     390:	90 e0       	ldi	r25, 0x00	; 0
     392:	a0 e8       	ldi	r26, 0x80	; 128
     394:	bf e3       	ldi	r27, 0x3F	; 63
     396:	8d 8f       	std	Y+29, r24	; 0x1d
     398:	9e 8f       	std	Y+30, r25	; 0x1e
     39a:	af 8f       	std	Y+31, r26	; 0x1f
     39c:	b8 a3       	std	Y+32, r27	; 0x20
     39e:	26 e6       	ldi	r18, 0x66	; 102
     3a0:	36 e6       	ldi	r19, 0x66	; 102
     3a2:	46 e6       	ldi	r20, 0x66	; 102
     3a4:	55 e4       	ldi	r21, 0x45	; 69
     3a6:	6d 8d       	ldd	r22, Y+29	; 0x1d
     3a8:	7e 8d       	ldd	r23, Y+30	; 0x1e
     3aa:	8f 8d       	ldd	r24, Y+31	; 0x1f
     3ac:	98 a1       	ldd	r25, Y+32	; 0x20
     3ae:	0e 94 12 0c 	call	0x1824	; 0x1824 <__mulsf3>
     3b2:	dc 01       	movw	r26, r24
     3b4:	cb 01       	movw	r24, r22
     3b6:	89 a3       	std	Y+33, r24	; 0x21
     3b8:	9a a3       	std	Y+34, r25	; 0x22
     3ba:	ab a3       	std	Y+35, r26	; 0x23
     3bc:	bc a3       	std	Y+36, r27	; 0x24
     3be:	20 e0       	ldi	r18, 0x00	; 0
     3c0:	30 e0       	ldi	r19, 0x00	; 0
     3c2:	40 e8       	ldi	r20, 0x80	; 128
     3c4:	5f e3       	ldi	r21, 0x3F	; 63
     3c6:	69 a1       	ldd	r22, Y+33	; 0x21
     3c8:	7a a1       	ldd	r23, Y+34	; 0x22
     3ca:	8b a1       	ldd	r24, Y+35	; 0x23
     3cc:	9c a1       	ldd	r25, Y+36	; 0x24
     3ce:	0e 94 2c 0b 	call	0x1658	; 0x1658 <__cmpsf2>
     3d2:	88 23       	and	r24, r24
     3d4:	2c f4       	brge	.+10     	; 0x3e0 <lcd_set_4bit+0x286>
     3d6:	81 e0       	ldi	r24, 0x01	; 1
     3d8:	90 e0       	ldi	r25, 0x00	; 0
     3da:	9e a3       	std	Y+38, r25	; 0x26
     3dc:	8d a3       	std	Y+37, r24	; 0x25
     3de:	3f c0       	rjmp	.+126    	; 0x45e <lcd_set_4bit+0x304>
     3e0:	20 e0       	ldi	r18, 0x00	; 0
     3e2:	3f ef       	ldi	r19, 0xFF	; 255
     3e4:	4f e7       	ldi	r20, 0x7F	; 127
     3e6:	57 e4       	ldi	r21, 0x47	; 71
     3e8:	69 a1       	ldd	r22, Y+33	; 0x21
     3ea:	7a a1       	ldd	r23, Y+34	; 0x22
     3ec:	8b a1       	ldd	r24, Y+35	; 0x23
     3ee:	9c a1       	ldd	r25, Y+36	; 0x24
     3f0:	0e 94 0e 0c 	call	0x181c	; 0x181c <__gesf2>
     3f4:	18 16       	cp	r1, r24
     3f6:	4c f5       	brge	.+82     	; 0x44a <lcd_set_4bit+0x2f0>
     3f8:	20 e0       	ldi	r18, 0x00	; 0
     3fa:	30 e0       	ldi	r19, 0x00	; 0
     3fc:	40 e2       	ldi	r20, 0x20	; 32
     3fe:	51 e4       	ldi	r21, 0x41	; 65
     400:	6d 8d       	ldd	r22, Y+29	; 0x1d
     402:	7e 8d       	ldd	r23, Y+30	; 0x1e
     404:	8f 8d       	ldd	r24, Y+31	; 0x1f
     406:	98 a1       	ldd	r25, Y+32	; 0x20
     408:	0e 94 12 0c 	call	0x1824	; 0x1824 <__mulsf3>
     40c:	dc 01       	movw	r26, r24
     40e:	cb 01       	movw	r24, r22
     410:	bc 01       	movw	r22, r24
     412:	cd 01       	movw	r24, r26
     414:	0e 94 30 0b 	call	0x1660	; 0x1660 <__fixunssfsi>
     418:	dc 01       	movw	r26, r24
     41a:	cb 01       	movw	r24, r22
     41c:	9e a3       	std	Y+38, r25	; 0x26
     41e:	8d a3       	std	Y+37, r24	; 0x25
     420:	0f c0       	rjmp	.+30     	; 0x440 <lcd_set_4bit+0x2e6>
     422:	80 e7       	ldi	r24, 0x70	; 112
     424:	91 e0       	ldi	r25, 0x01	; 1
     426:	98 a7       	std	Y+40, r25	; 0x28
     428:	8f a3       	std	Y+39, r24	; 0x27
     42a:	8f a1       	ldd	r24, Y+39	; 0x27
     42c:	98 a5       	ldd	r25, Y+40	; 0x28
     42e:	01 97       	sbiw	r24, 0x01	; 1
     430:	f1 f7       	brne	.-4      	; 0x42e <lcd_set_4bit+0x2d4>
     432:	98 a7       	std	Y+40, r25	; 0x28
     434:	8f a3       	std	Y+39, r24	; 0x27
     436:	8d a1       	ldd	r24, Y+37	; 0x25
     438:	9e a1       	ldd	r25, Y+38	; 0x26
     43a:	01 97       	sbiw	r24, 0x01	; 1
     43c:	9e a3       	std	Y+38, r25	; 0x26
     43e:	8d a3       	std	Y+37, r24	; 0x25
     440:	8d a1       	ldd	r24, Y+37	; 0x25
     442:	9e a1       	ldd	r25, Y+38	; 0x26
     444:	00 97       	sbiw	r24, 0x00	; 0
     446:	69 f7       	brne	.-38     	; 0x422 <lcd_set_4bit+0x2c8>
     448:	14 c0       	rjmp	.+40     	; 0x472 <lcd_set_4bit+0x318>
     44a:	69 a1       	ldd	r22, Y+33	; 0x21
     44c:	7a a1       	ldd	r23, Y+34	; 0x22
     44e:	8b a1       	ldd	r24, Y+35	; 0x23
     450:	9c a1       	ldd	r25, Y+36	; 0x24
     452:	0e 94 30 0b 	call	0x1660	; 0x1660 <__fixunssfsi>
     456:	dc 01       	movw	r26, r24
     458:	cb 01       	movw	r24, r22
     45a:	9e a3       	std	Y+38, r25	; 0x26
     45c:	8d a3       	std	Y+37, r24	; 0x25
     45e:	8d a1       	ldd	r24, Y+37	; 0x25
     460:	9e a1       	ldd	r25, Y+38	; 0x26
     462:	9a a7       	std	Y+42, r25	; 0x2a
     464:	89 a7       	std	Y+41, r24	; 0x29
     466:	89 a5       	ldd	r24, Y+41	; 0x29
     468:	9a a5       	ldd	r25, Y+42	; 0x2a
     46a:	01 97       	sbiw	r24, 0x01	; 1
     46c:	f1 f7       	brne	.-4      	; 0x46a <lcd_set_4bit+0x310>
     46e:	9a a7       	std	Y+42, r25	; 0x2a
     470:	89 a7       	std	Y+41, r24	; 0x29
     472:	88 e2       	ldi	r24, 0x28	; 40
     474:	90 e0       	ldi	r25, 0x00	; 0
     476:	28 e2       	ldi	r18, 0x28	; 40
     478:	30 e0       	ldi	r19, 0x00	; 0
     47a:	f9 01       	movw	r30, r18
     47c:	20 81       	ld	r18, Z
     47e:	2e 7f       	andi	r18, 0xFE	; 254
     480:	fc 01       	movw	r30, r24
     482:	20 83       	st	Z, r18
     484:	88 e2       	ldi	r24, 0x28	; 40
     486:	90 e0       	ldi	r25, 0x00	; 0
     488:	28 e2       	ldi	r18, 0x28	; 40
     48a:	30 e0       	ldi	r19, 0x00	; 0
     48c:	f9 01       	movw	r30, r18
     48e:	20 81       	ld	r18, Z
     490:	2d 7f       	andi	r18, 0xFD	; 253
     492:	fc 01       	movw	r30, r24
     494:	20 83       	st	Z, r18
     496:	88 e2       	ldi	r24, 0x28	; 40
     498:	90 e0       	ldi	r25, 0x00	; 0
     49a:	20 e3       	ldi	r18, 0x30	; 48
     49c:	fc 01       	movw	r30, r24
     49e:	20 83       	st	Z, r18
     4a0:	88 e2       	ldi	r24, 0x28	; 40
     4a2:	90 e0       	ldi	r25, 0x00	; 0
     4a4:	28 e2       	ldi	r18, 0x28	; 40
     4a6:	30 e0       	ldi	r19, 0x00	; 0
     4a8:	f9 01       	movw	r30, r18
     4aa:	20 81       	ld	r18, Z
     4ac:	24 60       	ori	r18, 0x04	; 4
     4ae:	fc 01       	movw	r30, r24
     4b0:	20 83       	st	Z, r18
     4b2:	80 e0       	ldi	r24, 0x00	; 0
     4b4:	90 e0       	ldi	r25, 0x00	; 0
     4b6:	a0 ea       	ldi	r26, 0xA0	; 160
     4b8:	b0 e4       	ldi	r27, 0x40	; 64
     4ba:	8b a7       	std	Y+43, r24	; 0x2b
     4bc:	9c a7       	std	Y+44, r25	; 0x2c
     4be:	ad a7       	std	Y+45, r26	; 0x2d
     4c0:	be a7       	std	Y+46, r27	; 0x2e
     4c2:	26 e6       	ldi	r18, 0x66	; 102
     4c4:	36 e6       	ldi	r19, 0x66	; 102
     4c6:	46 e6       	ldi	r20, 0x66	; 102
     4c8:	55 e4       	ldi	r21, 0x45	; 69
     4ca:	6b a5       	ldd	r22, Y+43	; 0x2b
     4cc:	7c a5       	ldd	r23, Y+44	; 0x2c
     4ce:	8d a5       	ldd	r24, Y+45	; 0x2d
     4d0:	9e a5       	ldd	r25, Y+46	; 0x2e
     4d2:	0e 94 12 0c 	call	0x1824	; 0x1824 <__mulsf3>
     4d6:	dc 01       	movw	r26, r24
     4d8:	cb 01       	movw	r24, r22
     4da:	8f a7       	std	Y+47, r24	; 0x2f
     4dc:	98 ab       	std	Y+48, r25	; 0x30
     4de:	a9 ab       	std	Y+49, r26	; 0x31
     4e0:	ba ab       	std	Y+50, r27	; 0x32
     4e2:	20 e0       	ldi	r18, 0x00	; 0
     4e4:	30 e0       	ldi	r19, 0x00	; 0
     4e6:	40 e8       	ldi	r20, 0x80	; 128
     4e8:	5f e3       	ldi	r21, 0x3F	; 63
     4ea:	6f a5       	ldd	r22, Y+47	; 0x2f
     4ec:	78 a9       	ldd	r23, Y+48	; 0x30
     4ee:	89 a9       	ldd	r24, Y+49	; 0x31
     4f0:	9a a9       	ldd	r25, Y+50	; 0x32
     4f2:	0e 94 2c 0b 	call	0x1658	; 0x1658 <__cmpsf2>
     4f6:	88 23       	and	r24, r24
     4f8:	2c f4       	brge	.+10     	; 0x504 <lcd_set_4bit+0x3aa>
     4fa:	81 e0       	ldi	r24, 0x01	; 1
     4fc:	90 e0       	ldi	r25, 0x00	; 0
     4fe:	9c ab       	std	Y+52, r25	; 0x34
     500:	8b ab       	std	Y+51, r24	; 0x33
     502:	3f c0       	rjmp	.+126    	; 0x582 <lcd_set_4bit+0x428>
     504:	20 e0       	ldi	r18, 0x00	; 0
     506:	3f ef       	ldi	r19, 0xFF	; 255
     508:	4f e7       	ldi	r20, 0x7F	; 127
     50a:	57 e4       	ldi	r21, 0x47	; 71
     50c:	6f a5       	ldd	r22, Y+47	; 0x2f
     50e:	78 a9       	ldd	r23, Y+48	; 0x30
     510:	89 a9       	ldd	r24, Y+49	; 0x31
     512:	9a a9       	ldd	r25, Y+50	; 0x32
     514:	0e 94 0e 0c 	call	0x181c	; 0x181c <__gesf2>
     518:	18 16       	cp	r1, r24
     51a:	4c f5       	brge	.+82     	; 0x56e <lcd_set_4bit+0x414>
     51c:	20 e0       	ldi	r18, 0x00	; 0
     51e:	30 e0       	ldi	r19, 0x00	; 0
     520:	40 e2       	ldi	r20, 0x20	; 32
     522:	51 e4       	ldi	r21, 0x41	; 65
     524:	6b a5       	ldd	r22, Y+43	; 0x2b
     526:	7c a5       	ldd	r23, Y+44	; 0x2c
     528:	8d a5       	ldd	r24, Y+45	; 0x2d
     52a:	9e a5       	ldd	r25, Y+46	; 0x2e
     52c:	0e 94 12 0c 	call	0x1824	; 0x1824 <__mulsf3>
     530:	dc 01       	movw	r26, r24
     532:	cb 01       	movw	r24, r22
     534:	bc 01       	movw	r22, r24
     536:	cd 01       	movw	r24, r26
     538:	0e 94 30 0b 	call	0x1660	; 0x1660 <__fixunssfsi>
     53c:	dc 01       	movw	r26, r24
     53e:	cb 01       	movw	r24, r22
     540:	9c ab       	std	Y+52, r25	; 0x34
     542:	8b ab       	std	Y+51, r24	; 0x33
     544:	0f c0       	rjmp	.+30     	; 0x564 <lcd_set_4bit+0x40a>
     546:	80 e7       	ldi	r24, 0x70	; 112
     548:	91 e0       	ldi	r25, 0x01	; 1
     54a:	9e ab       	std	Y+54, r25	; 0x36
     54c:	8d ab       	std	Y+53, r24	; 0x35
     54e:	8d a9       	ldd	r24, Y+53	; 0x35
     550:	9e a9       	ldd	r25, Y+54	; 0x36
     552:	01 97       	sbiw	r24, 0x01	; 1
     554:	f1 f7       	brne	.-4      	; 0x552 <lcd_set_4bit+0x3f8>
     556:	9e ab       	std	Y+54, r25	; 0x36
     558:	8d ab       	std	Y+53, r24	; 0x35
     55a:	8b a9       	ldd	r24, Y+51	; 0x33
     55c:	9c a9       	ldd	r25, Y+52	; 0x34
     55e:	01 97       	sbiw	r24, 0x01	; 1
     560:	9c ab       	std	Y+52, r25	; 0x34
     562:	8b ab       	std	Y+51, r24	; 0x33
     564:	8b a9       	ldd	r24, Y+51	; 0x33
     566:	9c a9       	ldd	r25, Y+52	; 0x34
     568:	00 97       	sbiw	r24, 0x00	; 0
     56a:	69 f7       	brne	.-38     	; 0x546 <lcd_set_4bit+0x3ec>
     56c:	14 c0       	rjmp	.+40     	; 0x596 <lcd_set_4bit+0x43c>
     56e:	6f a5       	ldd	r22, Y+47	; 0x2f
     570:	78 a9       	ldd	r23, Y+48	; 0x30
     572:	89 a9       	ldd	r24, Y+49	; 0x31
     574:	9a a9       	ldd	r25, Y+50	; 0x32
     576:	0e 94 30 0b 	call	0x1660	; 0x1660 <__fixunssfsi>
     57a:	dc 01       	movw	r26, r24
     57c:	cb 01       	movw	r24, r22
     57e:	9c ab       	std	Y+52, r25	; 0x34
     580:	8b ab       	std	Y+51, r24	; 0x33
     582:	8b a9       	ldd	r24, Y+51	; 0x33
     584:	9c a9       	ldd	r25, Y+52	; 0x34
     586:	98 af       	std	Y+56, r25	; 0x38
     588:	8f ab       	std	Y+55, r24	; 0x37
     58a:	8f a9       	ldd	r24, Y+55	; 0x37
     58c:	98 ad       	ldd	r25, Y+56	; 0x38
     58e:	01 97       	sbiw	r24, 0x01	; 1
     590:	f1 f7       	brne	.-4      	; 0x58e <lcd_set_4bit+0x434>
     592:	98 af       	std	Y+56, r25	; 0x38
     594:	8f ab       	std	Y+55, r24	; 0x37
     596:	88 e2       	ldi	r24, 0x28	; 40
     598:	90 e0       	ldi	r25, 0x00	; 0
     59a:	28 e2       	ldi	r18, 0x28	; 40
     59c:	30 e0       	ldi	r19, 0x00	; 0
     59e:	f9 01       	movw	r30, r18
     5a0:	20 81       	ld	r18, Z
     5a2:	2b 7f       	andi	r18, 0xFB	; 251
     5a4:	fc 01       	movw	r30, r24
     5a6:	20 83       	st	Z, r18
     5a8:	80 e0       	ldi	r24, 0x00	; 0
     5aa:	90 e0       	ldi	r25, 0x00	; 0
     5ac:	a0 e8       	ldi	r26, 0x80	; 128
     5ae:	bf e3       	ldi	r27, 0x3F	; 63
     5b0:	89 af       	std	Y+57, r24	; 0x39
     5b2:	9a af       	std	Y+58, r25	; 0x3a
     5b4:	ab af       	std	Y+59, r26	; 0x3b
     5b6:	bc af       	std	Y+60, r27	; 0x3c
     5b8:	26 e6       	ldi	r18, 0x66	; 102
     5ba:	36 e6       	ldi	r19, 0x66	; 102
     5bc:	46 e6       	ldi	r20, 0x66	; 102
     5be:	55 e4       	ldi	r21, 0x45	; 69
     5c0:	69 ad       	ldd	r22, Y+57	; 0x39
     5c2:	7a ad       	ldd	r23, Y+58	; 0x3a
     5c4:	8b ad       	ldd	r24, Y+59	; 0x3b
     5c6:	9c ad       	ldd	r25, Y+60	; 0x3c
     5c8:	0e 94 12 0c 	call	0x1824	; 0x1824 <__mulsf3>
     5cc:	dc 01       	movw	r26, r24
     5ce:	cb 01       	movw	r24, r22
     5d0:	9e 01       	movw	r18, r28
     5d2:	23 5c       	subi	r18, 0xC3	; 195
     5d4:	3f 4f       	sbci	r19, 0xFF	; 255
     5d6:	f9 01       	movw	r30, r18
     5d8:	80 83       	st	Z, r24
     5da:	91 83       	std	Z+1, r25	; 0x01
     5dc:	a2 83       	std	Z+2, r26	; 0x02
     5de:	b3 83       	std	Z+3, r27	; 0x03
     5e0:	20 e0       	ldi	r18, 0x00	; 0
     5e2:	30 e0       	ldi	r19, 0x00	; 0
     5e4:	40 e8       	ldi	r20, 0x80	; 128
     5e6:	5f e3       	ldi	r21, 0x3F	; 63
     5e8:	ce 01       	movw	r24, r28
     5ea:	cd 96       	adiw	r24, 0x3d	; 61
     5ec:	fc 01       	movw	r30, r24
     5ee:	60 81       	ld	r22, Z
     5f0:	71 81       	ldd	r23, Z+1	; 0x01
     5f2:	82 81       	ldd	r24, Z+2	; 0x02
     5f4:	93 81       	ldd	r25, Z+3	; 0x03
     5f6:	0e 94 2c 0b 	call	0x1658	; 0x1658 <__cmpsf2>
     5fa:	88 23       	and	r24, r24
     5fc:	4c f4       	brge	.+18     	; 0x610 <lcd_set_4bit+0x4b6>
     5fe:	ce 01       	movw	r24, r28
     600:	8f 5b       	subi	r24, 0xBF	; 191
     602:	9f 4f       	sbci	r25, 0xFF	; 255
     604:	21 e0       	ldi	r18, 0x01	; 1
     606:	30 e0       	ldi	r19, 0x00	; 0
     608:	fc 01       	movw	r30, r24
     60a:	31 83       	std	Z+1, r19	; 0x01
     60c:	20 83       	st	Z, r18
     60e:	66 c0       	rjmp	.+204    	; 0x6dc <lcd_set_4bit+0x582>
     610:	20 e0       	ldi	r18, 0x00	; 0
     612:	3f ef       	ldi	r19, 0xFF	; 255
     614:	4f e7       	ldi	r20, 0x7F	; 127
     616:	57 e4       	ldi	r21, 0x47	; 71
     618:	ce 01       	movw	r24, r28
     61a:	cd 96       	adiw	r24, 0x3d	; 61
     61c:	fc 01       	movw	r30, r24
     61e:	60 81       	ld	r22, Z
     620:	71 81       	ldd	r23, Z+1	; 0x01
     622:	82 81       	ldd	r24, Z+2	; 0x02
     624:	93 81       	ldd	r25, Z+3	; 0x03
     626:	0e 94 0e 0c 	call	0x181c	; 0x181c <__gesf2>
     62a:	18 16       	cp	r1, r24
     62c:	0c f0       	brlt	.+2      	; 0x630 <lcd_set_4bit+0x4d6>
     62e:	46 c0       	rjmp	.+140    	; 0x6bc <lcd_set_4bit+0x562>
     630:	20 e0       	ldi	r18, 0x00	; 0
     632:	30 e0       	ldi	r19, 0x00	; 0
     634:	40 e2       	ldi	r20, 0x20	; 32
     636:	51 e4       	ldi	r21, 0x41	; 65
     638:	69 ad       	ldd	r22, Y+57	; 0x39
     63a:	7a ad       	ldd	r23, Y+58	; 0x3a
     63c:	8b ad       	ldd	r24, Y+59	; 0x3b
     63e:	9c ad       	ldd	r25, Y+60	; 0x3c
     640:	0e 94 12 0c 	call	0x1824	; 0x1824 <__mulsf3>
     644:	dc 01       	movw	r26, r24
     646:	cb 01       	movw	r24, r22
     648:	8e 01       	movw	r16, r28
     64a:	0f 5b       	subi	r16, 0xBF	; 191
     64c:	1f 4f       	sbci	r17, 0xFF	; 255
     64e:	bc 01       	movw	r22, r24
     650:	cd 01       	movw	r24, r26
     652:	0e 94 30 0b 	call	0x1660	; 0x1660 <__fixunssfsi>
     656:	dc 01       	movw	r26, r24
     658:	cb 01       	movw	r24, r22
     65a:	f8 01       	movw	r30, r16
     65c:	91 83       	std	Z+1, r25	; 0x01
     65e:	80 83       	st	Z, r24
     660:	24 c0       	rjmp	.+72     	; 0x6aa <lcd_set_4bit+0x550>
     662:	ce 01       	movw	r24, r28
     664:	8d 5b       	subi	r24, 0xBD	; 189
     666:	9f 4f       	sbci	r25, 0xFF	; 255
     668:	20 e7       	ldi	r18, 0x70	; 112
     66a:	31 e0       	ldi	r19, 0x01	; 1
     66c:	fc 01       	movw	r30, r24
     66e:	31 83       	std	Z+1, r19	; 0x01
     670:	20 83       	st	Z, r18
     672:	ce 01       	movw	r24, r28
     674:	8d 5b       	subi	r24, 0xBD	; 189
     676:	9f 4f       	sbci	r25, 0xFF	; 255
     678:	fc 01       	movw	r30, r24
     67a:	80 81       	ld	r24, Z
     67c:	91 81       	ldd	r25, Z+1	; 0x01
     67e:	01 97       	sbiw	r24, 0x01	; 1
     680:	f1 f7       	brne	.-4      	; 0x67e <lcd_set_4bit+0x524>
     682:	9e 01       	movw	r18, r28
     684:	2d 5b       	subi	r18, 0xBD	; 189
     686:	3f 4f       	sbci	r19, 0xFF	; 255
     688:	f9 01       	movw	r30, r18
     68a:	91 83       	std	Z+1, r25	; 0x01
     68c:	80 83       	st	Z, r24
     68e:	ce 01       	movw	r24, r28
     690:	8f 5b       	subi	r24, 0xBF	; 191
     692:	9f 4f       	sbci	r25, 0xFF	; 255
     694:	9e 01       	movw	r18, r28
     696:	2f 5b       	subi	r18, 0xBF	; 191
     698:	3f 4f       	sbci	r19, 0xFF	; 255
     69a:	f9 01       	movw	r30, r18
     69c:	20 81       	ld	r18, Z
     69e:	31 81       	ldd	r19, Z+1	; 0x01
     6a0:	21 50       	subi	r18, 0x01	; 1
     6a2:	31 09       	sbc	r19, r1
     6a4:	fc 01       	movw	r30, r24
     6a6:	31 83       	std	Z+1, r19	; 0x01
     6a8:	20 83       	st	Z, r18
     6aa:	ce 01       	movw	r24, r28
     6ac:	8f 5b       	subi	r24, 0xBF	; 191
     6ae:	9f 4f       	sbci	r25, 0xFF	; 255
     6b0:	fc 01       	movw	r30, r24
     6b2:	80 81       	ld	r24, Z
     6b4:	91 81       	ldd	r25, Z+1	; 0x01
     6b6:	00 97       	sbiw	r24, 0x00	; 0
     6b8:	a1 f6       	brne	.-88     	; 0x662 <lcd_set_4bit+0x508>
     6ba:	2a c0       	rjmp	.+84     	; 0x710 <lcd_set_4bit+0x5b6>
     6bc:	8e 01       	movw	r16, r28
     6be:	0f 5b       	subi	r16, 0xBF	; 191
     6c0:	1f 4f       	sbci	r17, 0xFF	; 255
     6c2:	ce 01       	movw	r24, r28
     6c4:	cd 96       	adiw	r24, 0x3d	; 61
     6c6:	fc 01       	movw	r30, r24
     6c8:	60 81       	ld	r22, Z
     6ca:	71 81       	ldd	r23, Z+1	; 0x01
     6cc:	82 81       	ldd	r24, Z+2	; 0x02
     6ce:	93 81       	ldd	r25, Z+3	; 0x03
     6d0:	c7 d7       	rcall	.+3982   	; 0x1660 <__fixunssfsi>
     6d2:	dc 01       	movw	r26, r24
     6d4:	cb 01       	movw	r24, r22
     6d6:	f8 01       	movw	r30, r16
     6d8:	91 83       	std	Z+1, r25	; 0x01
     6da:	80 83       	st	Z, r24
     6dc:	ce 01       	movw	r24, r28
     6de:	8b 5b       	subi	r24, 0xBB	; 187
     6e0:	9f 4f       	sbci	r25, 0xFF	; 255
     6e2:	9e 01       	movw	r18, r28
     6e4:	2f 5b       	subi	r18, 0xBF	; 191
     6e6:	3f 4f       	sbci	r19, 0xFF	; 255
     6e8:	f9 01       	movw	r30, r18
     6ea:	20 81       	ld	r18, Z
     6ec:	31 81       	ldd	r19, Z+1	; 0x01
     6ee:	fc 01       	movw	r30, r24
     6f0:	31 83       	std	Z+1, r19	; 0x01
     6f2:	20 83       	st	Z, r18
     6f4:	ce 01       	movw	r24, r28
     6f6:	8b 5b       	subi	r24, 0xBB	; 187
     6f8:	9f 4f       	sbci	r25, 0xFF	; 255
     6fa:	fc 01       	movw	r30, r24
     6fc:	80 81       	ld	r24, Z
     6fe:	91 81       	ldd	r25, Z+1	; 0x01
     700:	01 97       	sbiw	r24, 0x01	; 1
     702:	f1 f7       	brne	.-4      	; 0x700 <lcd_set_4bit+0x5a6>
     704:	9e 01       	movw	r18, r28
     706:	2b 5b       	subi	r18, 0xBB	; 187
     708:	3f 4f       	sbci	r19, 0xFF	; 255
     70a:	f9 01       	movw	r30, r18
     70c:	91 83       	std	Z+1, r25	; 0x01
     70e:	80 83       	st	Z, r24
     710:	88 e2       	ldi	r24, 0x28	; 40
     712:	90 e0       	ldi	r25, 0x00	; 0
     714:	28 e2       	ldi	r18, 0x28	; 40
     716:	30 e0       	ldi	r19, 0x00	; 0
     718:	f9 01       	movw	r30, r18
     71a:	20 81       	ld	r18, Z
     71c:	2e 7f       	andi	r18, 0xFE	; 254
     71e:	fc 01       	movw	r30, r24
     720:	20 83       	st	Z, r18
     722:	88 e2       	ldi	r24, 0x28	; 40
     724:	90 e0       	ldi	r25, 0x00	; 0
     726:	28 e2       	ldi	r18, 0x28	; 40
     728:	30 e0       	ldi	r19, 0x00	; 0
     72a:	f9 01       	movw	r30, r18
     72c:	20 81       	ld	r18, Z
     72e:	2d 7f       	andi	r18, 0xFD	; 253
     730:	fc 01       	movw	r30, r24
     732:	20 83       	st	Z, r18
     734:	88 e2       	ldi	r24, 0x28	; 40
     736:	90 e0       	ldi	r25, 0x00	; 0
     738:	20 e3       	ldi	r18, 0x30	; 48
     73a:	fc 01       	movw	r30, r24
     73c:	20 83       	st	Z, r18
     73e:	88 e2       	ldi	r24, 0x28	; 40
     740:	90 e0       	ldi	r25, 0x00	; 0
     742:	28 e2       	ldi	r18, 0x28	; 40
     744:	30 e0       	ldi	r19, 0x00	; 0
     746:	f9 01       	movw	r30, r18
     748:	20 81       	ld	r18, Z
     74a:	24 60       	ori	r18, 0x04	; 4
     74c:	fc 01       	movw	r30, r24
     74e:	20 83       	st	Z, r18
     750:	9e 01       	movw	r18, r28
     752:	29 5b       	subi	r18, 0xB9	; 185
     754:	3f 4f       	sbci	r19, 0xFF	; 255
     756:	80 e0       	ldi	r24, 0x00	; 0
     758:	90 e0       	ldi	r25, 0x00	; 0
     75a:	a0 ea       	ldi	r26, 0xA0	; 160
     75c:	b0 e4       	ldi	r27, 0x40	; 64
     75e:	f9 01       	movw	r30, r18
     760:	80 83       	st	Z, r24
     762:	91 83       	std	Z+1, r25	; 0x01
     764:	a2 83       	std	Z+2, r26	; 0x02
     766:	b3 83       	std	Z+3, r27	; 0x03
     768:	8e 01       	movw	r16, r28
     76a:	05 5b       	subi	r16, 0xB5	; 181
     76c:	1f 4f       	sbci	r17, 0xFF	; 255
     76e:	ce 01       	movw	r24, r28
     770:	89 5b       	subi	r24, 0xB9	; 185
     772:	9f 4f       	sbci	r25, 0xFF	; 255
     774:	26 e6       	ldi	r18, 0x66	; 102
     776:	36 e6       	ldi	r19, 0x66	; 102
     778:	46 e6       	ldi	r20, 0x66	; 102
     77a:	55 e4       	ldi	r21, 0x45	; 69
     77c:	fc 01       	movw	r30, r24
     77e:	60 81       	ld	r22, Z
     780:	71 81       	ldd	r23, Z+1	; 0x01
     782:	82 81       	ldd	r24, Z+2	; 0x02
     784:	93 81       	ldd	r25, Z+3	; 0x03
     786:	0e 94 12 0c 	call	0x1824	; 0x1824 <__mulsf3>
     78a:	dc 01       	movw	r26, r24
     78c:	cb 01       	movw	r24, r22
     78e:	f8 01       	movw	r30, r16
     790:	80 83       	st	Z, r24
     792:	91 83       	std	Z+1, r25	; 0x01
     794:	a2 83       	std	Z+2, r26	; 0x02
     796:	b3 83       	std	Z+3, r27	; 0x03
     798:	ce 01       	movw	r24, r28
     79a:	85 5b       	subi	r24, 0xB5	; 181
     79c:	9f 4f       	sbci	r25, 0xFF	; 255
     79e:	20 e0       	ldi	r18, 0x00	; 0
     7a0:	30 e0       	ldi	r19, 0x00	; 0
     7a2:	40 e8       	ldi	r20, 0x80	; 128
     7a4:	5f e3       	ldi	r21, 0x3F	; 63
     7a6:	fc 01       	movw	r30, r24
     7a8:	60 81       	ld	r22, Z
     7aa:	71 81       	ldd	r23, Z+1	; 0x01
     7ac:	82 81       	ldd	r24, Z+2	; 0x02
     7ae:	93 81       	ldd	r25, Z+3	; 0x03
     7b0:	53 d7       	rcall	.+3750   	; 0x1658 <__cmpsf2>
     7b2:	88 23       	and	r24, r24
     7b4:	4c f4       	brge	.+18     	; 0x7c8 <lcd_set_4bit+0x66e>
     7b6:	ce 01       	movw	r24, r28
     7b8:	81 5b       	subi	r24, 0xB1	; 177
     7ba:	9f 4f       	sbci	r25, 0xFF	; 255
     7bc:	21 e0       	ldi	r18, 0x01	; 1
     7be:	30 e0       	ldi	r19, 0x00	; 0
     7c0:	fc 01       	movw	r30, r24
     7c2:	31 83       	std	Z+1, r19	; 0x01
     7c4:	20 83       	st	Z, r18
     7c6:	6b c0       	rjmp	.+214    	; 0x89e <lcd_set_4bit+0x744>
     7c8:	ce 01       	movw	r24, r28
     7ca:	85 5b       	subi	r24, 0xB5	; 181
     7cc:	9f 4f       	sbci	r25, 0xFF	; 255
     7ce:	20 e0       	ldi	r18, 0x00	; 0
     7d0:	3f ef       	ldi	r19, 0xFF	; 255
     7d2:	4f e7       	ldi	r20, 0x7F	; 127
     7d4:	57 e4       	ldi	r21, 0x47	; 71
     7d6:	fc 01       	movw	r30, r24
     7d8:	60 81       	ld	r22, Z
     7da:	71 81       	ldd	r23, Z+1	; 0x01
     7dc:	82 81       	ldd	r24, Z+2	; 0x02
     7de:	93 81       	ldd	r25, Z+3	; 0x03
     7e0:	0e 94 0e 0c 	call	0x181c	; 0x181c <__gesf2>
     7e4:	18 16       	cp	r1, r24
     7e6:	0c f0       	brlt	.+2      	; 0x7ea <lcd_set_4bit+0x690>
     7e8:	49 c0       	rjmp	.+146    	; 0x87c <lcd_set_4bit+0x722>
     7ea:	ce 01       	movw	r24, r28
     7ec:	89 5b       	subi	r24, 0xB9	; 185
     7ee:	9f 4f       	sbci	r25, 0xFF	; 255
     7f0:	20 e0       	ldi	r18, 0x00	; 0
     7f2:	30 e0       	ldi	r19, 0x00	; 0
     7f4:	40 e2       	ldi	r20, 0x20	; 32
     7f6:	51 e4       	ldi	r21, 0x41	; 65
     7f8:	fc 01       	movw	r30, r24
     7fa:	60 81       	ld	r22, Z
     7fc:	71 81       	ldd	r23, Z+1	; 0x01
     7fe:	82 81       	ldd	r24, Z+2	; 0x02
     800:	93 81       	ldd	r25, Z+3	; 0x03
     802:	0e 94 12 0c 	call	0x1824	; 0x1824 <__mulsf3>
     806:	dc 01       	movw	r26, r24
     808:	cb 01       	movw	r24, r22
     80a:	8e 01       	movw	r16, r28
     80c:	01 5b       	subi	r16, 0xB1	; 177
     80e:	1f 4f       	sbci	r17, 0xFF	; 255
     810:	bc 01       	movw	r22, r24
     812:	cd 01       	movw	r24, r26
     814:	25 d7       	rcall	.+3658   	; 0x1660 <__fixunssfsi>
     816:	dc 01       	movw	r26, r24
     818:	cb 01       	movw	r24, r22
     81a:	f8 01       	movw	r30, r16
     81c:	91 83       	std	Z+1, r25	; 0x01
     81e:	80 83       	st	Z, r24
     820:	24 c0       	rjmp	.+72     	; 0x86a <lcd_set_4bit+0x710>
     822:	ce 01       	movw	r24, r28
     824:	8f 5a       	subi	r24, 0xAF	; 175
     826:	9f 4f       	sbci	r25, 0xFF	; 255
     828:	20 e7       	ldi	r18, 0x70	; 112
     82a:	31 e0       	ldi	r19, 0x01	; 1
     82c:	fc 01       	movw	r30, r24
     82e:	31 83       	std	Z+1, r19	; 0x01
     830:	20 83       	st	Z, r18
     832:	ce 01       	movw	r24, r28
     834:	8f 5a       	subi	r24, 0xAF	; 175
     836:	9f 4f       	sbci	r25, 0xFF	; 255
     838:	fc 01       	movw	r30, r24
     83a:	80 81       	ld	r24, Z
     83c:	91 81       	ldd	r25, Z+1	; 0x01
     83e:	01 97       	sbiw	r24, 0x01	; 1
     840:	f1 f7       	brne	.-4      	; 0x83e <lcd_set_4bit+0x6e4>
     842:	9e 01       	movw	r18, r28
     844:	2f 5a       	subi	r18, 0xAF	; 175
     846:	3f 4f       	sbci	r19, 0xFF	; 255
     848:	f9 01       	movw	r30, r18
     84a:	91 83       	std	Z+1, r25	; 0x01
     84c:	80 83       	st	Z, r24
     84e:	ce 01       	movw	r24, r28
     850:	81 5b       	subi	r24, 0xB1	; 177
     852:	9f 4f       	sbci	r25, 0xFF	; 255
     854:	9e 01       	movw	r18, r28
     856:	21 5b       	subi	r18, 0xB1	; 177
     858:	3f 4f       	sbci	r19, 0xFF	; 255
     85a:	f9 01       	movw	r30, r18
     85c:	20 81       	ld	r18, Z
     85e:	31 81       	ldd	r19, Z+1	; 0x01
     860:	21 50       	subi	r18, 0x01	; 1
     862:	31 09       	sbc	r19, r1
     864:	fc 01       	movw	r30, r24
     866:	31 83       	std	Z+1, r19	; 0x01
     868:	20 83       	st	Z, r18
     86a:	ce 01       	movw	r24, r28
     86c:	81 5b       	subi	r24, 0xB1	; 177
     86e:	9f 4f       	sbci	r25, 0xFF	; 255
     870:	fc 01       	movw	r30, r24
     872:	80 81       	ld	r24, Z
     874:	91 81       	ldd	r25, Z+1	; 0x01
     876:	00 97       	sbiw	r24, 0x00	; 0
     878:	a1 f6       	brne	.-88     	; 0x822 <lcd_set_4bit+0x6c8>
     87a:	2b c0       	rjmp	.+86     	; 0x8d2 <lcd_set_4bit+0x778>
     87c:	8e 01       	movw	r16, r28
     87e:	01 5b       	subi	r16, 0xB1	; 177
     880:	1f 4f       	sbci	r17, 0xFF	; 255
     882:	ce 01       	movw	r24, r28
     884:	85 5b       	subi	r24, 0xB5	; 181
     886:	9f 4f       	sbci	r25, 0xFF	; 255
     888:	fc 01       	movw	r30, r24
     88a:	60 81       	ld	r22, Z
     88c:	71 81       	ldd	r23, Z+1	; 0x01
     88e:	82 81       	ldd	r24, Z+2	; 0x02
     890:	93 81       	ldd	r25, Z+3	; 0x03
     892:	e6 d6       	rcall	.+3532   	; 0x1660 <__fixunssfsi>
     894:	dc 01       	movw	r26, r24
     896:	cb 01       	movw	r24, r22
     898:	f8 01       	movw	r30, r16
     89a:	91 83       	std	Z+1, r25	; 0x01
     89c:	80 83       	st	Z, r24
     89e:	ce 01       	movw	r24, r28
     8a0:	8d 5a       	subi	r24, 0xAD	; 173
     8a2:	9f 4f       	sbci	r25, 0xFF	; 255
     8a4:	9e 01       	movw	r18, r28
     8a6:	21 5b       	subi	r18, 0xB1	; 177
     8a8:	3f 4f       	sbci	r19, 0xFF	; 255
     8aa:	f9 01       	movw	r30, r18
     8ac:	20 81       	ld	r18, Z
     8ae:	31 81       	ldd	r19, Z+1	; 0x01
     8b0:	fc 01       	movw	r30, r24
     8b2:	31 83       	std	Z+1, r19	; 0x01
     8b4:	20 83       	st	Z, r18
     8b6:	ce 01       	movw	r24, r28
     8b8:	8d 5a       	subi	r24, 0xAD	; 173
     8ba:	9f 4f       	sbci	r25, 0xFF	; 255
     8bc:	fc 01       	movw	r30, r24
     8be:	80 81       	ld	r24, Z
     8c0:	91 81       	ldd	r25, Z+1	; 0x01
     8c2:	01 97       	sbiw	r24, 0x01	; 1
     8c4:	f1 f7       	brne	.-4      	; 0x8c2 <lcd_set_4bit+0x768>
     8c6:	9e 01       	movw	r18, r28
     8c8:	2d 5a       	subi	r18, 0xAD	; 173
     8ca:	3f 4f       	sbci	r19, 0xFF	; 255
     8cc:	f9 01       	movw	r30, r18
     8ce:	91 83       	std	Z+1, r25	; 0x01
     8d0:	80 83       	st	Z, r24
     8d2:	88 e2       	ldi	r24, 0x28	; 40
     8d4:	90 e0       	ldi	r25, 0x00	; 0
     8d6:	28 e2       	ldi	r18, 0x28	; 40
     8d8:	30 e0       	ldi	r19, 0x00	; 0
     8da:	f9 01       	movw	r30, r18
     8dc:	20 81       	ld	r18, Z
     8de:	2b 7f       	andi	r18, 0xFB	; 251
     8e0:	fc 01       	movw	r30, r24
     8e2:	20 83       	st	Z, r18
     8e4:	9e 01       	movw	r18, r28
     8e6:	2b 5a       	subi	r18, 0xAB	; 171
     8e8:	3f 4f       	sbci	r19, 0xFF	; 255
     8ea:	80 e0       	ldi	r24, 0x00	; 0
     8ec:	90 e0       	ldi	r25, 0x00	; 0
     8ee:	a0 e8       	ldi	r26, 0x80	; 128
     8f0:	bf e3       	ldi	r27, 0x3F	; 63
     8f2:	f9 01       	movw	r30, r18
     8f4:	80 83       	st	Z, r24
     8f6:	91 83       	std	Z+1, r25	; 0x01
     8f8:	a2 83       	std	Z+2, r26	; 0x02
     8fa:	b3 83       	std	Z+3, r27	; 0x03
     8fc:	8e 01       	movw	r16, r28
     8fe:	07 5a       	subi	r16, 0xA7	; 167
     900:	1f 4f       	sbci	r17, 0xFF	; 255
     902:	ce 01       	movw	r24, r28
     904:	8b 5a       	subi	r24, 0xAB	; 171
     906:	9f 4f       	sbci	r25, 0xFF	; 255
     908:	26 e6       	ldi	r18, 0x66	; 102
     90a:	36 e6       	ldi	r19, 0x66	; 102
     90c:	46 e6       	ldi	r20, 0x66	; 102
     90e:	55 e4       	ldi	r21, 0x45	; 69
     910:	fc 01       	movw	r30, r24
     912:	60 81       	ld	r22, Z
     914:	71 81       	ldd	r23, Z+1	; 0x01
     916:	82 81       	ldd	r24, Z+2	; 0x02
     918:	93 81       	ldd	r25, Z+3	; 0x03
     91a:	84 d7       	rcall	.+3848   	; 0x1824 <__mulsf3>
     91c:	dc 01       	movw	r26, r24
     91e:	cb 01       	movw	r24, r22
     920:	f8 01       	movw	r30, r16
     922:	80 83       	st	Z, r24
     924:	91 83       	std	Z+1, r25	; 0x01
     926:	a2 83       	std	Z+2, r26	; 0x02
     928:	b3 83       	std	Z+3, r27	; 0x03
     92a:	ce 01       	movw	r24, r28
     92c:	87 5a       	subi	r24, 0xA7	; 167
     92e:	9f 4f       	sbci	r25, 0xFF	; 255
     930:	20 e0       	ldi	r18, 0x00	; 0
     932:	30 e0       	ldi	r19, 0x00	; 0
     934:	40 e8       	ldi	r20, 0x80	; 128
     936:	5f e3       	ldi	r21, 0x3F	; 63
     938:	fc 01       	movw	r30, r24
     93a:	60 81       	ld	r22, Z
     93c:	71 81       	ldd	r23, Z+1	; 0x01
     93e:	82 81       	ldd	r24, Z+2	; 0x02
     940:	93 81       	ldd	r25, Z+3	; 0x03
     942:	8a d6       	rcall	.+3348   	; 0x1658 <__cmpsf2>
     944:	88 23       	and	r24, r24
     946:	4c f4       	brge	.+18     	; 0x95a <lcd_set_4bit+0x800>
     948:	ce 01       	movw	r24, r28
     94a:	83 5a       	subi	r24, 0xA3	; 163
     94c:	9f 4f       	sbci	r25, 0xFF	; 255
     94e:	21 e0       	ldi	r18, 0x01	; 1
     950:	30 e0       	ldi	r19, 0x00	; 0
     952:	fc 01       	movw	r30, r24
     954:	31 83       	std	Z+1, r19	; 0x01
     956:	20 83       	st	Z, r18
     958:	69 c0       	rjmp	.+210    	; 0xa2c <lcd_set_4bit+0x8d2>
     95a:	ce 01       	movw	r24, r28
     95c:	87 5a       	subi	r24, 0xA7	; 167
     95e:	9f 4f       	sbci	r25, 0xFF	; 255
     960:	20 e0       	ldi	r18, 0x00	; 0
     962:	3f ef       	ldi	r19, 0xFF	; 255
     964:	4f e7       	ldi	r20, 0x7F	; 127
     966:	57 e4       	ldi	r21, 0x47	; 71
     968:	fc 01       	movw	r30, r24
     96a:	60 81       	ld	r22, Z
     96c:	71 81       	ldd	r23, Z+1	; 0x01
     96e:	82 81       	ldd	r24, Z+2	; 0x02
     970:	93 81       	ldd	r25, Z+3	; 0x03
     972:	54 d7       	rcall	.+3752   	; 0x181c <__gesf2>
     974:	18 16       	cp	r1, r24
     976:	0c f0       	brlt	.+2      	; 0x97a <lcd_set_4bit+0x820>
     978:	48 c0       	rjmp	.+144    	; 0xa0a <lcd_set_4bit+0x8b0>
     97a:	ce 01       	movw	r24, r28
     97c:	8b 5a       	subi	r24, 0xAB	; 171
     97e:	9f 4f       	sbci	r25, 0xFF	; 255
     980:	20 e0       	ldi	r18, 0x00	; 0
     982:	30 e0       	ldi	r19, 0x00	; 0
     984:	40 e2       	ldi	r20, 0x20	; 32
     986:	51 e4       	ldi	r21, 0x41	; 65
     988:	fc 01       	movw	r30, r24
     98a:	60 81       	ld	r22, Z
     98c:	71 81       	ldd	r23, Z+1	; 0x01
     98e:	82 81       	ldd	r24, Z+2	; 0x02
     990:	93 81       	ldd	r25, Z+3	; 0x03
     992:	48 d7       	rcall	.+3728   	; 0x1824 <__mulsf3>
     994:	dc 01       	movw	r26, r24
     996:	cb 01       	movw	r24, r22
     998:	8e 01       	movw	r16, r28
     99a:	03 5a       	subi	r16, 0xA3	; 163
     99c:	1f 4f       	sbci	r17, 0xFF	; 255
     99e:	bc 01       	movw	r22, r24
     9a0:	cd 01       	movw	r24, r26
     9a2:	5e d6       	rcall	.+3260   	; 0x1660 <__fixunssfsi>
     9a4:	dc 01       	movw	r26, r24
     9a6:	cb 01       	movw	r24, r22
     9a8:	f8 01       	movw	r30, r16
     9aa:	91 83       	std	Z+1, r25	; 0x01
     9ac:	80 83       	st	Z, r24
     9ae:	24 c0       	rjmp	.+72     	; 0x9f8 <lcd_set_4bit+0x89e>
     9b0:	ce 01       	movw	r24, r28
     9b2:	81 5a       	subi	r24, 0xA1	; 161
     9b4:	9f 4f       	sbci	r25, 0xFF	; 255
     9b6:	20 e7       	ldi	r18, 0x70	; 112
     9b8:	31 e0       	ldi	r19, 0x01	; 1
     9ba:	fc 01       	movw	r30, r24
     9bc:	31 83       	std	Z+1, r19	; 0x01
     9be:	20 83       	st	Z, r18
     9c0:	ce 01       	movw	r24, r28
     9c2:	81 5a       	subi	r24, 0xA1	; 161
     9c4:	9f 4f       	sbci	r25, 0xFF	; 255
     9c6:	fc 01       	movw	r30, r24
     9c8:	80 81       	ld	r24, Z
     9ca:	91 81       	ldd	r25, Z+1	; 0x01
     9cc:	01 97       	sbiw	r24, 0x01	; 1
     9ce:	f1 f7       	brne	.-4      	; 0x9cc <lcd_set_4bit+0x872>
     9d0:	9e 01       	movw	r18, r28
     9d2:	21 5a       	subi	r18, 0xA1	; 161
     9d4:	3f 4f       	sbci	r19, 0xFF	; 255
     9d6:	f9 01       	movw	r30, r18
     9d8:	91 83       	std	Z+1, r25	; 0x01
     9da:	80 83       	st	Z, r24
     9dc:	ce 01       	movw	r24, r28
     9de:	83 5a       	subi	r24, 0xA3	; 163
     9e0:	9f 4f       	sbci	r25, 0xFF	; 255
     9e2:	9e 01       	movw	r18, r28
     9e4:	23 5a       	subi	r18, 0xA3	; 163
     9e6:	3f 4f       	sbci	r19, 0xFF	; 255
     9e8:	f9 01       	movw	r30, r18
     9ea:	20 81       	ld	r18, Z
     9ec:	31 81       	ldd	r19, Z+1	; 0x01
     9ee:	21 50       	subi	r18, 0x01	; 1
     9f0:	31 09       	sbc	r19, r1
     9f2:	fc 01       	movw	r30, r24
     9f4:	31 83       	std	Z+1, r19	; 0x01
     9f6:	20 83       	st	Z, r18
     9f8:	ce 01       	movw	r24, r28
     9fa:	83 5a       	subi	r24, 0xA3	; 163
     9fc:	9f 4f       	sbci	r25, 0xFF	; 255
     9fe:	fc 01       	movw	r30, r24
     a00:	80 81       	ld	r24, Z
     a02:	91 81       	ldd	r25, Z+1	; 0x01
     a04:	00 97       	sbiw	r24, 0x00	; 0
     a06:	a1 f6       	brne	.-88     	; 0x9b0 <lcd_set_4bit+0x856>
     a08:	2b c0       	rjmp	.+86     	; 0xa60 <lcd_set_4bit+0x906>
     a0a:	8e 01       	movw	r16, r28
     a0c:	03 5a       	subi	r16, 0xA3	; 163
     a0e:	1f 4f       	sbci	r17, 0xFF	; 255
     a10:	ce 01       	movw	r24, r28
     a12:	87 5a       	subi	r24, 0xA7	; 167
     a14:	9f 4f       	sbci	r25, 0xFF	; 255
     a16:	fc 01       	movw	r30, r24
     a18:	60 81       	ld	r22, Z
     a1a:	71 81       	ldd	r23, Z+1	; 0x01
     a1c:	82 81       	ldd	r24, Z+2	; 0x02
     a1e:	93 81       	ldd	r25, Z+3	; 0x03
     a20:	1f d6       	rcall	.+3134   	; 0x1660 <__fixunssfsi>
     a22:	dc 01       	movw	r26, r24
     a24:	cb 01       	movw	r24, r22
     a26:	f8 01       	movw	r30, r16
     a28:	91 83       	std	Z+1, r25	; 0x01
     a2a:	80 83       	st	Z, r24
     a2c:	ce 01       	movw	r24, r28
     a2e:	8f 59       	subi	r24, 0x9F	; 159
     a30:	9f 4f       	sbci	r25, 0xFF	; 255
     a32:	9e 01       	movw	r18, r28
     a34:	23 5a       	subi	r18, 0xA3	; 163
     a36:	3f 4f       	sbci	r19, 0xFF	; 255
     a38:	f9 01       	movw	r30, r18
     a3a:	20 81       	ld	r18, Z
     a3c:	31 81       	ldd	r19, Z+1	; 0x01
     a3e:	fc 01       	movw	r30, r24
     a40:	31 83       	std	Z+1, r19	; 0x01
     a42:	20 83       	st	Z, r18
     a44:	ce 01       	movw	r24, r28
     a46:	8f 59       	subi	r24, 0x9F	; 159
     a48:	9f 4f       	sbci	r25, 0xFF	; 255
     a4a:	fc 01       	movw	r30, r24
     a4c:	80 81       	ld	r24, Z
     a4e:	91 81       	ldd	r25, Z+1	; 0x01
     a50:	01 97       	sbiw	r24, 0x01	; 1
     a52:	f1 f7       	brne	.-4      	; 0xa50 <lcd_set_4bit+0x8f6>
     a54:	9e 01       	movw	r18, r28
     a56:	2f 59       	subi	r18, 0x9F	; 159
     a58:	3f 4f       	sbci	r19, 0xFF	; 255
     a5a:	f9 01       	movw	r30, r18
     a5c:	91 83       	std	Z+1, r25	; 0x01
     a5e:	80 83       	st	Z, r24
     a60:	88 e2       	ldi	r24, 0x28	; 40
     a62:	90 e0       	ldi	r25, 0x00	; 0
     a64:	28 e2       	ldi	r18, 0x28	; 40
     a66:	30 e0       	ldi	r19, 0x00	; 0
     a68:	f9 01       	movw	r30, r18
     a6a:	20 81       	ld	r18, Z
     a6c:	2e 7f       	andi	r18, 0xFE	; 254
     a6e:	fc 01       	movw	r30, r24
     a70:	20 83       	st	Z, r18
     a72:	88 e2       	ldi	r24, 0x28	; 40
     a74:	90 e0       	ldi	r25, 0x00	; 0
     a76:	28 e2       	ldi	r18, 0x28	; 40
     a78:	30 e0       	ldi	r19, 0x00	; 0
     a7a:	f9 01       	movw	r30, r18
     a7c:	20 81       	ld	r18, Z
     a7e:	2d 7f       	andi	r18, 0xFD	; 253
     a80:	fc 01       	movw	r30, r24
     a82:	20 83       	st	Z, r18
     a84:	88 e2       	ldi	r24, 0x28	; 40
     a86:	90 e0       	ldi	r25, 0x00	; 0
     a88:	20 e2       	ldi	r18, 0x20	; 32
     a8a:	fc 01       	movw	r30, r24
     a8c:	20 83       	st	Z, r18
     a8e:	88 e2       	ldi	r24, 0x28	; 40
     a90:	90 e0       	ldi	r25, 0x00	; 0
     a92:	28 e2       	ldi	r18, 0x28	; 40
     a94:	30 e0       	ldi	r19, 0x00	; 0
     a96:	f9 01       	movw	r30, r18
     a98:	20 81       	ld	r18, Z
     a9a:	24 60       	ori	r18, 0x04	; 4
     a9c:	fc 01       	movw	r30, r24
     a9e:	20 83       	st	Z, r18
     aa0:	9e 01       	movw	r18, r28
     aa2:	2d 59       	subi	r18, 0x9D	; 157
     aa4:	3f 4f       	sbci	r19, 0xFF	; 255
     aa6:	80 e0       	ldi	r24, 0x00	; 0
     aa8:	90 e0       	ldi	r25, 0x00	; 0
     aaa:	a0 ea       	ldi	r26, 0xA0	; 160
     aac:	b0 e4       	ldi	r27, 0x40	; 64
     aae:	f9 01       	movw	r30, r18
     ab0:	80 83       	st	Z, r24
     ab2:	91 83       	std	Z+1, r25	; 0x01
     ab4:	a2 83       	std	Z+2, r26	; 0x02
     ab6:	b3 83       	std	Z+3, r27	; 0x03
     ab8:	8e 01       	movw	r16, r28
     aba:	09 59       	subi	r16, 0x99	; 153
     abc:	1f 4f       	sbci	r17, 0xFF	; 255
     abe:	ce 01       	movw	r24, r28
     ac0:	8d 59       	subi	r24, 0x9D	; 157
     ac2:	9f 4f       	sbci	r25, 0xFF	; 255
     ac4:	26 e6       	ldi	r18, 0x66	; 102
     ac6:	36 e6       	ldi	r19, 0x66	; 102
     ac8:	46 e6       	ldi	r20, 0x66	; 102
     aca:	55 e4       	ldi	r21, 0x45	; 69
     acc:	fc 01       	movw	r30, r24
     ace:	60 81       	ld	r22, Z
     ad0:	71 81       	ldd	r23, Z+1	; 0x01
     ad2:	82 81       	ldd	r24, Z+2	; 0x02
     ad4:	93 81       	ldd	r25, Z+3	; 0x03
     ad6:	a6 d6       	rcall	.+3404   	; 0x1824 <__mulsf3>
     ad8:	dc 01       	movw	r26, r24
     ada:	cb 01       	movw	r24, r22
     adc:	f8 01       	movw	r30, r16
     ade:	80 83       	st	Z, r24
     ae0:	91 83       	std	Z+1, r25	; 0x01
     ae2:	a2 83       	std	Z+2, r26	; 0x02
     ae4:	b3 83       	std	Z+3, r27	; 0x03
     ae6:	ce 01       	movw	r24, r28
     ae8:	89 59       	subi	r24, 0x99	; 153
     aea:	9f 4f       	sbci	r25, 0xFF	; 255
     aec:	20 e0       	ldi	r18, 0x00	; 0
     aee:	30 e0       	ldi	r19, 0x00	; 0
     af0:	40 e8       	ldi	r20, 0x80	; 128
     af2:	5f e3       	ldi	r21, 0x3F	; 63
     af4:	fc 01       	movw	r30, r24
     af6:	60 81       	ld	r22, Z
     af8:	71 81       	ldd	r23, Z+1	; 0x01
     afa:	82 81       	ldd	r24, Z+2	; 0x02
     afc:	93 81       	ldd	r25, Z+3	; 0x03
     afe:	ac d5       	rcall	.+2904   	; 0x1658 <__cmpsf2>
     b00:	88 23       	and	r24, r24
     b02:	4c f4       	brge	.+18     	; 0xb16 <lcd_set_4bit+0x9bc>
     b04:	ce 01       	movw	r24, r28
     b06:	85 59       	subi	r24, 0x95	; 149
     b08:	9f 4f       	sbci	r25, 0xFF	; 255
     b0a:	21 e0       	ldi	r18, 0x01	; 1
     b0c:	30 e0       	ldi	r19, 0x00	; 0
     b0e:	fc 01       	movw	r30, r24
     b10:	31 83       	std	Z+1, r19	; 0x01
     b12:	20 83       	st	Z, r18
     b14:	69 c0       	rjmp	.+210    	; 0xbe8 <lcd_set_4bit+0xa8e>
     b16:	ce 01       	movw	r24, r28
     b18:	89 59       	subi	r24, 0x99	; 153
     b1a:	9f 4f       	sbci	r25, 0xFF	; 255
     b1c:	20 e0       	ldi	r18, 0x00	; 0
     b1e:	3f ef       	ldi	r19, 0xFF	; 255
     b20:	4f e7       	ldi	r20, 0x7F	; 127
     b22:	57 e4       	ldi	r21, 0x47	; 71
     b24:	fc 01       	movw	r30, r24
     b26:	60 81       	ld	r22, Z
     b28:	71 81       	ldd	r23, Z+1	; 0x01
     b2a:	82 81       	ldd	r24, Z+2	; 0x02
     b2c:	93 81       	ldd	r25, Z+3	; 0x03
     b2e:	76 d6       	rcall	.+3308   	; 0x181c <__gesf2>
     b30:	18 16       	cp	r1, r24
     b32:	0c f0       	brlt	.+2      	; 0xb36 <lcd_set_4bit+0x9dc>
     b34:	48 c0       	rjmp	.+144    	; 0xbc6 <lcd_set_4bit+0xa6c>
     b36:	ce 01       	movw	r24, r28
     b38:	8d 59       	subi	r24, 0x9D	; 157
     b3a:	9f 4f       	sbci	r25, 0xFF	; 255
     b3c:	20 e0       	ldi	r18, 0x00	; 0
     b3e:	30 e0       	ldi	r19, 0x00	; 0
     b40:	40 e2       	ldi	r20, 0x20	; 32
     b42:	51 e4       	ldi	r21, 0x41	; 65
     b44:	fc 01       	movw	r30, r24
     b46:	60 81       	ld	r22, Z
     b48:	71 81       	ldd	r23, Z+1	; 0x01
     b4a:	82 81       	ldd	r24, Z+2	; 0x02
     b4c:	93 81       	ldd	r25, Z+3	; 0x03
     b4e:	6a d6       	rcall	.+3284   	; 0x1824 <__mulsf3>
     b50:	dc 01       	movw	r26, r24
     b52:	cb 01       	movw	r24, r22
     b54:	8e 01       	movw	r16, r28
     b56:	05 59       	subi	r16, 0x95	; 149
     b58:	1f 4f       	sbci	r17, 0xFF	; 255
     b5a:	bc 01       	movw	r22, r24
     b5c:	cd 01       	movw	r24, r26
     b5e:	80 d5       	rcall	.+2816   	; 0x1660 <__fixunssfsi>
     b60:	dc 01       	movw	r26, r24
     b62:	cb 01       	movw	r24, r22
     b64:	f8 01       	movw	r30, r16
     b66:	91 83       	std	Z+1, r25	; 0x01
     b68:	80 83       	st	Z, r24
     b6a:	24 c0       	rjmp	.+72     	; 0xbb4 <lcd_set_4bit+0xa5a>
     b6c:	ce 01       	movw	r24, r28
     b6e:	83 59       	subi	r24, 0x93	; 147
     b70:	9f 4f       	sbci	r25, 0xFF	; 255
     b72:	20 e7       	ldi	r18, 0x70	; 112
     b74:	31 e0       	ldi	r19, 0x01	; 1
     b76:	fc 01       	movw	r30, r24
     b78:	31 83       	std	Z+1, r19	; 0x01
     b7a:	20 83       	st	Z, r18
     b7c:	ce 01       	movw	r24, r28
     b7e:	83 59       	subi	r24, 0x93	; 147
     b80:	9f 4f       	sbci	r25, 0xFF	; 255
     b82:	fc 01       	movw	r30, r24
     b84:	80 81       	ld	r24, Z
     b86:	91 81       	ldd	r25, Z+1	; 0x01
     b88:	01 97       	sbiw	r24, 0x01	; 1
     b8a:	f1 f7       	brne	.-4      	; 0xb88 <lcd_set_4bit+0xa2e>
     b8c:	9e 01       	movw	r18, r28
     b8e:	23 59       	subi	r18, 0x93	; 147
     b90:	3f 4f       	sbci	r19, 0xFF	; 255
     b92:	f9 01       	movw	r30, r18
     b94:	91 83       	std	Z+1, r25	; 0x01
     b96:	80 83       	st	Z, r24
     b98:	ce 01       	movw	r24, r28
     b9a:	85 59       	subi	r24, 0x95	; 149
     b9c:	9f 4f       	sbci	r25, 0xFF	; 255
     b9e:	9e 01       	movw	r18, r28
     ba0:	25 59       	subi	r18, 0x95	; 149
     ba2:	3f 4f       	sbci	r19, 0xFF	; 255
     ba4:	f9 01       	movw	r30, r18
     ba6:	20 81       	ld	r18, Z
     ba8:	31 81       	ldd	r19, Z+1	; 0x01
     baa:	21 50       	subi	r18, 0x01	; 1
     bac:	31 09       	sbc	r19, r1
     bae:	fc 01       	movw	r30, r24
     bb0:	31 83       	std	Z+1, r19	; 0x01
     bb2:	20 83       	st	Z, r18
     bb4:	ce 01       	movw	r24, r28
     bb6:	85 59       	subi	r24, 0x95	; 149
     bb8:	9f 4f       	sbci	r25, 0xFF	; 255
     bba:	fc 01       	movw	r30, r24
     bbc:	80 81       	ld	r24, Z
     bbe:	91 81       	ldd	r25, Z+1	; 0x01
     bc0:	00 97       	sbiw	r24, 0x00	; 0
     bc2:	a1 f6       	brne	.-88     	; 0xb6c <lcd_set_4bit+0xa12>
     bc4:	2b c0       	rjmp	.+86     	; 0xc1c <lcd_set_4bit+0xac2>
     bc6:	8e 01       	movw	r16, r28
     bc8:	05 59       	subi	r16, 0x95	; 149
     bca:	1f 4f       	sbci	r17, 0xFF	; 255
     bcc:	ce 01       	movw	r24, r28
     bce:	89 59       	subi	r24, 0x99	; 153
     bd0:	9f 4f       	sbci	r25, 0xFF	; 255
     bd2:	fc 01       	movw	r30, r24
     bd4:	60 81       	ld	r22, Z
     bd6:	71 81       	ldd	r23, Z+1	; 0x01
     bd8:	82 81       	ldd	r24, Z+2	; 0x02
     bda:	93 81       	ldd	r25, Z+3	; 0x03
     bdc:	41 d5       	rcall	.+2690   	; 0x1660 <__fixunssfsi>
     bde:	dc 01       	movw	r26, r24
     be0:	cb 01       	movw	r24, r22
     be2:	f8 01       	movw	r30, r16
     be4:	91 83       	std	Z+1, r25	; 0x01
     be6:	80 83       	st	Z, r24
     be8:	ce 01       	movw	r24, r28
     bea:	81 59       	subi	r24, 0x91	; 145
     bec:	9f 4f       	sbci	r25, 0xFF	; 255
     bee:	9e 01       	movw	r18, r28
     bf0:	25 59       	subi	r18, 0x95	; 149
     bf2:	3f 4f       	sbci	r19, 0xFF	; 255
     bf4:	f9 01       	movw	r30, r18
     bf6:	20 81       	ld	r18, Z
     bf8:	31 81       	ldd	r19, Z+1	; 0x01
     bfa:	fc 01       	movw	r30, r24
     bfc:	31 83       	std	Z+1, r19	; 0x01
     bfe:	20 83       	st	Z, r18
     c00:	ce 01       	movw	r24, r28
     c02:	81 59       	subi	r24, 0x91	; 145
     c04:	9f 4f       	sbci	r25, 0xFF	; 255
     c06:	fc 01       	movw	r30, r24
     c08:	80 81       	ld	r24, Z
     c0a:	91 81       	ldd	r25, Z+1	; 0x01
     c0c:	01 97       	sbiw	r24, 0x01	; 1
     c0e:	f1 f7       	brne	.-4      	; 0xc0c <lcd_set_4bit+0xab2>
     c10:	9e 01       	movw	r18, r28
     c12:	21 59       	subi	r18, 0x91	; 145
     c14:	3f 4f       	sbci	r19, 0xFF	; 255
     c16:	f9 01       	movw	r30, r18
     c18:	91 83       	std	Z+1, r25	; 0x01
     c1a:	80 83       	st	Z, r24
     c1c:	88 e2       	ldi	r24, 0x28	; 40
     c1e:	90 e0       	ldi	r25, 0x00	; 0
     c20:	28 e2       	ldi	r18, 0x28	; 40
     c22:	30 e0       	ldi	r19, 0x00	; 0
     c24:	f9 01       	movw	r30, r18
     c26:	20 81       	ld	r18, Z
     c28:	2b 7f       	andi	r18, 0xFB	; 251
     c2a:	fc 01       	movw	r30, r24
     c2c:	20 83       	st	Z, r18
     c2e:	c0 59       	subi	r28, 0x90	; 144
     c30:	df 4f       	sbci	r29, 0xFF	; 255
     c32:	0f b6       	in	r0, 0x3f	; 63
     c34:	f8 94       	cli
     c36:	de bf       	out	0x3e, r29	; 62
     c38:	0f be       	out	0x3f, r0	; 63
     c3a:	cd bf       	out	0x3d, r28	; 61
     c3c:	df 91       	pop	r29
     c3e:	cf 91       	pop	r28
     c40:	1f 91       	pop	r17
     c42:	0f 91       	pop	r16
     c44:	08 95       	ret

00000c46 <lcd_init>:
     c46:	cf 93       	push	r28
     c48:	df 93       	push	r29
     c4a:	cd b7       	in	r28, 0x3d	; 61
     c4c:	de b7       	in	r29, 0x3e	; 62
     c4e:	2e 97       	sbiw	r28, 0x0e	; 14
     c50:	0f b6       	in	r0, 0x3f	; 63
     c52:	f8 94       	cli
     c54:	de bf       	out	0x3e, r29	; 62
     c56:	0f be       	out	0x3f, r0	; 63
     c58:	cd bf       	out	0x3d, r28	; 61
     c5a:	7f da       	rcall	.-2818   	; 0x15a <lcd_set_4bit>
     c5c:	80 e0       	ldi	r24, 0x00	; 0
     c5e:	90 e0       	ldi	r25, 0x00	; 0
     c60:	a0 e8       	ldi	r26, 0x80	; 128
     c62:	bf e3       	ldi	r27, 0x3F	; 63
     c64:	89 83       	std	Y+1, r24	; 0x01
     c66:	9a 83       	std	Y+2, r25	; 0x02
     c68:	ab 83       	std	Y+3, r26	; 0x03
     c6a:	bc 83       	std	Y+4, r27	; 0x04
     c6c:	26 e6       	ldi	r18, 0x66	; 102
     c6e:	36 e6       	ldi	r19, 0x66	; 102
     c70:	46 e6       	ldi	r20, 0x66	; 102
     c72:	55 e4       	ldi	r21, 0x45	; 69
     c74:	69 81       	ldd	r22, Y+1	; 0x01
     c76:	7a 81       	ldd	r23, Y+2	; 0x02
     c78:	8b 81       	ldd	r24, Y+3	; 0x03
     c7a:	9c 81       	ldd	r25, Y+4	; 0x04
     c7c:	d3 d5       	rcall	.+2982   	; 0x1824 <__mulsf3>
     c7e:	dc 01       	movw	r26, r24
     c80:	cb 01       	movw	r24, r22
     c82:	8d 83       	std	Y+5, r24	; 0x05
     c84:	9e 83       	std	Y+6, r25	; 0x06
     c86:	af 83       	std	Y+7, r26	; 0x07
     c88:	b8 87       	std	Y+8, r27	; 0x08
     c8a:	20 e0       	ldi	r18, 0x00	; 0
     c8c:	30 e0       	ldi	r19, 0x00	; 0
     c8e:	40 e8       	ldi	r20, 0x80	; 128
     c90:	5f e3       	ldi	r21, 0x3F	; 63
     c92:	6d 81       	ldd	r22, Y+5	; 0x05
     c94:	7e 81       	ldd	r23, Y+6	; 0x06
     c96:	8f 81       	ldd	r24, Y+7	; 0x07
     c98:	98 85       	ldd	r25, Y+8	; 0x08
     c9a:	de d4       	rcall	.+2492   	; 0x1658 <__cmpsf2>
     c9c:	88 23       	and	r24, r24
     c9e:	2c f4       	brge	.+10     	; 0xcaa <lcd_init+0x64>
     ca0:	81 e0       	ldi	r24, 0x01	; 1
     ca2:	90 e0       	ldi	r25, 0x00	; 0
     ca4:	9a 87       	std	Y+10, r25	; 0x0a
     ca6:	89 87       	std	Y+9, r24	; 0x09
     ca8:	3b c0       	rjmp	.+118    	; 0xd20 <lcd_init+0xda>
     caa:	20 e0       	ldi	r18, 0x00	; 0
     cac:	3f ef       	ldi	r19, 0xFF	; 255
     cae:	4f e7       	ldi	r20, 0x7F	; 127
     cb0:	57 e4       	ldi	r21, 0x47	; 71
     cb2:	6d 81       	ldd	r22, Y+5	; 0x05
     cb4:	7e 81       	ldd	r23, Y+6	; 0x06
     cb6:	8f 81       	ldd	r24, Y+7	; 0x07
     cb8:	98 85       	ldd	r25, Y+8	; 0x08
     cba:	b0 d5       	rcall	.+2912   	; 0x181c <__gesf2>
     cbc:	18 16       	cp	r1, r24
     cbe:	3c f5       	brge	.+78     	; 0xd0e <lcd_init+0xc8>
     cc0:	20 e0       	ldi	r18, 0x00	; 0
     cc2:	30 e0       	ldi	r19, 0x00	; 0
     cc4:	40 e2       	ldi	r20, 0x20	; 32
     cc6:	51 e4       	ldi	r21, 0x41	; 65
     cc8:	69 81       	ldd	r22, Y+1	; 0x01
     cca:	7a 81       	ldd	r23, Y+2	; 0x02
     ccc:	8b 81       	ldd	r24, Y+3	; 0x03
     cce:	9c 81       	ldd	r25, Y+4	; 0x04
     cd0:	a9 d5       	rcall	.+2898   	; 0x1824 <__mulsf3>
     cd2:	dc 01       	movw	r26, r24
     cd4:	cb 01       	movw	r24, r22
     cd6:	bc 01       	movw	r22, r24
     cd8:	cd 01       	movw	r24, r26
     cda:	c2 d4       	rcall	.+2436   	; 0x1660 <__fixunssfsi>
     cdc:	dc 01       	movw	r26, r24
     cde:	cb 01       	movw	r24, r22
     ce0:	9a 87       	std	Y+10, r25	; 0x0a
     ce2:	89 87       	std	Y+9, r24	; 0x09
     ce4:	0f c0       	rjmp	.+30     	; 0xd04 <lcd_init+0xbe>
     ce6:	80 e7       	ldi	r24, 0x70	; 112
     ce8:	91 e0       	ldi	r25, 0x01	; 1
     cea:	9c 87       	std	Y+12, r25	; 0x0c
     cec:	8b 87       	std	Y+11, r24	; 0x0b
     cee:	8b 85       	ldd	r24, Y+11	; 0x0b
     cf0:	9c 85       	ldd	r25, Y+12	; 0x0c
     cf2:	01 97       	sbiw	r24, 0x01	; 1
     cf4:	f1 f7       	brne	.-4      	; 0xcf2 <lcd_init+0xac>
     cf6:	9c 87       	std	Y+12, r25	; 0x0c
     cf8:	8b 87       	std	Y+11, r24	; 0x0b
     cfa:	89 85       	ldd	r24, Y+9	; 0x09
     cfc:	9a 85       	ldd	r25, Y+10	; 0x0a
     cfe:	01 97       	sbiw	r24, 0x01	; 1
     d00:	9a 87       	std	Y+10, r25	; 0x0a
     d02:	89 87       	std	Y+9, r24	; 0x09
     d04:	89 85       	ldd	r24, Y+9	; 0x09
     d06:	9a 85       	ldd	r25, Y+10	; 0x0a
     d08:	00 97       	sbiw	r24, 0x00	; 0
     d0a:	69 f7       	brne	.-38     	; 0xce6 <lcd_init+0xa0>
     d0c:	13 c0       	rjmp	.+38     	; 0xd34 <lcd_init+0xee>
     d0e:	6d 81       	ldd	r22, Y+5	; 0x05
     d10:	7e 81       	ldd	r23, Y+6	; 0x06
     d12:	8f 81       	ldd	r24, Y+7	; 0x07
     d14:	98 85       	ldd	r25, Y+8	; 0x08
     d16:	a4 d4       	rcall	.+2376   	; 0x1660 <__fixunssfsi>
     d18:	dc 01       	movw	r26, r24
     d1a:	cb 01       	movw	r24, r22
     d1c:	9a 87       	std	Y+10, r25	; 0x0a
     d1e:	89 87       	std	Y+9, r24	; 0x09
     d20:	89 85       	ldd	r24, Y+9	; 0x09
     d22:	9a 85       	ldd	r25, Y+10	; 0x0a
     d24:	9e 87       	std	Y+14, r25	; 0x0e
     d26:	8d 87       	std	Y+13, r24	; 0x0d
     d28:	8d 85       	ldd	r24, Y+13	; 0x0d
     d2a:	9e 85       	ldd	r25, Y+14	; 0x0e
     d2c:	01 97       	sbiw	r24, 0x01	; 1
     d2e:	f1 f7       	brne	.-4      	; 0xd2c <lcd_init+0xe6>
     d30:	9e 87       	std	Y+14, r25	; 0x0e
     d32:	8d 87       	std	Y+13, r24	; 0x0d
     d34:	88 e2       	ldi	r24, 0x28	; 40
     d36:	11 d0       	rcall	.+34     	; 0xd5a <lcd_wr_command>
     d38:	81 e0       	ldi	r24, 0x01	; 1
     d3a:	0f d0       	rcall	.+30     	; 0xd5a <lcd_wr_command>
     d3c:	86 e0       	ldi	r24, 0x06	; 6
     d3e:	0d d0       	rcall	.+26     	; 0xd5a <lcd_wr_command>
     d40:	8e e0       	ldi	r24, 0x0E	; 14
     d42:	0b d0       	rcall	.+22     	; 0xd5a <lcd_wr_command>
     d44:	80 e8       	ldi	r24, 0x80	; 128
     d46:	09 d0       	rcall	.+18     	; 0xd5a <lcd_wr_command>
     d48:	2e 96       	adiw	r28, 0x0e	; 14
     d4a:	0f b6       	in	r0, 0x3f	; 63
     d4c:	f8 94       	cli
     d4e:	de bf       	out	0x3e, r29	; 62
     d50:	0f be       	out	0x3f, r0	; 63
     d52:	cd bf       	out	0x3d, r28	; 61
     d54:	df 91       	pop	r29
     d56:	cf 91       	pop	r28
     d58:	08 95       	ret

00000d5a <lcd_wr_command>:
     d5a:	cf 93       	push	r28
     d5c:	df 93       	push	r29
     d5e:	cd b7       	in	r28, 0x3d	; 61
     d60:	de b7       	in	r29, 0x3e	; 62
     d62:	6e 97       	sbiw	r28, 0x1e	; 30
     d64:	0f b6       	in	r0, 0x3f	; 63
     d66:	f8 94       	cli
     d68:	de bf       	out	0x3e, r29	; 62
     d6a:	0f be       	out	0x3f, r0	; 63
     d6c:	cd bf       	out	0x3d, r28	; 61
     d6e:	8e 8f       	std	Y+30, r24	; 0x1e
     d70:	8e 8d       	ldd	r24, Y+30	; 0x1e
     d72:	89 83       	std	Y+1, r24	; 0x01
     d74:	89 81       	ldd	r24, Y+1	; 0x01
     d76:	80 7f       	andi	r24, 0xF0	; 240
     d78:	89 83       	std	Y+1, r24	; 0x01
     d7a:	88 e2       	ldi	r24, 0x28	; 40
     d7c:	90 e0       	ldi	r25, 0x00	; 0
     d7e:	28 e2       	ldi	r18, 0x28	; 40
     d80:	30 e0       	ldi	r19, 0x00	; 0
     d82:	f9 01       	movw	r30, r18
     d84:	20 81       	ld	r18, Z
     d86:	2f 70       	andi	r18, 0x0F	; 15
     d88:	fc 01       	movw	r30, r24
     d8a:	20 83       	st	Z, r18
     d8c:	88 e2       	ldi	r24, 0x28	; 40
     d8e:	90 e0       	ldi	r25, 0x00	; 0
     d90:	28 e2       	ldi	r18, 0x28	; 40
     d92:	30 e0       	ldi	r19, 0x00	; 0
     d94:	f9 01       	movw	r30, r18
     d96:	30 81       	ld	r19, Z
     d98:	29 81       	ldd	r18, Y+1	; 0x01
     d9a:	23 2b       	or	r18, r19
     d9c:	fc 01       	movw	r30, r24
     d9e:	20 83       	st	Z, r18
     da0:	88 e2       	ldi	r24, 0x28	; 40
     da2:	90 e0       	ldi	r25, 0x00	; 0
     da4:	28 e2       	ldi	r18, 0x28	; 40
     da6:	30 e0       	ldi	r19, 0x00	; 0
     da8:	f9 01       	movw	r30, r18
     daa:	20 81       	ld	r18, Z
     dac:	2e 7f       	andi	r18, 0xFE	; 254
     dae:	fc 01       	movw	r30, r24
     db0:	20 83       	st	Z, r18
     db2:	88 e2       	ldi	r24, 0x28	; 40
     db4:	90 e0       	ldi	r25, 0x00	; 0
     db6:	28 e2       	ldi	r18, 0x28	; 40
     db8:	30 e0       	ldi	r19, 0x00	; 0
     dba:	f9 01       	movw	r30, r18
     dbc:	20 81       	ld	r18, Z
     dbe:	2d 7f       	andi	r18, 0xFD	; 253
     dc0:	fc 01       	movw	r30, r24
     dc2:	20 83       	st	Z, r18
     dc4:	88 e2       	ldi	r24, 0x28	; 40
     dc6:	90 e0       	ldi	r25, 0x00	; 0
     dc8:	28 e2       	ldi	r18, 0x28	; 40
     dca:	30 e0       	ldi	r19, 0x00	; 0
     dcc:	f9 01       	movw	r30, r18
     dce:	20 81       	ld	r18, Z
     dd0:	24 60       	ori	r18, 0x04	; 4
     dd2:	fc 01       	movw	r30, r24
     dd4:	20 83       	st	Z, r18
     dd6:	80 e0       	ldi	r24, 0x00	; 0
     dd8:	90 e0       	ldi	r25, 0x00	; 0
     dda:	a0 ea       	ldi	r26, 0xA0	; 160
     ddc:	b0 e4       	ldi	r27, 0x40	; 64
     dde:	8a 83       	std	Y+2, r24	; 0x02
     de0:	9b 83       	std	Y+3, r25	; 0x03
     de2:	ac 83       	std	Y+4, r26	; 0x04
     de4:	bd 83       	std	Y+5, r27	; 0x05
     de6:	26 e6       	ldi	r18, 0x66	; 102
     de8:	36 e6       	ldi	r19, 0x66	; 102
     dea:	46 e6       	ldi	r20, 0x66	; 102
     dec:	55 e4       	ldi	r21, 0x45	; 69
     dee:	6a 81       	ldd	r22, Y+2	; 0x02
     df0:	7b 81       	ldd	r23, Y+3	; 0x03
     df2:	8c 81       	ldd	r24, Y+4	; 0x04
     df4:	9d 81       	ldd	r25, Y+5	; 0x05
     df6:	16 d5       	rcall	.+2604   	; 0x1824 <__mulsf3>
     df8:	dc 01       	movw	r26, r24
     dfa:	cb 01       	movw	r24, r22
     dfc:	8e 83       	std	Y+6, r24	; 0x06
     dfe:	9f 83       	std	Y+7, r25	; 0x07
     e00:	a8 87       	std	Y+8, r26	; 0x08
     e02:	b9 87       	std	Y+9, r27	; 0x09
     e04:	20 e0       	ldi	r18, 0x00	; 0
     e06:	30 e0       	ldi	r19, 0x00	; 0
     e08:	40 e8       	ldi	r20, 0x80	; 128
     e0a:	5f e3       	ldi	r21, 0x3F	; 63
     e0c:	6e 81       	ldd	r22, Y+6	; 0x06
     e0e:	7f 81       	ldd	r23, Y+7	; 0x07
     e10:	88 85       	ldd	r24, Y+8	; 0x08
     e12:	99 85       	ldd	r25, Y+9	; 0x09
     e14:	21 d4       	rcall	.+2114   	; 0x1658 <__cmpsf2>
     e16:	88 23       	and	r24, r24
     e18:	2c f4       	brge	.+10     	; 0xe24 <lcd_wr_command+0xca>
     e1a:	81 e0       	ldi	r24, 0x01	; 1
     e1c:	90 e0       	ldi	r25, 0x00	; 0
     e1e:	9b 87       	std	Y+11, r25	; 0x0b
     e20:	8a 87       	std	Y+10, r24	; 0x0a
     e22:	3b c0       	rjmp	.+118    	; 0xe9a <lcd_wr_command+0x140>
     e24:	20 e0       	ldi	r18, 0x00	; 0
     e26:	3f ef       	ldi	r19, 0xFF	; 255
     e28:	4f e7       	ldi	r20, 0x7F	; 127
     e2a:	57 e4       	ldi	r21, 0x47	; 71
     e2c:	6e 81       	ldd	r22, Y+6	; 0x06
     e2e:	7f 81       	ldd	r23, Y+7	; 0x07
     e30:	88 85       	ldd	r24, Y+8	; 0x08
     e32:	99 85       	ldd	r25, Y+9	; 0x09
     e34:	f3 d4       	rcall	.+2534   	; 0x181c <__gesf2>
     e36:	18 16       	cp	r1, r24
     e38:	3c f5       	brge	.+78     	; 0xe88 <lcd_wr_command+0x12e>
     e3a:	20 e0       	ldi	r18, 0x00	; 0
     e3c:	30 e0       	ldi	r19, 0x00	; 0
     e3e:	40 e2       	ldi	r20, 0x20	; 32
     e40:	51 e4       	ldi	r21, 0x41	; 65
     e42:	6a 81       	ldd	r22, Y+2	; 0x02
     e44:	7b 81       	ldd	r23, Y+3	; 0x03
     e46:	8c 81       	ldd	r24, Y+4	; 0x04
     e48:	9d 81       	ldd	r25, Y+5	; 0x05
     e4a:	ec d4       	rcall	.+2520   	; 0x1824 <__mulsf3>
     e4c:	dc 01       	movw	r26, r24
     e4e:	cb 01       	movw	r24, r22
     e50:	bc 01       	movw	r22, r24
     e52:	cd 01       	movw	r24, r26
     e54:	05 d4       	rcall	.+2058   	; 0x1660 <__fixunssfsi>
     e56:	dc 01       	movw	r26, r24
     e58:	cb 01       	movw	r24, r22
     e5a:	9b 87       	std	Y+11, r25	; 0x0b
     e5c:	8a 87       	std	Y+10, r24	; 0x0a
     e5e:	0f c0       	rjmp	.+30     	; 0xe7e <lcd_wr_command+0x124>
     e60:	80 e7       	ldi	r24, 0x70	; 112
     e62:	91 e0       	ldi	r25, 0x01	; 1
     e64:	9d 87       	std	Y+13, r25	; 0x0d
     e66:	8c 87       	std	Y+12, r24	; 0x0c
     e68:	8c 85       	ldd	r24, Y+12	; 0x0c
     e6a:	9d 85       	ldd	r25, Y+13	; 0x0d
     e6c:	01 97       	sbiw	r24, 0x01	; 1
     e6e:	f1 f7       	brne	.-4      	; 0xe6c <lcd_wr_command+0x112>
     e70:	9d 87       	std	Y+13, r25	; 0x0d
     e72:	8c 87       	std	Y+12, r24	; 0x0c
     e74:	8a 85       	ldd	r24, Y+10	; 0x0a
     e76:	9b 85       	ldd	r25, Y+11	; 0x0b
     e78:	01 97       	sbiw	r24, 0x01	; 1
     e7a:	9b 87       	std	Y+11, r25	; 0x0b
     e7c:	8a 87       	std	Y+10, r24	; 0x0a
     e7e:	8a 85       	ldd	r24, Y+10	; 0x0a
     e80:	9b 85       	ldd	r25, Y+11	; 0x0b
     e82:	00 97       	sbiw	r24, 0x00	; 0
     e84:	69 f7       	brne	.-38     	; 0xe60 <lcd_wr_command+0x106>
     e86:	13 c0       	rjmp	.+38     	; 0xeae <lcd_wr_command+0x154>
     e88:	6e 81       	ldd	r22, Y+6	; 0x06
     e8a:	7f 81       	ldd	r23, Y+7	; 0x07
     e8c:	88 85       	ldd	r24, Y+8	; 0x08
     e8e:	99 85       	ldd	r25, Y+9	; 0x09
     e90:	e7 d3       	rcall	.+1998   	; 0x1660 <__fixunssfsi>
     e92:	dc 01       	movw	r26, r24
     e94:	cb 01       	movw	r24, r22
     e96:	9b 87       	std	Y+11, r25	; 0x0b
     e98:	8a 87       	std	Y+10, r24	; 0x0a
     e9a:	8a 85       	ldd	r24, Y+10	; 0x0a
     e9c:	9b 85       	ldd	r25, Y+11	; 0x0b
     e9e:	9f 87       	std	Y+15, r25	; 0x0f
     ea0:	8e 87       	std	Y+14, r24	; 0x0e
     ea2:	8e 85       	ldd	r24, Y+14	; 0x0e
     ea4:	9f 85       	ldd	r25, Y+15	; 0x0f
     ea6:	01 97       	sbiw	r24, 0x01	; 1
     ea8:	f1 f7       	brne	.-4      	; 0xea6 <lcd_wr_command+0x14c>
     eaa:	9f 87       	std	Y+15, r25	; 0x0f
     eac:	8e 87       	std	Y+14, r24	; 0x0e
     eae:	88 e2       	ldi	r24, 0x28	; 40
     eb0:	90 e0       	ldi	r25, 0x00	; 0
     eb2:	28 e2       	ldi	r18, 0x28	; 40
     eb4:	30 e0       	ldi	r19, 0x00	; 0
     eb6:	f9 01       	movw	r30, r18
     eb8:	20 81       	ld	r18, Z
     eba:	2b 7f       	andi	r18, 0xFB	; 251
     ebc:	fc 01       	movw	r30, r24
     ebe:	20 83       	st	Z, r18
     ec0:	8e 8d       	ldd	r24, Y+30	; 0x1e
     ec2:	8f 70       	andi	r24, 0x0F	; 15
     ec4:	8e 8f       	std	Y+30, r24	; 0x1e
     ec6:	8e 8d       	ldd	r24, Y+30	; 0x1e
     ec8:	82 95       	swap	r24
     eca:	80 7f       	andi	r24, 0xF0	; 240
     ecc:	8e 8f       	std	Y+30, r24	; 0x1e
     ece:	88 e2       	ldi	r24, 0x28	; 40
     ed0:	90 e0       	ldi	r25, 0x00	; 0
     ed2:	28 e2       	ldi	r18, 0x28	; 40
     ed4:	30 e0       	ldi	r19, 0x00	; 0
     ed6:	f9 01       	movw	r30, r18
     ed8:	20 81       	ld	r18, Z
     eda:	2f 70       	andi	r18, 0x0F	; 15
     edc:	fc 01       	movw	r30, r24
     ede:	20 83       	st	Z, r18
     ee0:	88 e2       	ldi	r24, 0x28	; 40
     ee2:	90 e0       	ldi	r25, 0x00	; 0
     ee4:	28 e2       	ldi	r18, 0x28	; 40
     ee6:	30 e0       	ldi	r19, 0x00	; 0
     ee8:	f9 01       	movw	r30, r18
     eea:	30 81       	ld	r19, Z
     eec:	2e 8d       	ldd	r18, Y+30	; 0x1e
     eee:	23 2b       	or	r18, r19
     ef0:	fc 01       	movw	r30, r24
     ef2:	20 83       	st	Z, r18
     ef4:	88 e2       	ldi	r24, 0x28	; 40
     ef6:	90 e0       	ldi	r25, 0x00	; 0
     ef8:	28 e2       	ldi	r18, 0x28	; 40
     efa:	30 e0       	ldi	r19, 0x00	; 0
     efc:	f9 01       	movw	r30, r18
     efe:	20 81       	ld	r18, Z
     f00:	2e 7f       	andi	r18, 0xFE	; 254
     f02:	fc 01       	movw	r30, r24
     f04:	20 83       	st	Z, r18
     f06:	88 e2       	ldi	r24, 0x28	; 40
     f08:	90 e0       	ldi	r25, 0x00	; 0
     f0a:	28 e2       	ldi	r18, 0x28	; 40
     f0c:	30 e0       	ldi	r19, 0x00	; 0
     f0e:	f9 01       	movw	r30, r18
     f10:	20 81       	ld	r18, Z
     f12:	2d 7f       	andi	r18, 0xFD	; 253
     f14:	fc 01       	movw	r30, r24
     f16:	20 83       	st	Z, r18
     f18:	88 e2       	ldi	r24, 0x28	; 40
     f1a:	90 e0       	ldi	r25, 0x00	; 0
     f1c:	28 e2       	ldi	r18, 0x28	; 40
     f1e:	30 e0       	ldi	r19, 0x00	; 0
     f20:	f9 01       	movw	r30, r18
     f22:	20 81       	ld	r18, Z
     f24:	24 60       	ori	r18, 0x04	; 4
     f26:	fc 01       	movw	r30, r24
     f28:	20 83       	st	Z, r18
     f2a:	80 e0       	ldi	r24, 0x00	; 0
     f2c:	90 e0       	ldi	r25, 0x00	; 0
     f2e:	a0 ea       	ldi	r26, 0xA0	; 160
     f30:	b0 e4       	ldi	r27, 0x40	; 64
     f32:	88 8b       	std	Y+16, r24	; 0x10
     f34:	99 8b       	std	Y+17, r25	; 0x11
     f36:	aa 8b       	std	Y+18, r26	; 0x12
     f38:	bb 8b       	std	Y+19, r27	; 0x13
     f3a:	26 e6       	ldi	r18, 0x66	; 102
     f3c:	36 e6       	ldi	r19, 0x66	; 102
     f3e:	46 e6       	ldi	r20, 0x66	; 102
     f40:	55 e4       	ldi	r21, 0x45	; 69
     f42:	68 89       	ldd	r22, Y+16	; 0x10
     f44:	79 89       	ldd	r23, Y+17	; 0x11
     f46:	8a 89       	ldd	r24, Y+18	; 0x12
     f48:	9b 89       	ldd	r25, Y+19	; 0x13
     f4a:	6c d4       	rcall	.+2264   	; 0x1824 <__mulsf3>
     f4c:	dc 01       	movw	r26, r24
     f4e:	cb 01       	movw	r24, r22
     f50:	8c 8b       	std	Y+20, r24	; 0x14
     f52:	9d 8b       	std	Y+21, r25	; 0x15
     f54:	ae 8b       	std	Y+22, r26	; 0x16
     f56:	bf 8b       	std	Y+23, r27	; 0x17
     f58:	20 e0       	ldi	r18, 0x00	; 0
     f5a:	30 e0       	ldi	r19, 0x00	; 0
     f5c:	40 e8       	ldi	r20, 0x80	; 128
     f5e:	5f e3       	ldi	r21, 0x3F	; 63
     f60:	6c 89       	ldd	r22, Y+20	; 0x14
     f62:	7d 89       	ldd	r23, Y+21	; 0x15
     f64:	8e 89       	ldd	r24, Y+22	; 0x16
     f66:	9f 89       	ldd	r25, Y+23	; 0x17
     f68:	77 d3       	rcall	.+1774   	; 0x1658 <__cmpsf2>
     f6a:	88 23       	and	r24, r24
     f6c:	2c f4       	brge	.+10     	; 0xf78 <lcd_wr_command+0x21e>
     f6e:	81 e0       	ldi	r24, 0x01	; 1
     f70:	90 e0       	ldi	r25, 0x00	; 0
     f72:	99 8f       	std	Y+25, r25	; 0x19
     f74:	88 8f       	std	Y+24, r24	; 0x18
     f76:	3b c0       	rjmp	.+118    	; 0xfee <lcd_wr_command+0x294>
     f78:	20 e0       	ldi	r18, 0x00	; 0
     f7a:	3f ef       	ldi	r19, 0xFF	; 255
     f7c:	4f e7       	ldi	r20, 0x7F	; 127
     f7e:	57 e4       	ldi	r21, 0x47	; 71
     f80:	6c 89       	ldd	r22, Y+20	; 0x14
     f82:	7d 89       	ldd	r23, Y+21	; 0x15
     f84:	8e 89       	ldd	r24, Y+22	; 0x16
     f86:	9f 89       	ldd	r25, Y+23	; 0x17
     f88:	49 d4       	rcall	.+2194   	; 0x181c <__gesf2>
     f8a:	18 16       	cp	r1, r24
     f8c:	3c f5       	brge	.+78     	; 0xfdc <lcd_wr_command+0x282>
     f8e:	20 e0       	ldi	r18, 0x00	; 0
     f90:	30 e0       	ldi	r19, 0x00	; 0
     f92:	40 e2       	ldi	r20, 0x20	; 32
     f94:	51 e4       	ldi	r21, 0x41	; 65
     f96:	68 89       	ldd	r22, Y+16	; 0x10
     f98:	79 89       	ldd	r23, Y+17	; 0x11
     f9a:	8a 89       	ldd	r24, Y+18	; 0x12
     f9c:	9b 89       	ldd	r25, Y+19	; 0x13
     f9e:	42 d4       	rcall	.+2180   	; 0x1824 <__mulsf3>
     fa0:	dc 01       	movw	r26, r24
     fa2:	cb 01       	movw	r24, r22
     fa4:	bc 01       	movw	r22, r24
     fa6:	cd 01       	movw	r24, r26
     fa8:	5b d3       	rcall	.+1718   	; 0x1660 <__fixunssfsi>
     faa:	dc 01       	movw	r26, r24
     fac:	cb 01       	movw	r24, r22
     fae:	99 8f       	std	Y+25, r25	; 0x19
     fb0:	88 8f       	std	Y+24, r24	; 0x18
     fb2:	0f c0       	rjmp	.+30     	; 0xfd2 <lcd_wr_command+0x278>
     fb4:	80 e7       	ldi	r24, 0x70	; 112
     fb6:	91 e0       	ldi	r25, 0x01	; 1
     fb8:	9b 8f       	std	Y+27, r25	; 0x1b
     fba:	8a 8f       	std	Y+26, r24	; 0x1a
     fbc:	8a 8d       	ldd	r24, Y+26	; 0x1a
     fbe:	9b 8d       	ldd	r25, Y+27	; 0x1b
     fc0:	01 97       	sbiw	r24, 0x01	; 1
     fc2:	f1 f7       	brne	.-4      	; 0xfc0 <lcd_wr_command+0x266>
     fc4:	9b 8f       	std	Y+27, r25	; 0x1b
     fc6:	8a 8f       	std	Y+26, r24	; 0x1a
     fc8:	88 8d       	ldd	r24, Y+24	; 0x18
     fca:	99 8d       	ldd	r25, Y+25	; 0x19
     fcc:	01 97       	sbiw	r24, 0x01	; 1
     fce:	99 8f       	std	Y+25, r25	; 0x19
     fd0:	88 8f       	std	Y+24, r24	; 0x18
     fd2:	88 8d       	ldd	r24, Y+24	; 0x18
     fd4:	99 8d       	ldd	r25, Y+25	; 0x19
     fd6:	00 97       	sbiw	r24, 0x00	; 0
     fd8:	69 f7       	brne	.-38     	; 0xfb4 <lcd_wr_command+0x25a>
     fda:	13 c0       	rjmp	.+38     	; 0x1002 <lcd_wr_command+0x2a8>
     fdc:	6c 89       	ldd	r22, Y+20	; 0x14
     fde:	7d 89       	ldd	r23, Y+21	; 0x15
     fe0:	8e 89       	ldd	r24, Y+22	; 0x16
     fe2:	9f 89       	ldd	r25, Y+23	; 0x17
     fe4:	3d d3       	rcall	.+1658   	; 0x1660 <__fixunssfsi>
     fe6:	dc 01       	movw	r26, r24
     fe8:	cb 01       	movw	r24, r22
     fea:	99 8f       	std	Y+25, r25	; 0x19
     fec:	88 8f       	std	Y+24, r24	; 0x18
     fee:	88 8d       	ldd	r24, Y+24	; 0x18
     ff0:	99 8d       	ldd	r25, Y+25	; 0x19
     ff2:	9d 8f       	std	Y+29, r25	; 0x1d
     ff4:	8c 8f       	std	Y+28, r24	; 0x1c
     ff6:	8c 8d       	ldd	r24, Y+28	; 0x1c
     ff8:	9d 8d       	ldd	r25, Y+29	; 0x1d
     ffa:	01 97       	sbiw	r24, 0x01	; 1
     ffc:	f1 f7       	brne	.-4      	; 0xffa <lcd_wr_command+0x2a0>
     ffe:	9d 8f       	std	Y+29, r25	; 0x1d
    1000:	8c 8f       	std	Y+28, r24	; 0x1c
    1002:	88 e2       	ldi	r24, 0x28	; 40
    1004:	90 e0       	ldi	r25, 0x00	; 0
    1006:	28 e2       	ldi	r18, 0x28	; 40
    1008:	30 e0       	ldi	r19, 0x00	; 0
    100a:	f9 01       	movw	r30, r18
    100c:	20 81       	ld	r18, Z
    100e:	2b 7f       	andi	r18, 0xFB	; 251
    1010:	fc 01       	movw	r30, r24
    1012:	20 83       	st	Z, r18
    1014:	6e 96       	adiw	r28, 0x1e	; 30
    1016:	0f b6       	in	r0, 0x3f	; 63
    1018:	f8 94       	cli
    101a:	de bf       	out	0x3e, r29	; 62
    101c:	0f be       	out	0x3f, r0	; 63
    101e:	cd bf       	out	0x3d, r28	; 61
    1020:	df 91       	pop	r29
    1022:	cf 91       	pop	r28
    1024:	08 95       	ret

00001026 <timer1_init>:
    1026:	cf 93       	push	r28
    1028:	df 93       	push	r29
    102a:	cd b7       	in	r28, 0x3d	; 61
    102c:	de b7       	in	r29, 0x3e	; 62
    102e:	81 e8       	ldi	r24, 0x81	; 129
    1030:	90 e0       	ldi	r25, 0x00	; 0
    1032:	fc 01       	movw	r30, r24
    1034:	10 82       	st	Z, r1
    1036:	85 e8       	ldi	r24, 0x85	; 133
    1038:	90 e0       	ldi	r25, 0x00	; 0
    103a:	2c ef       	ldi	r18, 0xFC	; 252
    103c:	fc 01       	movw	r30, r24
    103e:	20 83       	st	Z, r18
    1040:	84 e8       	ldi	r24, 0x84	; 132
    1042:	90 e0       	ldi	r25, 0x00	; 0
    1044:	21 e0       	ldi	r18, 0x01	; 1
    1046:	fc 01       	movw	r30, r24
    1048:	20 83       	st	Z, r18
    104a:	89 e8       	ldi	r24, 0x89	; 137
    104c:	90 e0       	ldi	r25, 0x00	; 0
    104e:	23 e0       	ldi	r18, 0x03	; 3
    1050:	fc 01       	movw	r30, r24
    1052:	20 83       	st	Z, r18
    1054:	88 e8       	ldi	r24, 0x88	; 136
    1056:	90 e0       	ldi	r25, 0x00	; 0
    1058:	2f ef       	ldi	r18, 0xFF	; 255
    105a:	fc 01       	movw	r30, r24
    105c:	20 83       	st	Z, r18
    105e:	8b e8       	ldi	r24, 0x8B	; 139
    1060:	90 e0       	ldi	r25, 0x00	; 0
    1062:	23 e0       	ldi	r18, 0x03	; 3
    1064:	fc 01       	movw	r30, r24
    1066:	20 83       	st	Z, r18
    1068:	8a e8       	ldi	r24, 0x8A	; 138
    106a:	90 e0       	ldi	r25, 0x00	; 0
    106c:	2f ef       	ldi	r18, 0xFF	; 255
    106e:	fc 01       	movw	r30, r24
    1070:	20 83       	st	Z, r18
    1072:	8d e8       	ldi	r24, 0x8D	; 141
    1074:	90 e0       	ldi	r25, 0x00	; 0
    1076:	23 e0       	ldi	r18, 0x03	; 3
    1078:	fc 01       	movw	r30, r24
    107a:	20 83       	st	Z, r18
    107c:	8c e8       	ldi	r24, 0x8C	; 140
    107e:	90 e0       	ldi	r25, 0x00	; 0
    1080:	2f ef       	ldi	r18, 0xFF	; 255
    1082:	fc 01       	movw	r30, r24
    1084:	20 83       	st	Z, r18
    1086:	87 e8       	ldi	r24, 0x87	; 135
    1088:	90 e0       	ldi	r25, 0x00	; 0
    108a:	23 e0       	ldi	r18, 0x03	; 3
    108c:	fc 01       	movw	r30, r24
    108e:	20 83       	st	Z, r18
    1090:	86 e8       	ldi	r24, 0x86	; 134
    1092:	90 e0       	ldi	r25, 0x00	; 0
    1094:	2f ef       	ldi	r18, 0xFF	; 255
    1096:	fc 01       	movw	r30, r24
    1098:	20 83       	st	Z, r18
    109a:	80 e8       	ldi	r24, 0x80	; 128
    109c:	90 e0       	ldi	r25, 0x00	; 0
    109e:	2b ea       	ldi	r18, 0xAB	; 171
    10a0:	fc 01       	movw	r30, r24
    10a2:	20 83       	st	Z, r18
    10a4:	82 e8       	ldi	r24, 0x82	; 130
    10a6:	90 e0       	ldi	r25, 0x00	; 0
    10a8:	fc 01       	movw	r30, r24
    10aa:	10 82       	st	Z, r1
    10ac:	81 e8       	ldi	r24, 0x81	; 129
    10ae:	90 e0       	ldi	r25, 0x00	; 0
    10b0:	2c e0       	ldi	r18, 0x0C	; 12
    10b2:	fc 01       	movw	r30, r24
    10b4:	20 83       	st	Z, r18
    10b6:	df 91       	pop	r29
    10b8:	cf 91       	pop	r28
    10ba:	08 95       	ret

000010bc <timer5_init>:
    10bc:	cf 93       	push	r28
    10be:	df 93       	push	r29
    10c0:	cd b7       	in	r28, 0x3d	; 61
    10c2:	de b7       	in	r29, 0x3e	; 62
    10c4:	81 e2       	ldi	r24, 0x21	; 33
    10c6:	91 e0       	ldi	r25, 0x01	; 1
    10c8:	fc 01       	movw	r30, r24
    10ca:	10 82       	st	Z, r1
    10cc:	85 e2       	ldi	r24, 0x25	; 37
    10ce:	91 e0       	ldi	r25, 0x01	; 1
    10d0:	2f ef       	ldi	r18, 0xFF	; 255
    10d2:	fc 01       	movw	r30, r24
    10d4:	20 83       	st	Z, r18
    10d6:	84 e2       	ldi	r24, 0x24	; 36
    10d8:	91 e0       	ldi	r25, 0x01	; 1
    10da:	21 e0       	ldi	r18, 0x01	; 1
    10dc:	fc 01       	movw	r30, r24
    10de:	20 83       	st	Z, r18
    10e0:	89 e2       	ldi	r24, 0x29	; 41
    10e2:	91 e0       	ldi	r25, 0x01	; 1
    10e4:	fc 01       	movw	r30, r24
    10e6:	10 82       	st	Z, r1
    10e8:	88 e2       	ldi	r24, 0x28	; 40
    10ea:	91 e0       	ldi	r25, 0x01	; 1
    10ec:	2f ef       	ldi	r18, 0xFF	; 255
    10ee:	fc 01       	movw	r30, r24
    10f0:	20 83       	st	Z, r18
    10f2:	8b e2       	ldi	r24, 0x2B	; 43
    10f4:	91 e0       	ldi	r25, 0x01	; 1
    10f6:	fc 01       	movw	r30, r24
    10f8:	10 82       	st	Z, r1
    10fa:	8a e2       	ldi	r24, 0x2A	; 42
    10fc:	91 e0       	ldi	r25, 0x01	; 1
    10fe:	2f ef       	ldi	r18, 0xFF	; 255
    1100:	fc 01       	movw	r30, r24
    1102:	20 83       	st	Z, r18
    1104:	8d e2       	ldi	r24, 0x2D	; 45
    1106:	91 e0       	ldi	r25, 0x01	; 1
    1108:	fc 01       	movw	r30, r24
    110a:	10 82       	st	Z, r1
    110c:	8c e2       	ldi	r24, 0x2C	; 44
    110e:	91 e0       	ldi	r25, 0x01	; 1
    1110:	2f ef       	ldi	r18, 0xFF	; 255
    1112:	fc 01       	movw	r30, r24
    1114:	20 83       	st	Z, r18
    1116:	80 e2       	ldi	r24, 0x20	; 32
    1118:	91 e0       	ldi	r25, 0x01	; 1
    111a:	29 ea       	ldi	r18, 0xA9	; 169
    111c:	fc 01       	movw	r30, r24
    111e:	20 83       	st	Z, r18
    1120:	81 e2       	ldi	r24, 0x21	; 33
    1122:	91 e0       	ldi	r25, 0x01	; 1
    1124:	2b e0       	ldi	r18, 0x0B	; 11
    1126:	fc 01       	movw	r30, r24
    1128:	20 83       	st	Z, r18
    112a:	df 91       	pop	r29
    112c:	cf 91       	pop	r28
    112e:	08 95       	ret

00001130 <buzzer_pin_config>:
    1130:	cf 93       	push	r28
    1132:	df 93       	push	r29
    1134:	cd b7       	in	r28, 0x3d	; 61
    1136:	de b7       	in	r29, 0x3e	; 62
    1138:	83 e3       	ldi	r24, 0x33	; 51
    113a:	90 e0       	ldi	r25, 0x00	; 0
    113c:	23 e3       	ldi	r18, 0x33	; 51
    113e:	30 e0       	ldi	r19, 0x00	; 0
    1140:	f9 01       	movw	r30, r18
    1142:	20 81       	ld	r18, Z
    1144:	28 60       	ori	r18, 0x08	; 8
    1146:	fc 01       	movw	r30, r24
    1148:	20 83       	st	Z, r18
    114a:	84 e3       	ldi	r24, 0x34	; 52
    114c:	90 e0       	ldi	r25, 0x00	; 0
    114e:	24 e3       	ldi	r18, 0x34	; 52
    1150:	30 e0       	ldi	r19, 0x00	; 0
    1152:	f9 01       	movw	r30, r18
    1154:	20 81       	ld	r18, Z
    1156:	27 7f       	andi	r18, 0xF7	; 247
    1158:	fc 01       	movw	r30, r24
    115a:	20 83       	st	Z, r18
    115c:	df 91       	pop	r29
    115e:	cf 91       	pop	r28
    1160:	08 95       	ret

00001162 <motion_pin_config>:
    1162:	cf 93       	push	r28
    1164:	df 93       	push	r29
    1166:	cd b7       	in	r28, 0x3d	; 61
    1168:	de b7       	in	r29, 0x3e	; 62
    116a:	81 e2       	ldi	r24, 0x21	; 33
    116c:	90 e0       	ldi	r25, 0x00	; 0
    116e:	21 e2       	ldi	r18, 0x21	; 33
    1170:	30 e0       	ldi	r19, 0x00	; 0
    1172:	f9 01       	movw	r30, r18
    1174:	20 81       	ld	r18, Z
    1176:	2f 60       	ori	r18, 0x0F	; 15
    1178:	fc 01       	movw	r30, r24
    117a:	20 83       	st	Z, r18
    117c:	82 e2       	ldi	r24, 0x22	; 34
    117e:	90 e0       	ldi	r25, 0x00	; 0
    1180:	22 e2       	ldi	r18, 0x22	; 34
    1182:	30 e0       	ldi	r19, 0x00	; 0
    1184:	f9 01       	movw	r30, r18
    1186:	20 81       	ld	r18, Z
    1188:	20 7f       	andi	r18, 0xF0	; 240
    118a:	fc 01       	movw	r30, r24
    118c:	20 83       	st	Z, r18
    118e:	8a e0       	ldi	r24, 0x0A	; 10
    1190:	91 e0       	ldi	r25, 0x01	; 1
    1192:	2a e0       	ldi	r18, 0x0A	; 10
    1194:	31 e0       	ldi	r19, 0x01	; 1
    1196:	f9 01       	movw	r30, r18
    1198:	20 81       	ld	r18, Z
    119a:	28 61       	ori	r18, 0x18	; 24
    119c:	fc 01       	movw	r30, r24
    119e:	20 83       	st	Z, r18
    11a0:	8b e0       	ldi	r24, 0x0B	; 11
    11a2:	91 e0       	ldi	r25, 0x01	; 1
    11a4:	2b e0       	ldi	r18, 0x0B	; 11
    11a6:	31 e0       	ldi	r19, 0x01	; 1
    11a8:	f9 01       	movw	r30, r18
    11aa:	20 81       	ld	r18, Z
    11ac:	28 61       	ori	r18, 0x18	; 24
    11ae:	fc 01       	movw	r30, r24
    11b0:	20 83       	st	Z, r18
    11b2:	df 91       	pop	r29
    11b4:	cf 91       	pop	r28
    11b6:	08 95       	ret

000011b8 <left_encoder_pin_config>:
    11b8:	cf 93       	push	r28
    11ba:	df 93       	push	r29
    11bc:	cd b7       	in	r28, 0x3d	; 61
    11be:	de b7       	in	r29, 0x3e	; 62
    11c0:	8d e2       	ldi	r24, 0x2D	; 45
    11c2:	90 e0       	ldi	r25, 0x00	; 0
    11c4:	2d e2       	ldi	r18, 0x2D	; 45
    11c6:	30 e0       	ldi	r19, 0x00	; 0
    11c8:	f9 01       	movw	r30, r18
    11ca:	20 81       	ld	r18, Z
    11cc:	2f 7e       	andi	r18, 0xEF	; 239
    11ce:	fc 01       	movw	r30, r24
    11d0:	20 83       	st	Z, r18
    11d2:	8e e2       	ldi	r24, 0x2E	; 46
    11d4:	90 e0       	ldi	r25, 0x00	; 0
    11d6:	2e e2       	ldi	r18, 0x2E	; 46
    11d8:	30 e0       	ldi	r19, 0x00	; 0
    11da:	f9 01       	movw	r30, r18
    11dc:	20 81       	ld	r18, Z
    11de:	20 61       	ori	r18, 0x10	; 16
    11e0:	fc 01       	movw	r30, r24
    11e2:	20 83       	st	Z, r18
    11e4:	df 91       	pop	r29
    11e6:	cf 91       	pop	r28
    11e8:	08 95       	ret

000011ea <right_encoder_pin_config>:
    11ea:	cf 93       	push	r28
    11ec:	df 93       	push	r29
    11ee:	cd b7       	in	r28, 0x3d	; 61
    11f0:	de b7       	in	r29, 0x3e	; 62
    11f2:	8d e2       	ldi	r24, 0x2D	; 45
    11f4:	90 e0       	ldi	r25, 0x00	; 0
    11f6:	2d e2       	ldi	r18, 0x2D	; 45
    11f8:	30 e0       	ldi	r19, 0x00	; 0
    11fa:	f9 01       	movw	r30, r18
    11fc:	20 81       	ld	r18, Z
    11fe:	2f 7d       	andi	r18, 0xDF	; 223
    1200:	fc 01       	movw	r30, r24
    1202:	20 83       	st	Z, r18
    1204:	8e e2       	ldi	r24, 0x2E	; 46
    1206:	90 e0       	ldi	r25, 0x00	; 0
    1208:	2e e2       	ldi	r18, 0x2E	; 46
    120a:	30 e0       	ldi	r19, 0x00	; 0
    120c:	f9 01       	movw	r30, r18
    120e:	20 81       	ld	r18, Z
    1210:	20 62       	ori	r18, 0x20	; 32
    1212:	fc 01       	movw	r30, r24
    1214:	20 83       	st	Z, r18
    1216:	df 91       	pop	r29
    1218:	cf 91       	pop	r28
    121a:	08 95       	ret

0000121c <left_position_encoder_interrupt_config>:
    121c:	cf 93       	push	r28
    121e:	df 93       	push	r29
    1220:	cd b7       	in	r28, 0x3d	; 61
    1222:	de b7       	in	r29, 0x3e	; 62
    1224:	f8 94       	cli
    1226:	8a e6       	ldi	r24, 0x6A	; 106
    1228:	90 e0       	ldi	r25, 0x00	; 0
    122a:	2a e6       	ldi	r18, 0x6A	; 106
    122c:	30 e0       	ldi	r19, 0x00	; 0
    122e:	f9 01       	movw	r30, r18
    1230:	20 81       	ld	r18, Z
    1232:	22 60       	ori	r18, 0x02	; 2
    1234:	fc 01       	movw	r30, r24
    1236:	20 83       	st	Z, r18
    1238:	8d e3       	ldi	r24, 0x3D	; 61
    123a:	90 e0       	ldi	r25, 0x00	; 0
    123c:	2d e3       	ldi	r18, 0x3D	; 61
    123e:	30 e0       	ldi	r19, 0x00	; 0
    1240:	f9 01       	movw	r30, r18
    1242:	20 81       	ld	r18, Z
    1244:	20 61       	ori	r18, 0x10	; 16
    1246:	fc 01       	movw	r30, r24
    1248:	20 83       	st	Z, r18
    124a:	78 94       	sei
    124c:	df 91       	pop	r29
    124e:	cf 91       	pop	r28
    1250:	08 95       	ret

00001252 <right_position_encoder_interrupt_config>:
    1252:	cf 93       	push	r28
    1254:	df 93       	push	r29
    1256:	cd b7       	in	r28, 0x3d	; 61
    1258:	de b7       	in	r29, 0x3e	; 62
    125a:	f8 94       	cli
    125c:	8a e6       	ldi	r24, 0x6A	; 106
    125e:	90 e0       	ldi	r25, 0x00	; 0
    1260:	2a e6       	ldi	r18, 0x6A	; 106
    1262:	30 e0       	ldi	r19, 0x00	; 0
    1264:	f9 01       	movw	r30, r18
    1266:	20 81       	ld	r18, Z
    1268:	28 60       	ori	r18, 0x08	; 8
    126a:	fc 01       	movw	r30, r24
    126c:	20 83       	st	Z, r18
    126e:	8d e3       	ldi	r24, 0x3D	; 61
    1270:	90 e0       	ldi	r25, 0x00	; 0
    1272:	2d e3       	ldi	r18, 0x3D	; 61
    1274:	30 e0       	ldi	r19, 0x00	; 0
    1276:	f9 01       	movw	r30, r18
    1278:	20 81       	ld	r18, Z
    127a:	20 62       	ori	r18, 0x20	; 32
    127c:	fc 01       	movw	r30, r24
    127e:	20 83       	st	Z, r18
    1280:	78 94       	sei
    1282:	df 91       	pop	r29
    1284:	cf 91       	pop	r28
    1286:	08 95       	ret

00001288 <servo1_pin_config>:
    1288:	cf 93       	push	r28
    128a:	df 93       	push	r29
    128c:	cd b7       	in	r28, 0x3d	; 61
    128e:	de b7       	in	r29, 0x3e	; 62
    1290:	84 e2       	ldi	r24, 0x24	; 36
    1292:	90 e0       	ldi	r25, 0x00	; 0
    1294:	24 e2       	ldi	r18, 0x24	; 36
    1296:	30 e0       	ldi	r19, 0x00	; 0
    1298:	f9 01       	movw	r30, r18
    129a:	20 81       	ld	r18, Z
    129c:	20 62       	ori	r18, 0x20	; 32
    129e:	fc 01       	movw	r30, r24
    12a0:	20 83       	st	Z, r18
    12a2:	85 e2       	ldi	r24, 0x25	; 37
    12a4:	90 e0       	ldi	r25, 0x00	; 0
    12a6:	25 e2       	ldi	r18, 0x25	; 37
    12a8:	30 e0       	ldi	r19, 0x00	; 0
    12aa:	f9 01       	movw	r30, r18
    12ac:	20 81       	ld	r18, Z
    12ae:	20 62       	ori	r18, 0x20	; 32
    12b0:	fc 01       	movw	r30, r24
    12b2:	20 83       	st	Z, r18
    12b4:	df 91       	pop	r29
    12b6:	cf 91       	pop	r28
    12b8:	08 95       	ret

000012ba <servo2_pin_config>:
    12ba:	cf 93       	push	r28
    12bc:	df 93       	push	r29
    12be:	cd b7       	in	r28, 0x3d	; 61
    12c0:	de b7       	in	r29, 0x3e	; 62
    12c2:	84 e2       	ldi	r24, 0x24	; 36
    12c4:	90 e0       	ldi	r25, 0x00	; 0
    12c6:	24 e2       	ldi	r18, 0x24	; 36
    12c8:	30 e0       	ldi	r19, 0x00	; 0
    12ca:	f9 01       	movw	r30, r18
    12cc:	20 81       	ld	r18, Z
    12ce:	20 64       	ori	r18, 0x40	; 64
    12d0:	fc 01       	movw	r30, r24
    12d2:	20 83       	st	Z, r18
    12d4:	85 e2       	ldi	r24, 0x25	; 37
    12d6:	90 e0       	ldi	r25, 0x00	; 0
    12d8:	25 e2       	ldi	r18, 0x25	; 37
    12da:	30 e0       	ldi	r19, 0x00	; 0
    12dc:	f9 01       	movw	r30, r18
    12de:	20 81       	ld	r18, Z
    12e0:	20 64       	ori	r18, 0x40	; 64
    12e2:	fc 01       	movw	r30, r24
    12e4:	20 83       	st	Z, r18
    12e6:	df 91       	pop	r29
    12e8:	cf 91       	pop	r28
    12ea:	08 95       	ret

000012ec <servo3_pin_config>:
    12ec:	cf 93       	push	r28
    12ee:	df 93       	push	r29
    12f0:	cd b7       	in	r28, 0x3d	; 61
    12f2:	de b7       	in	r29, 0x3e	; 62
    12f4:	84 e2       	ldi	r24, 0x24	; 36
    12f6:	90 e0       	ldi	r25, 0x00	; 0
    12f8:	24 e2       	ldi	r18, 0x24	; 36
    12fa:	30 e0       	ldi	r19, 0x00	; 0
    12fc:	f9 01       	movw	r30, r18
    12fe:	20 81       	ld	r18, Z
    1300:	20 68       	ori	r18, 0x80	; 128
    1302:	fc 01       	movw	r30, r24
    1304:	20 83       	st	Z, r18
    1306:	85 e2       	ldi	r24, 0x25	; 37
    1308:	90 e0       	ldi	r25, 0x00	; 0
    130a:	25 e2       	ldi	r18, 0x25	; 37
    130c:	30 e0       	ldi	r19, 0x00	; 0
    130e:	f9 01       	movw	r30, r18
    1310:	20 81       	ld	r18, Z
    1312:	20 68       	ori	r18, 0x80	; 128
    1314:	fc 01       	movw	r30, r24
    1316:	20 83       	st	Z, r18
    1318:	df 91       	pop	r29
    131a:	cf 91       	pop	r28
    131c:	08 95       	ret

0000131e <demux_pin_config>:
    131e:	cf 93       	push	r28
    1320:	df 93       	push	r29
    1322:	cd b7       	in	r28, 0x3d	; 61
    1324:	de b7       	in	r29, 0x3e	; 62
    1326:	81 e0       	ldi	r24, 0x01	; 1
    1328:	91 e0       	ldi	r25, 0x01	; 1
    132a:	fc 01       	movw	r30, r24
    132c:	80 81       	ld	r24, Z
    132e:	81 e0       	ldi	r24, 0x01	; 1
    1330:	91 e0       	ldi	r25, 0x01	; 1
    1332:	2f ef       	ldi	r18, 0xFF	; 255
    1334:	fc 01       	movw	r30, r24
    1336:	20 83       	st	Z, r18
    1338:	82 e0       	ldi	r24, 0x02	; 2
    133a:	91 e0       	ldi	r25, 0x01	; 1
    133c:	22 e0       	ldi	r18, 0x02	; 2
    133e:	31 e0       	ldi	r19, 0x01	; 1
    1340:	f9 01       	movw	r30, r18
    1342:	20 81       	ld	r18, Z
    1344:	2e 7f       	andi	r18, 0xFE	; 254
    1346:	fc 01       	movw	r30, r24
    1348:	20 83       	st	Z, r18
    134a:	df 91       	pop	r29
    134c:	cf 91       	pop	r28
    134e:	08 95       	ret

00001350 <adc_pin_config>:
    1350:	cf 93       	push	r28
    1352:	df 93       	push	r29
    1354:	cd b7       	in	r28, 0x3d	; 61
    1356:	de b7       	in	r29, 0x3e	; 62
    1358:	80 e3       	ldi	r24, 0x30	; 48
    135a:	90 e0       	ldi	r25, 0x00	; 0
    135c:	fc 01       	movw	r30, r24
    135e:	10 82       	st	Z, r1
    1360:	81 e3       	ldi	r24, 0x31	; 49
    1362:	90 e0       	ldi	r25, 0x00	; 0
    1364:	fc 01       	movw	r30, r24
    1366:	10 82       	st	Z, r1
    1368:	87 e0       	ldi	r24, 0x07	; 7
    136a:	91 e0       	ldi	r25, 0x01	; 1
    136c:	fc 01       	movw	r30, r24
    136e:	10 82       	st	Z, r1
    1370:	88 e0       	ldi	r24, 0x08	; 8
    1372:	91 e0       	ldi	r25, 0x01	; 1
    1374:	fc 01       	movw	r30, r24
    1376:	10 82       	st	Z, r1
    1378:	df 91       	pop	r29
    137a:	cf 91       	pop	r28
    137c:	08 95       	ret

0000137e <port_init>:
    137e:	cf 93       	push	r28
    1380:	df 93       	push	r29
    1382:	cd b7       	in	r28, 0x3d	; 61
    1384:	de b7       	in	r29, 0x3e	; 62
    1386:	d4 de       	rcall	.-600    	; 0x1130 <buzzer_pin_config>
    1388:	ec de       	rcall	.-552    	; 0x1162 <motion_pin_config>
    138a:	16 df       	rcall	.-468    	; 0x11b8 <left_encoder_pin_config>
    138c:	2e df       	rcall	.-420    	; 0x11ea <right_encoder_pin_config>
    138e:	46 df       	rcall	.-372    	; 0x121c <left_position_encoder_interrupt_config>
    1390:	60 df       	rcall	.-320    	; 0x1252 <right_position_encoder_interrupt_config>
    1392:	7a df       	rcall	.-268    	; 0x1288 <servo1_pin_config>
    1394:	92 df       	rcall	.-220    	; 0x12ba <servo2_pin_config>
    1396:	aa df       	rcall	.-172    	; 0x12ec <servo3_pin_config>
    1398:	c2 df       	rcall	.-124    	; 0x131e <demux_pin_config>
    139a:	0e 94 94 00 	call	0x128	; 0x128 <lcd_port_config>
    139e:	d8 df       	rcall	.-80     	; 0x1350 <adc_pin_config>
    13a0:	df 91       	pop	r29
    13a2:	cf 91       	pop	r28
    13a4:	08 95       	ret

000013a6 <__vector_6>:
    13a6:	1f 92       	push	r1
    13a8:	0f 92       	push	r0
    13aa:	00 90 5f 00 	lds	r0, 0x005F
    13ae:	0f 92       	push	r0
    13b0:	11 24       	eor	r1, r1
    13b2:	8f 93       	push	r24
    13b4:	9f 93       	push	r25
    13b6:	af 93       	push	r26
    13b8:	bf 93       	push	r27
    13ba:	cf 93       	push	r28
    13bc:	df 93       	push	r29
    13be:	cd b7       	in	r28, 0x3d	; 61
    13c0:	de b7       	in	r29, 0x3e	; 62
    13c2:	80 91 04 02 	lds	r24, 0x0204
    13c6:	90 91 05 02 	lds	r25, 0x0205
    13ca:	a0 91 06 02 	lds	r26, 0x0206
    13ce:	b0 91 07 02 	lds	r27, 0x0207
    13d2:	01 96       	adiw	r24, 0x01	; 1
    13d4:	a1 1d       	adc	r26, r1
    13d6:	b1 1d       	adc	r27, r1
    13d8:	80 93 04 02 	sts	0x0204, r24
    13dc:	90 93 05 02 	sts	0x0205, r25
    13e0:	a0 93 06 02 	sts	0x0206, r26
    13e4:	b0 93 07 02 	sts	0x0207, r27
    13e8:	df 91       	pop	r29
    13ea:	cf 91       	pop	r28
    13ec:	bf 91       	pop	r27
    13ee:	af 91       	pop	r26
    13f0:	9f 91       	pop	r25
    13f2:	8f 91       	pop	r24
    13f4:	0f 90       	pop	r0
    13f6:	00 92 5f 00 	sts	0x005F, r0
    13fa:	0f 90       	pop	r0
    13fc:	1f 90       	pop	r1
    13fe:	18 95       	reti

00001400 <__vector_5>:
    1400:	1f 92       	push	r1
    1402:	0f 92       	push	r0
    1404:	00 90 5f 00 	lds	r0, 0x005F
    1408:	0f 92       	push	r0
    140a:	11 24       	eor	r1, r1
    140c:	8f 93       	push	r24
    140e:	9f 93       	push	r25
    1410:	af 93       	push	r26
    1412:	bf 93       	push	r27
    1414:	cf 93       	push	r28
    1416:	df 93       	push	r29
    1418:	cd b7       	in	r28, 0x3d	; 61
    141a:	de b7       	in	r29, 0x3e	; 62
    141c:	80 91 00 02 	lds	r24, 0x0200
    1420:	90 91 01 02 	lds	r25, 0x0201
    1424:	a0 91 02 02 	lds	r26, 0x0202
    1428:	b0 91 03 02 	lds	r27, 0x0203
    142c:	01 96       	adiw	r24, 0x01	; 1
    142e:	a1 1d       	adc	r26, r1
    1430:	b1 1d       	adc	r27, r1
    1432:	80 93 00 02 	sts	0x0200, r24
    1436:	90 93 01 02 	sts	0x0201, r25
    143a:	a0 93 02 02 	sts	0x0202, r26
    143e:	b0 93 03 02 	sts	0x0203, r27
    1442:	df 91       	pop	r29
    1444:	cf 91       	pop	r28
    1446:	bf 91       	pop	r27
    1448:	af 91       	pop	r26
    144a:	9f 91       	pop	r25
    144c:	8f 91       	pop	r24
    144e:	0f 90       	pop	r0
    1450:	00 92 5f 00 	sts	0x005F, r0
    1454:	0f 90       	pop	r0
    1456:	1f 90       	pop	r1
    1458:	18 95       	reti

0000145a <motion_set>:
    145a:	cf 93       	push	r28
    145c:	df 93       	push	r29
    145e:	1f 92       	push	r1
    1460:	1f 92       	push	r1
    1462:	cd b7       	in	r28, 0x3d	; 61
    1464:	de b7       	in	r29, 0x3e	; 62
    1466:	8a 83       	std	Y+2, r24	; 0x02
    1468:	19 82       	std	Y+1, r1	; 0x01
    146a:	8a 81       	ldd	r24, Y+2	; 0x02
    146c:	8f 70       	andi	r24, 0x0F	; 15
    146e:	8a 83       	std	Y+2, r24	; 0x02
    1470:	82 e2       	ldi	r24, 0x22	; 34
    1472:	90 e0       	ldi	r25, 0x00	; 0
    1474:	fc 01       	movw	r30, r24
    1476:	80 81       	ld	r24, Z
    1478:	89 83       	std	Y+1, r24	; 0x01
    147a:	89 81       	ldd	r24, Y+1	; 0x01
    147c:	80 7f       	andi	r24, 0xF0	; 240
    147e:	89 83       	std	Y+1, r24	; 0x01
    1480:	99 81       	ldd	r25, Y+1	; 0x01
    1482:	8a 81       	ldd	r24, Y+2	; 0x02
    1484:	89 2b       	or	r24, r25
    1486:	89 83       	std	Y+1, r24	; 0x01
    1488:	82 e2       	ldi	r24, 0x22	; 34
    148a:	90 e0       	ldi	r25, 0x00	; 0
    148c:	29 81       	ldd	r18, Y+1	; 0x01
    148e:	fc 01       	movw	r30, r24
    1490:	20 83       	st	Z, r18
    1492:	0f 90       	pop	r0
    1494:	0f 90       	pop	r0
    1496:	df 91       	pop	r29
    1498:	cf 91       	pop	r28
    149a:	08 95       	ret

0000149c <left>:
    149c:	cf 93       	push	r28
    149e:	df 93       	push	r29
    14a0:	cd b7       	in	r28, 0x3d	; 61
    14a2:	de b7       	in	r29, 0x3e	; 62
    14a4:	8a e0       	ldi	r24, 0x0A	; 10
    14a6:	d9 df       	rcall	.-78     	; 0x145a <motion_set>
    14a8:	df 91       	pop	r29
    14aa:	cf 91       	pop	r28
    14ac:	08 95       	ret

000014ae <stop>:
    14ae:	cf 93       	push	r28
    14b0:	df 93       	push	r29
    14b2:	cd b7       	in	r28, 0x3d	; 61
    14b4:	de b7       	in	r29, 0x3e	; 62
    14b6:	80 e0       	ldi	r24, 0x00	; 0
    14b8:	d0 df       	rcall	.-96     	; 0x145a <motion_set>
    14ba:	df 91       	pop	r29
    14bc:	cf 91       	pop	r28
    14be:	08 95       	ret

000014c0 <angle_rotate>:
    14c0:	cf 93       	push	r28
    14c2:	df 93       	push	r29
    14c4:	cd b7       	in	r28, 0x3d	; 61
    14c6:	de b7       	in	r29, 0x3e	; 62
    14c8:	2a 97       	sbiw	r28, 0x0a	; 10
    14ca:	0f b6       	in	r0, 0x3f	; 63
    14cc:	f8 94       	cli
    14ce:	de bf       	out	0x3e, r29	; 62
    14d0:	0f be       	out	0x3f, r0	; 63
    14d2:	cd bf       	out	0x3d, r28	; 61
    14d4:	9a 87       	std	Y+10, r25	; 0x0a
    14d6:	89 87       	std	Y+9, r24	; 0x09
    14d8:	19 82       	std	Y+1, r1	; 0x01
    14da:	1a 82       	std	Y+2, r1	; 0x02
    14dc:	1b 82       	std	Y+3, r1	; 0x03
    14de:	1c 82       	std	Y+4, r1	; 0x04
    14e0:	1d 82       	std	Y+5, r1	; 0x05
    14e2:	1e 82       	std	Y+6, r1	; 0x06
    14e4:	1f 82       	std	Y+7, r1	; 0x07
    14e6:	18 86       	std	Y+8, r1	; 0x08
    14e8:	89 85       	ldd	r24, Y+9	; 0x09
    14ea:	9a 85       	ldd	r25, Y+10	; 0x0a
    14ec:	cc 01       	movw	r24, r24
    14ee:	a0 e0       	ldi	r26, 0x00	; 0
    14f0:	b0 e0       	ldi	r27, 0x00	; 0
    14f2:	bc 01       	movw	r22, r24
    14f4:	cd 01       	movw	r24, r26
    14f6:	e0 d0       	rcall	.+448    	; 0x16b8 <__floatunsisf>
    14f8:	dc 01       	movw	r26, r24
    14fa:	cb 01       	movw	r24, r22
    14fc:	24 e4       	ldi	r18, 0x44	; 68
    14fe:	39 e6       	ldi	r19, 0x69	; 105
    1500:	43 e7       	ldi	r20, 0x73	; 115
    1502:	50 e4       	ldi	r21, 0x40	; 64
    1504:	bc 01       	movw	r22, r24
    1506:	cd 01       	movw	r24, r26
    1508:	8d d1       	rcall	.+794    	; 0x1824 <__mulsf3>
    150a:	dc 01       	movw	r26, r24
    150c:	cb 01       	movw	r24, r22
    150e:	89 83       	std	Y+1, r24	; 0x01
    1510:	9a 83       	std	Y+2, r25	; 0x02
    1512:	ab 83       	std	Y+3, r26	; 0x03
    1514:	bc 83       	std	Y+4, r27	; 0x04
    1516:	69 81       	ldd	r22, Y+1	; 0x01
    1518:	7a 81       	ldd	r23, Y+2	; 0x02
    151a:	8b 81       	ldd	r24, Y+3	; 0x03
    151c:	9c 81       	ldd	r25, Y+4	; 0x04
    151e:	a0 d0       	rcall	.+320    	; 0x1660 <__fixunssfsi>
    1520:	dc 01       	movw	r26, r24
    1522:	cb 01       	movw	r24, r22
    1524:	cc 01       	movw	r24, r24
    1526:	a0 e0       	ldi	r26, 0x00	; 0
    1528:	b0 e0       	ldi	r27, 0x00	; 0
    152a:	8d 83       	std	Y+5, r24	; 0x05
    152c:	9e 83       	std	Y+6, r25	; 0x06
    152e:	af 83       	std	Y+7, r26	; 0x07
    1530:	b8 87       	std	Y+8, r27	; 0x08
    1532:	10 92 04 02 	sts	0x0204, r1
    1536:	10 92 05 02 	sts	0x0205, r1
    153a:	10 92 06 02 	sts	0x0206, r1
    153e:	10 92 07 02 	sts	0x0207, r1
    1542:	10 92 00 02 	sts	0x0200, r1
    1546:	10 92 01 02 	sts	0x0201, r1
    154a:	10 92 02 02 	sts	0x0202, r1
    154e:	10 92 03 02 	sts	0x0203, r1
    1552:	20 91 04 02 	lds	r18, 0x0204
    1556:	30 91 05 02 	lds	r19, 0x0205
    155a:	40 91 06 02 	lds	r20, 0x0206
    155e:	50 91 07 02 	lds	r21, 0x0207
    1562:	71 e0       	ldi	r23, 0x01	; 1
    1564:	8d 81       	ldd	r24, Y+5	; 0x05
    1566:	9e 81       	ldd	r25, Y+6	; 0x06
    1568:	af 81       	ldd	r26, Y+7	; 0x07
    156a:	b8 85       	ldd	r27, Y+8	; 0x08
    156c:	28 17       	cp	r18, r24
    156e:	39 07       	cpc	r19, r25
    1570:	4a 07       	cpc	r20, r26
    1572:	5b 07       	cpc	r21, r27
    1574:	08 f4       	brcc	.+2      	; 0x1578 <angle_rotate+0xb8>
    1576:	70 e0       	ldi	r23, 0x00	; 0
    1578:	20 91 00 02 	lds	r18, 0x0200
    157c:	30 91 01 02 	lds	r19, 0x0201
    1580:	40 91 02 02 	lds	r20, 0x0202
    1584:	50 91 03 02 	lds	r21, 0x0203
    1588:	61 e0       	ldi	r22, 0x01	; 1
    158a:	8d 81       	ldd	r24, Y+5	; 0x05
    158c:	9e 81       	ldd	r25, Y+6	; 0x06
    158e:	af 81       	ldd	r26, Y+7	; 0x07
    1590:	b8 85       	ldd	r27, Y+8	; 0x08
    1592:	28 17       	cp	r18, r24
    1594:	39 07       	cpc	r19, r25
    1596:	4a 07       	cpc	r20, r26
    1598:	5b 07       	cpc	r21, r27
    159a:	08 f4       	brcc	.+2      	; 0x159e <angle_rotate+0xde>
    159c:	60 e0       	ldi	r22, 0x00	; 0
    159e:	87 2f       	mov	r24, r23
    15a0:	86 2b       	or	r24, r22
    15a2:	88 23       	and	r24, r24
    15a4:	09 f0       	breq	.+2      	; 0x15a8 <angle_rotate+0xe8>
    15a6:	01 c0       	rjmp	.+2      	; 0x15aa <angle_rotate+0xea>
    15a8:	d4 cf       	rjmp	.-88     	; 0x1552 <angle_rotate+0x92>
    15aa:	81 df       	rcall	.-254    	; 0x14ae <stop>
    15ac:	2a 96       	adiw	r28, 0x0a	; 10
    15ae:	0f b6       	in	r0, 0x3f	; 63
    15b0:	f8 94       	cli
    15b2:	de bf       	out	0x3e, r29	; 62
    15b4:	0f be       	out	0x3f, r0	; 63
    15b6:	cd bf       	out	0x3d, r28	; 61
    15b8:	df 91       	pop	r29
    15ba:	cf 91       	pop	r28
    15bc:	08 95       	ret

000015be <left_degrees>:
    15be:	cf 93       	push	r28
    15c0:	df 93       	push	r29
    15c2:	1f 92       	push	r1
    15c4:	1f 92       	push	r1
    15c6:	cd b7       	in	r28, 0x3d	; 61
    15c8:	de b7       	in	r29, 0x3e	; 62
    15ca:	9a 83       	std	Y+2, r25	; 0x02
    15cc:	89 83       	std	Y+1, r24	; 0x01
    15ce:	66 df       	rcall	.-308    	; 0x149c <left>
    15d0:	89 81       	ldd	r24, Y+1	; 0x01
    15d2:	9a 81       	ldd	r25, Y+2	; 0x02
    15d4:	75 df       	rcall	.-278    	; 0x14c0 <angle_rotate>
    15d6:	0f 90       	pop	r0
    15d8:	0f 90       	pop	r0
    15da:	df 91       	pop	r29
    15dc:	cf 91       	pop	r28
    15de:	08 95       	ret

000015e0 <adc_init>:

/* -------------------------------------------------------------*/

//Devices Initialization Function ->
//Function to Initialize ADC
void adc_init() {
    15e0:	cf 93       	push	r28
    15e2:	df 93       	push	r29
    15e4:	cd b7       	in	r28, 0x3d	; 61
    15e6:	de b7       	in	r29, 0x3e	; 62
  ADCSRA = 0x00;
    15e8:	8a e7       	ldi	r24, 0x7A	; 122
    15ea:	90 e0       	ldi	r25, 0x00	; 0
    15ec:	fc 01       	movw	r30, r24
    15ee:	10 82       	st	Z, r1
  ADCSRB = 0x00; //MUX5 = 0
    15f0:	8b e7       	ldi	r24, 0x7B	; 123
    15f2:	90 e0       	ldi	r25, 0x00	; 0
    15f4:	fc 01       	movw	r30, r24
    15f6:	10 82       	st	Z, r1
  ADMUX = 0x20; //Vref=5V external --- ADLAR=1 --- MUX4:0 = 0000
    15f8:	8c e7       	ldi	r24, 0x7C	; 124
    15fa:	90 e0       	ldi	r25, 0x00	; 0
    15fc:	20 e2       	ldi	r18, 0x20	; 32
    15fe:	fc 01       	movw	r30, r24
    1600:	20 83       	st	Z, r18
  ACSR = 0x80;
    1602:	80 e5       	ldi	r24, 0x50	; 80
    1604:	90 e0       	ldi	r25, 0x00	; 0
    1606:	20 e8       	ldi	r18, 0x80	; 128
    1608:	fc 01       	movw	r30, r24
    160a:	20 83       	st	Z, r18
  ADCSRA = 0x86; //ADEN=1 --- ADIE=1 --- ADPS2:0 = 1 1 0
    160c:	8a e7       	ldi	r24, 0x7A	; 122
    160e:	90 e0       	ldi	r25, 0x00	; 0
    1610:	26 e8       	ldi	r18, 0x86	; 134
    1612:	fc 01       	movw	r30, r24
    1614:	20 83       	st	Z, r18
}
    1616:	df 91       	pop	r29
    1618:	cf 91       	pop	r28
    161a:	08 95       	ret

0000161c <init_devices>:

void init_devices(void) {
    161c:	cf 93       	push	r28
    161e:	df 93       	push	r29
    1620:	cd b7       	in	r28, 0x3d	; 61
    1622:	de b7       	in	r29, 0x3e	; 62
  cli(); //Clears the global interrupts
    1624:	f8 94       	cli
  port_init();
    1626:	ab de       	rcall	.-682    	; 0x137e <port_init>
  adc_init();
    1628:	db df       	rcall	.-74     	; 0x15e0 <adc_init>
  timer5_init();
    162a:	48 dd       	rcall	.-1392   	; 0x10bc <timer5_init>
  timer1_init();
    162c:	fc dc       	rcall	.-1544   	; 0x1026 <timer1_init>
  sei(); //Enables the global interrupts
    162e:	78 94       	sei
  lcd_set_4bit(); //These functions need not to be inside interrupt blocked code
    1630:	0e 94 ad 00 	call	0x15a	; 0x15a <lcd_set_4bit>
  lcd_init();
    1634:	08 db       	rcall	.-2544   	; 0xc46 <lcd_init>
}
    1636:	df 91       	pop	r29
    1638:	cf 91       	pop	r28
    163a:	08 95       	ret

0000163c <main>:
/* --------------------------------------------------------------*/

//Main Function ->
int main() {
    163c:	cf 93       	push	r28
    163e:	df 93       	push	r29
    1640:	cd b7       	in	r28, 0x3d	; 61
    1642:	de b7       	in	r29, 0x3e	; 62
  init_devices();
    1644:	eb df       	rcall	.-42     	; 0x161c <init_devices>
  //s_pick();
  //left_turn_wls();
  //forward_wls(2,1);
  //right_turn_inv();
  //forward_wls(3,1);
left_degrees(90);
    1646:	8a e5       	ldi	r24, 0x5A	; 90
    1648:	90 e0       	ldi	r25, 0x00	; 0
    164a:	b9 df       	rcall	.-142    	; 0x15be <left_degrees>
 
 
  stop();
    164c:	30 df       	rcall	.-416    	; 0x14ae <stop>
    164e:	80 e0       	ldi	r24, 0x00	; 0
    1650:	90 e0       	ldi	r25, 0x00	; 0
}
    1652:	df 91       	pop	r29
    1654:	cf 91       	pop	r28
    1656:	08 95       	ret

00001658 <__cmpsf2>:
    1658:	6c d0       	rcall	.+216    	; 0x1732 <__fp_cmp>
    165a:	08 f4       	brcc	.+2      	; 0x165e <__cmpsf2+0x6>
    165c:	81 e0       	ldi	r24, 0x01	; 1
    165e:	08 95       	ret

00001660 <__fixunssfsi>:
    1660:	bc d0       	rcall	.+376    	; 0x17da <__fp_splitA>
    1662:	88 f0       	brcs	.+34     	; 0x1686 <__fixunssfsi+0x26>
    1664:	9f 57       	subi	r25, 0x7F	; 127
    1666:	90 f0       	brcs	.+36     	; 0x168c <__fixunssfsi+0x2c>
    1668:	b9 2f       	mov	r27, r25
    166a:	99 27       	eor	r25, r25
    166c:	b7 51       	subi	r27, 0x17	; 23
    166e:	a0 f0       	brcs	.+40     	; 0x1698 <__fixunssfsi+0x38>
    1670:	d1 f0       	breq	.+52     	; 0x16a6 <__fixunssfsi+0x46>
    1672:	66 0f       	add	r22, r22
    1674:	77 1f       	adc	r23, r23
    1676:	88 1f       	adc	r24, r24
    1678:	99 1f       	adc	r25, r25
    167a:	1a f0       	brmi	.+6      	; 0x1682 <__fixunssfsi+0x22>
    167c:	ba 95       	dec	r27
    167e:	c9 f7       	brne	.-14     	; 0x1672 <__fixunssfsi+0x12>
    1680:	12 c0       	rjmp	.+36     	; 0x16a6 <__fixunssfsi+0x46>
    1682:	b1 30       	cpi	r27, 0x01	; 1
    1684:	81 f0       	breq	.+32     	; 0x16a6 <__fixunssfsi+0x46>
    1686:	c3 d0       	rcall	.+390    	; 0x180e <__fp_zero>
    1688:	b1 e0       	ldi	r27, 0x01	; 1
    168a:	08 95       	ret
    168c:	c0 c0       	rjmp	.+384    	; 0x180e <__fp_zero>
    168e:	67 2f       	mov	r22, r23
    1690:	78 2f       	mov	r23, r24
    1692:	88 27       	eor	r24, r24
    1694:	b8 5f       	subi	r27, 0xF8	; 248
    1696:	39 f0       	breq	.+14     	; 0x16a6 <__fixunssfsi+0x46>
    1698:	b9 3f       	cpi	r27, 0xF9	; 249
    169a:	cc f3       	brlt	.-14     	; 0x168e <__fixunssfsi+0x2e>
    169c:	86 95       	lsr	r24
    169e:	77 95       	ror	r23
    16a0:	67 95       	ror	r22
    16a2:	b3 95       	inc	r27
    16a4:	d9 f7       	brne	.-10     	; 0x169c <__fixunssfsi+0x3c>
    16a6:	3e f4       	brtc	.+14     	; 0x16b6 <__fixunssfsi+0x56>
    16a8:	90 95       	com	r25
    16aa:	80 95       	com	r24
    16ac:	70 95       	com	r23
    16ae:	61 95       	neg	r22
    16b0:	7f 4f       	sbci	r23, 0xFF	; 255
    16b2:	8f 4f       	sbci	r24, 0xFF	; 255
    16b4:	9f 4f       	sbci	r25, 0xFF	; 255
    16b6:	08 95       	ret

000016b8 <__floatunsisf>:
    16b8:	e8 94       	clt
    16ba:	09 c0       	rjmp	.+18     	; 0x16ce <__floatsisf+0x12>

000016bc <__floatsisf>:
    16bc:	97 fb       	bst	r25, 7
    16be:	3e f4       	brtc	.+14     	; 0x16ce <__floatsisf+0x12>
    16c0:	90 95       	com	r25
    16c2:	80 95       	com	r24
    16c4:	70 95       	com	r23
    16c6:	61 95       	neg	r22
    16c8:	7f 4f       	sbci	r23, 0xFF	; 255
    16ca:	8f 4f       	sbci	r24, 0xFF	; 255
    16cc:	9f 4f       	sbci	r25, 0xFF	; 255
    16ce:	99 23       	and	r25, r25
    16d0:	a9 f0       	breq	.+42     	; 0x16fc <__floatsisf+0x40>
    16d2:	f9 2f       	mov	r31, r25
    16d4:	96 e9       	ldi	r25, 0x96	; 150
    16d6:	bb 27       	eor	r27, r27
    16d8:	93 95       	inc	r25
    16da:	f6 95       	lsr	r31
    16dc:	87 95       	ror	r24
    16de:	77 95       	ror	r23
    16e0:	67 95       	ror	r22
    16e2:	b7 95       	ror	r27
    16e4:	f1 11       	cpse	r31, r1
    16e6:	f8 cf       	rjmp	.-16     	; 0x16d8 <__floatsisf+0x1c>
    16e8:	fa f4       	brpl	.+62     	; 0x1728 <__floatsisf+0x6c>
    16ea:	bb 0f       	add	r27, r27
    16ec:	11 f4       	brne	.+4      	; 0x16f2 <__floatsisf+0x36>
    16ee:	60 ff       	sbrs	r22, 0
    16f0:	1b c0       	rjmp	.+54     	; 0x1728 <__floatsisf+0x6c>
    16f2:	6f 5f       	subi	r22, 0xFF	; 255
    16f4:	7f 4f       	sbci	r23, 0xFF	; 255
    16f6:	8f 4f       	sbci	r24, 0xFF	; 255
    16f8:	9f 4f       	sbci	r25, 0xFF	; 255
    16fa:	16 c0       	rjmp	.+44     	; 0x1728 <__floatsisf+0x6c>
    16fc:	88 23       	and	r24, r24
    16fe:	11 f0       	breq	.+4      	; 0x1704 <__floatsisf+0x48>
    1700:	96 e9       	ldi	r25, 0x96	; 150
    1702:	11 c0       	rjmp	.+34     	; 0x1726 <__floatsisf+0x6a>
    1704:	77 23       	and	r23, r23
    1706:	21 f0       	breq	.+8      	; 0x1710 <__floatsisf+0x54>
    1708:	9e e8       	ldi	r25, 0x8E	; 142
    170a:	87 2f       	mov	r24, r23
    170c:	76 2f       	mov	r23, r22
    170e:	05 c0       	rjmp	.+10     	; 0x171a <__floatsisf+0x5e>
    1710:	66 23       	and	r22, r22
    1712:	71 f0       	breq	.+28     	; 0x1730 <__floatsisf+0x74>
    1714:	96 e8       	ldi	r25, 0x86	; 134
    1716:	86 2f       	mov	r24, r22
    1718:	70 e0       	ldi	r23, 0x00	; 0
    171a:	60 e0       	ldi	r22, 0x00	; 0
    171c:	2a f0       	brmi	.+10     	; 0x1728 <__floatsisf+0x6c>
    171e:	9a 95       	dec	r25
    1720:	66 0f       	add	r22, r22
    1722:	77 1f       	adc	r23, r23
    1724:	88 1f       	adc	r24, r24
    1726:	da f7       	brpl	.-10     	; 0x171e <__floatsisf+0x62>
    1728:	88 0f       	add	r24, r24
    172a:	96 95       	lsr	r25
    172c:	87 95       	ror	r24
    172e:	97 f9       	bld	r25, 7
    1730:	08 95       	ret

00001732 <__fp_cmp>:
    1732:	99 0f       	add	r25, r25
    1734:	00 08       	sbc	r0, r0
    1736:	55 0f       	add	r21, r21
    1738:	aa 0b       	sbc	r26, r26
    173a:	e0 e8       	ldi	r30, 0x80	; 128
    173c:	fe ef       	ldi	r31, 0xFE	; 254
    173e:	16 16       	cp	r1, r22
    1740:	17 06       	cpc	r1, r23
    1742:	e8 07       	cpc	r30, r24
    1744:	f9 07       	cpc	r31, r25
    1746:	c0 f0       	brcs	.+48     	; 0x1778 <__fp_cmp+0x46>
    1748:	12 16       	cp	r1, r18
    174a:	13 06       	cpc	r1, r19
    174c:	e4 07       	cpc	r30, r20
    174e:	f5 07       	cpc	r31, r21
    1750:	98 f0       	brcs	.+38     	; 0x1778 <__fp_cmp+0x46>
    1752:	62 1b       	sub	r22, r18
    1754:	73 0b       	sbc	r23, r19
    1756:	84 0b       	sbc	r24, r20
    1758:	95 0b       	sbc	r25, r21
    175a:	39 f4       	brne	.+14     	; 0x176a <__fp_cmp+0x38>
    175c:	0a 26       	eor	r0, r26
    175e:	61 f0       	breq	.+24     	; 0x1778 <__fp_cmp+0x46>
    1760:	23 2b       	or	r18, r19
    1762:	24 2b       	or	r18, r20
    1764:	25 2b       	or	r18, r21
    1766:	21 f4       	brne	.+8      	; 0x1770 <__fp_cmp+0x3e>
    1768:	08 95       	ret
    176a:	0a 26       	eor	r0, r26
    176c:	09 f4       	brne	.+2      	; 0x1770 <__fp_cmp+0x3e>
    176e:	a1 40       	sbci	r26, 0x01	; 1
    1770:	a6 95       	lsr	r26
    1772:	8f ef       	ldi	r24, 0xFF	; 255
    1774:	81 1d       	adc	r24, r1
    1776:	81 1d       	adc	r24, r1
    1778:	08 95       	ret

0000177a <__fp_inf>:
    177a:	97 f9       	bld	r25, 7
    177c:	9f 67       	ori	r25, 0x7F	; 127
    177e:	80 e8       	ldi	r24, 0x80	; 128
    1780:	70 e0       	ldi	r23, 0x00	; 0
    1782:	60 e0       	ldi	r22, 0x00	; 0
    1784:	08 95       	ret

00001786 <__fp_nan>:
    1786:	9f ef       	ldi	r25, 0xFF	; 255
    1788:	80 ec       	ldi	r24, 0xC0	; 192
    178a:	08 95       	ret

0000178c <__fp_pscA>:
    178c:	00 24       	eor	r0, r0
    178e:	0a 94       	dec	r0
    1790:	16 16       	cp	r1, r22
    1792:	17 06       	cpc	r1, r23
    1794:	18 06       	cpc	r1, r24
    1796:	09 06       	cpc	r0, r25
    1798:	08 95       	ret

0000179a <__fp_pscB>:
    179a:	00 24       	eor	r0, r0
    179c:	0a 94       	dec	r0
    179e:	12 16       	cp	r1, r18
    17a0:	13 06       	cpc	r1, r19
    17a2:	14 06       	cpc	r1, r20
    17a4:	05 06       	cpc	r0, r21
    17a6:	08 95       	ret

000017a8 <__fp_round>:
    17a8:	09 2e       	mov	r0, r25
    17aa:	03 94       	inc	r0
    17ac:	00 0c       	add	r0, r0
    17ae:	11 f4       	brne	.+4      	; 0x17b4 <__fp_round+0xc>
    17b0:	88 23       	and	r24, r24
    17b2:	52 f0       	brmi	.+20     	; 0x17c8 <__fp_round+0x20>
    17b4:	bb 0f       	add	r27, r27
    17b6:	40 f4       	brcc	.+16     	; 0x17c8 <__fp_round+0x20>
    17b8:	bf 2b       	or	r27, r31
    17ba:	11 f4       	brne	.+4      	; 0x17c0 <__fp_round+0x18>
    17bc:	60 ff       	sbrs	r22, 0
    17be:	04 c0       	rjmp	.+8      	; 0x17c8 <__fp_round+0x20>
    17c0:	6f 5f       	subi	r22, 0xFF	; 255
    17c2:	7f 4f       	sbci	r23, 0xFF	; 255
    17c4:	8f 4f       	sbci	r24, 0xFF	; 255
    17c6:	9f 4f       	sbci	r25, 0xFF	; 255
    17c8:	08 95       	ret

000017ca <__fp_split3>:
    17ca:	57 fd       	sbrc	r21, 7
    17cc:	90 58       	subi	r25, 0x80	; 128
    17ce:	44 0f       	add	r20, r20
    17d0:	55 1f       	adc	r21, r21
    17d2:	59 f0       	breq	.+22     	; 0x17ea <__fp_splitA+0x10>
    17d4:	5f 3f       	cpi	r21, 0xFF	; 255
    17d6:	71 f0       	breq	.+28     	; 0x17f4 <__fp_splitA+0x1a>
    17d8:	47 95       	ror	r20

000017da <__fp_splitA>:
    17da:	88 0f       	add	r24, r24
    17dc:	97 fb       	bst	r25, 7
    17de:	99 1f       	adc	r25, r25
    17e0:	61 f0       	breq	.+24     	; 0x17fa <__fp_splitA+0x20>
    17e2:	9f 3f       	cpi	r25, 0xFF	; 255
    17e4:	79 f0       	breq	.+30     	; 0x1804 <__fp_splitA+0x2a>
    17e6:	87 95       	ror	r24
    17e8:	08 95       	ret
    17ea:	12 16       	cp	r1, r18
    17ec:	13 06       	cpc	r1, r19
    17ee:	14 06       	cpc	r1, r20
    17f0:	55 1f       	adc	r21, r21
    17f2:	f2 cf       	rjmp	.-28     	; 0x17d8 <__fp_split3+0xe>
    17f4:	46 95       	lsr	r20
    17f6:	f1 df       	rcall	.-30     	; 0x17da <__fp_splitA>
    17f8:	08 c0       	rjmp	.+16     	; 0x180a <__fp_splitA+0x30>
    17fa:	16 16       	cp	r1, r22
    17fc:	17 06       	cpc	r1, r23
    17fe:	18 06       	cpc	r1, r24
    1800:	99 1f       	adc	r25, r25
    1802:	f1 cf       	rjmp	.-30     	; 0x17e6 <__fp_splitA+0xc>
    1804:	86 95       	lsr	r24
    1806:	71 05       	cpc	r23, r1
    1808:	61 05       	cpc	r22, r1
    180a:	08 94       	sec
    180c:	08 95       	ret

0000180e <__fp_zero>:
    180e:	e8 94       	clt

00001810 <__fp_szero>:
    1810:	bb 27       	eor	r27, r27
    1812:	66 27       	eor	r22, r22
    1814:	77 27       	eor	r23, r23
    1816:	cb 01       	movw	r24, r22
    1818:	97 f9       	bld	r25, 7
    181a:	08 95       	ret

0000181c <__gesf2>:
    181c:	8a df       	rcall	.-236    	; 0x1732 <__fp_cmp>
    181e:	08 f4       	brcc	.+2      	; 0x1822 <__gesf2+0x6>
    1820:	8f ef       	ldi	r24, 0xFF	; 255
    1822:	08 95       	ret

00001824 <__mulsf3>:
    1824:	0b d0       	rcall	.+22     	; 0x183c <__mulsf3x>
    1826:	c0 cf       	rjmp	.-128    	; 0x17a8 <__fp_round>
    1828:	b1 df       	rcall	.-158    	; 0x178c <__fp_pscA>
    182a:	28 f0       	brcs	.+10     	; 0x1836 <__mulsf3+0x12>
    182c:	b6 df       	rcall	.-148    	; 0x179a <__fp_pscB>
    182e:	18 f0       	brcs	.+6      	; 0x1836 <__mulsf3+0x12>
    1830:	95 23       	and	r25, r21
    1832:	09 f0       	breq	.+2      	; 0x1836 <__mulsf3+0x12>
    1834:	a2 cf       	rjmp	.-188    	; 0x177a <__fp_inf>
    1836:	a7 cf       	rjmp	.-178    	; 0x1786 <__fp_nan>
    1838:	11 24       	eor	r1, r1
    183a:	ea cf       	rjmp	.-44     	; 0x1810 <__fp_szero>

0000183c <__mulsf3x>:
    183c:	c6 df       	rcall	.-116    	; 0x17ca <__fp_split3>
    183e:	a0 f3       	brcs	.-24     	; 0x1828 <__mulsf3+0x4>

00001840 <__mulsf3_pse>:
    1840:	95 9f       	mul	r25, r21
    1842:	d1 f3       	breq	.-12     	; 0x1838 <__mulsf3+0x14>
    1844:	95 0f       	add	r25, r21
    1846:	50 e0       	ldi	r21, 0x00	; 0
    1848:	55 1f       	adc	r21, r21
    184a:	62 9f       	mul	r22, r18
    184c:	f0 01       	movw	r30, r0
    184e:	72 9f       	mul	r23, r18
    1850:	bb 27       	eor	r27, r27
    1852:	f0 0d       	add	r31, r0
    1854:	b1 1d       	adc	r27, r1
    1856:	63 9f       	mul	r22, r19
    1858:	aa 27       	eor	r26, r26
    185a:	f0 0d       	add	r31, r0
    185c:	b1 1d       	adc	r27, r1
    185e:	aa 1f       	adc	r26, r26
    1860:	64 9f       	mul	r22, r20
    1862:	66 27       	eor	r22, r22
    1864:	b0 0d       	add	r27, r0
    1866:	a1 1d       	adc	r26, r1
    1868:	66 1f       	adc	r22, r22
    186a:	82 9f       	mul	r24, r18
    186c:	22 27       	eor	r18, r18
    186e:	b0 0d       	add	r27, r0
    1870:	a1 1d       	adc	r26, r1
    1872:	62 1f       	adc	r22, r18
    1874:	73 9f       	mul	r23, r19
    1876:	b0 0d       	add	r27, r0
    1878:	a1 1d       	adc	r26, r1
    187a:	62 1f       	adc	r22, r18
    187c:	83 9f       	mul	r24, r19
    187e:	a0 0d       	add	r26, r0
    1880:	61 1d       	adc	r22, r1
    1882:	22 1f       	adc	r18, r18
    1884:	74 9f       	mul	r23, r20
    1886:	33 27       	eor	r19, r19
    1888:	a0 0d       	add	r26, r0
    188a:	61 1d       	adc	r22, r1
    188c:	23 1f       	adc	r18, r19
    188e:	84 9f       	mul	r24, r20
    1890:	60 0d       	add	r22, r0
    1892:	21 1d       	adc	r18, r1
    1894:	82 2f       	mov	r24, r18
    1896:	76 2f       	mov	r23, r22
    1898:	6a 2f       	mov	r22, r26
    189a:	11 24       	eor	r1, r1
    189c:	9f 57       	subi	r25, 0x7F	; 127
    189e:	50 40       	sbci	r21, 0x00	; 0
    18a0:	8a f0       	brmi	.+34     	; 0x18c4 <__mulsf3_pse+0x84>
    18a2:	e1 f0       	breq	.+56     	; 0x18dc <__mulsf3_pse+0x9c>
    18a4:	88 23       	and	r24, r24
    18a6:	4a f0       	brmi	.+18     	; 0x18ba <__mulsf3_pse+0x7a>
    18a8:	ee 0f       	add	r30, r30
    18aa:	ff 1f       	adc	r31, r31
    18ac:	bb 1f       	adc	r27, r27
    18ae:	66 1f       	adc	r22, r22
    18b0:	77 1f       	adc	r23, r23
    18b2:	88 1f       	adc	r24, r24
    18b4:	91 50       	subi	r25, 0x01	; 1
    18b6:	50 40       	sbci	r21, 0x00	; 0
    18b8:	a9 f7       	brne	.-22     	; 0x18a4 <__mulsf3_pse+0x64>
    18ba:	9e 3f       	cpi	r25, 0xFE	; 254
    18bc:	51 05       	cpc	r21, r1
    18be:	70 f0       	brcs	.+28     	; 0x18dc <__mulsf3_pse+0x9c>
    18c0:	5c cf       	rjmp	.-328    	; 0x177a <__fp_inf>
    18c2:	a6 cf       	rjmp	.-180    	; 0x1810 <__fp_szero>
    18c4:	5f 3f       	cpi	r21, 0xFF	; 255
    18c6:	ec f3       	brlt	.-6      	; 0x18c2 <__mulsf3_pse+0x82>
    18c8:	98 3e       	cpi	r25, 0xE8	; 232
    18ca:	dc f3       	brlt	.-10     	; 0x18c2 <__mulsf3_pse+0x82>
    18cc:	86 95       	lsr	r24
    18ce:	77 95       	ror	r23
    18d0:	67 95       	ror	r22
    18d2:	b7 95       	ror	r27
    18d4:	f7 95       	ror	r31
    18d6:	e7 95       	ror	r30
    18d8:	9f 5f       	subi	r25, 0xFF	; 255
    18da:	c1 f7       	brne	.-16     	; 0x18cc <__mulsf3_pse+0x8c>
    18dc:	fe 2b       	or	r31, r30
    18de:	88 0f       	add	r24, r24
    18e0:	91 1d       	adc	r25, r1
    18e2:	96 95       	lsr	r25
    18e4:	87 95       	ror	r24
    18e6:	97 f9       	bld	r25, 7
    18e8:	08 95       	ret

000018ea <_exit>:
    18ea:	f8 94       	cli

000018ec <__stop_program>:
    18ec:	ff cf       	rjmp	.-2      	; 0x18ec <__stop_program>
