
Task5.elf:     file format elf32-avr

Sections:
Idx Name          Size      VMA       LMA       File off  Algn
  0 .data         000000a6  00800200  000006ba  0000074e  2**0
                  CONTENTS, ALLOC, LOAD, DATA
  1 .text         000006ba  00000000  00000000  00000094  2**1
                  CONTENTS, ALLOC, LOAD, READONLY, CODE
  2 .bss          00000016  008002a6  008002a6  000007f4  2**0
                  ALLOC
  3 .comment      00000030  00000000  00000000  000007f4  2**0
                  CONTENTS, READONLY
  4 .debug_aranges 00000210  00000000  00000000  00000824  2**0
                  CONTENTS, READONLY, DEBUGGING
  5 .debug_info   00002e84  00000000  00000000  00000a34  2**0
                  CONTENTS, READONLY, DEBUGGING
  6 .debug_abbrev 000003d5  00000000  00000000  000038b8  2**0
                  CONTENTS, READONLY, DEBUGGING
  7 .debug_line   000016c1  00000000  00000000  00003c8d  2**0
                  CONTENTS, READONLY, DEBUGGING
  8 .debug_frame  000004d0  00000000  00000000  00005350  2**2
                  CONTENTS, READONLY, DEBUGGING
  9 .debug_str    0000055f  00000000  00000000  00005820  2**0
                  CONTENTS, READONLY, DEBUGGING
 10 .debug_loc    00000e56  00000000  00000000  00005d7f  2**0
                  CONTENTS, READONLY, DEBUGGING
 11 .debug_ranges 00000230  00000000  00000000  00006bd5  2**0
                  CONTENTS, READONLY, DEBUGGING

Disassembly of section .text:

00000000 <__vectors>:
   0:	7b c0       	rjmp	.+246    	; 0xf8 <__ctors_end>
   2:	00 00       	nop
   4:	98 c0       	rjmp	.+304    	; 0x136 <__bad_interrupt>
   6:	00 00       	nop
   8:	96 c0       	rjmp	.+300    	; 0x136 <__bad_interrupt>
   a:	00 00       	nop
   c:	94 c0       	rjmp	.+296    	; 0x136 <__bad_interrupt>
   e:	00 00       	nop
  10:	92 c0       	rjmp	.+292    	; 0x136 <__bad_interrupt>
  12:	00 00       	nop
  14:	90 c0       	rjmp	.+288    	; 0x136 <__bad_interrupt>
  16:	00 00       	nop
  18:	8e c0       	rjmp	.+284    	; 0x136 <__bad_interrupt>
  1a:	00 00       	nop
  1c:	8c c0       	rjmp	.+280    	; 0x136 <__bad_interrupt>
  1e:	00 00       	nop
  20:	8a c0       	rjmp	.+276    	; 0x136 <__bad_interrupt>
  22:	00 00       	nop
  24:	88 c0       	rjmp	.+272    	; 0x136 <__bad_interrupt>
  26:	00 00       	nop
  28:	86 c0       	rjmp	.+268    	; 0x136 <__bad_interrupt>
  2a:	00 00       	nop
  2c:	84 c0       	rjmp	.+264    	; 0x136 <__bad_interrupt>
  2e:	00 00       	nop
  30:	82 c0       	rjmp	.+260    	; 0x136 <__bad_interrupt>
  32:	00 00       	nop
  34:	80 c0       	rjmp	.+256    	; 0x136 <__bad_interrupt>
  36:	00 00       	nop
  38:	7e c0       	rjmp	.+252    	; 0x136 <__bad_interrupt>
  3a:	00 00       	nop
  3c:	7c c0       	rjmp	.+248    	; 0x136 <__bad_interrupt>
  3e:	00 00       	nop
  40:	7a c0       	rjmp	.+244    	; 0x136 <__bad_interrupt>
  42:	00 00       	nop
  44:	78 c0       	rjmp	.+240    	; 0x136 <__bad_interrupt>
  46:	00 00       	nop
  48:	76 c0       	rjmp	.+236    	; 0x136 <__bad_interrupt>
  4a:	00 00       	nop
  4c:	74 c0       	rjmp	.+232    	; 0x136 <__bad_interrupt>
  4e:	00 00       	nop
  50:	72 c0       	rjmp	.+228    	; 0x136 <__bad_interrupt>
  52:	00 00       	nop
  54:	70 c0       	rjmp	.+224    	; 0x136 <__bad_interrupt>
  56:	00 00       	nop
  58:	6e c0       	rjmp	.+220    	; 0x136 <__bad_interrupt>
  5a:	00 00       	nop
  5c:	6c c0       	rjmp	.+216    	; 0x136 <__bad_interrupt>
  5e:	00 00       	nop
  60:	6a c0       	rjmp	.+212    	; 0x136 <__bad_interrupt>
  62:	00 00       	nop
  64:	68 c0       	rjmp	.+208    	; 0x136 <__bad_interrupt>
  66:	00 00       	nop
  68:	66 c0       	rjmp	.+204    	; 0x136 <__bad_interrupt>
  6a:	00 00       	nop
  6c:	64 c0       	rjmp	.+200    	; 0x136 <__bad_interrupt>
  6e:	00 00       	nop
  70:	62 c0       	rjmp	.+196    	; 0x136 <__bad_interrupt>
  72:	00 00       	nop
  74:	60 c0       	rjmp	.+192    	; 0x136 <__bad_interrupt>
  76:	00 00       	nop
  78:	5e c0       	rjmp	.+188    	; 0x136 <__bad_interrupt>
  7a:	00 00       	nop
  7c:	5c c0       	rjmp	.+184    	; 0x136 <__bad_interrupt>
  7e:	00 00       	nop
  80:	5a c0       	rjmp	.+180    	; 0x136 <__bad_interrupt>
  82:	00 00       	nop
  84:	58 c0       	rjmp	.+176    	; 0x136 <__bad_interrupt>
  86:	00 00       	nop
  88:	56 c0       	rjmp	.+172    	; 0x136 <__bad_interrupt>
  8a:	00 00       	nop
  8c:	54 c0       	rjmp	.+168    	; 0x136 <__bad_interrupt>
  8e:	00 00       	nop
  90:	52 c0       	rjmp	.+164    	; 0x136 <__bad_interrupt>
  92:	00 00       	nop
  94:	50 c0       	rjmp	.+160    	; 0x136 <__bad_interrupt>
  96:	00 00       	nop
  98:	4e c0       	rjmp	.+156    	; 0x136 <__bad_interrupt>
  9a:	00 00       	nop
  9c:	4c c0       	rjmp	.+152    	; 0x136 <__bad_interrupt>
  9e:	00 00       	nop
  a0:	4a c0       	rjmp	.+148    	; 0x136 <__bad_interrupt>
  a2:	00 00       	nop
  a4:	48 c0       	rjmp	.+144    	; 0x136 <__bad_interrupt>
  a6:	00 00       	nop
  a8:	46 c0       	rjmp	.+140    	; 0x136 <__bad_interrupt>
  aa:	00 00       	nop
  ac:	44 c0       	rjmp	.+136    	; 0x136 <__bad_interrupt>
  ae:	00 00       	nop
  b0:	42 c0       	rjmp	.+132    	; 0x136 <__bad_interrupt>
  b2:	00 00       	nop
  b4:	40 c0       	rjmp	.+128    	; 0x136 <__bad_interrupt>
  b6:	00 00       	nop
  b8:	3e c0       	rjmp	.+124    	; 0x136 <__bad_interrupt>
  ba:	00 00       	nop
  bc:	3c c0       	rjmp	.+120    	; 0x136 <__bad_interrupt>
  be:	00 00       	nop
  c0:	3a c0       	rjmp	.+116    	; 0x136 <__bad_interrupt>
  c2:	00 00       	nop
  c4:	38 c0       	rjmp	.+112    	; 0x136 <__bad_interrupt>
  c6:	00 00       	nop
  c8:	36 c0       	rjmp	.+108    	; 0x136 <__bad_interrupt>
  ca:	00 00       	nop
  cc:	34 c0       	rjmp	.+104    	; 0x136 <__bad_interrupt>
  ce:	00 00       	nop
  d0:	32 c0       	rjmp	.+100    	; 0x136 <__bad_interrupt>
  d2:	00 00       	nop
  d4:	30 c0       	rjmp	.+96     	; 0x136 <__bad_interrupt>
  d6:	00 00       	nop
  d8:	2e c0       	rjmp	.+92     	; 0x136 <__bad_interrupt>
  da:	00 00       	nop
  dc:	2c c0       	rjmp	.+88     	; 0x136 <__bad_interrupt>
  de:	00 00       	nop
  e0:	2a c0       	rjmp	.+84     	; 0x136 <__bad_interrupt>
  e2:	00 00       	nop
  e4:	1c 02       	muls	r17, r28
  e6:	23 02       	muls	r18, r19
  e8:	2a 02       	muls	r18, r26
  ea:	31 02       	muls	r19, r17
  ec:	38 02       	muls	r19, r24
  ee:	3f 02       	muls	r19, r31
  f0:	46 02       	muls	r20, r22
  f2:	4d 02       	muls	r20, r29
  f4:	5a 02       	muls	r21, r26
  f6:	67 02       	muls	r22, r23

000000f8 <__ctors_end>:
  f8:	11 24       	eor	r1, r1
  fa:	1f be       	out	0x3f, r1	; 63
  fc:	cf ef       	ldi	r28, 0xFF	; 255
  fe:	d1 e2       	ldi	r29, 0x21	; 33
 100:	de bf       	out	0x3e, r29	; 62
 102:	cd bf       	out	0x3d, r28	; 61
 104:	00 e0       	ldi	r16, 0x00	; 0
 106:	0c bf       	out	0x3c, r16	; 60

00000108 <__do_copy_data>:
 108:	12 e0       	ldi	r17, 0x02	; 2
 10a:	a0 e0       	ldi	r26, 0x00	; 0
 10c:	b2 e0       	ldi	r27, 0x02	; 2
 10e:	ea eb       	ldi	r30, 0xBA	; 186
 110:	f6 e0       	ldi	r31, 0x06	; 6
 112:	00 e0       	ldi	r16, 0x00	; 0
 114:	0b bf       	out	0x3b, r16	; 59
 116:	02 c0       	rjmp	.+4      	; 0x11c <__do_copy_data+0x14>
 118:	07 90       	elpm	r0, Z+
 11a:	0d 92       	st	X+, r0
 11c:	a6 3a       	cpi	r26, 0xA6	; 166
 11e:	b1 07       	cpc	r27, r17
 120:	d9 f7       	brne	.-10     	; 0x118 <__do_copy_data+0x10>

00000122 <__do_clear_bss>:
 122:	22 e0       	ldi	r18, 0x02	; 2
 124:	a6 ea       	ldi	r26, 0xA6	; 166
 126:	b2 e0       	ldi	r27, 0x02	; 2
 128:	01 c0       	rjmp	.+2      	; 0x12c <.do_clear_bss_start>

0000012a <.do_clear_bss_loop>:
 12a:	1d 92       	st	X+, r1

0000012c <.do_clear_bss_start>:
 12c:	ac 3b       	cpi	r26, 0xBC	; 188
 12e:	b2 07       	cpc	r27, r18
 130:	e1 f7       	brne	.-8      	; 0x12a <.do_clear_bss_loop>
 132:	b6 d2       	rcall	.+1388   	; 0x6a0 <main>
 134:	c0 c2       	rjmp	.+1408   	; 0x6b6 <_exit>

00000136 <__bad_interrupt>:
 136:	64 cf       	rjmp	.-312    	; 0x0 <__vectors>

00000138 <lcd_port_config>:
	_delay_ms(300);
	stop();
	s_place_hr(); // <------ 2nd Place slave
	LCD_Function(8);
	_delay_ms(1000);
	buzzer_on();
 138:	87 b1       	in	r24, 0x07	; 7
 13a:	87 6f       	ori	r24, 0xF7	; 247
 13c:	87 b9       	out	0x07, r24	; 7
 13e:	88 b1       	in	r24, 0x08	; 8
 140:	88 70       	andi	r24, 0x08	; 8
 142:	88 b9       	out	0x08, r24	; 8
 144:	08 95       	ret

00000146 <lcd_set_4bit>:
 146:	86 e6       	ldi	r24, 0x66	; 102
 148:	9e e0       	ldi	r25, 0x0E	; 14
 14a:	01 97       	sbiw	r24, 0x01	; 1
 14c:	f1 f7       	brne	.-4      	; 0x14a <lcd_set_4bit+0x4>
 14e:	00 00       	nop
 150:	40 98       	cbi	0x08, 0	; 8
 152:	41 98       	cbi	0x08, 1	; 8
 154:	80 e3       	ldi	r24, 0x30	; 48
 156:	88 b9       	out	0x08, r24	; 8
 158:	42 9a       	sbi	0x08, 2	; 8
 15a:	8f ef       	ldi	r24, 0xFF	; 255
 15c:	97 e4       	ldi	r25, 0x47	; 71
 15e:	01 97       	sbiw	r24, 0x01	; 1
 160:	f1 f7       	brne	.-4      	; 0x15e <lcd_set_4bit+0x18>
 162:	00 c0       	rjmp	.+0      	; 0x164 <lcd_set_4bit+0x1e>
 164:	00 00       	nop
 166:	42 98       	cbi	0x08, 2	; 8
 168:	86 e6       	ldi	r24, 0x66	; 102
 16a:	9e e0       	ldi	r25, 0x0E	; 14
 16c:	01 97       	sbiw	r24, 0x01	; 1
 16e:	f1 f7       	brne	.-4      	; 0x16c <lcd_set_4bit+0x26>
 170:	00 00       	nop
 172:	40 98       	cbi	0x08, 0	; 8
 174:	41 98       	cbi	0x08, 1	; 8
 176:	80 e3       	ldi	r24, 0x30	; 48
 178:	88 b9       	out	0x08, r24	; 8
 17a:	42 9a       	sbi	0x08, 2	; 8
 17c:	8f ef       	ldi	r24, 0xFF	; 255
 17e:	97 e4       	ldi	r25, 0x47	; 71
 180:	01 97       	sbiw	r24, 0x01	; 1
 182:	f1 f7       	brne	.-4      	; 0x180 <lcd_set_4bit+0x3a>
 184:	00 c0       	rjmp	.+0      	; 0x186 <lcd_set_4bit+0x40>
 186:	00 00       	nop
 188:	42 98       	cbi	0x08, 2	; 8
 18a:	86 e6       	ldi	r24, 0x66	; 102
 18c:	9e e0       	ldi	r25, 0x0E	; 14
 18e:	01 97       	sbiw	r24, 0x01	; 1
 190:	f1 f7       	brne	.-4      	; 0x18e <lcd_set_4bit+0x48>
 192:	00 00       	nop
 194:	40 98       	cbi	0x08, 0	; 8
 196:	41 98       	cbi	0x08, 1	; 8
 198:	80 e3       	ldi	r24, 0x30	; 48
 19a:	88 b9       	out	0x08, r24	; 8
 19c:	42 9a       	sbi	0x08, 2	; 8
 19e:	8f ef       	ldi	r24, 0xFF	; 255
 1a0:	97 e4       	ldi	r25, 0x47	; 71
 1a2:	01 97       	sbiw	r24, 0x01	; 1
 1a4:	f1 f7       	brne	.-4      	; 0x1a2 <lcd_set_4bit+0x5c>
 1a6:	00 c0       	rjmp	.+0      	; 0x1a8 <lcd_set_4bit+0x62>
 1a8:	00 00       	nop
 1aa:	42 98       	cbi	0x08, 2	; 8
 1ac:	86 e6       	ldi	r24, 0x66	; 102
 1ae:	9e e0       	ldi	r25, 0x0E	; 14
 1b0:	01 97       	sbiw	r24, 0x01	; 1
 1b2:	f1 f7       	brne	.-4      	; 0x1b0 <lcd_set_4bit+0x6a>
 1b4:	00 00       	nop
 1b6:	40 98       	cbi	0x08, 0	; 8
 1b8:	41 98       	cbi	0x08, 1	; 8
 1ba:	80 e2       	ldi	r24, 0x20	; 32
 1bc:	88 b9       	out	0x08, r24	; 8
 1be:	42 9a       	sbi	0x08, 2	; 8
 1c0:	8f ef       	ldi	r24, 0xFF	; 255
 1c2:	97 e4       	ldi	r25, 0x47	; 71
 1c4:	01 97       	sbiw	r24, 0x01	; 1
 1c6:	f1 f7       	brne	.-4      	; 0x1c4 <lcd_set_4bit+0x7e>
 1c8:	00 c0       	rjmp	.+0      	; 0x1ca <lcd_set_4bit+0x84>
 1ca:	00 00       	nop
 1cc:	42 98       	cbi	0x08, 2	; 8
 1ce:	08 95       	ret

000001d0 <lcd_wr_command>:
 1d0:	98 b1       	in	r25, 0x08	; 8
 1d2:	9f 70       	andi	r25, 0x0F	; 15
 1d4:	98 b9       	out	0x08, r25	; 8
 1d6:	98 b1       	in	r25, 0x08	; 8
 1d8:	28 2f       	mov	r18, r24
 1da:	20 7f       	andi	r18, 0xF0	; 240
 1dc:	92 2b       	or	r25, r18
 1de:	98 b9       	out	0x08, r25	; 8
 1e0:	40 98       	cbi	0x08, 0	; 8
 1e2:	41 98       	cbi	0x08, 1	; 8
 1e4:	42 9a       	sbi	0x08, 2	; 8
 1e6:	ef ef       	ldi	r30, 0xFF	; 255
 1e8:	f7 e4       	ldi	r31, 0x47	; 71
 1ea:	31 97       	sbiw	r30, 0x01	; 1
 1ec:	f1 f7       	brne	.-4      	; 0x1ea <lcd_wr_command+0x1a>
 1ee:	00 c0       	rjmp	.+0      	; 0x1f0 <lcd_wr_command+0x20>
 1f0:	00 00       	nop
 1f2:	42 98       	cbi	0x08, 2	; 8
 1f4:	98 b1       	in	r25, 0x08	; 8
 1f6:	9f 70       	andi	r25, 0x0F	; 15
 1f8:	98 b9       	out	0x08, r25	; 8
 1fa:	98 b1       	in	r25, 0x08	; 8
 1fc:	82 95       	swap	r24
 1fe:	80 7f       	andi	r24, 0xF0	; 240
 200:	89 2b       	or	r24, r25
 202:	88 b9       	out	0x08, r24	; 8
 204:	40 98       	cbi	0x08, 0	; 8
 206:	41 98       	cbi	0x08, 1	; 8
 208:	42 9a       	sbi	0x08, 2	; 8
 20a:	8f ef       	ldi	r24, 0xFF	; 255
 20c:	97 e4       	ldi	r25, 0x47	; 71
 20e:	01 97       	sbiw	r24, 0x01	; 1
 210:	f1 f7       	brne	.-4      	; 0x20e <lcd_wr_command+0x3e>
 212:	00 c0       	rjmp	.+0      	; 0x214 <lcd_wr_command+0x44>
 214:	00 00       	nop
 216:	42 98       	cbi	0x08, 2	; 8
 218:	08 95       	ret

0000021a <lcd_init>:
 21a:	95 df       	rcall	.-214    	; 0x146 <lcd_set_4bit>
 21c:	86 e6       	ldi	r24, 0x66	; 102
 21e:	9e e0       	ldi	r25, 0x0E	; 14
 220:	01 97       	sbiw	r24, 0x01	; 1
 222:	f1 f7       	brne	.-4      	; 0x220 <lcd_init+0x6>
 224:	00 00       	nop
 226:	88 e2       	ldi	r24, 0x28	; 40
 228:	d3 df       	rcall	.-90     	; 0x1d0 <lcd_wr_command>
 22a:	81 e0       	ldi	r24, 0x01	; 1
 22c:	d1 df       	rcall	.-94     	; 0x1d0 <lcd_wr_command>
 22e:	86 e0       	ldi	r24, 0x06	; 6
 230:	cf df       	rcall	.-98     	; 0x1d0 <lcd_wr_command>
 232:	8e e0       	ldi	r24, 0x0E	; 14
 234:	cd df       	rcall	.-102    	; 0x1d0 <lcd_wr_command>
 236:	80 e8       	ldi	r24, 0x80	; 128
 238:	cb cf       	rjmp	.-106    	; 0x1d0 <lcd_wr_command>
 23a:	08 95       	ret

0000023c <lcd_wr_char>:
 23c:	98 b1       	in	r25, 0x08	; 8
 23e:	9f 70       	andi	r25, 0x0F	; 15
 240:	98 b9       	out	0x08, r25	; 8
 242:	98 b1       	in	r25, 0x08	; 8
 244:	28 2f       	mov	r18, r24
 246:	20 7f       	andi	r18, 0xF0	; 240
 248:	92 2b       	or	r25, r18
 24a:	98 b9       	out	0x08, r25	; 8
 24c:	40 9a       	sbi	0x08, 0	; 8
 24e:	41 98       	cbi	0x08, 1	; 8
 250:	42 9a       	sbi	0x08, 2	; 8
 252:	ef ef       	ldi	r30, 0xFF	; 255
 254:	f7 e4       	ldi	r31, 0x47	; 71
 256:	31 97       	sbiw	r30, 0x01	; 1
 258:	f1 f7       	brne	.-4      	; 0x256 <lcd_wr_char+0x1a>
 25a:	00 c0       	rjmp	.+0      	; 0x25c <lcd_wr_char+0x20>
 25c:	00 00       	nop
 25e:	42 98       	cbi	0x08, 2	; 8
 260:	98 b1       	in	r25, 0x08	; 8
 262:	9f 70       	andi	r25, 0x0F	; 15
 264:	98 b9       	out	0x08, r25	; 8
 266:	98 b1       	in	r25, 0x08	; 8
 268:	82 95       	swap	r24
 26a:	80 7f       	andi	r24, 0xF0	; 240
 26c:	89 2b       	or	r24, r25
 26e:	88 b9       	out	0x08, r24	; 8
 270:	40 9a       	sbi	0x08, 0	; 8
 272:	41 98       	cbi	0x08, 1	; 8
 274:	42 9a       	sbi	0x08, 2	; 8
 276:	8f ef       	ldi	r24, 0xFF	; 255
 278:	97 e4       	ldi	r25, 0x47	; 71
 27a:	01 97       	sbiw	r24, 0x01	; 1
 27c:	f1 f7       	brne	.-4      	; 0x27a <lcd_wr_char+0x3e>
 27e:	00 c0       	rjmp	.+0      	; 0x280 <lcd_wr_char+0x44>
 280:	00 00       	nop
 282:	42 98       	cbi	0x08, 2	; 8
 284:	08 95       	ret

00000286 <lcd_string>:
 286:	cf 93       	push	r28
 288:	df 93       	push	r29
 28a:	ec 01       	movw	r28, r24
 28c:	88 81       	ld	r24, Y
 28e:	88 23       	and	r24, r24
 290:	29 f0       	breq	.+10     	; 0x29c <lcd_string+0x16>
 292:	21 96       	adiw	r28, 0x01	; 1
 294:	d3 df       	rcall	.-90     	; 0x23c <lcd_wr_char>
 296:	89 91       	ld	r24, Y+
 298:	81 11       	cpse	r24, r1
 29a:	fc cf       	rjmp	.-8      	; 0x294 <lcd_string+0xe>
 29c:	df 91       	pop	r29
 29e:	cf 91       	pop	r28
 2a0:	08 95       	ret

000002a2 <lcd_cursor>:
 2a2:	82 30       	cpi	r24, 0x02	; 2
 2a4:	69 f0       	breq	.+26     	; 0x2c0 <lcd_cursor+0x1e>
 2a6:	18 f4       	brcc	.+6      	; 0x2ae <lcd_cursor+0xc>
 2a8:	81 30       	cpi	r24, 0x01	; 1
 2aa:	31 f0       	breq	.+12     	; 0x2b8 <lcd_cursor+0x16>
 2ac:	08 95       	ret
 2ae:	83 30       	cpi	r24, 0x03	; 3
 2b0:	59 f0       	breq	.+22     	; 0x2c8 <lcd_cursor+0x26>
 2b2:	84 30       	cpi	r24, 0x04	; 4
 2b4:	69 f0       	breq	.+26     	; 0x2d0 <lcd_cursor+0x2e>
 2b6:	08 95       	ret
 2b8:	8f e7       	ldi	r24, 0x7F	; 127
 2ba:	86 0f       	add	r24, r22
 2bc:	89 cf       	rjmp	.-238    	; 0x1d0 <lcd_wr_command>
 2be:	08 95       	ret
 2c0:	8f eb       	ldi	r24, 0xBF	; 191
 2c2:	86 0f       	add	r24, r22
 2c4:	85 cf       	rjmp	.-246    	; 0x1d0 <lcd_wr_command>
 2c6:	08 95       	ret
 2c8:	83 e9       	ldi	r24, 0x93	; 147
 2ca:	86 0f       	add	r24, r22
 2cc:	81 cf       	rjmp	.-254    	; 0x1d0 <lcd_wr_command>
 2ce:	08 95       	ret
 2d0:	83 ed       	ldi	r24, 0xD3	; 211
 2d2:	86 0f       	add	r24, r22
 2d4:	7d cf       	rjmp	.-262    	; 0x1d0 <lcd_wr_command>
 2d6:	08 95       	ret

000002d8 <timer1_init>:
 2d8:	e1 e8       	ldi	r30, 0x81	; 129
 2da:	f0 e0       	ldi	r31, 0x00	; 0
 2dc:	10 82       	st	Z, r1
 2de:	8c ef       	ldi	r24, 0xFC	; 252
 2e0:	80 93 85 00 	sts	0x0085, r24
 2e4:	81 e0       	ldi	r24, 0x01	; 1
 2e6:	80 93 84 00 	sts	0x0084, r24
 2ea:	93 e0       	ldi	r25, 0x03	; 3
 2ec:	90 93 89 00 	sts	0x0089, r25
 2f0:	8f ef       	ldi	r24, 0xFF	; 255
 2f2:	80 93 88 00 	sts	0x0088, r24
 2f6:	90 93 8b 00 	sts	0x008B, r25
 2fa:	80 93 8a 00 	sts	0x008A, r24
 2fe:	90 93 8d 00 	sts	0x008D, r25
 302:	80 93 8c 00 	sts	0x008C, r24
 306:	90 93 87 00 	sts	0x0087, r25
 30a:	80 93 86 00 	sts	0x0086, r24
 30e:	8b ea       	ldi	r24, 0xAB	; 171
 310:	80 93 80 00 	sts	0x0080, r24
 314:	10 92 82 00 	sts	0x0082, r1
 318:	8c e0       	ldi	r24, 0x0C	; 12
 31a:	80 83       	st	Z, r24
 31c:	08 95       	ret

0000031e <timer5_init>:
 31e:	e1 e2       	ldi	r30, 0x21	; 33
 320:	f1 e0       	ldi	r31, 0x01	; 1
 322:	10 82       	st	Z, r1
 324:	8f ef       	ldi	r24, 0xFF	; 255
 326:	80 93 25 01 	sts	0x0125, r24
 32a:	91 e0       	ldi	r25, 0x01	; 1
 32c:	90 93 24 01 	sts	0x0124, r25
 330:	10 92 29 01 	sts	0x0129, r1
 334:	80 93 28 01 	sts	0x0128, r24
 338:	10 92 2b 01 	sts	0x012B, r1
 33c:	80 93 2a 01 	sts	0x012A, r24
 340:	10 92 2d 01 	sts	0x012D, r1
 344:	80 93 2c 01 	sts	0x012C, r24
 348:	89 ea       	ldi	r24, 0xA9	; 169
 34a:	80 93 20 01 	sts	0x0120, r24
 34e:	8b e0       	ldi	r24, 0x0B	; 11
 350:	80 83       	st	Z, r24
 352:	08 95       	ret

00000354 <buzzer_pin_config>:
 354:	9b 9a       	sbi	0x13, 3	; 19
 356:	a3 98       	cbi	0x14, 3	; 20
 358:	08 95       	ret

0000035a <motion_pin_config>:
 35a:	81 b1       	in	r24, 0x01	; 1
 35c:	8f 60       	ori	r24, 0x0F	; 15
 35e:	81 b9       	out	0x01, r24	; 1
 360:	82 b1       	in	r24, 0x02	; 2
 362:	80 7f       	andi	r24, 0xF0	; 240
 364:	82 b9       	out	0x02, r24	; 2
 366:	ea e0       	ldi	r30, 0x0A	; 10
 368:	f1 e0       	ldi	r31, 0x01	; 1
 36a:	80 81       	ld	r24, Z
 36c:	88 61       	ori	r24, 0x18	; 24
 36e:	80 83       	st	Z, r24
 370:	eb e0       	ldi	r30, 0x0B	; 11
 372:	f1 e0       	ldi	r31, 0x01	; 1
 374:	80 81       	ld	r24, Z
 376:	88 61       	ori	r24, 0x18	; 24
 378:	80 83       	st	Z, r24
 37a:	08 95       	ret

0000037c <servo1_pin_config>:
 37c:	25 9a       	sbi	0x04, 5	; 4
 37e:	2d 9a       	sbi	0x05, 5	; 5
 380:	08 95       	ret

00000382 <servo2_pin_config>:
 382:	26 9a       	sbi	0x04, 6	; 4
 384:	2e 9a       	sbi	0x05, 6	; 5
 386:	08 95       	ret

00000388 <servo3_pin_config>:
 388:	27 9a       	sbi	0x04, 7	; 4
 38a:	2f 9a       	sbi	0x05, 7	; 5
 38c:	08 95       	ret

0000038e <demux_pin_config>:
 38e:	e1 e0       	ldi	r30, 0x01	; 1
 390:	f1 e0       	ldi	r31, 0x01	; 1
 392:	80 81       	ld	r24, Z
 394:	8f ef       	ldi	r24, 0xFF	; 255
 396:	80 83       	st	Z, r24
 398:	e2 e0       	ldi	r30, 0x02	; 2
 39a:	f1 e0       	ldi	r31, 0x01	; 1
 39c:	80 81       	ld	r24, Z
 39e:	8e 7f       	andi	r24, 0xFE	; 254
 3a0:	80 83       	st	Z, r24
 3a2:	08 95       	ret

000003a4 <adc_pin_config>:
 3a4:	10 ba       	out	0x10, r1	; 16
 3a6:	11 ba       	out	0x11, r1	; 17
 3a8:	10 92 07 01 	sts	0x0107, r1
 3ac:	10 92 08 01 	sts	0x0108, r1
 3b0:	08 95       	ret

000003b2 <port_init>:
 3b2:	d0 df       	rcall	.-96     	; 0x354 <buzzer_pin_config>
 3b4:	d2 df       	rcall	.-92     	; 0x35a <motion_pin_config>
 3b6:	e2 df       	rcall	.-60     	; 0x37c <servo1_pin_config>
 3b8:	e4 df       	rcall	.-56     	; 0x382 <servo2_pin_config>
 3ba:	e6 df       	rcall	.-52     	; 0x388 <servo3_pin_config>
 3bc:	e8 df       	rcall	.-48     	; 0x38e <demux_pin_config>
 3be:	bc de       	rcall	.-648    	; 0x138 <lcd_port_config>
 3c0:	f1 cf       	rjmp	.-30     	; 0x3a4 <adc_pin_config>
 3c2:	08 95       	ret

000003c4 <motion_set>:
 3c4:	92 b1       	in	r25, 0x02	; 2
 3c6:	90 7f       	andi	r25, 0xF0	; 240
 3c8:	8f 70       	andi	r24, 0x0F	; 15
 3ca:	98 2b       	or	r25, r24
 3cc:	92 b9       	out	0x02, r25	; 2
 3ce:	08 95       	ret

000003d0 <forward>:
 3d0:	89 e0       	ldi	r24, 0x09	; 9
 3d2:	f8 cf       	rjmp	.-16     	; 0x3c4 <motion_set>
 3d4:	08 95       	ret

000003d6 <right>:
 3d6:	85 e0       	ldi	r24, 0x05	; 5
 3d8:	f5 cf       	rjmp	.-22     	; 0x3c4 <motion_set>
 3da:	08 95       	ret

000003dc <left>:
 3dc:	8a e0       	ldi	r24, 0x0A	; 10
 3de:	f2 cf       	rjmp	.-28     	; 0x3c4 <motion_set>
 3e0:	08 95       	ret

000003e2 <stop>:
 3e2:	80 e0       	ldi	r24, 0x00	; 0
 3e4:	ef cf       	rjmp	.-34     	; 0x3c4 <motion_set>
 3e6:	08 95       	ret

000003e8 <ADC_Conversion>:
 3e8:	88 30       	cpi	r24, 0x08	; 8
 3ea:	18 f0       	brcs	.+6      	; 0x3f2 <ADC_Conversion+0xa>
 3ec:	98 e0       	ldi	r25, 0x08	; 8
 3ee:	90 93 7b 00 	sts	0x007B, r25
 3f2:	87 70       	andi	r24, 0x07	; 7
 3f4:	80 62       	ori	r24, 0x20	; 32
 3f6:	80 93 7c 00 	sts	0x007C, r24
 3fa:	ea e7       	ldi	r30, 0x7A	; 122
 3fc:	f0 e0       	ldi	r31, 0x00	; 0
 3fe:	80 81       	ld	r24, Z
 400:	80 64       	ori	r24, 0x40	; 64
 402:	80 83       	st	Z, r24
 404:	80 81       	ld	r24, Z
 406:	84 ff       	sbrs	r24, 4
 408:	fd cf       	rjmp	.-6      	; 0x404 <ADC_Conversion+0x1c>
 40a:	80 91 79 00 	lds	r24, 0x0079
 40e:	ea e7       	ldi	r30, 0x7A	; 122
 410:	f0 e0       	ldi	r31, 0x00	; 0
 412:	90 81       	ld	r25, Z
 414:	90 61       	ori	r25, 0x10	; 16
 416:	90 83       	st	Z, r25
 418:	10 92 7b 00 	sts	0x007B, r1
 41c:	08 95       	ret

0000041e <LCD_Function>:
 41e:	cf 93       	push	r28
 420:	df 93       	push	r29
 422:	ec 01       	movw	r28, r24
 424:	fa de       	rcall	.-524    	; 0x21a <lcd_init>
 426:	fe 01       	movw	r30, r28
 428:	31 97       	sbiw	r30, 0x01	; 1
 42a:	ea 30       	cpi	r30, 0x0A	; 10
 42c:	f1 05       	cpc	r31, r1
 42e:	08 f0       	brcs	.+2      	; 0x432 <LCD_Function+0x14>
 430:	54 c0       	rjmp	.+168    	; 0x4da <LCD_Function+0xbc>
 432:	ee 58       	subi	r30, 0x8E	; 142
 434:	ff 4f       	sbci	r31, 0xFF	; 255
 436:	39 c1       	rjmp	.+626    	; 0x6aa <__tablejump2__>
 438:	63 e0       	ldi	r22, 0x03	; 3
 43a:	81 e0       	ldi	r24, 0x01	; 1
 43c:	32 df       	rcall	.-412    	; 0x2a2 <lcd_cursor>
 43e:	81 e0       	ldi	r24, 0x01	; 1
 440:	92 e0       	ldi	r25, 0x02	; 2
 442:	21 df       	rcall	.-446    	; 0x286 <lcd_string>
 444:	4a c0       	rjmp	.+148    	; 0x4da <LCD_Function+0xbc>
 446:	63 e0       	ldi	r22, 0x03	; 3
 448:	81 e0       	ldi	r24, 0x01	; 1
 44a:	2b df       	rcall	.-426    	; 0x2a2 <lcd_cursor>
 44c:	8f e0       	ldi	r24, 0x0F	; 15
 44e:	92 e0       	ldi	r25, 0x02	; 2
 450:	1a df       	rcall	.-460    	; 0x286 <lcd_string>
 452:	43 c0       	rjmp	.+134    	; 0x4da <LCD_Function+0xbc>
 454:	63 e0       	ldi	r22, 0x03	; 3
 456:	81 e0       	ldi	r24, 0x01	; 1
 458:	24 df       	rcall	.-440    	; 0x2a2 <lcd_cursor>
 45a:	8d e1       	ldi	r24, 0x1D	; 29
 45c:	92 e0       	ldi	r25, 0x02	; 2
 45e:	13 df       	rcall	.-474    	; 0x286 <lcd_string>
 460:	3c c0       	rjmp	.+120    	; 0x4da <LCD_Function+0xbc>
 462:	63 e0       	ldi	r22, 0x03	; 3
 464:	81 e0       	ldi	r24, 0x01	; 1
 466:	1d df       	rcall	.-454    	; 0x2a2 <lcd_cursor>
 468:	85 e2       	ldi	r24, 0x25	; 37
 46a:	92 e0       	ldi	r25, 0x02	; 2
 46c:	0c df       	rcall	.-488    	; 0x286 <lcd_string>
 46e:	35 c0       	rjmp	.+106    	; 0x4da <LCD_Function+0xbc>
 470:	63 e0       	ldi	r22, 0x03	; 3
 472:	81 e0       	ldi	r24, 0x01	; 1
 474:	16 df       	rcall	.-468    	; 0x2a2 <lcd_cursor>
 476:	89 e3       	ldi	r24, 0x39	; 57
 478:	92 e0       	ldi	r25, 0x02	; 2
 47a:	05 df       	rcall	.-502    	; 0x286 <lcd_string>
 47c:	2e c0       	rjmp	.+92     	; 0x4da <LCD_Function+0xbc>
 47e:	63 e0       	ldi	r22, 0x03	; 3
 480:	81 e0       	ldi	r24, 0x01	; 1
 482:	0f df       	rcall	.-482    	; 0x2a2 <lcd_cursor>
 484:	8c e4       	ldi	r24, 0x4C	; 76
 486:	92 e0       	ldi	r25, 0x02	; 2
 488:	fe de       	rcall	.-516    	; 0x286 <lcd_string>
 48a:	27 c0       	rjmp	.+78     	; 0x4da <LCD_Function+0xbc>
 48c:	63 e0       	ldi	r22, 0x03	; 3
 48e:	81 e0       	ldi	r24, 0x01	; 1
 490:	08 df       	rcall	.-496    	; 0x2a2 <lcd_cursor>
 492:	82 e6       	ldi	r24, 0x62	; 98
 494:	92 e0       	ldi	r25, 0x02	; 2
 496:	f7 de       	rcall	.-530    	; 0x286 <lcd_string>
 498:	20 c0       	rjmp	.+64     	; 0x4da <LCD_Function+0xbc>
 49a:	67 e0       	ldi	r22, 0x07	; 7
 49c:	81 e0       	ldi	r24, 0x01	; 1
 49e:	01 df       	rcall	.-510    	; 0x2a2 <lcd_cursor>
 4a0:	87 e7       	ldi	r24, 0x77	; 119
 4a2:	92 e0       	ldi	r25, 0x02	; 2
 4a4:	f0 de       	rcall	.-544    	; 0x286 <lcd_string>
 4a6:	63 e0       	ldi	r22, 0x03	; 3
 4a8:	82 e0       	ldi	r24, 0x02	; 2
 4aa:	fb de       	rcall	.-522    	; 0x2a2 <lcd_cursor>
 4ac:	8d e7       	ldi	r24, 0x7D	; 125
 4ae:	92 e0       	ldi	r25, 0x02	; 2
 4b0:	ea de       	rcall	.-556    	; 0x286 <lcd_string>
 4b2:	13 c0       	rjmp	.+38     	; 0x4da <LCD_Function+0xbc>
 4b4:	66 e0       	ldi	r22, 0x06	; 6
 4b6:	81 e0       	ldi	r24, 0x01	; 1
 4b8:	f4 de       	rcall	.-536    	; 0x2a2 <lcd_cursor>
 4ba:	87 e8       	ldi	r24, 0x87	; 135
 4bc:	92 e0       	ldi	r25, 0x02	; 2
 4be:	e3 de       	rcall	.-570    	; 0x286 <lcd_string>
 4c0:	63 e0       	ldi	r22, 0x03	; 3
 4c2:	82 e0       	ldi	r24, 0x02	; 2
 4c4:	ee de       	rcall	.-548    	; 0x2a2 <lcd_cursor>
 4c6:	8e e8       	ldi	r24, 0x8E	; 142
 4c8:	92 e0       	ldi	r25, 0x02	; 2
 4ca:	dd de       	rcall	.-582    	; 0x286 <lcd_string>
 4cc:	06 c0       	rjmp	.+12     	; 0x4da <LCD_Function+0xbc>
 4ce:	63 e0       	ldi	r22, 0x03	; 3
 4d0:	81 e0       	ldi	r24, 0x01	; 1
 4d2:	e7 de       	rcall	.-562    	; 0x2a2 <lcd_cursor>
 4d4:	8c e9       	ldi	r24, 0x9C	; 156
 4d6:	92 e0       	ldi	r25, 0x02	; 2
 4d8:	d6 de       	rcall	.-596    	; 0x286 <lcd_string>
 4da:	df 91       	pop	r29
 4dc:	cf 91       	pop	r28
 4de:	08 95       	ret

000004e0 <left_turn_wls>:
 4e0:	7d df       	rcall	.-262    	; 0x3dc <left>
 4e2:	84 e6       	ldi	r24, 0x64	; 100
 4e4:	80 93 28 01 	sts	0x0128, r24
 4e8:	80 93 2a 01 	sts	0x012A, r24
 4ec:	81 e0       	ldi	r24, 0x01	; 1
 4ee:	7c df       	rcall	.-264    	; 0x3e8 <ADC_Conversion>
 4f0:	80 93 a9 02 	sts	0x02A9, r24
 4f4:	80 35       	cpi	r24, 0x50	; 80
 4f6:	d0 f3       	brcs	.-12     	; 0x4ec <left_turn_wls+0xc>
 4f8:	12 b8       	out	0x02, r1	; 2
 4fa:	6d df       	rcall	.-294    	; 0x3d6 <right>
 4fc:	8f ef       	ldi	r24, 0xFF	; 255
 4fe:	9f e8       	ldi	r25, 0x8F	; 143
 500:	01 97       	sbiw	r24, 0x01	; 1
 502:	f1 f7       	brne	.-4      	; 0x500 <left_turn_wls+0x20>
 504:	00 c0       	rjmp	.+0      	; 0x506 <left_turn_wls+0x26>
 506:	00 00       	nop
 508:	6c df       	rcall	.-296    	; 0x3e2 <stop>
 50a:	9f ef       	ldi	r25, 0xFF	; 255
 50c:	2f ef       	ldi	r18, 0xFF	; 255
 50e:	88 e0       	ldi	r24, 0x08	; 8
 510:	91 50       	subi	r25, 0x01	; 1
 512:	20 40       	sbci	r18, 0x00	; 0
 514:	80 40       	sbci	r24, 0x00	; 0
 516:	e1 f7       	brne	.-8      	; 0x510 <left_turn_wls+0x30>
 518:	00 c0       	rjmp	.+0      	; 0x51a <left_turn_wls+0x3a>
 51a:	00 00       	nop
 51c:	80 91 00 02 	lds	r24, 0x0200
 520:	80 93 28 01 	sts	0x0128, r24
 524:	80 91 00 02 	lds	r24, 0x0200
 528:	80 93 2a 01 	sts	0x012A, r24
 52c:	08 95       	ret

0000052e <static_reorientation>:
 52e:	82 e0       	ldi	r24, 0x02	; 2
 530:	5b df       	rcall	.-330    	; 0x3e8 <ADC_Conversion>
 532:	80 93 a9 02 	sts	0x02A9, r24
 536:	90 91 b4 02 	lds	r25, 0x02B4
 53a:	96 34       	cpi	r25, 0x46	; 70
 53c:	40 f4       	brcc	.+16     	; 0x54e <static_reorientation+0x20>
 53e:	8e 36       	cpi	r24, 0x6E	; 110
 540:	30 f0       	brcs	.+12     	; 0x54e <static_reorientation+0x20>
 542:	80 91 ac 02 	lds	r24, 0x02AC
 546:	86 34       	cpi	r24, 0x46	; 70
 548:	10 f4       	brcc	.+4      	; 0x54e <static_reorientation+0x20>
 54a:	12 b8       	out	0x02, r1	; 2
 54c:	08 95       	ret
 54e:	8b e9       	ldi	r24, 0x9B	; 155
 550:	80 93 28 01 	sts	0x0128, r24
 554:	80 93 2a 01 	sts	0x012A, r24
 558:	44 df       	rcall	.-376    	; 0x3e2 <stop>
 55a:	8f ef       	ldi	r24, 0xFF	; 255
 55c:	9f e8       	ldi	r25, 0x8F	; 143
 55e:	01 97       	sbiw	r24, 0x01	; 1
 560:	f1 f7       	brne	.-4      	; 0x55e <static_reorientation+0x30>
 562:	00 c0       	rjmp	.+0      	; 0x564 <static_reorientation+0x36>
 564:	00 00       	nop
 566:	37 df       	rcall	.-402    	; 0x3d6 <right>
 568:	99 e9       	ldi	r25, 0x99	; 153
 56a:	29 e9       	ldi	r18, 0x99	; 153
 56c:	8c e0       	ldi	r24, 0x0C	; 12
 56e:	91 50       	subi	r25, 0x01	; 1
 570:	20 40       	sbci	r18, 0x00	; 0
 572:	80 40       	sbci	r24, 0x00	; 0
 574:	e1 f7       	brne	.-8      	; 0x56e <static_reorientation+0x40>
 576:	00 00       	nop
 578:	34 df       	rcall	.-408    	; 0x3e2 <stop>
 57a:	b2 cf       	rjmp	.-156    	; 0x4e0 <left_turn_wls>
 57c:	08 95       	ret

0000057e <forward_zigzag>:
 57e:	df 92       	push	r13
 580:	ef 92       	push	r14
 582:	ff 92       	push	r15
 584:	0f 93       	push	r16
 586:	1f 93       	push	r17
 588:	cf 93       	push	r28
 58a:	df 93       	push	r29
 58c:	83 e0       	ldi	r24, 0x03	; 3
 58e:	90 e0       	ldi	r25, 0x00	; 0
 590:	46 df       	rcall	.-372    	; 0x41e <LCD_Function>
 592:	08 e2       	ldi	r16, 0x28	; 40
 594:	11 e0       	ldi	r17, 0x01	; 1
 596:	0f 2e       	mov	r0, r31
 598:	fa ef       	ldi	r31, 0xFA	; 250
 59a:	ff 2e       	mov	r15, r31
 59c:	f0 2d       	mov	r31, r0
 59e:	ca e2       	ldi	r28, 0x2A	; 42
 5a0:	d1 e0       	ldi	r29, 0x01	; 1
 5a2:	0f 2e       	mov	r0, r31
 5a4:	f0 ea       	ldi	r31, 0xA0	; 160
 5a6:	df 2e       	mov	r13, r31
 5a8:	f0 2d       	mov	r31, r0
 5aa:	0f 2e       	mov	r0, r31
 5ac:	f4 eb       	ldi	r31, 0xB4	; 180
 5ae:	ef 2e       	mov	r14, r31
 5b0:	f0 2d       	mov	r31, r0
 5b2:	81 e0       	ldi	r24, 0x01	; 1
 5b4:	19 df       	rcall	.-462    	; 0x3e8 <ADC_Conversion>
 5b6:	80 93 b4 02 	sts	0x02B4, r24
 5ba:	82 e0       	ldi	r24, 0x02	; 2
 5bc:	15 df       	rcall	.-470    	; 0x3e8 <ADC_Conversion>
 5be:	80 93 a9 02 	sts	0x02A9, r24
 5c2:	83 e0       	ldi	r24, 0x03	; 3
 5c4:	11 df       	rcall	.-478    	; 0x3e8 <ADC_Conversion>
 5c6:	80 93 ac 02 	sts	0x02AC, r24
 5ca:	02 df       	rcall	.-508    	; 0x3d0 <forward>
 5cc:	f8 01       	movw	r30, r16
 5ce:	f0 82       	st	Z, r15
 5d0:	f8 82       	st	Y, r15
 5d2:	30 91 b4 02 	lds	r19, 0x02B4
 5d6:	20 91 a9 02 	lds	r18, 0x02A9
 5da:	40 91 ac 02 	lds	r20, 0x02AC
 5de:	82 2f       	mov	r24, r18
 5e0:	90 e0       	ldi	r25, 0x00	; 0
 5e2:	83 0f       	add	r24, r19
 5e4:	91 1d       	adc	r25, r1
 5e6:	84 0f       	add	r24, r20
 5e8:	91 1d       	adc	r25, r1
 5ea:	81 39       	cpi	r24, 0x91	; 145
 5ec:	91 40       	sbci	r25, 0x01	; 1
 5ee:	64 f0       	brlt	.+24     	; 0x608 <forward_zigzag+0x8a>
 5f0:	f8 de       	rcall	.-528    	; 0x3e2 <stop>
 5f2:	f7 de       	rcall	.-530    	; 0x3e2 <stop>
 5f4:	2f ef       	ldi	r18, 0xFF	; 255
 5f6:	5f ef       	ldi	r21, 0xFF	; 255
 5f8:	80 ee       	ldi	r24, 0xE0	; 224
 5fa:	21 50       	subi	r18, 0x01	; 1
 5fc:	50 40       	sbci	r21, 0x00	; 0
 5fe:	80 40       	sbci	r24, 0x00	; 0
 600:	e1 f7       	brne	.-8      	; 0x5fa <forward_zigzag+0x7c>
 602:	00 c0       	rjmp	.+0      	; 0x604 <forward_zigzag+0x86>
 604:	00 00       	nop
 606:	2e c0       	rjmp	.+92     	; 0x664 <forward_zigzag+0xe6>
 608:	25 36       	cpi	r18, 0x65	; 101
 60a:	58 f0       	brcs	.+22     	; 0x622 <forward_zigzag+0xa4>
 60c:	e1 de       	rcall	.-574    	; 0x3d0 <forward>
 60e:	f8 01       	movw	r30, r16
 610:	f0 82       	st	Z, r15
 612:	f8 82       	st	Y, r15
 614:	8f ef       	ldi	r24, 0xFF	; 255
 616:	97 e4       	ldi	r25, 0x47	; 71
 618:	01 97       	sbiw	r24, 0x01	; 1
 61a:	f1 f7       	brne	.-4      	; 0x618 <forward_zigzag+0x9a>
 61c:	00 c0       	rjmp	.+0      	; 0x61e <forward_zigzag+0xa0>
 61e:	00 00       	nop
 620:	c8 cf       	rjmp	.-112    	; 0x5b2 <forward_zigzag+0x34>
 622:	34 31       	cpi	r19, 0x14	; 20
 624:	30 f4       	brcc	.+12     	; 0x632 <forward_zigzag+0xb4>
 626:	24 31       	cpi	r18, 0x14	; 20
 628:	20 f4       	brcc	.+8      	; 0x632 <forward_zigzag+0xb4>
 62a:	44 31       	cpi	r20, 0x14	; 20
 62c:	10 f4       	brcc	.+4      	; 0x632 <forward_zigzag+0xb4>
 62e:	7f df       	rcall	.-258    	; 0x52e <static_reorientation>
 630:	c0 cf       	rjmp	.-128    	; 0x5b2 <forward_zigzag+0x34>
 632:	23 17       	cp	r18, r19
 634:	50 f4       	brcc	.+20     	; 0x64a <forward_zigzag+0xcc>
 636:	d2 de       	rcall	.-604    	; 0x3dc <left>
 638:	f8 01       	movw	r30, r16
 63a:	e0 82       	st	Z, r14
 63c:	d8 82       	st	Y, r13
 63e:	86 e6       	ldi	r24, 0x66	; 102
 640:	9e e0       	ldi	r25, 0x0E	; 14
 642:	01 97       	sbiw	r24, 0x01	; 1
 644:	f1 f7       	brne	.-4      	; 0x642 <forward_zigzag+0xc4>
 646:	00 00       	nop
 648:	b4 cf       	rjmp	.-152    	; 0x5b2 <forward_zigzag+0x34>
 64a:	24 17       	cp	r18, r20
 64c:	08 f0       	brcs	.+2      	; 0x650 <forward_zigzag+0xd2>
 64e:	b1 cf       	rjmp	.-158    	; 0x5b2 <forward_zigzag+0x34>
 650:	c2 de       	rcall	.-636    	; 0x3d6 <right>
 652:	f8 01       	movw	r30, r16
 654:	d0 82       	st	Z, r13
 656:	e8 82       	st	Y, r14
 658:	86 e6       	ldi	r24, 0x66	; 102
 65a:	9e e0       	ldi	r25, 0x0E	; 14
 65c:	01 97       	sbiw	r24, 0x01	; 1
 65e:	f1 f7       	brne	.-4      	; 0x65c <forward_zigzag+0xde>
 660:	00 00       	nop
 662:	a7 cf       	rjmp	.-178    	; 0x5b2 <forward_zigzag+0x34>
 664:	df 91       	pop	r29
 666:	cf 91       	pop	r28
 668:	1f 91       	pop	r17
 66a:	0f 91       	pop	r16
 66c:	ff 90       	pop	r15
 66e:	ef 90       	pop	r14
 670:	df 90       	pop	r13
 672:	08 95       	ret

00000674 <adc_init>:

//Devices Initialization Function ->
//Function to Initialize ADC
void adc_init()
{
	ADCSRA = 0x00;
 674:	ea e7       	ldi	r30, 0x7A	; 122
 676:	f0 e0       	ldi	r31, 0x00	; 0
 678:	10 82       	st	Z, r1
	ADCSRB = 0x00; //MUX5 = 0
 67a:	10 92 7b 00 	sts	0x007B, r1
	ADMUX = 0x20; //Vref=5V external --- ADLAR=1 --- MUX4:0 = 0000
 67e:	80 e2       	ldi	r24, 0x20	; 32
 680:	80 93 7c 00 	sts	0x007C, r24
	ACSR = 0x80;
 684:	80 e8       	ldi	r24, 0x80	; 128
 686:	80 bf       	out	0x30, r24	; 48
	ADCSRA = 0x86; //ADEN=1 --- ADIE=1 --- ADPS2:0 = 1 1 0
 688:	86 e8       	ldi	r24, 0x86	; 134
 68a:	80 83       	st	Z, r24
 68c:	08 95       	ret

0000068e <init_devices>:
}

void init_devices(void)
{
	cli(); //Clears the global interrupts
 68e:	f8 94       	cli
	port_init();
 690:	90 de       	rcall	.-736    	; 0x3b2 <port_init>
	adc_init();
 692:	f0 df       	rcall	.-32     	; 0x674 <adc_init>
	timer5_init();
 694:	44 de       	rcall	.-888    	; 0x31e <timer5_init>
	timer1_init();
 696:	20 de       	rcall	.-960    	; 0x2d8 <timer1_init>
	sei(); //Enables the global interrupts
 698:	78 94       	sei
	lcd_set_4bit(); //These functions need not to be inside interrupt blocked code
 69a:	55 dd       	rcall	.-1366   	; 0x146 <lcd_set_4bit>
	lcd_init();
 69c:	be cd       	rjmp	.-1156   	; 0x21a <lcd_init>
 69e:	08 95       	ret

000006a0 <main>:
/* --------------------------------------------------------------*/

//Main Function ->
int main()
{
	init_devices();
 6a0:	f6 df       	rcall	.-20     	; 0x68e <init_devices>
	//forward_wls(3,1);
	forward_zigzag();
 6a2:	6d df       	rcall	.-294    	; 0x57e <forward_zigzag>
	
}
 6a4:	80 e0       	ldi	r24, 0x00	; 0
 6a6:	90 e0       	ldi	r25, 0x00	; 0
 6a8:	08 95       	ret

000006aa <__tablejump2__>:
 6aa:	ee 0f       	add	r30, r30
 6ac:	ff 1f       	adc	r31, r31

000006ae <__tablejump__>:
 6ae:	05 90       	lpm	r0, Z+
 6b0:	f4 91       	lpm	r31, Z
 6b2:	e0 2d       	mov	r30, r0
 6b4:	19 94       	eijmp

000006b6 <_exit>:
 6b6:	f8 94       	cli

000006b8 <__stop_program>:
 6b8:	ff cf       	rjmp	.-2      	; 0x6b8 <__stop_program>
