
Task5.elf:     file format elf32-avr

Sections:
Idx Name          Size      VMA       LMA       File off  Algn
  0 .data         000002e2  00800200  00004232  000042c6  2**0
                  CONTENTS, ALLOC, LOAD, DATA
  1 .text         00004232  00000000  00000000  00000094  2**1
                  CONTENTS, ALLOC, LOAD, READONLY, CODE
  2 .bss          0000007c  008004e2  008004e2  000045a8  2**0
                  ALLOC
  3 .comment      00000030  00000000  00000000  000045a8  2**0
                  CONTENTS, READONLY
  4 .debug_aranges 00000298  00000000  00000000  000045d8  2**0
                  CONTENTS, READONLY, DEBUGGING
  5 .debug_info   000070de  00000000  00000000  00004870  2**0
                  CONTENTS, READONLY, DEBUGGING
  6 .debug_abbrev 00000488  00000000  00000000  0000b94e  2**0
                  CONTENTS, READONLY, DEBUGGING
  7 .debug_line   00003f10  00000000  00000000  0000bdd6  2**0
                  CONTENTS, READONLY, DEBUGGING
  8 .debug_frame  00000760  00000000  00000000  0000fce8  2**2
                  CONTENTS, READONLY, DEBUGGING
  9 .debug_str    00000728  00000000  00000000  00010448  2**0
                  CONTENTS, READONLY, DEBUGGING
 10 .debug_loc    000045de  00000000  00000000  00010b70  2**0
                  CONTENTS, READONLY, DEBUGGING
 11 .debug_ranges 00000338  00000000  00000000  0001514e  2**0
                  CONTENTS, READONLY, DEBUGGING

Disassembly of section .text:

00000000 <__vectors>:
       0:	71 c0       	rjmp	.+226    	; 0xe4 <__ctors_end>
       2:	00 00       	nop
       4:	90 c0       	rjmp	.+288    	; 0x126 <__bad_interrupt>
       6:	00 00       	nop
       8:	8e c0       	rjmp	.+284    	; 0x126 <__bad_interrupt>
       a:	00 00       	nop
       c:	8c c0       	rjmp	.+280    	; 0x126 <__bad_interrupt>
       e:	00 00       	nop
      10:	8a c0       	rjmp	.+276    	; 0x126 <__bad_interrupt>
      12:	00 00       	nop
      14:	9d c5       	rjmp	.+2874   	; 0xb50 <__vector_5>
      16:	00 00       	nop
      18:	76 c5       	rjmp	.+2796   	; 0xb06 <__vector_6>
      1a:	00 00       	nop
      1c:	84 c0       	rjmp	.+264    	; 0x126 <__bad_interrupt>
      1e:	00 00       	nop
      20:	82 c0       	rjmp	.+260    	; 0x126 <__bad_interrupt>
      22:	00 00       	nop
      24:	80 c0       	rjmp	.+256    	; 0x126 <__bad_interrupt>
      26:	00 00       	nop
      28:	7e c0       	rjmp	.+252    	; 0x126 <__bad_interrupt>
      2a:	00 00       	nop
      2c:	7c c0       	rjmp	.+248    	; 0x126 <__bad_interrupt>
      2e:	00 00       	nop
      30:	7a c0       	rjmp	.+244    	; 0x126 <__bad_interrupt>
      32:	00 00       	nop
      34:	78 c0       	rjmp	.+240    	; 0x126 <__bad_interrupt>
      36:	00 00       	nop
      38:	76 c0       	rjmp	.+236    	; 0x126 <__bad_interrupt>
      3a:	00 00       	nop
      3c:	74 c0       	rjmp	.+232    	; 0x126 <__bad_interrupt>
      3e:	00 00       	nop
      40:	72 c0       	rjmp	.+228    	; 0x126 <__bad_interrupt>
      42:	00 00       	nop
      44:	70 c0       	rjmp	.+224    	; 0x126 <__bad_interrupt>
      46:	00 00       	nop
      48:	6e c0       	rjmp	.+220    	; 0x126 <__bad_interrupt>
      4a:	00 00       	nop
      4c:	6c c0       	rjmp	.+216    	; 0x126 <__bad_interrupt>
      4e:	00 00       	nop
      50:	6a c0       	rjmp	.+212    	; 0x126 <__bad_interrupt>
      52:	00 00       	nop
      54:	68 c0       	rjmp	.+208    	; 0x126 <__bad_interrupt>
      56:	00 00       	nop
      58:	66 c0       	rjmp	.+204    	; 0x126 <__bad_interrupt>
      5a:	00 00       	nop
      5c:	64 c0       	rjmp	.+200    	; 0x126 <__bad_interrupt>
      5e:	00 00       	nop
      60:	62 c0       	rjmp	.+196    	; 0x126 <__bad_interrupt>
      62:	00 00       	nop
      64:	60 c0       	rjmp	.+192    	; 0x126 <__bad_interrupt>
      66:	00 00       	nop
      68:	5e c0       	rjmp	.+188    	; 0x126 <__bad_interrupt>
      6a:	00 00       	nop
      6c:	5c c0       	rjmp	.+184    	; 0x126 <__bad_interrupt>
      6e:	00 00       	nop
      70:	5a c0       	rjmp	.+180    	; 0x126 <__bad_interrupt>
      72:	00 00       	nop
      74:	58 c0       	rjmp	.+176    	; 0x126 <__bad_interrupt>
      76:	00 00       	nop
      78:	56 c0       	rjmp	.+172    	; 0x126 <__bad_interrupt>
      7a:	00 00       	nop
      7c:	54 c0       	rjmp	.+168    	; 0x126 <__bad_interrupt>
      7e:	00 00       	nop
      80:	52 c0       	rjmp	.+164    	; 0x126 <__bad_interrupt>
      82:	00 00       	nop
      84:	50 c0       	rjmp	.+160    	; 0x126 <__bad_interrupt>
      86:	00 00       	nop
      88:	4e c0       	rjmp	.+156    	; 0x126 <__bad_interrupt>
      8a:	00 00       	nop
      8c:	4c c0       	rjmp	.+152    	; 0x126 <__bad_interrupt>
      8e:	00 00       	nop
      90:	4a c0       	rjmp	.+148    	; 0x126 <__bad_interrupt>
      92:	00 00       	nop
      94:	48 c0       	rjmp	.+144    	; 0x126 <__bad_interrupt>
      96:	00 00       	nop
      98:	46 c0       	rjmp	.+140    	; 0x126 <__bad_interrupt>
      9a:	00 00       	nop
      9c:	44 c0       	rjmp	.+136    	; 0x126 <__bad_interrupt>
      9e:	00 00       	nop
      a0:	42 c0       	rjmp	.+132    	; 0x126 <__bad_interrupt>
      a2:	00 00       	nop
      a4:	40 c0       	rjmp	.+128    	; 0x126 <__bad_interrupt>
      a6:	00 00       	nop
      a8:	3e c0       	rjmp	.+124    	; 0x126 <__bad_interrupt>
      aa:	00 00       	nop
      ac:	3c c0       	rjmp	.+120    	; 0x126 <__bad_interrupt>
      ae:	00 00       	nop
      b0:	3a c0       	rjmp	.+116    	; 0x126 <__bad_interrupt>
      b2:	00 00       	nop
      b4:	38 c0       	rjmp	.+112    	; 0x126 <__bad_interrupt>
      b6:	00 00       	nop
      b8:	36 c0       	rjmp	.+108    	; 0x126 <__bad_interrupt>
      ba:	00 00       	nop
      bc:	34 c0       	rjmp	.+104    	; 0x126 <__bad_interrupt>
      be:	00 00       	nop
      c0:	32 c0       	rjmp	.+100    	; 0x126 <__bad_interrupt>
      c2:	00 00       	nop
      c4:	30 c0       	rjmp	.+96     	; 0x126 <__bad_interrupt>
      c6:	00 00       	nop
      c8:	2e c0       	rjmp	.+92     	; 0x126 <__bad_interrupt>
      ca:	00 00       	nop
      cc:	2c c0       	rjmp	.+88     	; 0x126 <__bad_interrupt>
      ce:	00 00       	nop
      d0:	2a c0       	rjmp	.+84     	; 0x126 <__bad_interrupt>
      d2:	00 00       	nop
      d4:	28 c0       	rjmp	.+80     	; 0x126 <__bad_interrupt>
      d6:	00 00       	nop
      d8:	26 c0       	rjmp	.+76     	; 0x126 <__bad_interrupt>
      da:	00 00       	nop
      dc:	24 c0       	rjmp	.+72     	; 0x126 <__bad_interrupt>
      de:	00 00       	nop
      e0:	22 c0       	rjmp	.+68     	; 0x126 <__bad_interrupt>
	...

000000e4 <__ctors_end>:
      e4:	11 24       	eor	r1, r1
      e6:	1f be       	out	0x3f, r1	; 63
      e8:	cf ef       	ldi	r28, 0xFF	; 255
      ea:	d1 e2       	ldi	r29, 0x21	; 33
      ec:	de bf       	out	0x3e, r29	; 62
      ee:	cd bf       	out	0x3d, r28	; 61
      f0:	00 e0       	ldi	r16, 0x00	; 0
      f2:	0c bf       	out	0x3c, r16	; 60

000000f4 <__do_copy_data>:
      f4:	14 e0       	ldi	r17, 0x04	; 4
      f6:	a0 e0       	ldi	r26, 0x00	; 0
      f8:	b2 e0       	ldi	r27, 0x02	; 2
      fa:	e2 e3       	ldi	r30, 0x32	; 50
      fc:	f2 e4       	ldi	r31, 0x42	; 66
      fe:	00 e0       	ldi	r16, 0x00	; 0
     100:	0b bf       	out	0x3b, r16	; 59
     102:	02 c0       	rjmp	.+4      	; 0x108 <__do_copy_data+0x14>
     104:	07 90       	elpm	r0, Z+
     106:	0d 92       	st	X+, r0
     108:	a2 3e       	cpi	r26, 0xE2	; 226
     10a:	b1 07       	cpc	r27, r17
     10c:	d9 f7       	brne	.-10     	; 0x104 <__do_copy_data+0x10>

0000010e <__do_clear_bss>:
     10e:	25 e0       	ldi	r18, 0x05	; 5
     110:	a2 ee       	ldi	r26, 0xE2	; 226
     112:	b4 e0       	ldi	r27, 0x04	; 4
     114:	01 c0       	rjmp	.+2      	; 0x118 <.do_clear_bss_start>

00000116 <.do_clear_bss_loop>:
     116:	1d 92       	st	X+, r1

00000118 <.do_clear_bss_start>:
     118:	ae 35       	cpi	r26, 0x5E	; 94
     11a:	b2 07       	cpc	r27, r18
     11c:	e1 f7       	brne	.-8      	; 0x116 <.do_clear_bss_loop>
     11e:	0e 94 30 15 	call	0x2a60	; 0x2a60 <main>
     122:	0c 94 17 21 	jmp	0x422e	; 0x422e <_exit>

00000126 <__bad_interrupt>:
     126:	6c cf       	rjmp	.-296    	; 0x0 <__vectors>

00000128 <lcd_port_config>:
	forward_wls(3,1);
	right_turn_wls();
	forward_wls(0,5);
	forward_wls(2,1);
	right_turn_wls();
	forward_wls(2,1);	
     128:	87 b1       	in	r24, 0x07	; 7
     12a:	87 6f       	ori	r24, 0xF7	; 247
     12c:	87 b9       	out	0x07, r24	; 7
     12e:	88 b1       	in	r24, 0x08	; 8
     130:	88 70       	andi	r24, 0x08	; 8
     132:	88 b9       	out	0x08, r24	; 8
     134:	08 95       	ret

00000136 <lcd_set_4bit>:
     136:	86 e6       	ldi	r24, 0x66	; 102
     138:	9e e0       	ldi	r25, 0x0E	; 14
     13a:	01 97       	sbiw	r24, 0x01	; 1
     13c:	f1 f7       	brne	.-4      	; 0x13a <lcd_set_4bit+0x4>
     13e:	00 00       	nop
     140:	40 98       	cbi	0x08, 0	; 8
     142:	41 98       	cbi	0x08, 1	; 8
     144:	80 e3       	ldi	r24, 0x30	; 48
     146:	88 b9       	out	0x08, r24	; 8
     148:	42 9a       	sbi	0x08, 2	; 8
     14a:	8f ef       	ldi	r24, 0xFF	; 255
     14c:	97 e4       	ldi	r25, 0x47	; 71
     14e:	01 97       	sbiw	r24, 0x01	; 1
     150:	f1 f7       	brne	.-4      	; 0x14e <lcd_set_4bit+0x18>
     152:	00 c0       	rjmp	.+0      	; 0x154 <lcd_set_4bit+0x1e>
     154:	00 00       	nop
     156:	42 98       	cbi	0x08, 2	; 8
     158:	86 e6       	ldi	r24, 0x66	; 102
     15a:	9e e0       	ldi	r25, 0x0E	; 14
     15c:	01 97       	sbiw	r24, 0x01	; 1
     15e:	f1 f7       	brne	.-4      	; 0x15c <lcd_set_4bit+0x26>
     160:	00 00       	nop
     162:	40 98       	cbi	0x08, 0	; 8
     164:	41 98       	cbi	0x08, 1	; 8
     166:	80 e3       	ldi	r24, 0x30	; 48
     168:	88 b9       	out	0x08, r24	; 8
     16a:	42 9a       	sbi	0x08, 2	; 8
     16c:	8f ef       	ldi	r24, 0xFF	; 255
     16e:	97 e4       	ldi	r25, 0x47	; 71
     170:	01 97       	sbiw	r24, 0x01	; 1
     172:	f1 f7       	brne	.-4      	; 0x170 <lcd_set_4bit+0x3a>
     174:	00 c0       	rjmp	.+0      	; 0x176 <lcd_set_4bit+0x40>
     176:	00 00       	nop
     178:	42 98       	cbi	0x08, 2	; 8
     17a:	86 e6       	ldi	r24, 0x66	; 102
     17c:	9e e0       	ldi	r25, 0x0E	; 14
     17e:	01 97       	sbiw	r24, 0x01	; 1
     180:	f1 f7       	brne	.-4      	; 0x17e <lcd_set_4bit+0x48>
     182:	00 00       	nop
     184:	40 98       	cbi	0x08, 0	; 8
     186:	41 98       	cbi	0x08, 1	; 8
     188:	80 e3       	ldi	r24, 0x30	; 48
     18a:	88 b9       	out	0x08, r24	; 8
     18c:	42 9a       	sbi	0x08, 2	; 8
     18e:	8f ef       	ldi	r24, 0xFF	; 255
     190:	97 e4       	ldi	r25, 0x47	; 71
     192:	01 97       	sbiw	r24, 0x01	; 1
     194:	f1 f7       	brne	.-4      	; 0x192 <lcd_set_4bit+0x5c>
     196:	00 c0       	rjmp	.+0      	; 0x198 <lcd_set_4bit+0x62>
     198:	00 00       	nop
     19a:	42 98       	cbi	0x08, 2	; 8
     19c:	86 e6       	ldi	r24, 0x66	; 102
     19e:	9e e0       	ldi	r25, 0x0E	; 14
     1a0:	01 97       	sbiw	r24, 0x01	; 1
     1a2:	f1 f7       	brne	.-4      	; 0x1a0 <lcd_set_4bit+0x6a>
     1a4:	00 00       	nop
     1a6:	40 98       	cbi	0x08, 0	; 8
     1a8:	41 98       	cbi	0x08, 1	; 8
     1aa:	80 e2       	ldi	r24, 0x20	; 32
     1ac:	88 b9       	out	0x08, r24	; 8
     1ae:	42 9a       	sbi	0x08, 2	; 8
     1b0:	8f ef       	ldi	r24, 0xFF	; 255
     1b2:	97 e4       	ldi	r25, 0x47	; 71
     1b4:	01 97       	sbiw	r24, 0x01	; 1
     1b6:	f1 f7       	brne	.-4      	; 0x1b4 <lcd_set_4bit+0x7e>
     1b8:	00 c0       	rjmp	.+0      	; 0x1ba <lcd_set_4bit+0x84>
     1ba:	00 00       	nop
     1bc:	42 98       	cbi	0x08, 2	; 8
     1be:	08 95       	ret

000001c0 <lcd_wr_command>:
     1c0:	98 b1       	in	r25, 0x08	; 8
     1c2:	9f 70       	andi	r25, 0x0F	; 15
     1c4:	98 b9       	out	0x08, r25	; 8
     1c6:	98 b1       	in	r25, 0x08	; 8
     1c8:	28 2f       	mov	r18, r24
     1ca:	20 7f       	andi	r18, 0xF0	; 240
     1cc:	92 2b       	or	r25, r18
     1ce:	98 b9       	out	0x08, r25	; 8
     1d0:	40 98       	cbi	0x08, 0	; 8
     1d2:	41 98       	cbi	0x08, 1	; 8
     1d4:	42 9a       	sbi	0x08, 2	; 8
     1d6:	ef ef       	ldi	r30, 0xFF	; 255
     1d8:	f7 e4       	ldi	r31, 0x47	; 71
     1da:	31 97       	sbiw	r30, 0x01	; 1
     1dc:	f1 f7       	brne	.-4      	; 0x1da <lcd_wr_command+0x1a>
     1de:	00 c0       	rjmp	.+0      	; 0x1e0 <lcd_wr_command+0x20>
     1e0:	00 00       	nop
     1e2:	42 98       	cbi	0x08, 2	; 8
     1e4:	98 b1       	in	r25, 0x08	; 8
     1e6:	9f 70       	andi	r25, 0x0F	; 15
     1e8:	98 b9       	out	0x08, r25	; 8
     1ea:	98 b1       	in	r25, 0x08	; 8
     1ec:	82 95       	swap	r24
     1ee:	80 7f       	andi	r24, 0xF0	; 240
     1f0:	89 2b       	or	r24, r25
     1f2:	88 b9       	out	0x08, r24	; 8
     1f4:	40 98       	cbi	0x08, 0	; 8
     1f6:	41 98       	cbi	0x08, 1	; 8
     1f8:	42 9a       	sbi	0x08, 2	; 8
     1fa:	8f ef       	ldi	r24, 0xFF	; 255
     1fc:	97 e4       	ldi	r25, 0x47	; 71
     1fe:	01 97       	sbiw	r24, 0x01	; 1
     200:	f1 f7       	brne	.-4      	; 0x1fe <lcd_wr_command+0x3e>
     202:	00 c0       	rjmp	.+0      	; 0x204 <lcd_wr_command+0x44>
     204:	00 00       	nop
     206:	42 98       	cbi	0x08, 2	; 8
     208:	08 95       	ret

0000020a <lcd_init>:
     20a:	95 df       	rcall	.-214    	; 0x136 <lcd_set_4bit>
     20c:	86 e6       	ldi	r24, 0x66	; 102
     20e:	9e e0       	ldi	r25, 0x0E	; 14
     210:	01 97       	sbiw	r24, 0x01	; 1
     212:	f1 f7       	brne	.-4      	; 0x210 <lcd_init+0x6>
     214:	00 00       	nop
     216:	88 e2       	ldi	r24, 0x28	; 40
     218:	d3 df       	rcall	.-90     	; 0x1c0 <lcd_wr_command>
     21a:	81 e0       	ldi	r24, 0x01	; 1
     21c:	d1 df       	rcall	.-94     	; 0x1c0 <lcd_wr_command>
     21e:	86 e0       	ldi	r24, 0x06	; 6
     220:	cf df       	rcall	.-98     	; 0x1c0 <lcd_wr_command>
     222:	8e e0       	ldi	r24, 0x0E	; 14
     224:	cd df       	rcall	.-102    	; 0x1c0 <lcd_wr_command>
     226:	80 e8       	ldi	r24, 0x80	; 128
     228:	cb cf       	rjmp	.-106    	; 0x1c0 <lcd_wr_command>
     22a:	08 95       	ret

0000022c <lcd_wr_char>:
     22c:	98 b1       	in	r25, 0x08	; 8
     22e:	9f 70       	andi	r25, 0x0F	; 15
     230:	98 b9       	out	0x08, r25	; 8
     232:	98 b1       	in	r25, 0x08	; 8
     234:	28 2f       	mov	r18, r24
     236:	20 7f       	andi	r18, 0xF0	; 240
     238:	92 2b       	or	r25, r18
     23a:	98 b9       	out	0x08, r25	; 8
     23c:	40 9a       	sbi	0x08, 0	; 8
     23e:	41 98       	cbi	0x08, 1	; 8
     240:	42 9a       	sbi	0x08, 2	; 8
     242:	ef ef       	ldi	r30, 0xFF	; 255
     244:	f7 e4       	ldi	r31, 0x47	; 71
     246:	31 97       	sbiw	r30, 0x01	; 1
     248:	f1 f7       	brne	.-4      	; 0x246 <lcd_wr_char+0x1a>
     24a:	00 c0       	rjmp	.+0      	; 0x24c <lcd_wr_char+0x20>
     24c:	00 00       	nop
     24e:	42 98       	cbi	0x08, 2	; 8
     250:	98 b1       	in	r25, 0x08	; 8
     252:	9f 70       	andi	r25, 0x0F	; 15
     254:	98 b9       	out	0x08, r25	; 8
     256:	98 b1       	in	r25, 0x08	; 8
     258:	82 95       	swap	r24
     25a:	80 7f       	andi	r24, 0xF0	; 240
     25c:	89 2b       	or	r24, r25
     25e:	88 b9       	out	0x08, r24	; 8
     260:	40 9a       	sbi	0x08, 0	; 8
     262:	41 98       	cbi	0x08, 1	; 8
     264:	42 9a       	sbi	0x08, 2	; 8
     266:	8f ef       	ldi	r24, 0xFF	; 255
     268:	97 e4       	ldi	r25, 0x47	; 71
     26a:	01 97       	sbiw	r24, 0x01	; 1
     26c:	f1 f7       	brne	.-4      	; 0x26a <lcd_wr_char+0x3e>
     26e:	00 c0       	rjmp	.+0      	; 0x270 <lcd_wr_char+0x44>
     270:	00 00       	nop
     272:	42 98       	cbi	0x08, 2	; 8
     274:	08 95       	ret

00000276 <lcd_home>:
     276:	80 e8       	ldi	r24, 0x80	; 128
     278:	a3 cf       	rjmp	.-186    	; 0x1c0 <lcd_wr_command>
     27a:	08 95       	ret

0000027c <lcd_string>:
     27c:	cf 93       	push	r28
     27e:	df 93       	push	r29
     280:	ec 01       	movw	r28, r24
     282:	88 81       	ld	r24, Y
     284:	88 23       	and	r24, r24
     286:	29 f0       	breq	.+10     	; 0x292 <lcd_string+0x16>
     288:	21 96       	adiw	r28, 0x01	; 1
     28a:	d0 df       	rcall	.-96     	; 0x22c <lcd_wr_char>
     28c:	89 91       	ld	r24, Y+
     28e:	81 11       	cpse	r24, r1
     290:	fc cf       	rjmp	.-8      	; 0x28a <lcd_string+0xe>
     292:	df 91       	pop	r29
     294:	cf 91       	pop	r28
     296:	08 95       	ret

00000298 <lcd_print>:
     298:	0f 93       	push	r16
     29a:	1f 93       	push	r17
     29c:	cf 93       	push	r28
     29e:	df 93       	push	r29
     2a0:	8a 01       	movw	r16, r20
     2a2:	e9 01       	movw	r28, r18
     2a4:	88 23       	and	r24, r24
     2a6:	11 f0       	breq	.+4      	; 0x2ac <lcd_print+0x14>
     2a8:	61 11       	cpse	r22, r1
     2aa:	02 c0       	rjmp	.+4      	; 0x2b0 <lcd_print+0x18>
     2ac:	e4 df       	rcall	.-56     	; 0x276 <lcd_home>
     2ae:	1a c0       	rjmp	.+52     	; 0x2e4 <lcd_print+0x4c>
     2b0:	82 30       	cpi	r24, 0x02	; 2
     2b2:	69 f0       	breq	.+26     	; 0x2ce <lcd_print+0x36>
     2b4:	18 f4       	brcc	.+6      	; 0x2bc <lcd_print+0x24>
     2b6:	81 30       	cpi	r24, 0x01	; 1
     2b8:	31 f0       	breq	.+12     	; 0x2c6 <lcd_print+0x2e>
     2ba:	14 c0       	rjmp	.+40     	; 0x2e4 <lcd_print+0x4c>
     2bc:	83 30       	cpi	r24, 0x03	; 3
     2be:	59 f0       	breq	.+22     	; 0x2d6 <lcd_print+0x3e>
     2c0:	84 30       	cpi	r24, 0x04	; 4
     2c2:	69 f0       	breq	.+26     	; 0x2de <lcd_print+0x46>
     2c4:	0f c0       	rjmp	.+30     	; 0x2e4 <lcd_print+0x4c>
     2c6:	8f e7       	ldi	r24, 0x7F	; 127
     2c8:	86 0f       	add	r24, r22
     2ca:	7a df       	rcall	.-268    	; 0x1c0 <lcd_wr_command>
     2cc:	0b c0       	rjmp	.+22     	; 0x2e4 <lcd_print+0x4c>
     2ce:	8f eb       	ldi	r24, 0xBF	; 191
     2d0:	86 0f       	add	r24, r22
     2d2:	76 df       	rcall	.-276    	; 0x1c0 <lcd_wr_command>
     2d4:	07 c0       	rjmp	.+14     	; 0x2e4 <lcd_print+0x4c>
     2d6:	83 e9       	ldi	r24, 0x93	; 147
     2d8:	86 0f       	add	r24, r22
     2da:	72 df       	rcall	.-284    	; 0x1c0 <lcd_wr_command>
     2dc:	03 c0       	rjmp	.+6      	; 0x2e4 <lcd_print+0x4c>
     2de:	83 ed       	ldi	r24, 0xD3	; 211
     2e0:	86 0f       	add	r24, r22
     2e2:	6e df       	rcall	.-292    	; 0x1c0 <lcd_wr_command>
     2e4:	c5 30       	cpi	r28, 0x05	; 5
     2e6:	d1 05       	cpc	r29, r1
     2e8:	09 f0       	breq	.+2      	; 0x2ec <lcd_print+0x54>
     2ea:	d5 c0       	rjmp	.+426    	; 0x496 <lcd_print+0x1fe>
     2ec:	98 01       	movw	r18, r16
     2ee:	32 95       	swap	r19
     2f0:	22 95       	swap	r18
     2f2:	2f 70       	andi	r18, 0x0F	; 15
     2f4:	23 27       	eor	r18, r19
     2f6:	3f 70       	andi	r19, 0x0F	; 15
     2f8:	23 27       	eor	r18, r19
     2fa:	a7 e4       	ldi	r26, 0x47	; 71
     2fc:	b3 e0       	ldi	r27, 0x03	; 3
     2fe:	0e 94 e1 1f 	call	0x3fc2	; 0x3fc2 <__umulhisi3>
     302:	96 95       	lsr	r25
     304:	87 95       	ror	r24
     306:	96 95       	lsr	r25
     308:	87 95       	ror	r24
     30a:	96 95       	lsr	r25
     30c:	87 95       	ror	r24
     30e:	c0 96       	adiw	r24, 0x30	; 48
     310:	90 93 27 05 	sts	0x0527, r25
     314:	80 93 26 05 	sts	0x0526, r24
     318:	89 df       	rcall	.-238    	; 0x22c <lcd_wr_char>
     31a:	98 01       	movw	r18, r16
     31c:	36 95       	lsr	r19
     31e:	27 95       	ror	r18
     320:	36 95       	lsr	r19
     322:	27 95       	ror	r18
     324:	36 95       	lsr	r19
     326:	27 95       	ror	r18
     328:	a5 ec       	ldi	r26, 0xC5	; 197
     32a:	b0 e2       	ldi	r27, 0x20	; 32
     32c:	0e 94 e1 1f 	call	0x3fc2	; 0x3fc2 <__umulhisi3>
     330:	ac 01       	movw	r20, r24
     332:	52 95       	swap	r21
     334:	42 95       	swap	r20
     336:	4f 70       	andi	r20, 0x0F	; 15
     338:	45 27       	eor	r20, r21
     33a:	5f 70       	andi	r21, 0x0F	; 15
     33c:	45 27       	eor	r20, r21
     33e:	50 93 2b 05 	sts	0x052B, r21
     342:	40 93 2a 05 	sts	0x052A, r20
     346:	9a 01       	movw	r18, r20
     348:	ad ec       	ldi	r26, 0xCD	; 205
     34a:	bc ec       	ldi	r27, 0xCC	; 204
     34c:	0e 94 e1 1f 	call	0x3fc2	; 0x3fc2 <__umulhisi3>
     350:	96 95       	lsr	r25
     352:	87 95       	ror	r24
     354:	96 95       	lsr	r25
     356:	87 95       	ror	r24
     358:	96 95       	lsr	r25
     35a:	87 95       	ror	r24
     35c:	9c 01       	movw	r18, r24
     35e:	22 0f       	add	r18, r18
     360:	33 1f       	adc	r19, r19
     362:	88 0f       	add	r24, r24
     364:	99 1f       	adc	r25, r25
     366:	88 0f       	add	r24, r24
     368:	99 1f       	adc	r25, r25
     36a:	88 0f       	add	r24, r24
     36c:	99 1f       	adc	r25, r25
     36e:	82 0f       	add	r24, r18
     370:	93 1f       	adc	r25, r19
     372:	48 1b       	sub	r20, r24
     374:	59 0b       	sbc	r21, r25
     376:	ca 01       	movw	r24, r20
     378:	c0 96       	adiw	r24, 0x30	; 48
     37a:	90 93 57 05 	sts	0x0557, r25
     37e:	80 93 56 05 	sts	0x0556, r24
     382:	54 df       	rcall	.-344    	; 0x22c <lcd_wr_char>
     384:	04 c0       	rjmp	.+8      	; 0x38e <lcd_print+0xf6>
     386:	c3 30       	cpi	r28, 0x03	; 3
     388:	d1 05       	cpc	r29, r1
     38a:	09 f0       	breq	.+2      	; 0x38e <lcd_print+0xf6>
     38c:	89 c0       	rjmp	.+274    	; 0x4a0 <lcd_print+0x208>
     38e:	98 01       	movw	r18, r16
     390:	36 95       	lsr	r19
     392:	27 95       	ror	r18
     394:	36 95       	lsr	r19
     396:	27 95       	ror	r18
     398:	ab e7       	ldi	r26, 0x7B	; 123
     39a:	b4 e1       	ldi	r27, 0x14	; 20
     39c:	0e 94 e1 1f 	call	0x3fc2	; 0x3fc2 <__umulhisi3>
     3a0:	ac 01       	movw	r20, r24
     3a2:	56 95       	lsr	r21
     3a4:	47 95       	ror	r20
     3a6:	50 93 2b 05 	sts	0x052B, r21
     3aa:	40 93 2a 05 	sts	0x052A, r20
     3ae:	9a 01       	movw	r18, r20
     3b0:	ad ec       	ldi	r26, 0xCD	; 205
     3b2:	bc ec       	ldi	r27, 0xCC	; 204
     3b4:	0e 94 e1 1f 	call	0x3fc2	; 0x3fc2 <__umulhisi3>
     3b8:	96 95       	lsr	r25
     3ba:	87 95       	ror	r24
     3bc:	96 95       	lsr	r25
     3be:	87 95       	ror	r24
     3c0:	96 95       	lsr	r25
     3c2:	87 95       	ror	r24
     3c4:	9c 01       	movw	r18, r24
     3c6:	22 0f       	add	r18, r18
     3c8:	33 1f       	adc	r19, r19
     3ca:	88 0f       	add	r24, r24
     3cc:	99 1f       	adc	r25, r25
     3ce:	88 0f       	add	r24, r24
     3d0:	99 1f       	adc	r25, r25
     3d2:	88 0f       	add	r24, r24
     3d4:	99 1f       	adc	r25, r25
     3d6:	82 0f       	add	r24, r18
     3d8:	93 1f       	adc	r25, r19
     3da:	48 1b       	sub	r20, r24
     3dc:	59 0b       	sbc	r21, r25
     3de:	ca 01       	movw	r24, r20
     3e0:	c0 96       	adiw	r24, 0x30	; 48
     3e2:	90 93 32 05 	sts	0x0532, r25
     3e6:	80 93 31 05 	sts	0x0531, r24
     3ea:	20 df       	rcall	.-448    	; 0x22c <lcd_wr_char>
     3ec:	98 01       	movw	r18, r16
     3ee:	ad ec       	ldi	r26, 0xCD	; 205
     3f0:	bc ec       	ldi	r27, 0xCC	; 204
     3f2:	0e 94 e1 1f 	call	0x3fc2	; 0x3fc2 <__umulhisi3>
     3f6:	ac 01       	movw	r20, r24
     3f8:	56 95       	lsr	r21
     3fa:	47 95       	ror	r20
     3fc:	56 95       	lsr	r21
     3fe:	47 95       	ror	r20
     400:	56 95       	lsr	r21
     402:	47 95       	ror	r20
     404:	50 93 2b 05 	sts	0x052B, r21
     408:	40 93 2a 05 	sts	0x052A, r20
     40c:	9a 01       	movw	r18, r20
     40e:	0e 94 e1 1f 	call	0x3fc2	; 0x3fc2 <__umulhisi3>
     412:	96 95       	lsr	r25
     414:	87 95       	ror	r24
     416:	96 95       	lsr	r25
     418:	87 95       	ror	r24
     41a:	96 95       	lsr	r25
     41c:	87 95       	ror	r24
     41e:	9c 01       	movw	r18, r24
     420:	22 0f       	add	r18, r18
     422:	33 1f       	adc	r19, r19
     424:	88 0f       	add	r24, r24
     426:	99 1f       	adc	r25, r25
     428:	88 0f       	add	r24, r24
     42a:	99 1f       	adc	r25, r25
     42c:	88 0f       	add	r24, r24
     42e:	99 1f       	adc	r25, r25
     430:	82 0f       	add	r24, r18
     432:	93 1f       	adc	r25, r19
     434:	48 1b       	sub	r20, r24
     436:	59 0b       	sbc	r21, r25
     438:	ca 01       	movw	r24, r20
     43a:	c0 96       	adiw	r24, 0x30	; 48
     43c:	90 93 30 05 	sts	0x0530, r25
     440:	80 93 2f 05 	sts	0x052F, r24
     444:	f3 de       	rcall	.-538    	; 0x22c <lcd_wr_char>
     446:	03 c0       	rjmp	.+6      	; 0x44e <lcd_print+0x1b6>
     448:	c1 30       	cpi	r28, 0x01	; 1
     44a:	d1 05       	cpc	r29, r1
     44c:	f9 f4       	brne	.+62     	; 0x48c <lcd_print+0x1f4>
     44e:	98 01       	movw	r18, r16
     450:	ad ec       	ldi	r26, 0xCD	; 205
     452:	bc ec       	ldi	r27, 0xCC	; 204
     454:	0e 94 e1 1f 	call	0x3fc2	; 0x3fc2 <__umulhisi3>
     458:	96 95       	lsr	r25
     45a:	87 95       	ror	r24
     45c:	96 95       	lsr	r25
     45e:	87 95       	ror	r24
     460:	96 95       	lsr	r25
     462:	87 95       	ror	r24
     464:	9c 01       	movw	r18, r24
     466:	22 0f       	add	r18, r18
     468:	33 1f       	adc	r19, r19
     46a:	88 0f       	add	r24, r24
     46c:	99 1f       	adc	r25, r25
     46e:	88 0f       	add	r24, r24
     470:	99 1f       	adc	r25, r25
     472:	88 0f       	add	r24, r24
     474:	99 1f       	adc	r25, r25
     476:	82 0f       	add	r24, r18
     478:	93 1f       	adc	r25, r19
     47a:	08 1b       	sub	r16, r24
     47c:	19 0b       	sbc	r17, r25
     47e:	c8 01       	movw	r24, r16
     480:	c0 96       	adiw	r24, 0x30	; 48
     482:	90 93 55 05 	sts	0x0555, r25
     486:	80 93 54 05 	sts	0x0554, r24
     48a:	d0 de       	rcall	.-608    	; 0x22c <lcd_wr_char>
     48c:	26 97       	sbiw	r28, 0x06	; 6
     48e:	64 f0       	brlt	.+24     	; 0x4a8 <lcd_print+0x210>
     490:	85 e4       	ldi	r24, 0x45	; 69
     492:	cc de       	rcall	.-616    	; 0x22c <lcd_wr_char>
     494:	09 c0       	rjmp	.+18     	; 0x4a8 <lcd_print+0x210>
     496:	c4 30       	cpi	r28, 0x04	; 4
     498:	d1 05       	cpc	r29, r1
     49a:	09 f0       	breq	.+2      	; 0x49e <lcd_print+0x206>
     49c:	74 cf       	rjmp	.-280    	; 0x386 <lcd_print+0xee>
     49e:	3d cf       	rjmp	.-390    	; 0x31a <lcd_print+0x82>
     4a0:	c2 30       	cpi	r28, 0x02	; 2
     4a2:	d1 05       	cpc	r29, r1
     4a4:	89 f6       	brne	.-94     	; 0x448 <lcd_print+0x1b0>
     4a6:	a2 cf       	rjmp	.-188    	; 0x3ec <lcd_print+0x154>
     4a8:	df 91       	pop	r29
     4aa:	cf 91       	pop	r28
     4ac:	1f 91       	pop	r17
     4ae:	0f 91       	pop	r16
     4b0:	08 95       	ret

000004b2 <reverse>:
     4b2:	9b 01       	movw	r18, r22
     4b4:	21 50       	subi	r18, 0x01	; 1
     4b6:	31 09       	sbc	r19, r1
     4b8:	33 23       	and	r19, r19
     4ba:	c4 f0       	brlt	.+48     	; 0x4ec <reverse+0x3a>
     4bc:	db 01       	movw	r26, r22
     4be:	aa 0f       	add	r26, r26
     4c0:	bb 1f       	adc	r27, r27
     4c2:	a8 0f       	add	r26, r24
     4c4:	b9 1f       	adc	r27, r25
     4c6:	fc 01       	movw	r30, r24
     4c8:	40 e0       	ldi	r20, 0x00	; 0
     4ca:	50 e0       	ldi	r21, 0x00	; 0
     4cc:	80 81       	ld	r24, Z
     4ce:	91 81       	ldd	r25, Z+1	; 0x01
     4d0:	7e 91       	ld	r23, -X
     4d2:	6e 91       	ld	r22, -X
     4d4:	61 93       	st	Z+, r22
     4d6:	71 93       	st	Z+, r23
     4d8:	11 96       	adiw	r26, 0x01	; 1
     4da:	9c 93       	st	X, r25
     4dc:	8e 93       	st	-X, r24
     4de:	4f 5f       	subi	r20, 0xFF	; 255
     4e0:	5f 4f       	sbci	r21, 0xFF	; 255
     4e2:	21 50       	subi	r18, 0x01	; 1
     4e4:	31 09       	sbc	r19, r1
     4e6:	24 17       	cp	r18, r20
     4e8:	35 07       	cpc	r19, r21
     4ea:	84 f7       	brge	.-32     	; 0x4cc <reverse+0x1a>
     4ec:	08 95       	ret

000004ee <dijkstra>:
     4ee:	2f 92       	push	r2
     4f0:	3f 92       	push	r3
     4f2:	4f 92       	push	r4
     4f4:	5f 92       	push	r5
     4f6:	6f 92       	push	r6
     4f8:	7f 92       	push	r7
     4fa:	8f 92       	push	r8
     4fc:	9f 92       	push	r9
     4fe:	af 92       	push	r10
     500:	bf 92       	push	r11
     502:	cf 92       	push	r12
     504:	df 92       	push	r13
     506:	ef 92       	push	r14
     508:	ff 92       	push	r15
     50a:	0f 93       	push	r16
     50c:	1f 93       	push	r17
     50e:	cf 93       	push	r28
     510:	df 93       	push	r29
     512:	cd b7       	in	r28, 0x3d	; 61
     514:	de b7       	in	r29, 0x3e	; 62
     516:	c2 52       	subi	r28, 0x22	; 34
     518:	d2 40       	sbci	r29, 0x02	; 2
     51a:	0f b6       	in	r0, 0x3f	; 63
     51c:	f8 94       	cli
     51e:	de bf       	out	0x3e, r29	; 62
     520:	0f be       	out	0x3f, r0	; 63
     522:	cd bf       	out	0x3d, r28	; 61
     524:	4b 01       	movw	r8, r22
     526:	16 16       	cp	r1, r22
     528:	17 06       	cpc	r1, r23
     52a:	0c f0       	brlt	.+2      	; 0x52e <dijkstra+0x40>
     52c:	5a c0       	rjmp	.+180    	; 0x5e2 <dijkstra+0xf4>
     52e:	08 2f       	mov	r16, r24
     530:	19 2f       	mov	r17, r25
     532:	ce 01       	movw	r24, r28
     534:	01 96       	adiw	r24, 0x01	; 1
     536:	7c 01       	movw	r14, r24
     538:	8e e1       	ldi	r24, 0x1E	; 30
     53a:	86 9f       	mul	r24, r22
     53c:	50 01       	movw	r10, r0
     53e:	87 9f       	mul	r24, r23
     540:	b0 0c       	add	r11, r0
     542:	11 24       	eor	r1, r1
     544:	ae 0c       	add	r10, r14
     546:	bf 1c       	adc	r11, r15
     548:	6b 01       	movw	r12, r22
     54a:	cc 0c       	add	r12, r12
     54c:	dd 1c       	adc	r13, r13
     54e:	6f e0       	ldi	r22, 0x0F	; 15
     550:	77 e2       	ldi	r23, 0x27	; 39
     552:	17 c0       	rjmp	.+46     	; 0x582 <dijkstra+0x94>
     554:	81 91       	ld	r24, Z+
     556:	91 91       	ld	r25, Z+
     558:	00 97       	sbiw	r24, 0x00	; 0
     55a:	21 f4       	brne	.+8      	; 0x564 <dijkstra+0x76>
     55c:	11 96       	adiw	r26, 0x01	; 1
     55e:	7c 93       	st	X, r23
     560:	6e 93       	st	-X, r22
     562:	03 c0       	rjmp	.+6      	; 0x56a <dijkstra+0x7c>
     564:	11 96       	adiw	r26, 0x01	; 1
     566:	9c 93       	st	X, r25
     568:	8e 93       	st	-X, r24
     56a:	12 96       	adiw	r26, 0x02	; 2
     56c:	e2 17       	cp	r30, r18
     56e:	f3 07       	cpc	r31, r19
     570:	89 f7       	brne	.-30     	; 0x554 <dijkstra+0x66>
     572:	02 5e       	subi	r16, 0xE2	; 226
     574:	1f 4f       	sbci	r17, 0xFF	; 255
     576:	9e e1       	ldi	r25, 0x1E	; 30
     578:	e9 0e       	add	r14, r25
     57a:	f1 1c       	adc	r15, r1
     57c:	ea 14       	cp	r14, r10
     57e:	fb 04       	cpc	r15, r11
     580:	31 f0       	breq	.+12     	; 0x58e <dijkstra+0xa0>
     582:	98 01       	movw	r18, r16
     584:	2c 0d       	add	r18, r12
     586:	3d 1d       	adc	r19, r13
     588:	d7 01       	movw	r26, r14
     58a:	f8 01       	movw	r30, r16
     58c:	e3 cf       	rjmp	.-58     	; 0x554 <dijkstra+0x66>
     58e:	8e e1       	ldi	r24, 0x1E	; 30
     590:	84 9f       	mul	r24, r20
     592:	90 01       	movw	r18, r0
     594:	85 9f       	mul	r24, r21
     596:	30 0d       	add	r19, r0
     598:	11 24       	eor	r1, r1
     59a:	a1 e0       	ldi	r26, 0x01	; 1
     59c:	b0 e0       	ldi	r27, 0x00	; 0
     59e:	ac 0f       	add	r26, r28
     5a0:	bd 1f       	adc	r27, r29
     5a2:	2a 0f       	add	r18, r26
     5a4:	3b 1f       	adc	r19, r27
     5a6:	fe 01       	movw	r30, r28
     5a8:	ed 53       	subi	r30, 0x3D	; 61
     5aa:	fe 4f       	sbci	r31, 0xFE	; 254
     5ac:	ce 01       	movw	r24, r28
     5ae:	8f 51       	subi	r24, 0x1F	; 31
     5b0:	9e 4f       	sbci	r25, 0xFE	; 254
     5b2:	de 01       	movw	r26, r28
     5b4:	a1 50       	subi	r26, 0x01	; 1
     5b6:	be 4f       	sbci	r27, 0xFE	; 254
     5b8:	ce 0e       	add	r12, r30
     5ba:	df 1e       	adc	r13, r31
     5bc:	89 01       	movw	r16, r18
     5be:	9d 01       	movw	r18, r26
     5c0:	d8 01       	movw	r26, r16
     5c2:	6d 91       	ld	r22, X+
     5c4:	7d 91       	ld	r23, X+
     5c6:	8d 01       	movw	r16, r26
     5c8:	61 93       	st	Z+, r22
     5ca:	71 93       	st	Z+, r23
     5cc:	dc 01       	movw	r26, r24
     5ce:	4d 93       	st	X+, r20
     5d0:	5d 93       	st	X+, r21
     5d2:	cd 01       	movw	r24, r26
     5d4:	d9 01       	movw	r26, r18
     5d6:	1d 92       	st	X+, r1
     5d8:	1d 92       	st	X+, r1
     5da:	9d 01       	movw	r18, r26
     5dc:	ec 15       	cp	r30, r12
     5de:	fd 05       	cpc	r31, r13
     5e0:	79 f7       	brne	.-34     	; 0x5c0 <dijkstra+0xd2>
     5e2:	44 0f       	add	r20, r20
     5e4:	55 1f       	adc	r21, r21
     5e6:	e3 ec       	ldi	r30, 0xC3	; 195
     5e8:	f1 e0       	ldi	r31, 0x01	; 1
     5ea:	ec 0f       	add	r30, r28
     5ec:	fd 1f       	adc	r31, r29
     5ee:	e4 0f       	add	r30, r20
     5f0:	f5 1f       	adc	r31, r21
     5f2:	11 82       	std	Z+1, r1	; 0x01
     5f4:	10 82       	st	Z, r1
     5f6:	ef ef       	ldi	r30, 0xFF	; 255
     5f8:	f1 e0       	ldi	r31, 0x01	; 1
     5fa:	ec 0f       	add	r30, r28
     5fc:	fd 1f       	adc	r31, r29
     5fe:	e4 0f       	add	r30, r20
     600:	f5 1f       	adc	r31, r21
     602:	81 e0       	ldi	r24, 0x01	; 1
     604:	90 e0       	ldi	r25, 0x00	; 0
     606:	91 83       	std	Z+1, r25	; 0x01
     608:	80 83       	st	Z, r24
     60a:	c4 01       	movw	r24, r8
     60c:	01 97       	sbiw	r24, 0x01	; 1
     60e:	c1 5e       	subi	r28, 0xE1	; 225
     610:	dd 4f       	sbci	r29, 0xFD	; 253
     612:	99 83       	std	Y+1, r25	; 0x01
     614:	88 83       	st	Y, r24
     616:	cf 51       	subi	r28, 0x1F	; 31
     618:	d2 40       	sbci	r29, 0x02	; 2
     61a:	02 97       	sbiw	r24, 0x02	; 2
     61c:	0c f4       	brge	.+2      	; 0x620 <dijkstra+0x132>
     61e:	9d c0       	rjmp	.+314    	; 0x75a <dijkstra+0x26c>
     620:	b4 01       	movw	r22, r8
     622:	66 0f       	add	r22, r22
     624:	77 1f       	adc	r23, r23
     626:	aa 24       	eor	r10, r10
     628:	a3 94       	inc	r10
     62a:	b1 2c       	mov	r11, r1
     62c:	de 01       	movw	r26, r28
     62e:	a1 50       	subi	r26, 0x01	; 1
     630:	be 4f       	sbci	r27, 0xFE	; 254
     632:	c3 5e       	subi	r28, 0xE3	; 227
     634:	dd 4f       	sbci	r29, 0xFD	; 253
     636:	b9 83       	std	Y+1, r27	; 0x01
     638:	a8 83       	st	Y, r26
     63a:	cd 51       	subi	r28, 0x1D	; 29
     63c:	d2 40       	sbci	r29, 0x02	; 2
     63e:	c3 5e       	subi	r28, 0xE3	; 227
     640:	dd 4f       	sbci	r29, 0xFD	; 253
     642:	58 80       	ld	r5, Y
     644:	cd 51       	subi	r28, 0x1D	; 29
     646:	d2 40       	sbci	r29, 0x02	; 2
     648:	c2 5e       	subi	r28, 0xE2	; 226
     64a:	dd 4f       	sbci	r29, 0xFD	; 253
     64c:	48 80       	ld	r4, Y
     64e:	ce 51       	subi	r28, 0x1E	; 30
     650:	d2 40       	sbci	r29, 0x02	; 2
     652:	31 2c       	mov	r3, r1
     654:	21 2c       	mov	r2, r1
     656:	73 c0       	rjmp	.+230    	; 0x73e <dijkstra+0x250>
     658:	2d 91       	ld	r18, X+
     65a:	3d 91       	ld	r19, X+
     65c:	24 17       	cp	r18, r20
     65e:	35 07       	cpc	r19, r21
     660:	34 f4       	brge	.+12     	; 0x66e <dijkstra+0x180>
     662:	60 81       	ld	r22, Z
     664:	71 81       	ldd	r23, Z+1	; 0x01
     666:	67 2b       	or	r22, r23
     668:	11 f4       	brne	.+4      	; 0x66e <dijkstra+0x180>
     66a:	3c 01       	movw	r6, r24
     66c:	a9 01       	movw	r20, r18
     66e:	01 96       	adiw	r24, 0x01	; 1
     670:	32 96       	adiw	r30, 0x02	; 2
     672:	88 15       	cp	r24, r8
     674:	99 05       	cpc	r25, r9
     676:	81 f7       	brne	.-32     	; 0x658 <dijkstra+0x16a>
     678:	b8 01       	movw	r22, r16
     67a:	e6 2c       	mov	r14, r6
     67c:	f7 2c       	mov	r15, r7
     67e:	f3 01       	movw	r30, r6
     680:	ee 0f       	add	r30, r30
     682:	ff 1f       	adc	r31, r31
     684:	8f ef       	ldi	r24, 0xFF	; 255
     686:	91 e0       	ldi	r25, 0x01	; 1
     688:	8c 0f       	add	r24, r28
     68a:	9d 1f       	adc	r25, r29
     68c:	e8 0f       	add	r30, r24
     68e:	f9 1f       	adc	r31, r25
     690:	a1 e0       	ldi	r26, 0x01	; 1
     692:	b0 e0       	ldi	r27, 0x00	; 0
     694:	b1 83       	std	Z+1, r27	; 0x01
     696:	a0 83       	st	Z, r26
     698:	be e1       	ldi	r27, 0x1E	; 30
     69a:	b6 9d       	mul	r27, r6
     69c:	60 01       	movw	r12, r0
     69e:	b7 9d       	mul	r27, r7
     6a0:	d0 0c       	add	r13, r0
     6a2:	11 24       	eor	r1, r1
     6a4:	81 e0       	ldi	r24, 0x01	; 1
     6a6:	90 e0       	ldi	r25, 0x00	; 0
     6a8:	8c 0f       	add	r24, r28
     6aa:	9d 1f       	adc	r25, r29
     6ac:	c8 0e       	add	r12, r24
     6ae:	d9 1e       	adc	r13, r25
     6b0:	fe 01       	movw	r30, r28
     6b2:	ed 53       	subi	r30, 0x3D	; 61
     6b4:	fe 4f       	sbci	r31, 0xFE	; 254
     6b6:	a5 2d       	mov	r26, r5
     6b8:	b4 2d       	mov	r27, r4
     6ba:	83 2d       	mov	r24, r3
     6bc:	92 2d       	mov	r25, r2
     6be:	cf 5d       	subi	r28, 0xDF	; 223
     6c0:	dd 4f       	sbci	r29, 0xFD	; 253
     6c2:	b9 83       	std	Y+1, r27	; 0x01
     6c4:	a8 83       	st	Y, r26
     6c6:	c1 52       	subi	r28, 0x21	; 33
     6c8:	d2 40       	sbci	r29, 0x02	; 2
     6ca:	cf 5d       	subi	r28, 0xDF	; 223
     6cc:	dd 4f       	sbci	r29, 0xFD	; 253
     6ce:	a8 81       	ld	r26, Y
     6d0:	b9 81       	ldd	r27, Y+1	; 0x01
     6d2:	c1 52       	subi	r28, 0x21	; 33
     6d4:	d2 40       	sbci	r29, 0x02	; 2
     6d6:	2d 91       	ld	r18, X+
     6d8:	3d 91       	ld	r19, X+
     6da:	cf 5d       	subi	r28, 0xDF	; 223
     6dc:	dd 4f       	sbci	r29, 0xFD	; 253
     6de:	b9 83       	std	Y+1, r27	; 0x01
     6e0:	a8 83       	st	Y, r26
     6e2:	c1 52       	subi	r28, 0x21	; 33
     6e4:	d2 40       	sbci	r29, 0x02	; 2
     6e6:	23 2b       	or	r18, r19
     6e8:	c9 f4       	brne	.+50     	; 0x71c <dijkstra+0x22e>
     6ea:	96 01       	movw	r18, r12
     6ec:	28 0f       	add	r18, r24
     6ee:	39 1f       	adc	r19, r25
     6f0:	d9 01       	movw	r26, r18
     6f2:	2d 91       	ld	r18, X+
     6f4:	3c 91       	ld	r19, X
     6f6:	24 0f       	add	r18, r20
     6f8:	35 1f       	adc	r19, r21
     6fa:	00 81       	ld	r16, Z
     6fc:	11 81       	ldd	r17, Z+1	; 0x01
     6fe:	20 17       	cp	r18, r16
     700:	31 07       	cpc	r19, r17
     702:	64 f4       	brge	.+24     	; 0x71c <dijkstra+0x22e>
     704:	31 83       	std	Z+1, r19	; 0x01
     706:	20 83       	st	Z, r18
     708:	21 ee       	ldi	r18, 0xE1	; 225
     70a:	31 e0       	ldi	r19, 0x01	; 1
     70c:	2c 0f       	add	r18, r28
     70e:	3d 1f       	adc	r19, r29
     710:	28 0f       	add	r18, r24
     712:	39 1f       	adc	r19, r25
     714:	d9 01       	movw	r26, r18
     716:	ec 92       	st	X, r14
     718:	11 96       	adiw	r26, 0x01	; 1
     71a:	fc 92       	st	X, r15
     71c:	02 96       	adiw	r24, 0x02	; 2
     71e:	32 96       	adiw	r30, 0x02	; 2
     720:	86 17       	cp	r24, r22
     722:	97 07       	cpc	r25, r23
     724:	91 f6       	brne	.-92     	; 0x6ca <dijkstra+0x1dc>
     726:	bf ef       	ldi	r27, 0xFF	; 255
     728:	ab 1a       	sub	r10, r27
     72a:	bb 0a       	sbc	r11, r27
     72c:	c1 5e       	subi	r28, 0xE1	; 225
     72e:	dd 4f       	sbci	r29, 0xFD	; 253
     730:	88 81       	ld	r24, Y
     732:	99 81       	ldd	r25, Y+1	; 0x01
     734:	cf 51       	subi	r28, 0x1F	; 31
     736:	d2 40       	sbci	r29, 0x02	; 2
     738:	a8 16       	cp	r10, r24
     73a:	b9 06       	cpc	r11, r25
     73c:	74 f4       	brge	.+28     	; 0x75a <dijkstra+0x26c>
     73e:	18 14       	cp	r1, r8
     740:	19 04       	cpc	r1, r9
     742:	74 f5       	brge	.+92     	; 0x7a0 <dijkstra+0x2b2>
     744:	e5 2d       	mov	r30, r5
     746:	f4 2d       	mov	r31, r4
     748:	de 01       	movw	r26, r28
     74a:	ad 53       	subi	r26, 0x3D	; 61
     74c:	be 4f       	sbci	r27, 0xFE	; 254
     74e:	83 2d       	mov	r24, r3
     750:	92 2d       	mov	r25, r2
     752:	4f e0       	ldi	r20, 0x0F	; 15
     754:	57 e2       	ldi	r21, 0x27	; 39
     756:	8b 01       	movw	r16, r22
     758:	7f cf       	rjmp	.-258    	; 0x658 <dijkstra+0x16a>
     75a:	18 14       	cp	r1, r8
     75c:	19 04       	cpc	r1, r9
     75e:	74 f5       	brge	.+92     	; 0x7bc <dijkstra+0x2ce>
     760:	fe 01       	movw	r30, r28
     762:	ed 53       	subi	r30, 0x3D	; 61
     764:	fe 4f       	sbci	r31, 0xFE	; 254
     766:	a6 e3       	ldi	r26, 0x36	; 54
     768:	b5 e0       	ldi	r27, 0x05	; 5
     76a:	88 0c       	add	r8, r8
     76c:	99 1c       	adc	r9, r9
     76e:	94 01       	movw	r18, r8
     770:	2e 0f       	add	r18, r30
     772:	3f 1f       	adc	r19, r31
     774:	81 91       	ld	r24, Z+
     776:	91 91       	ld	r25, Z+
     778:	8d 93       	st	X+, r24
     77a:	9d 93       	st	X+, r25
     77c:	e2 17       	cp	r30, r18
     77e:	f3 07       	cpc	r31, r19
     780:	c9 f7       	brne	.-14     	; 0x774 <dijkstra+0x286>
     782:	fe 01       	movw	r30, r28
     784:	ef 51       	subi	r30, 0x1F	; 31
     786:	fe 4f       	sbci	r31, 0xFE	; 254
     788:	a6 e0       	ldi	r26, 0x06	; 6
     78a:	b5 e0       	ldi	r27, 0x05	; 5
     78c:	8e 0e       	add	r8, r30
     78e:	9f 1e       	adc	r9, r31
     790:	81 91       	ld	r24, Z+
     792:	91 91       	ld	r25, Z+
     794:	8d 93       	st	X+, r24
     796:	9d 93       	st	X+, r25
     798:	e8 15       	cp	r30, r8
     79a:	f9 05       	cpc	r31, r9
     79c:	c9 f7       	brne	.-14     	; 0x790 <dijkstra+0x2a2>
     79e:	0e c0       	rjmp	.+28     	; 0x7bc <dijkstra+0x2ce>
     7a0:	f3 01       	movw	r30, r6
     7a2:	ee 0f       	add	r30, r30
     7a4:	ff 1f       	adc	r31, r31
     7a6:	af ef       	ldi	r26, 0xFF	; 255
     7a8:	b1 e0       	ldi	r27, 0x01	; 1
     7aa:	ac 0f       	add	r26, r28
     7ac:	bd 1f       	adc	r27, r29
     7ae:	ea 0f       	add	r30, r26
     7b0:	fb 1f       	adc	r31, r27
     7b2:	81 e0       	ldi	r24, 0x01	; 1
     7b4:	90 e0       	ldi	r25, 0x00	; 0
     7b6:	91 83       	std	Z+1, r25	; 0x01
     7b8:	80 83       	st	Z, r24
     7ba:	b5 cf       	rjmp	.-150    	; 0x726 <dijkstra+0x238>
     7bc:	ce 5d       	subi	r28, 0xDE	; 222
     7be:	dd 4f       	sbci	r29, 0xFD	; 253
     7c0:	0f b6       	in	r0, 0x3f	; 63
     7c2:	f8 94       	cli
     7c4:	de bf       	out	0x3e, r29	; 62
     7c6:	0f be       	out	0x3f, r0	; 63
     7c8:	cd bf       	out	0x3d, r28	; 61
     7ca:	df 91       	pop	r29
     7cc:	cf 91       	pop	r28
     7ce:	1f 91       	pop	r17
     7d0:	0f 91       	pop	r16
     7d2:	ff 90       	pop	r15
     7d4:	ef 90       	pop	r14
     7d6:	df 90       	pop	r13
     7d8:	cf 90       	pop	r12
     7da:	bf 90       	pop	r11
     7dc:	af 90       	pop	r10
     7de:	9f 90       	pop	r9
     7e0:	8f 90       	pop	r8
     7e2:	7f 90       	pop	r7
     7e4:	6f 90       	pop	r6
     7e6:	5f 90       	pop	r5
     7e8:	4f 90       	pop	r4
     7ea:	3f 90       	pop	r3
     7ec:	2f 90       	pop	r2
     7ee:	08 95       	ret

000007f0 <dist_comp>:
     7f0:	0f 93       	push	r16
     7f2:	1f 93       	push	r17
     7f4:	cf 93       	push	r28
     7f6:	df 93       	push	r29
     7f8:	ec 01       	movw	r28, r24
     7fa:	8b 01       	movw	r16, r22
     7fc:	f9 01       	movw	r30, r18
     7fe:	88 0f       	add	r24, r24
     800:	99 1f       	adc	r25, r25
     802:	8a 5c       	subi	r24, 0xCA	; 202
     804:	9a 4f       	sbci	r25, 0xFA	; 250
     806:	db 01       	movw	r26, r22
     808:	aa 0f       	add	r26, r26
     80a:	bb 1f       	adc	r27, r27
     80c:	bd 01       	movw	r22, r26
     80e:	6a 5c       	subi	r22, 0xCA	; 202
     810:	7a 4f       	sbci	r23, 0xFA	; 250
     812:	dc 01       	movw	r26, r24
     814:	2d 91       	ld	r18, X+
     816:	3c 91       	ld	r19, X
     818:	db 01       	movw	r26, r22
     81a:	8d 91       	ld	r24, X+
     81c:	9c 91       	ld	r25, X
     81e:	82 17       	cp	r24, r18
     820:	93 07       	cpc	r25, r19
     822:	d4 f1       	brlt	.+116    	; 0x898 <dist_comp+0xa8>
     824:	80 91 04 05 	lds	r24, 0x0504
     828:	90 91 05 05 	lds	r25, 0x0505
     82c:	8c 17       	cp	r24, r28
     82e:	9d 07       	cpc	r25, r29
     830:	51 f1       	breq	.+84     	; 0x886 <dist_comp+0x96>
     832:	a0 81       	ld	r26, Z
     834:	b1 81       	ldd	r27, Z+1	; 0x01
     836:	aa 0f       	add	r26, r26
     838:	bb 1f       	adc	r27, r27
     83a:	a4 0f       	add	r26, r20
     83c:	b5 1f       	adc	r27, r21
     83e:	cd 93       	st	X+, r28
     840:	dc 93       	st	X, r29
     842:	80 81       	ld	r24, Z
     844:	91 81       	ldd	r25, Z+1	; 0x01
     846:	01 96       	adiw	r24, 0x01	; 1
     848:	91 83       	std	Z+1, r25	; 0x01
     84a:	80 83       	st	Z, r24
     84c:	9e 01       	movw	r18, r28
     84e:	d9 01       	movw	r26, r18
     850:	aa 0f       	add	r26, r26
     852:	bb 1f       	adc	r27, r27
     854:	aa 5f       	subi	r26, 0xFA	; 250
     856:	ba 4f       	sbci	r27, 0xFA	; 250
     858:	2d 91       	ld	r18, X+
     85a:	3c 91       	ld	r19, X
     85c:	a0 81       	ld	r26, Z
     85e:	b1 81       	ldd	r27, Z+1	; 0x01
     860:	aa 0f       	add	r26, r26
     862:	bb 1f       	adc	r27, r27
     864:	a4 0f       	add	r26, r20
     866:	b5 1f       	adc	r27, r21
     868:	2d 93       	st	X+, r18
     86a:	3c 93       	st	X, r19
     86c:	60 81       	ld	r22, Z
     86e:	71 81       	ldd	r23, Z+1	; 0x01
     870:	6f 5f       	subi	r22, 0xFF	; 255
     872:	7f 4f       	sbci	r23, 0xFF	; 255
     874:	71 83       	std	Z+1, r23	; 0x01
     876:	60 83       	st	Z, r22
     878:	60 91 04 05 	lds	r22, 0x0504
     87c:	70 91 05 05 	lds	r23, 0x0505
     880:	26 17       	cp	r18, r22
     882:	37 07       	cpc	r19, r23
     884:	21 f7       	brne	.-56     	; 0x84e <dist_comp+0x5e>
     886:	60 81       	ld	r22, Z
     888:	71 81       	ldd	r23, Z+1	; 0x01
     88a:	ca 01       	movw	r24, r20
     88c:	12 de       	rcall	.-988    	; 0x4b2 <reverse>
     88e:	d0 93 05 05 	sts	0x0505, r29
     892:	c0 93 04 05 	sts	0x0504, r28
     896:	38 c0       	rjmp	.+112    	; 0x908 <dist_comp+0x118>
     898:	80 91 04 05 	lds	r24, 0x0504
     89c:	90 91 05 05 	lds	r25, 0x0505
     8a0:	80 17       	cp	r24, r16
     8a2:	91 07       	cpc	r25, r17
     8a4:	49 f1       	breq	.+82     	; 0x8f8 <dist_comp+0x108>
     8a6:	a0 81       	ld	r26, Z
     8a8:	b1 81       	ldd	r27, Z+1	; 0x01
     8aa:	aa 0f       	add	r26, r26
     8ac:	bb 1f       	adc	r27, r27
     8ae:	a4 0f       	add	r26, r20
     8b0:	b5 1f       	adc	r27, r21
     8b2:	0d 93       	st	X+, r16
     8b4:	1c 93       	st	X, r17
     8b6:	80 81       	ld	r24, Z
     8b8:	91 81       	ldd	r25, Z+1	; 0x01
     8ba:	01 96       	adiw	r24, 0x01	; 1
     8bc:	91 83       	std	Z+1, r25	; 0x01
     8be:	80 83       	st	Z, r24
     8c0:	98 01       	movw	r18, r16
     8c2:	d9 01       	movw	r26, r18
     8c4:	aa 0f       	add	r26, r26
     8c6:	bb 1f       	adc	r27, r27
     8c8:	aa 5f       	subi	r26, 0xFA	; 250
     8ca:	ba 4f       	sbci	r27, 0xFA	; 250
     8cc:	2d 91       	ld	r18, X+
     8ce:	3c 91       	ld	r19, X
     8d0:	a0 81       	ld	r26, Z
     8d2:	b1 81       	ldd	r27, Z+1	; 0x01
     8d4:	aa 0f       	add	r26, r26
     8d6:	bb 1f       	adc	r27, r27
     8d8:	a4 0f       	add	r26, r20
     8da:	b5 1f       	adc	r27, r21
     8dc:	2d 93       	st	X+, r18
     8de:	3c 93       	st	X, r19
     8e0:	80 81       	ld	r24, Z
     8e2:	91 81       	ldd	r25, Z+1	; 0x01
     8e4:	01 96       	adiw	r24, 0x01	; 1
     8e6:	91 83       	std	Z+1, r25	; 0x01
     8e8:	80 83       	st	Z, r24
     8ea:	80 91 04 05 	lds	r24, 0x0504
     8ee:	90 91 05 05 	lds	r25, 0x0505
     8f2:	28 17       	cp	r18, r24
     8f4:	39 07       	cpc	r19, r25
     8f6:	29 f7       	brne	.-54     	; 0x8c2 <dist_comp+0xd2>
     8f8:	60 81       	ld	r22, Z
     8fa:	71 81       	ldd	r23, Z+1	; 0x01
     8fc:	ca 01       	movw	r24, r20
     8fe:	d9 dd       	rcall	.-1102   	; 0x4b2 <reverse>
     900:	10 93 05 05 	sts	0x0505, r17
     904:	00 93 04 05 	sts	0x0504, r16
     908:	df 91       	pop	r29
     90a:	cf 91       	pop	r28
     90c:	1f 91       	pop	r17
     90e:	0f 91       	pop	r16
     910:	08 95       	ret

00000912 <which_node>:
     912:	81 30       	cpi	r24, 0x01	; 1
     914:	91 05       	cpc	r25, r1
     916:	29 f4       	brne	.+10     	; 0x922 <which_node+0x10>
     918:	80 91 65 04 	lds	r24, 0x0465
     91c:	90 91 66 04 	lds	r25, 0x0466
     920:	08 95       	ret
     922:	82 30       	cpi	r24, 0x02	; 2
     924:	91 05       	cpc	r25, r1
     926:	29 f4       	brne	.+10     	; 0x932 <which_node+0x20>
     928:	80 91 63 04 	lds	r24, 0x0463
     92c:	90 91 64 04 	lds	r25, 0x0464
     930:	08 95       	ret
     932:	83 30       	cpi	r24, 0x03	; 3
     934:	91 05       	cpc	r25, r1
     936:	29 f4       	brne	.+10     	; 0x942 <which_node+0x30>
     938:	80 91 61 04 	lds	r24, 0x0461
     93c:	90 91 62 04 	lds	r25, 0x0462
     940:	08 95       	ret
     942:	84 30       	cpi	r24, 0x04	; 4
     944:	91 05       	cpc	r25, r1
     946:	29 f4       	brne	.+10     	; 0x952 <which_node+0x40>
     948:	80 91 5f 04 	lds	r24, 0x045F
     94c:	90 91 60 04 	lds	r25, 0x0460
     950:	08 95       	ret
     952:	85 30       	cpi	r24, 0x05	; 5
     954:	91 05       	cpc	r25, r1
     956:	29 f4       	brne	.+10     	; 0x962 <which_node+0x50>
     958:	80 91 5d 04 	lds	r24, 0x045D
     95c:	90 91 5e 04 	lds	r25, 0x045E
     960:	08 95       	ret
     962:	86 30       	cpi	r24, 0x06	; 6
     964:	91 05       	cpc	r25, r1
     966:	29 f4       	brne	.+10     	; 0x972 <which_node+0x60>
     968:	80 91 5b 04 	lds	r24, 0x045B
     96c:	90 91 5c 04 	lds	r25, 0x045C
     970:	08 95       	ret
     972:	87 30       	cpi	r24, 0x07	; 7
     974:	91 05       	cpc	r25, r1
     976:	29 f4       	brne	.+10     	; 0x982 <which_node+0x70>
     978:	80 91 59 04 	lds	r24, 0x0459
     97c:	90 91 5a 04 	lds	r25, 0x045A
     980:	08 95       	ret
     982:	88 30       	cpi	r24, 0x08	; 8
     984:	91 05       	cpc	r25, r1
     986:	29 f4       	brne	.+10     	; 0x992 <which_node+0x80>
     988:	80 91 57 04 	lds	r24, 0x0457
     98c:	90 91 58 04 	lds	r25, 0x0458
     990:	08 95       	ret
     992:	89 30       	cpi	r24, 0x09	; 9
     994:	91 05       	cpc	r25, r1
     996:	29 f4       	brne	.+10     	; 0x9a2 <which_node+0x90>
     998:	80 91 55 04 	lds	r24, 0x0455
     99c:	90 91 56 04 	lds	r25, 0x0456
     9a0:	08 95       	ret
     9a2:	8a 30       	cpi	r24, 0x0A	; 10
     9a4:	91 05       	cpc	r25, r1
     9a6:	29 f4       	brne	.+10     	; 0x9b2 <which_node+0xa0>
     9a8:	80 91 53 04 	lds	r24, 0x0453
     9ac:	90 91 54 04 	lds	r25, 0x0454
     9b0:	08 95       	ret
     9b2:	8b 30       	cpi	r24, 0x0B	; 11
     9b4:	91 05       	cpc	r25, r1
     9b6:	29 f4       	brne	.+10     	; 0x9c2 <which_node+0xb0>
     9b8:	80 91 51 04 	lds	r24, 0x0451
     9bc:	90 91 52 04 	lds	r25, 0x0452
     9c0:	08 95       	ret
     9c2:	0c 97       	sbiw	r24, 0x0c	; 12
     9c4:	29 f4       	brne	.+10     	; 0x9d0 <which_node+0xbe>
     9c6:	80 91 4f 04 	lds	r24, 0x044F
     9ca:	90 91 50 04 	lds	r25, 0x0450
     9ce:	08 95       	ret
     9d0:	8f ef       	ldi	r24, 0xFF	; 255
     9d2:	9f ef       	ldi	r25, 0xFF	; 255
     9d4:	08 95       	ret

000009d6 <which_house>:
     9d6:	81 30       	cpi	r24, 0x01	; 1
     9d8:	91 05       	cpc	r25, r1
     9da:	29 f4       	brne	.+10     	; 0x9e6 <which_house+0x10>
     9dc:	80 91 4d 04 	lds	r24, 0x044D
     9e0:	90 91 4e 04 	lds	r25, 0x044E
     9e4:	08 95       	ret
     9e6:	82 30       	cpi	r24, 0x02	; 2
     9e8:	91 05       	cpc	r25, r1
     9ea:	29 f4       	brne	.+10     	; 0x9f6 <which_house+0x20>
     9ec:	80 91 4b 04 	lds	r24, 0x044B
     9f0:	90 91 4c 04 	lds	r25, 0x044C
     9f4:	08 95       	ret
     9f6:	83 30       	cpi	r24, 0x03	; 3
     9f8:	91 05       	cpc	r25, r1
     9fa:	29 f4       	brne	.+10     	; 0xa06 <which_house+0x30>
     9fc:	80 91 49 04 	lds	r24, 0x0449
     a00:	90 91 4a 04 	lds	r25, 0x044A
     a04:	08 95       	ret
     a06:	04 97       	sbiw	r24, 0x04	; 4
     a08:	29 f4       	brne	.+10     	; 0xa14 <which_house+0x3e>
     a0a:	80 91 47 04 	lds	r24, 0x0447
     a0e:	90 91 48 04 	lds	r25, 0x0448
     a12:	08 95       	ret
     a14:	8f ef       	ldi	r24, 0xFF	; 255
     a16:	9f ef       	ldi	r25, 0xFF	; 255
     a18:	08 95       	ret

00000a1a <timer1_init>:
     a1a:	e1 e8       	ldi	r30, 0x81	; 129
     a1c:	f0 e0       	ldi	r31, 0x00	; 0
     a1e:	10 82       	st	Z, r1
     a20:	8c ef       	ldi	r24, 0xFC	; 252
     a22:	80 93 85 00 	sts	0x0085, r24
     a26:	81 e0       	ldi	r24, 0x01	; 1
     a28:	80 93 84 00 	sts	0x0084, r24
     a2c:	93 e0       	ldi	r25, 0x03	; 3
     a2e:	90 93 89 00 	sts	0x0089, r25
     a32:	8f ef       	ldi	r24, 0xFF	; 255
     a34:	80 93 88 00 	sts	0x0088, r24
     a38:	90 93 8b 00 	sts	0x008B, r25
     a3c:	80 93 8a 00 	sts	0x008A, r24
     a40:	90 93 8d 00 	sts	0x008D, r25
     a44:	80 93 8c 00 	sts	0x008C, r24
     a48:	90 93 87 00 	sts	0x0087, r25
     a4c:	80 93 86 00 	sts	0x0086, r24
     a50:	8b ea       	ldi	r24, 0xAB	; 171
     a52:	80 93 80 00 	sts	0x0080, r24
     a56:	10 92 82 00 	sts	0x0082, r1
     a5a:	8c e0       	ldi	r24, 0x0C	; 12
     a5c:	80 83       	st	Z, r24
     a5e:	08 95       	ret

00000a60 <timer5_init>:
     a60:	e1 e2       	ldi	r30, 0x21	; 33
     a62:	f1 e0       	ldi	r31, 0x01	; 1
     a64:	10 82       	st	Z, r1
     a66:	8f ef       	ldi	r24, 0xFF	; 255
     a68:	80 93 25 01 	sts	0x0125, r24
     a6c:	91 e0       	ldi	r25, 0x01	; 1
     a6e:	90 93 24 01 	sts	0x0124, r25
     a72:	10 92 29 01 	sts	0x0129, r1
     a76:	80 93 28 01 	sts	0x0128, r24
     a7a:	10 92 2b 01 	sts	0x012B, r1
     a7e:	80 93 2a 01 	sts	0x012A, r24
     a82:	10 92 2d 01 	sts	0x012D, r1
     a86:	80 93 2c 01 	sts	0x012C, r24
     a8a:	89 ea       	ldi	r24, 0xA9	; 169
     a8c:	80 93 20 01 	sts	0x0120, r24
     a90:	8b e0       	ldi	r24, 0x0B	; 11
     a92:	80 83       	st	Z, r24
     a94:	08 95       	ret

00000a96 <buzzer_pin_config>:
     a96:	9b 9a       	sbi	0x13, 3	; 19
     a98:	a3 98       	cbi	0x14, 3	; 20
     a9a:	08 95       	ret

00000a9c <motion_pin_config>:
     a9c:	81 b1       	in	r24, 0x01	; 1
     a9e:	8f 60       	ori	r24, 0x0F	; 15
     aa0:	81 b9       	out	0x01, r24	; 1
     aa2:	82 b1       	in	r24, 0x02	; 2
     aa4:	80 7f       	andi	r24, 0xF0	; 240
     aa6:	82 b9       	out	0x02, r24	; 2
     aa8:	ea e0       	ldi	r30, 0x0A	; 10
     aaa:	f1 e0       	ldi	r31, 0x01	; 1
     aac:	80 81       	ld	r24, Z
     aae:	88 61       	ori	r24, 0x18	; 24
     ab0:	80 83       	st	Z, r24
     ab2:	eb e0       	ldi	r30, 0x0B	; 11
     ab4:	f1 e0       	ldi	r31, 0x01	; 1
     ab6:	80 81       	ld	r24, Z
     ab8:	88 61       	ori	r24, 0x18	; 24
     aba:	80 83       	st	Z, r24
     abc:	08 95       	ret

00000abe <servo1_pin_config>:
     abe:	25 9a       	sbi	0x04, 5	; 4
     ac0:	2d 9a       	sbi	0x05, 5	; 5
     ac2:	08 95       	ret

00000ac4 <servo2_pin_config>:
     ac4:	26 9a       	sbi	0x04, 6	; 4
     ac6:	2e 9a       	sbi	0x05, 6	; 5
     ac8:	08 95       	ret

00000aca <servo3_pin_config>:
     aca:	27 9a       	sbi	0x04, 7	; 4
     acc:	2f 9a       	sbi	0x05, 7	; 5
     ace:	08 95       	ret

00000ad0 <demux_pin_config>:
     ad0:	e1 e0       	ldi	r30, 0x01	; 1
     ad2:	f1 e0       	ldi	r31, 0x01	; 1
     ad4:	80 81       	ld	r24, Z
     ad6:	8f ef       	ldi	r24, 0xFF	; 255
     ad8:	80 83       	st	Z, r24
     ada:	e2 e0       	ldi	r30, 0x02	; 2
     adc:	f1 e0       	ldi	r31, 0x01	; 1
     ade:	80 81       	ld	r24, Z
     ae0:	8e 7f       	andi	r24, 0xFE	; 254
     ae2:	80 83       	st	Z, r24
     ae4:	08 95       	ret

00000ae6 <adc_pin_config>:
     ae6:	10 ba       	out	0x10, r1	; 16
     ae8:	11 ba       	out	0x11, r1	; 17
     aea:	10 92 07 01 	sts	0x0107, r1
     aee:	10 92 08 01 	sts	0x0108, r1
     af2:	08 95       	ret

00000af4 <port_init>:
     af4:	d0 df       	rcall	.-96     	; 0xa96 <buzzer_pin_config>
     af6:	d2 df       	rcall	.-92     	; 0xa9c <motion_pin_config>
     af8:	e2 df       	rcall	.-60     	; 0xabe <servo1_pin_config>
     afa:	e4 df       	rcall	.-56     	; 0xac4 <servo2_pin_config>
     afc:	e6 df       	rcall	.-52     	; 0xaca <servo3_pin_config>
     afe:	e8 df       	rcall	.-48     	; 0xad0 <demux_pin_config>
     b00:	13 db       	rcall	.-2522   	; 0x128 <lcd_port_config>
     b02:	f1 cf       	rjmp	.-30     	; 0xae6 <adc_pin_config>
     b04:	08 95       	ret

00000b06 <__vector_6>:
     b06:	1f 92       	push	r1
     b08:	0f 92       	push	r0
     b0a:	0f b6       	in	r0, 0x3f	; 63
     b0c:	0f 92       	push	r0
     b0e:	11 24       	eor	r1, r1
     b10:	8f 93       	push	r24
     b12:	9f 93       	push	r25
     b14:	af 93       	push	r26
     b16:	bf 93       	push	r27
     b18:	80 91 e4 04 	lds	r24, 0x04E4
     b1c:	90 91 e5 04 	lds	r25, 0x04E5
     b20:	a0 91 e6 04 	lds	r26, 0x04E6
     b24:	b0 91 e7 04 	lds	r27, 0x04E7
     b28:	01 96       	adiw	r24, 0x01	; 1
     b2a:	a1 1d       	adc	r26, r1
     b2c:	b1 1d       	adc	r27, r1
     b2e:	80 93 e4 04 	sts	0x04E4, r24
     b32:	90 93 e5 04 	sts	0x04E5, r25
     b36:	a0 93 e6 04 	sts	0x04E6, r26
     b3a:	b0 93 e7 04 	sts	0x04E7, r27
     b3e:	bf 91       	pop	r27
     b40:	af 91       	pop	r26
     b42:	9f 91       	pop	r25
     b44:	8f 91       	pop	r24
     b46:	0f 90       	pop	r0
     b48:	0f be       	out	0x3f, r0	; 63
     b4a:	0f 90       	pop	r0
     b4c:	1f 90       	pop	r1
     b4e:	18 95       	reti

00000b50 <__vector_5>:
     b50:	1f 92       	push	r1
     b52:	0f 92       	push	r0
     b54:	0f b6       	in	r0, 0x3f	; 63
     b56:	0f 92       	push	r0
     b58:	11 24       	eor	r1, r1
     b5a:	8f 93       	push	r24
     b5c:	9f 93       	push	r25
     b5e:	af 93       	push	r26
     b60:	bf 93       	push	r27
     b62:	80 91 e8 04 	lds	r24, 0x04E8
     b66:	90 91 e9 04 	lds	r25, 0x04E9
     b6a:	a0 91 ea 04 	lds	r26, 0x04EA
     b6e:	b0 91 eb 04 	lds	r27, 0x04EB
     b72:	01 96       	adiw	r24, 0x01	; 1
     b74:	a1 1d       	adc	r26, r1
     b76:	b1 1d       	adc	r27, r1
     b78:	80 93 e8 04 	sts	0x04E8, r24
     b7c:	90 93 e9 04 	sts	0x04E9, r25
     b80:	a0 93 ea 04 	sts	0x04EA, r26
     b84:	b0 93 eb 04 	sts	0x04EB, r27
     b88:	bf 91       	pop	r27
     b8a:	af 91       	pop	r26
     b8c:	9f 91       	pop	r25
     b8e:	8f 91       	pop	r24
     b90:	0f 90       	pop	r0
     b92:	0f be       	out	0x3f, r0	; 63
     b94:	0f 90       	pop	r0
     b96:	1f 90       	pop	r1
     b98:	18 95       	reti

00000b9a <motion_set>:
     b9a:	92 b1       	in	r25, 0x02	; 2
     b9c:	90 7f       	andi	r25, 0xF0	; 240
     b9e:	8f 70       	andi	r24, 0x0F	; 15
     ba0:	98 2b       	or	r25, r24
     ba2:	92 b9       	out	0x02, r25	; 2
     ba4:	08 95       	ret

00000ba6 <back>:
     ba6:	86 e0       	ldi	r24, 0x06	; 6
     ba8:	f8 cf       	rjmp	.-16     	; 0xb9a <motion_set>
     baa:	08 95       	ret

00000bac <forward>:
     bac:	89 e0       	ldi	r24, 0x09	; 9
     bae:	f5 cf       	rjmp	.-22     	; 0xb9a <motion_set>
     bb0:	08 95       	ret

00000bb2 <right>:
     bb2:	85 e0       	ldi	r24, 0x05	; 5
     bb4:	f2 cf       	rjmp	.-28     	; 0xb9a <motion_set>
     bb6:	08 95       	ret

00000bb8 <left>:
     bb8:	8a e0       	ldi	r24, 0x0A	; 10
     bba:	ef cf       	rjmp	.-34     	; 0xb9a <motion_set>
     bbc:	08 95       	ret

00000bbe <soft_right>:
     bbe:	84 e0       	ldi	r24, 0x04	; 4
     bc0:	ec cf       	rjmp	.-40     	; 0xb9a <motion_set>
     bc2:	08 95       	ret

00000bc4 <soft_left>:
     bc4:	82 e0       	ldi	r24, 0x02	; 2
     bc6:	e9 cf       	rjmp	.-46     	; 0xb9a <motion_set>
     bc8:	08 95       	ret

00000bca <stop>:
     bca:	80 e0       	ldi	r24, 0x00	; 0
     bcc:	e6 cf       	rjmp	.-52     	; 0xb9a <motion_set>
     bce:	08 95       	ret

00000bd0 <servo_3>:
     bd0:	68 2f       	mov	r22, r24
     bd2:	e2 e0       	ldi	r30, 0x02	; 2
     bd4:	f1 e0       	ldi	r31, 0x01	; 1
     bd6:	80 81       	ld	r24, Z
     bd8:	81 60       	ori	r24, 0x01	; 1
     bda:	80 83       	st	Z, r24
     bdc:	26 e6       	ldi	r18, 0x66	; 102
     bde:	86 ee       	ldi	r24, 0xE6	; 230
     be0:	90 e0       	ldi	r25, 0x00	; 0
     be2:	21 50       	subi	r18, 0x01	; 1
     be4:	80 40       	sbci	r24, 0x00	; 0
     be6:	90 40       	sbci	r25, 0x00	; 0
     be8:	e1 f7       	brne	.-8      	; 0xbe2 <servo_3+0x12>
     bea:	10 92 8d 00 	sts	0x008D, r1
     bee:	70 e0       	ldi	r23, 0x00	; 0
     bf0:	80 e0       	ldi	r24, 0x00	; 0
     bf2:	90 e0       	ldi	r25, 0x00	; 0
     bf4:	0e 94 53 1f 	call	0x3ea6	; 0x3ea6 <__floatunsisf>
     bf8:	2b e7       	ldi	r18, 0x7B	; 123
     bfa:	34 e1       	ldi	r19, 0x14	; 20
     bfc:	4e ee       	ldi	r20, 0xEE	; 238
     bfe:	5f e3       	ldi	r21, 0x3F	; 63
     c00:	0e 94 bf 1e 	call	0x3d7e	; 0x3d7e <__divsf3>
     c04:	20 e0       	ldi	r18, 0x00	; 0
     c06:	30 e0       	ldi	r19, 0x00	; 0
     c08:	4c e0       	ldi	r20, 0x0C	; 12
     c0a:	52 e4       	ldi	r21, 0x42	; 66
     c0c:	0e 94 5b 1e 	call	0x3cb6	; 0x3cb6 <__addsf3>
     c10:	0e 94 27 1f 	call	0x3e4e	; 0x3e4e <__fixunssfsi>
     c14:	60 93 8c 00 	sts	0x008C, r22
     c18:	08 95       	ret

00000c1a <servo_4>:
     c1a:	68 2f       	mov	r22, r24
     c1c:	e2 e0       	ldi	r30, 0x02	; 2
     c1e:	f1 e0       	ldi	r31, 0x01	; 1
     c20:	80 81       	ld	r24, Z
     c22:	8e 7f       	andi	r24, 0xFE	; 254
     c24:	80 83       	st	Z, r24
     c26:	26 e6       	ldi	r18, 0x66	; 102
     c28:	86 ee       	ldi	r24, 0xE6	; 230
     c2a:	90 e0       	ldi	r25, 0x00	; 0
     c2c:	21 50       	subi	r18, 0x01	; 1
     c2e:	80 40       	sbci	r24, 0x00	; 0
     c30:	90 40       	sbci	r25, 0x00	; 0
     c32:	e1 f7       	brne	.-8      	; 0xc2c <servo_4+0x12>
     c34:	10 92 8d 00 	sts	0x008D, r1
     c38:	70 e0       	ldi	r23, 0x00	; 0
     c3a:	80 e0       	ldi	r24, 0x00	; 0
     c3c:	90 e0       	ldi	r25, 0x00	; 0
     c3e:	0e 94 53 1f 	call	0x3ea6	; 0x3ea6 <__floatunsisf>
     c42:	2b e7       	ldi	r18, 0x7B	; 123
     c44:	34 e1       	ldi	r19, 0x14	; 20
     c46:	4e ee       	ldi	r20, 0xEE	; 238
     c48:	5f e3       	ldi	r21, 0x3F	; 63
     c4a:	0e 94 bf 1e 	call	0x3d7e	; 0x3d7e <__divsf3>
     c4e:	20 e0       	ldi	r18, 0x00	; 0
     c50:	30 e0       	ldi	r19, 0x00	; 0
     c52:	4c e0       	ldi	r20, 0x0C	; 12
     c54:	52 e4       	ldi	r21, 0x42	; 66
     c56:	0e 94 5b 1e 	call	0x3cb6	; 0x3cb6 <__addsf3>
     c5a:	0e 94 27 1f 	call	0x3e4e	; 0x3e4e <__fixunssfsi>
     c5e:	60 93 8c 00 	sts	0x008C, r22
     c62:	08 95       	ret

00000c64 <servo_1_free>:
     c64:	83 e0       	ldi	r24, 0x03	; 3
     c66:	80 93 89 00 	sts	0x0089, r24
     c6a:	8f ef       	ldi	r24, 0xFF	; 255
     c6c:	80 93 88 00 	sts	0x0088, r24
     c70:	08 95       	ret

00000c72 <servo_2_free>:
     c72:	83 e0       	ldi	r24, 0x03	; 3
     c74:	80 93 8b 00 	sts	0x008B, r24
     c78:	8f ef       	ldi	r24, 0xFF	; 255
     c7a:	80 93 8a 00 	sts	0x008A, r24
     c7e:	08 95       	ret

00000c80 <servo_3_free>:
     c80:	83 e0       	ldi	r24, 0x03	; 3
     c82:	80 93 8d 00 	sts	0x008D, r24
     c86:	8f ef       	ldi	r24, 0xFF	; 255
     c88:	80 93 8c 00 	sts	0x008C, r24
     c8c:	08 95       	ret

00000c8e <servo_4_free>:
     c8e:	83 e0       	ldi	r24, 0x03	; 3
     c90:	80 93 8d 00 	sts	0x008D, r24
     c94:	8f ef       	ldi	r24, 0xFF	; 255
     c96:	80 93 8c 00 	sts	0x008C, r24
     c9a:	08 95       	ret

00000c9c <ADC_Conversion>:
     c9c:	88 30       	cpi	r24, 0x08	; 8
     c9e:	18 f0       	brcs	.+6      	; 0xca6 <ADC_Conversion+0xa>
     ca0:	98 e0       	ldi	r25, 0x08	; 8
     ca2:	90 93 7b 00 	sts	0x007B, r25
     ca6:	87 70       	andi	r24, 0x07	; 7
     ca8:	80 62       	ori	r24, 0x20	; 32
     caa:	80 93 7c 00 	sts	0x007C, r24
     cae:	ea e7       	ldi	r30, 0x7A	; 122
     cb0:	f0 e0       	ldi	r31, 0x00	; 0
     cb2:	80 81       	ld	r24, Z
     cb4:	80 64       	ori	r24, 0x40	; 64
     cb6:	80 83       	st	Z, r24
     cb8:	80 81       	ld	r24, Z
     cba:	84 ff       	sbrs	r24, 4
     cbc:	fd cf       	rjmp	.-6      	; 0xcb8 <ADC_Conversion+0x1c>
     cbe:	80 91 79 00 	lds	r24, 0x0079
     cc2:	ea e7       	ldi	r30, 0x7A	; 122
     cc4:	f0 e0       	ldi	r31, 0x00	; 0
     cc6:	90 81       	ld	r25, Z
     cc8:	90 61       	ori	r25, 0x10	; 16
     cca:	90 83       	st	Z, r25
     ccc:	10 92 7b 00 	sts	0x007B, r1
     cd0:	08 95       	ret

00000cd2 <LCD_Function>:
     cd2:	cf 93       	push	r28
     cd4:	df 93       	push	r29
     cd6:	ec 01       	movw	r28, r24
     cd8:	98 da       	rcall	.-2768   	; 0x20a <lcd_init>
     cda:	c3 30       	cpi	r28, 0x03	; 3
     cdc:	d1 05       	cpc	r29, r1
     cde:	09 f4       	brne	.+2      	; 0xce2 <LCD_Function+0x10>
     ce0:	35 c0       	rjmp	.+106    	; 0xd4c <LCD_Function+0x7a>
     ce2:	2c f4       	brge	.+10     	; 0xcee <LCD_Function+0x1c>
     ce4:	20 97       	sbiw	r28, 0x00	; 0
     ce6:	51 f0       	breq	.+20     	; 0xcfc <LCD_Function+0x2a>
     ce8:	21 97       	sbiw	r28, 0x01	; 1
     cea:	71 f0       	breq	.+28     	; 0xd08 <LCD_Function+0x36>
     cec:	34 c0       	rjmp	.+104    	; 0xd56 <LCD_Function+0x84>
     cee:	c5 30       	cpi	r28, 0x05	; 5
     cf0:	d1 05       	cpc	r29, r1
     cf2:	81 f0       	breq	.+32     	; 0xd14 <LCD_Function+0x42>
     cf4:	04 f1       	brlt	.+64     	; 0xd36 <LCD_Function+0x64>
     cf6:	26 97       	sbiw	r28, 0x06	; 6
     cf8:	99 f0       	breq	.+38     	; 0xd20 <LCD_Function+0x4e>
     cfa:	2d c0       	rjmp	.+90     	; 0xd56 <LCD_Function+0x84>
     cfc:	82 e8       	ldi	r24, 0x82	; 130
     cfe:	60 da       	rcall	.-2880   	; 0x1c0 <lcd_wr_command>
     d00:	89 e8       	ldi	r24, 0x89	; 137
     d02:	94 e0       	ldi	r25, 0x04	; 4
     d04:	bb da       	rcall	.-2698   	; 0x27c <lcd_string>
     d06:	27 c0       	rjmp	.+78     	; 0xd56 <LCD_Function+0x84>
     d08:	82 e8       	ldi	r24, 0x82	; 130
     d0a:	5a da       	rcall	.-2892   	; 0x1c0 <lcd_wr_command>
     d0c:	87 e9       	ldi	r24, 0x97	; 151
     d0e:	94 e0       	ldi	r25, 0x04	; 4
     d10:	b5 da       	rcall	.-2710   	; 0x27c <lcd_string>
     d12:	21 c0       	rjmp	.+66     	; 0xd56 <LCD_Function+0x84>
     d14:	82 e8       	ldi	r24, 0x82	; 130
     d16:	54 da       	rcall	.-2904   	; 0x1c0 <lcd_wr_command>
     d18:	85 ea       	ldi	r24, 0xA5	; 165
     d1a:	94 e0       	ldi	r25, 0x04	; 4
     d1c:	af da       	rcall	.-2722   	; 0x27c <lcd_string>
     d1e:	1b c0       	rjmp	.+54     	; 0xd56 <LCD_Function+0x84>
     d20:	85 e8       	ldi	r24, 0x85	; 133
     d22:	4e da       	rcall	.-2916   	; 0x1c0 <lcd_wr_command>
     d24:	8d ea       	ldi	r24, 0xAD	; 173
     d26:	94 e0       	ldi	r25, 0x04	; 4
     d28:	a9 da       	rcall	.-2734   	; 0x27c <lcd_string>
     d2a:	80 ec       	ldi	r24, 0xC0	; 192
     d2c:	49 da       	rcall	.-2926   	; 0x1c0 <lcd_wr_command>
     d2e:	83 eb       	ldi	r24, 0xB3	; 179
     d30:	94 e0       	ldi	r25, 0x04	; 4
     d32:	a4 da       	rcall	.-2744   	; 0x27c <lcd_string>
     d34:	10 c0       	rjmp	.+32     	; 0xd56 <LCD_Function+0x84>
     d36:	85 e8       	ldi	r24, 0x85	; 133
     d38:	43 da       	rcall	.-2938   	; 0x1c0 <lcd_wr_command>
     d3a:	82 ec       	ldi	r24, 0xC2	; 194
     d3c:	94 e0       	ldi	r25, 0x04	; 4
     d3e:	9e da       	rcall	.-2756   	; 0x27c <lcd_string>
     d40:	82 ec       	ldi	r24, 0xC2	; 194
     d42:	3e da       	rcall	.-2948   	; 0x1c0 <lcd_wr_command>
     d44:	89 ec       	ldi	r24, 0xC9	; 201
     d46:	94 e0       	ldi	r25, 0x04	; 4
     d48:	99 da       	rcall	.-2766   	; 0x27c <lcd_string>
     d4a:	05 c0       	rjmp	.+10     	; 0xd56 <LCD_Function+0x84>
     d4c:	82 e8       	ldi	r24, 0x82	; 130
     d4e:	38 da       	rcall	.-2960   	; 0x1c0 <lcd_wr_command>
     d50:	87 ed       	ldi	r24, 0xD7	; 215
     d52:	94 e0       	ldi	r25, 0x04	; 4
     d54:	93 da       	rcall	.-2778   	; 0x27c <lcd_string>
     d56:	df 91       	pop	r29
     d58:	cf 91       	pop	r28
     d5a:	08 95       	ret

00000d5c <inv_place>:
     d5c:	2f ef       	ldi	r18, 0xFF	; 255
     d5e:	8f e7       	ldi	r24, 0x7F	; 127
     d60:	96 e1       	ldi	r25, 0x16	; 22
     d62:	21 50       	subi	r18, 0x01	; 1
     d64:	80 40       	sbci	r24, 0x00	; 0
     d66:	90 40       	sbci	r25, 0x00	; 0
     d68:	e1 f7       	brne	.-8      	; 0xd62 <inv_place+0x6>
     d6a:	00 c0       	rjmp	.+0      	; 0xd6c <inv_place+0x10>
     d6c:	00 00       	nop
     d6e:	10 92 89 00 	sts	0x0089, r1
     d72:	85 e2       	ldi	r24, 0x25	; 37
     d74:	80 93 88 00 	sts	0x0088, r24
     d78:	2f ef       	ldi	r18, 0xFF	; 255
     d7a:	8f ef       	ldi	r24, 0xFF	; 255
     d7c:	9c e2       	ldi	r25, 0x2C	; 44
     d7e:	21 50       	subi	r18, 0x01	; 1
     d80:	80 40       	sbci	r24, 0x00	; 0
     d82:	90 40       	sbci	r25, 0x00	; 0
     d84:	e1 f7       	brne	.-8      	; 0xd7e <inv_place+0x22>
     d86:	00 c0       	rjmp	.+0      	; 0xd88 <inv_place+0x2c>
     d88:	00 00       	nop
     d8a:	6c df       	rcall	.-296    	; 0xc64 <servo_1_free>
     d8c:	8e e1       	ldi	r24, 0x1E	; 30
     d8e:	20 df       	rcall	.-448    	; 0xbd0 <servo_3>
     d90:	2f ef       	ldi	r18, 0xFF	; 255
     d92:	8f eb       	ldi	r24, 0xBF	; 191
     d94:	91 e2       	ldi	r25, 0x21	; 33
     d96:	21 50       	subi	r18, 0x01	; 1
     d98:	80 40       	sbci	r24, 0x00	; 0
     d9a:	90 40       	sbci	r25, 0x00	; 0
     d9c:	e1 f7       	brne	.-8      	; 0xd96 <inv_place+0x3a>
     d9e:	00 c0       	rjmp	.+0      	; 0xda0 <inv_place+0x44>
     da0:	00 00       	nop
     da2:	86 e9       	ldi	r24, 0x96	; 150
     da4:	3a df       	rcall	.-396    	; 0xc1a <servo_4>
     da6:	2f ef       	ldi	r18, 0xFF	; 255
     da8:	8f eb       	ldi	r24, 0xBF	; 191
     daa:	91 e2       	ldi	r25, 0x21	; 33
     dac:	21 50       	subi	r18, 0x01	; 1
     dae:	80 40       	sbci	r24, 0x00	; 0
     db0:	90 40       	sbci	r25, 0x00	; 0
     db2:	e1 f7       	brne	.-8      	; 0xdac <inv_place+0x50>
     db4:	00 c0       	rjmp	.+0      	; 0xdb6 <inv_place+0x5a>
     db6:	00 00       	nop
     db8:	10 92 8b 00 	sts	0x008B, r1
     dbc:	8b e3       	ldi	r24, 0x3B	; 59
     dbe:	80 93 8a 00 	sts	0x008A, r24
     dc2:	2f ef       	ldi	r18, 0xFF	; 255
     dc4:	8f ef       	ldi	r24, 0xFF	; 255
     dc6:	9c e2       	ldi	r25, 0x2C	; 44
     dc8:	21 50       	subi	r18, 0x01	; 1
     dca:	80 40       	sbci	r24, 0x00	; 0
     dcc:	90 40       	sbci	r25, 0x00	; 0
     dce:	e1 f7       	brne	.-8      	; 0xdc8 <inv_place+0x6c>
     dd0:	00 c0       	rjmp	.+0      	; 0xdd2 <inv_place+0x76>
     dd2:	00 00       	nop
     dd4:	89 e6       	ldi	r24, 0x69	; 105
     dd6:	fc de       	rcall	.-520    	; 0xbd0 <servo_3>
     dd8:	2f ef       	ldi	r18, 0xFF	; 255
     dda:	8f eb       	ldi	r24, 0xBF	; 191
     ddc:	91 e2       	ldi	r25, 0x21	; 33
     dde:	21 50       	subi	r18, 0x01	; 1
     de0:	80 40       	sbci	r24, 0x00	; 0
     de2:	90 40       	sbci	r25, 0x00	; 0
     de4:	e1 f7       	brne	.-8      	; 0xdde <inv_place+0x82>
     de6:	00 c0       	rjmp	.+0      	; 0xde8 <inv_place+0x8c>
     de8:	00 00       	nop
     dea:	4a df       	rcall	.-364    	; 0xc80 <servo_3_free>
     dec:	88 e2       	ldi	r24, 0x28	; 40
     dee:	15 df       	rcall	.-470    	; 0xc1a <servo_4>
     df0:	2f ef       	ldi	r18, 0xFF	; 255
     df2:	8f eb       	ldi	r24, 0xBF	; 191
     df4:	91 e2       	ldi	r25, 0x21	; 33
     df6:	21 50       	subi	r18, 0x01	; 1
     df8:	80 40       	sbci	r24, 0x00	; 0
     dfa:	90 40       	sbci	r25, 0x00	; 0
     dfc:	e1 f7       	brne	.-8      	; 0xdf6 <inv_place+0x9a>
     dfe:	00 c0       	rjmp	.+0      	; 0xe00 <inv_place+0xa4>
     e00:	00 00       	nop
     e02:	3e df       	rcall	.-388    	; 0xc80 <servo_3_free>
     e04:	10 92 8b 00 	sts	0x008B, r1
     e08:	83 e2       	ldi	r24, 0x23	; 35
     e0a:	80 93 8a 00 	sts	0x008A, r24
     e0e:	2f ef       	ldi	r18, 0xFF	; 255
     e10:	8f ef       	ldi	r24, 0xFF	; 255
     e12:	9c e2       	ldi	r25, 0x2C	; 44
     e14:	21 50       	subi	r18, 0x01	; 1
     e16:	80 40       	sbci	r24, 0x00	; 0
     e18:	90 40       	sbci	r25, 0x00	; 0
     e1a:	e1 f7       	brne	.-8      	; 0xe14 <inv_place+0xb8>
     e1c:	00 c0       	rjmp	.+0      	; 0xe1e <inv_place+0xc2>
     e1e:	00 00       	nop
     e20:	28 df       	rcall	.-432    	; 0xc72 <servo_2_free>
     e22:	10 92 89 00 	sts	0x0089, r1
     e26:	86 e5       	ldi	r24, 0x56	; 86
     e28:	80 93 88 00 	sts	0x0088, r24
     e2c:	2f ef       	ldi	r18, 0xFF	; 255
     e2e:	8f ef       	ldi	r24, 0xFF	; 255
     e30:	9c e2       	ldi	r25, 0x2C	; 44
     e32:	21 50       	subi	r18, 0x01	; 1
     e34:	80 40       	sbci	r24, 0x00	; 0
     e36:	90 40       	sbci	r25, 0x00	; 0
     e38:	e1 f7       	brne	.-8      	; 0xe32 <inv_place+0xd6>
     e3a:	00 c0       	rjmp	.+0      	; 0xe3c <inv_place+0xe0>
     e3c:	00 00       	nop
     e3e:	12 cf       	rjmp	.-476    	; 0xc64 <servo_1_free>
     e40:	08 95       	ret

00000e42 <m_place_lr>:
     e42:	10 92 89 00 	sts	0x0089, r1
     e46:	86 e5       	ldi	r24, 0x56	; 86
     e48:	80 93 88 00 	sts	0x0088, r24
     e4c:	2f ef       	ldi	r18, 0xFF	; 255
     e4e:	8f eb       	ldi	r24, 0xBF	; 191
     e50:	91 e2       	ldi	r25, 0x21	; 33
     e52:	21 50       	subi	r18, 0x01	; 1
     e54:	80 40       	sbci	r24, 0x00	; 0
     e56:	90 40       	sbci	r25, 0x00	; 0
     e58:	e1 f7       	brne	.-8      	; 0xe52 <m_place_lr+0x10>
     e5a:	00 c0       	rjmp	.+0      	; 0xe5c <m_place_lr+0x1a>
     e5c:	00 00       	nop
     e5e:	02 df       	rcall	.-508    	; 0xc64 <servo_1_free>
     e60:	8e e1       	ldi	r24, 0x1E	; 30
     e62:	b6 de       	rcall	.-660    	; 0xbd0 <servo_3>
     e64:	2f ef       	ldi	r18, 0xFF	; 255
     e66:	8f eb       	ldi	r24, 0xBF	; 191
     e68:	91 e2       	ldi	r25, 0x21	; 33
     e6a:	21 50       	subi	r18, 0x01	; 1
     e6c:	80 40       	sbci	r24, 0x00	; 0
     e6e:	90 40       	sbci	r25, 0x00	; 0
     e70:	e1 f7       	brne	.-8      	; 0xe6a <m_place_lr+0x28>
     e72:	00 c0       	rjmp	.+0      	; 0xe74 <m_place_lr+0x32>
     e74:	00 00       	nop
     e76:	10 92 8b 00 	sts	0x008B, r1
     e7a:	85 e4       	ldi	r24, 0x45	; 69
     e7c:	80 93 8a 00 	sts	0x008A, r24
     e80:	2f ef       	ldi	r18, 0xFF	; 255
     e82:	8f eb       	ldi	r24, 0xBF	; 191
     e84:	91 e2       	ldi	r25, 0x21	; 33
     e86:	21 50       	subi	r18, 0x01	; 1
     e88:	80 40       	sbci	r24, 0x00	; 0
     e8a:	90 40       	sbci	r25, 0x00	; 0
     e8c:	e1 f7       	brne	.-8      	; 0xe86 <m_place_lr+0x44>
     e8e:	00 c0       	rjmp	.+0      	; 0xe90 <m_place_lr+0x4e>
     e90:	00 00       	nop
     e92:	89 e6       	ldi	r24, 0x69	; 105
     e94:	9d de       	rcall	.-710    	; 0xbd0 <servo_3>
     e96:	2f ef       	ldi	r18, 0xFF	; 255
     e98:	8f eb       	ldi	r24, 0xBF	; 191
     e9a:	91 e2       	ldi	r25, 0x21	; 33
     e9c:	21 50       	subi	r18, 0x01	; 1
     e9e:	80 40       	sbci	r24, 0x00	; 0
     ea0:	90 40       	sbci	r25, 0x00	; 0
     ea2:	e1 f7       	brne	.-8      	; 0xe9c <m_place_lr+0x5a>
     ea4:	00 c0       	rjmp	.+0      	; 0xea6 <m_place_lr+0x64>
     ea6:	00 00       	nop
     ea8:	10 92 8b 00 	sts	0x008B, r1
     eac:	83 e2       	ldi	r24, 0x23	; 35
     eae:	80 93 8a 00 	sts	0x008A, r24
     eb2:	2f ef       	ldi	r18, 0xFF	; 255
     eb4:	8f ef       	ldi	r24, 0xFF	; 255
     eb6:	9c e2       	ldi	r25, 0x2C	; 44
     eb8:	21 50       	subi	r18, 0x01	; 1
     eba:	80 40       	sbci	r24, 0x00	; 0
     ebc:	90 40       	sbci	r25, 0x00	; 0
     ebe:	e1 f7       	brne	.-8      	; 0xeb8 <m_place_lr+0x76>
     ec0:	00 c0       	rjmp	.+0      	; 0xec2 <m_place_lr+0x80>
     ec2:	00 00       	nop
     ec4:	08 95       	ret

00000ec6 <s_place_lr>:
     ec6:	10 92 89 00 	sts	0x0089, r1
     eca:	89 e4       	ldi	r24, 0x49	; 73
     ecc:	80 93 88 00 	sts	0x0088, r24
     ed0:	2f ef       	ldi	r18, 0xFF	; 255
     ed2:	8f eb       	ldi	r24, 0xBF	; 191
     ed4:	91 e2       	ldi	r25, 0x21	; 33
     ed6:	21 50       	subi	r18, 0x01	; 1
     ed8:	80 40       	sbci	r24, 0x00	; 0
     eda:	90 40       	sbci	r25, 0x00	; 0
     edc:	e1 f7       	brne	.-8      	; 0xed6 <s_place_lr+0x10>
     ede:	00 c0       	rjmp	.+0      	; 0xee0 <s_place_lr+0x1a>
     ee0:	00 00       	nop
     ee2:	86 e9       	ldi	r24, 0x96	; 150
     ee4:	9a de       	rcall	.-716    	; 0xc1a <servo_4>
     ee6:	2f ef       	ldi	r18, 0xFF	; 255
     ee8:	8f eb       	ldi	r24, 0xBF	; 191
     eea:	91 e2       	ldi	r25, 0x21	; 33
     eec:	21 50       	subi	r18, 0x01	; 1
     eee:	80 40       	sbci	r24, 0x00	; 0
     ef0:	90 40       	sbci	r25, 0x00	; 0
     ef2:	e1 f7       	brne	.-8      	; 0xeec <s_place_lr+0x26>
     ef4:	00 c0       	rjmp	.+0      	; 0xef6 <s_place_lr+0x30>
     ef6:	00 00       	nop
     ef8:	10 92 8b 00 	sts	0x008B, r1
     efc:	85 e4       	ldi	r24, 0x45	; 69
     efe:	80 93 8a 00 	sts	0x008A, r24
     f02:	2f ef       	ldi	r18, 0xFF	; 255
     f04:	8f ef       	ldi	r24, 0xFF	; 255
     f06:	9c e2       	ldi	r25, 0x2C	; 44
     f08:	21 50       	subi	r18, 0x01	; 1
     f0a:	80 40       	sbci	r24, 0x00	; 0
     f0c:	90 40       	sbci	r25, 0x00	; 0
     f0e:	e1 f7       	brne	.-8      	; 0xf08 <s_place_lr+0x42>
     f10:	00 c0       	rjmp	.+0      	; 0xf12 <s_place_lr+0x4c>
     f12:	00 00       	nop
     f14:	88 e2       	ldi	r24, 0x28	; 40
     f16:	81 de       	rcall	.-766    	; 0xc1a <servo_4>
     f18:	2f ef       	ldi	r18, 0xFF	; 255
     f1a:	8f eb       	ldi	r24, 0xBF	; 191
     f1c:	91 e2       	ldi	r25, 0x21	; 33
     f1e:	21 50       	subi	r18, 0x01	; 1
     f20:	80 40       	sbci	r24, 0x00	; 0
     f22:	90 40       	sbci	r25, 0x00	; 0
     f24:	e1 f7       	brne	.-8      	; 0xf1e <s_place_lr+0x58>
     f26:	00 c0       	rjmp	.+0      	; 0xf28 <s_place_lr+0x62>
     f28:	00 00       	nop
     f2a:	10 92 8b 00 	sts	0x008B, r1
     f2e:	83 e2       	ldi	r24, 0x23	; 35
     f30:	80 93 8a 00 	sts	0x008A, r24
     f34:	2f ef       	ldi	r18, 0xFF	; 255
     f36:	8f ef       	ldi	r24, 0xFF	; 255
     f38:	9c e2       	ldi	r25, 0x2C	; 44
     f3a:	21 50       	subi	r18, 0x01	; 1
     f3c:	80 40       	sbci	r24, 0x00	; 0
     f3e:	90 40       	sbci	r25, 0x00	; 0
     f40:	e1 f7       	brne	.-8      	; 0xf3a <s_place_lr+0x74>
     f42:	00 c0       	rjmp	.+0      	; 0xf44 <s_place_lr+0x7e>
     f44:	00 00       	nop
     f46:	10 92 89 00 	sts	0x0089, r1
     f4a:	86 e5       	ldi	r24, 0x56	; 86
     f4c:	80 93 88 00 	sts	0x0088, r24
     f50:	08 95       	ret

00000f52 <s_place_hr>:
     f52:	10 92 89 00 	sts	0x0089, r1
     f56:	89 e4       	ldi	r24, 0x49	; 73
     f58:	80 93 88 00 	sts	0x0088, r24
     f5c:	2f ef       	ldi	r18, 0xFF	; 255
     f5e:	8f eb       	ldi	r24, 0xBF	; 191
     f60:	91 e2       	ldi	r25, 0x21	; 33
     f62:	21 50       	subi	r18, 0x01	; 1
     f64:	80 40       	sbci	r24, 0x00	; 0
     f66:	90 40       	sbci	r25, 0x00	; 0
     f68:	e1 f7       	brne	.-8      	; 0xf62 <s_place_hr+0x10>
     f6a:	00 c0       	rjmp	.+0      	; 0xf6c <s_place_hr+0x1a>
     f6c:	00 00       	nop
     f6e:	86 e9       	ldi	r24, 0x96	; 150
     f70:	54 de       	rcall	.-856    	; 0xc1a <servo_4>
     f72:	2f ef       	ldi	r18, 0xFF	; 255
     f74:	8f eb       	ldi	r24, 0xBF	; 191
     f76:	91 e2       	ldi	r25, 0x21	; 33
     f78:	21 50       	subi	r18, 0x01	; 1
     f7a:	80 40       	sbci	r24, 0x00	; 0
     f7c:	90 40       	sbci	r25, 0x00	; 0
     f7e:	e1 f7       	brne	.-8      	; 0xf78 <s_place_hr+0x26>
     f80:	00 c0       	rjmp	.+0      	; 0xf82 <s_place_hr+0x30>
     f82:	00 00       	nop
     f84:	10 92 8b 00 	sts	0x008B, r1
     f88:	85 e3       	ldi	r24, 0x35	; 53
     f8a:	80 93 8a 00 	sts	0x008A, r24
     f8e:	2f ef       	ldi	r18, 0xFF	; 255
     f90:	8f ef       	ldi	r24, 0xFF	; 255
     f92:	9c e2       	ldi	r25, 0x2C	; 44
     f94:	21 50       	subi	r18, 0x01	; 1
     f96:	80 40       	sbci	r24, 0x00	; 0
     f98:	90 40       	sbci	r25, 0x00	; 0
     f9a:	e1 f7       	brne	.-8      	; 0xf94 <s_place_hr+0x42>
     f9c:	00 c0       	rjmp	.+0      	; 0xf9e <s_place_hr+0x4c>
     f9e:	00 00       	nop
     fa0:	88 e2       	ldi	r24, 0x28	; 40
     fa2:	3b de       	rcall	.-906    	; 0xc1a <servo_4>
     fa4:	2f ef       	ldi	r18, 0xFF	; 255
     fa6:	8f eb       	ldi	r24, 0xBF	; 191
     fa8:	91 e2       	ldi	r25, 0x21	; 33
     faa:	21 50       	subi	r18, 0x01	; 1
     fac:	80 40       	sbci	r24, 0x00	; 0
     fae:	90 40       	sbci	r25, 0x00	; 0
     fb0:	e1 f7       	brne	.-8      	; 0xfaa <s_place_hr+0x58>
     fb2:	00 c0       	rjmp	.+0      	; 0xfb4 <s_place_hr+0x62>
     fb4:	00 00       	nop
     fb6:	10 92 8b 00 	sts	0x008B, r1
     fba:	83 e2       	ldi	r24, 0x23	; 35
     fbc:	80 93 8a 00 	sts	0x008A, r24
     fc0:	2f ef       	ldi	r18, 0xFF	; 255
     fc2:	8f ef       	ldi	r24, 0xFF	; 255
     fc4:	9c e2       	ldi	r25, 0x2C	; 44
     fc6:	21 50       	subi	r18, 0x01	; 1
     fc8:	80 40       	sbci	r24, 0x00	; 0
     fca:	90 40       	sbci	r25, 0x00	; 0
     fcc:	e1 f7       	brne	.-8      	; 0xfc6 <s_place_hr+0x74>
     fce:	00 c0       	rjmp	.+0      	; 0xfd0 <s_place_hr+0x7e>
     fd0:	00 00       	nop
     fd2:	10 92 89 00 	sts	0x0089, r1
     fd6:	86 e5       	ldi	r24, 0x56	; 86
     fd8:	80 93 88 00 	sts	0x0088, r24
     fdc:	08 95       	ret

00000fde <static_reorientation>:
     fde:	f5 dd       	rcall	.-1046   	; 0xbca <stop>
     fe0:	84 e0       	ldi	r24, 0x04	; 4
     fe2:	90 e0       	ldi	r25, 0x00	; 0
     fe4:	76 de       	rcall	.-788    	; 0xcd2 <LCD_Function>
     fe6:	82 e0       	ldi	r24, 0x02	; 2
     fe8:	59 de       	rcall	.-846    	; 0xc9c <ADC_Conversion>
     fea:	80 93 29 05 	sts	0x0529, r24
     fee:	8e 36       	cpi	r24, 0x6E	; 110
     ff0:	30 f5       	brcc	.+76     	; 0x103e <static_reorientation+0x60>
     ff2:	86 e9       	ldi	r24, 0x96	; 150
     ff4:	80 93 28 01 	sts	0x0128, r24
     ff8:	80 93 2a 01 	sts	0x012A, r24
     ffc:	da dd       	rcall	.-1100   	; 0xbb2 <right>
     ffe:	2f ef       	ldi	r18, 0xFF	; 255
    1000:	8f e7       	ldi	r24, 0x7F	; 127
    1002:	9d e0       	ldi	r25, 0x0D	; 13
    1004:	21 50       	subi	r18, 0x01	; 1
    1006:	80 40       	sbci	r24, 0x00	; 0
    1008:	90 40       	sbci	r25, 0x00	; 0
    100a:	e1 f7       	brne	.-8      	; 0x1004 <static_reorientation+0x26>
    100c:	00 c0       	rjmp	.+0      	; 0x100e <static_reorientation+0x30>
    100e:	00 00       	nop
    1010:	dc dd       	rcall	.-1096   	; 0xbca <stop>
    1012:	8e e6       	ldi	r24, 0x6E	; 110
    1014:	80 93 28 01 	sts	0x0128, r24
    1018:	80 93 2a 01 	sts	0x012A, r24
    101c:	cd dd       	rcall	.-1126   	; 0xbb8 <left>
    101e:	82 e0       	ldi	r24, 0x02	; 2
    1020:	3d de       	rcall	.-902    	; 0xc9c <ADC_Conversion>
    1022:	80 93 29 05 	sts	0x0529, r24
    1026:	80 35       	cpi	r24, 0x50	; 80
    1028:	d0 f3       	brcs	.-12     	; 0x101e <static_reorientation+0x40>
    102a:	12 b8       	out	0x02, r1	; 2
    102c:	ce dd       	rcall	.-1124   	; 0xbca <stop>
    102e:	80 91 42 04 	lds	r24, 0x0442
    1032:	80 93 28 01 	sts	0x0128, r24
    1036:	80 91 42 04 	lds	r24, 0x0442
    103a:	80 93 2a 01 	sts	0x012A, r24
    103e:	08 95       	ret

00001040 <m_pick>:
    1040:	ce df       	rcall	.-100    	; 0xfde <static_reorientation>
    1042:	10 92 89 00 	sts	0x0089, r1
    1046:	83 e5       	ldi	r24, 0x53	; 83
    1048:	80 93 88 00 	sts	0x0088, r24
    104c:	2f ef       	ldi	r18, 0xFF	; 255
    104e:	8f eb       	ldi	r24, 0xBF	; 191
    1050:	91 e2       	ldi	r25, 0x21	; 33
    1052:	21 50       	subi	r18, 0x01	; 1
    1054:	80 40       	sbci	r24, 0x00	; 0
    1056:	90 40       	sbci	r25, 0x00	; 0
    1058:	e1 f7       	brne	.-8      	; 0x1052 <m_pick+0x12>
    105a:	00 c0       	rjmp	.+0      	; 0x105c <m_pick+0x1c>
    105c:	00 00       	nop
    105e:	02 de       	rcall	.-1020   	; 0xc64 <servo_1_free>
    1060:	88 e7       	ldi	r24, 0x78	; 120
    1062:	b6 dd       	rcall	.-1172   	; 0xbd0 <servo_3>
    1064:	2f ef       	ldi	r18, 0xFF	; 255
    1066:	8f eb       	ldi	r24, 0xBF	; 191
    1068:	91 e2       	ldi	r25, 0x21	; 33
    106a:	21 50       	subi	r18, 0x01	; 1
    106c:	80 40       	sbci	r24, 0x00	; 0
    106e:	90 40       	sbci	r25, 0x00	; 0
    1070:	e1 f7       	brne	.-8      	; 0x106a <m_pick+0x2a>
    1072:	00 c0       	rjmp	.+0      	; 0x1074 <m_pick+0x34>
    1074:	00 00       	nop
    1076:	04 de       	rcall	.-1016   	; 0xc80 <servo_3_free>
    1078:	10 92 8b 00 	sts	0x008B, r1
    107c:	89 e5       	ldi	r24, 0x59	; 89
    107e:	80 93 8a 00 	sts	0x008A, r24
    1082:	2f ef       	ldi	r18, 0xFF	; 255
    1084:	8f ef       	ldi	r24, 0xFF	; 255
    1086:	9c e2       	ldi	r25, 0x2C	; 44
    1088:	21 50       	subi	r18, 0x01	; 1
    108a:	80 40       	sbci	r24, 0x00	; 0
    108c:	90 40       	sbci	r25, 0x00	; 0
    108e:	e1 f7       	brne	.-8      	; 0x1088 <m_pick+0x48>
    1090:	00 c0       	rjmp	.+0      	; 0x1092 <m_pick+0x52>
    1092:	00 00       	nop
    1094:	84 e1       	ldi	r24, 0x14	; 20
    1096:	9c dd       	rcall	.-1224   	; 0xbd0 <servo_3>
    1098:	2f ef       	ldi	r18, 0xFF	; 255
    109a:	8f eb       	ldi	r24, 0xBF	; 191
    109c:	91 e2       	ldi	r25, 0x21	; 33
    109e:	21 50       	subi	r18, 0x01	; 1
    10a0:	80 40       	sbci	r24, 0x00	; 0
    10a2:	90 40       	sbci	r25, 0x00	; 0
    10a4:	e1 f7       	brne	.-8      	; 0x109e <m_pick+0x5e>
    10a6:	00 c0       	rjmp	.+0      	; 0x10a8 <m_pick+0x68>
    10a8:	00 00       	nop
    10aa:	10 92 8b 00 	sts	0x008B, r1
    10ae:	83 e2       	ldi	r24, 0x23	; 35
    10b0:	80 93 8a 00 	sts	0x008A, r24
    10b4:	2f ef       	ldi	r18, 0xFF	; 255
    10b6:	8f ef       	ldi	r24, 0xFF	; 255
    10b8:	9c e2       	ldi	r25, 0x2C	; 44
    10ba:	21 50       	subi	r18, 0x01	; 1
    10bc:	80 40       	sbci	r24, 0x00	; 0
    10be:	90 40       	sbci	r25, 0x00	; 0
    10c0:	e1 f7       	brne	.-8      	; 0x10ba <m_pick+0x7a>
    10c2:	00 c0       	rjmp	.+0      	; 0x10c4 <m_pick+0x84>
    10c4:	00 00       	nop
    10c6:	08 95       	ret

000010c8 <s_pick>:
    10c8:	8a df       	rcall	.-236    	; 0xfde <static_reorientation>
    10ca:	10 92 89 00 	sts	0x0089, r1
    10ce:	87 e4       	ldi	r24, 0x47	; 71
    10d0:	80 93 88 00 	sts	0x0088, r24
    10d4:	2f ef       	ldi	r18, 0xFF	; 255
    10d6:	8f eb       	ldi	r24, 0xBF	; 191
    10d8:	91 e2       	ldi	r25, 0x21	; 33
    10da:	21 50       	subi	r18, 0x01	; 1
    10dc:	80 40       	sbci	r24, 0x00	; 0
    10de:	90 40       	sbci	r25, 0x00	; 0
    10e0:	e1 f7       	brne	.-8      	; 0x10da <s_pick+0x12>
    10e2:	00 c0       	rjmp	.+0      	; 0x10e4 <s_pick+0x1c>
    10e4:	00 00       	nop
    10e6:	be dd       	rcall	.-1156   	; 0xc64 <servo_1_free>
    10e8:	88 e2       	ldi	r24, 0x28	; 40
    10ea:	97 dd       	rcall	.-1234   	; 0xc1a <servo_4>
    10ec:	2f ef       	ldi	r18, 0xFF	; 255
    10ee:	8f ef       	ldi	r24, 0xFF	; 255
    10f0:	9c e2       	ldi	r25, 0x2C	; 44
    10f2:	21 50       	subi	r18, 0x01	; 1
    10f4:	80 40       	sbci	r24, 0x00	; 0
    10f6:	90 40       	sbci	r25, 0x00	; 0
    10f8:	e1 f7       	brne	.-8      	; 0x10f2 <s_pick+0x2a>
    10fa:	00 c0       	rjmp	.+0      	; 0x10fc <s_pick+0x34>
    10fc:	00 00       	nop
    10fe:	c7 dd       	rcall	.-1138   	; 0xc8e <servo_4_free>
    1100:	10 92 8b 00 	sts	0x008B, r1
    1104:	88 e5       	ldi	r24, 0x58	; 88
    1106:	80 93 8a 00 	sts	0x008A, r24
    110a:	2f ef       	ldi	r18, 0xFF	; 255
    110c:	8f e7       	ldi	r24, 0x7F	; 127
    110e:	93 e4       	ldi	r25, 0x43	; 67
    1110:	21 50       	subi	r18, 0x01	; 1
    1112:	80 40       	sbci	r24, 0x00	; 0
    1114:	90 40       	sbci	r25, 0x00	; 0
    1116:	e1 f7       	brne	.-8      	; 0x1110 <s_pick+0x48>
    1118:	00 c0       	rjmp	.+0      	; 0x111a <s_pick+0x52>
    111a:	00 00       	nop
    111c:	80 ea       	ldi	r24, 0xA0	; 160
    111e:	7d dd       	rcall	.-1286   	; 0xc1a <servo_4>
    1120:	2f ef       	ldi	r18, 0xFF	; 255
    1122:	8f eb       	ldi	r24, 0xBF	; 191
    1124:	91 e2       	ldi	r25, 0x21	; 33
    1126:	21 50       	subi	r18, 0x01	; 1
    1128:	80 40       	sbci	r24, 0x00	; 0
    112a:	90 40       	sbci	r25, 0x00	; 0
    112c:	e1 f7       	brne	.-8      	; 0x1126 <s_pick+0x5e>
    112e:	00 c0       	rjmp	.+0      	; 0x1130 <s_pick+0x68>
    1130:	00 00       	nop
    1132:	10 92 8b 00 	sts	0x008B, r1
    1136:	83 e2       	ldi	r24, 0x23	; 35
    1138:	80 93 8a 00 	sts	0x008A, r24
    113c:	2f ef       	ldi	r18, 0xFF	; 255
    113e:	8f ef       	ldi	r24, 0xFF	; 255
    1140:	9c e2       	ldi	r25, 0x2C	; 44
    1142:	21 50       	subi	r18, 0x01	; 1
    1144:	80 40       	sbci	r24, 0x00	; 0
    1146:	90 40       	sbci	r25, 0x00	; 0
    1148:	e1 f7       	brne	.-8      	; 0x1142 <s_pick+0x7a>
    114a:	00 c0       	rjmp	.+0      	; 0x114c <s_pick+0x84>
    114c:	00 00       	nop
    114e:	91 dd       	rcall	.-1246   	; 0xc72 <servo_2_free>
    1150:	10 92 89 00 	sts	0x0089, r1
    1154:	83 e5       	ldi	r24, 0x53	; 83
    1156:	80 93 88 00 	sts	0x0088, r24
    115a:	2f ef       	ldi	r18, 0xFF	; 255
    115c:	8f eb       	ldi	r24, 0xBF	; 191
    115e:	91 e2       	ldi	r25, 0x21	; 33
    1160:	21 50       	subi	r18, 0x01	; 1
    1162:	80 40       	sbci	r24, 0x00	; 0
    1164:	90 40       	sbci	r25, 0x00	; 0
    1166:	e1 f7       	brne	.-8      	; 0x1160 <s_pick+0x98>
    1168:	00 c0       	rjmp	.+0      	; 0x116a <s_pick+0xa2>
    116a:	00 00       	nop
    116c:	7b cd       	rjmp	.-1290   	; 0xc64 <servo_1_free>
    116e:	08 95       	ret

00001170 <forward_wls>:
    1170:	df 92       	push	r13
    1172:	ef 92       	push	r14
    1174:	ff 92       	push	r15
    1176:	0f 93       	push	r16
    1178:	1f 93       	push	r17
    117a:	cf 93       	push	r28
    117c:	df 93       	push	r29
    117e:	ec 01       	movw	r28, r24
    1180:	80 e0       	ldi	r24, 0x00	; 0
    1182:	90 e0       	ldi	r25, 0x00	; 0
    1184:	a6 dd       	rcall	.-1204   	; 0xcd2 <LCD_Function>
    1186:	0f 2e       	mov	r0, r31
    1188:	f8 e2       	ldi	r31, 0x28	; 40
    118a:	ef 2e       	mov	r14, r31
    118c:	ff 24       	eor	r15, r15
    118e:	f3 94       	inc	r15
    1190:	f0 2d       	mov	r31, r0
    1192:	0a e2       	ldi	r16, 0x2A	; 42
    1194:	11 e0       	ldi	r17, 0x01	; 1
    1196:	0f 2e       	mov	r0, r31
    1198:	f8 e7       	ldi	r31, 0x78	; 120
    119a:	df 2e       	mov	r13, r31
    119c:	f0 2d       	mov	r31, r0
    119e:	06 dd       	rcall	.-1524   	; 0xbac <forward>
    11a0:	80 91 42 04 	lds	r24, 0x0442
    11a4:	f7 01       	movw	r30, r14
    11a6:	80 83       	st	Z, r24
    11a8:	80 91 42 04 	lds	r24, 0x0442
    11ac:	f8 01       	movw	r30, r16
    11ae:	80 83       	st	Z, r24
    11b0:	81 e0       	ldi	r24, 0x01	; 1
    11b2:	74 dd       	rcall	.-1304   	; 0xc9c <ADC_Conversion>
    11b4:	80 93 34 05 	sts	0x0534, r24
    11b8:	82 e0       	ldi	r24, 0x02	; 2
    11ba:	70 dd       	rcall	.-1312   	; 0xc9c <ADC_Conversion>
    11bc:	80 93 29 05 	sts	0x0529, r24
    11c0:	83 e0       	ldi	r24, 0x03	; 3
    11c2:	6c dd       	rcall	.-1320   	; 0xc9c <ADC_Conversion>
    11c4:	80 93 2c 05 	sts	0x052C, r24
    11c8:	8b e0       	ldi	r24, 0x0B	; 11
    11ca:	68 dd       	rcall	.-1328   	; 0xc9c <ADC_Conversion>
    11cc:	80 93 33 05 	sts	0x0533, r24
    11d0:	20 91 2c 05 	lds	r18, 0x052C
    11d4:	24 31       	cpi	r18, 0x14	; 20
    11d6:	e0 f4       	brcc	.+56     	; 0x1210 <forward_wls+0xa0>
    11d8:	80 91 29 05 	lds	r24, 0x0529
    11dc:	84 31       	cpi	r24, 0x14	; 20
    11de:	c0 f4       	brcc	.+48     	; 0x1210 <forward_wls+0xa0>
    11e0:	80 91 34 05 	lds	r24, 0x0534
    11e4:	84 31       	cpi	r24, 0x14	; 20
    11e6:	a0 f4       	brcc	.+40     	; 0x1210 <forward_wls+0xa0>
    11e8:	80 91 e2 04 	lds	r24, 0x04E2
    11ec:	90 91 e3 04 	lds	r25, 0x04E3
    11f0:	01 96       	adiw	r24, 0x01	; 1
    11f2:	90 93 e3 04 	sts	0x04E3, r25
    11f6:	80 93 e2 04 	sts	0x04E2, r24
    11fa:	08 97       	sbiw	r24, 0x08	; 8
    11fc:	84 f2       	brlt	.-96     	; 0x119e <forward_wls+0x2e>
    11fe:	c2 30       	cpi	r28, 0x02	; 2
    1200:	d1 05       	cpc	r29, r1
    1202:	69 f2       	breq	.-102    	; 0x119e <forward_wls+0x2e>
    1204:	ec de       	rcall	.-552    	; 0xfde <static_reorientation>
    1206:	10 92 e3 04 	sts	0x04E3, r1
    120a:	10 92 e2 04 	sts	0x04E2, r1
    120e:	1b c0       	rjmp	.+54     	; 0x1246 <forward_wls+0xd6>
    1210:	c2 30       	cpi	r28, 0x02	; 2
    1212:	d1 05       	cpc	r29, r1
    1214:	c1 f4       	brne	.+48     	; 0x1246 <forward_wls+0xd6>
    1216:	30 91 34 05 	lds	r19, 0x0534
    121a:	80 91 29 05 	lds	r24, 0x0529
    121e:	90 e0       	ldi	r25, 0x00	; 0
    1220:	83 0f       	add	r24, r19
    1222:	91 1d       	adc	r25, r1
    1224:	82 0f       	add	r24, r18
    1226:	91 1d       	adc	r25, r1
    1228:	89 31       	cpi	r24, 0x19	; 25
    122a:	91 40       	sbci	r25, 0x01	; 1
    122c:	0c f4       	brge	.+2      	; 0x1230 <forward_wls+0xc0>
    122e:	44 c0       	rjmp	.+136    	; 0x12b8 <forward_wls+0x148>
    1230:	2f ef       	ldi	r18, 0xFF	; 255
    1232:	8f eb       	ldi	r24, 0xBF	; 191
    1234:	96 e0       	ldi	r25, 0x06	; 6
    1236:	21 50       	subi	r18, 0x01	; 1
    1238:	80 40       	sbci	r24, 0x00	; 0
    123a:	90 40       	sbci	r25, 0x00	; 0
    123c:	e1 f7       	brne	.-8      	; 0x1236 <forward_wls+0xc6>
    123e:	00 c0       	rjmp	.+0      	; 0x1240 <forward_wls+0xd0>
    1240:	00 00       	nop
    1242:	c3 dc       	rcall	.-1658   	; 0xbca <stop>
    1244:	aa c0       	rjmp	.+340    	; 0x139a <forward_wls+0x22a>
    1246:	c3 30       	cpi	r28, 0x03	; 3
    1248:	d1 05       	cpc	r29, r1
    124a:	69 f4       	brne	.+26     	; 0x1266 <forward_wls+0xf6>
    124c:	80 91 34 05 	lds	r24, 0x0534
    1250:	89 37       	cpi	r24, 0x79	; 121
    1252:	08 f4       	brcc	.+2      	; 0x1256 <forward_wls+0xe6>
    1254:	a4 cf       	rjmp	.-184    	; 0x119e <forward_wls+0x2e>
    1256:	80 91 2c 05 	lds	r24, 0x052C
    125a:	89 37       	cpi	r24, 0x79	; 121
    125c:	08 f4       	brcc	.+2      	; 0x1260 <forward_wls+0xf0>
    125e:	9f cf       	rjmp	.-194    	; 0x119e <forward_wls+0x2e>
    1260:	b4 dc       	rcall	.-1688   	; 0xbca <stop>
    1262:	2d d1       	rcall	.+602    	; 0x14be <forward_inv>
    1264:	9a c0       	rjmp	.+308    	; 0x139a <forward_wls+0x22a>
    1266:	c1 30       	cpi	r28, 0x01	; 1
    1268:	d1 05       	cpc	r29, r1
    126a:	69 f4       	brne	.+26     	; 0x1286 <forward_wls+0x116>
    126c:	80 91 29 05 	lds	r24, 0x0529
    1270:	84 36       	cpi	r24, 0x64	; 100
    1272:	08 f0       	brcs	.+2      	; 0x1276 <forward_wls+0x106>
    1274:	94 cf       	rjmp	.-216    	; 0x119e <forward_wls+0x2e>
    1276:	80 91 33 05 	lds	r24, 0x0533
    127a:	85 35       	cpi	r24, 0x55	; 85
    127c:	08 f4       	brcc	.+2      	; 0x1280 <forward_wls+0x110>
    127e:	8f cf       	rjmp	.-226    	; 0x119e <forward_wls+0x2e>
    1280:	a4 dc       	rcall	.-1720   	; 0xbca <stop>
    1282:	a2 d0       	rcall	.+324    	; 0x13c8 <forward_walls>
    1284:	8a c0       	rjmp	.+276    	; 0x139a <forward_wls+0x22a>
    1286:	20 97       	sbiw	r28, 0x00	; 0
    1288:	b9 f4       	brne	.+46     	; 0x12b8 <forward_wls+0x148>
    128a:	20 91 34 05 	lds	r18, 0x0534
    128e:	80 91 29 05 	lds	r24, 0x0529
    1292:	90 e0       	ldi	r25, 0x00	; 0
    1294:	82 0f       	add	r24, r18
    1296:	91 1d       	adc	r25, r1
    1298:	20 91 2c 05 	lds	r18, 0x052C
    129c:	82 0f       	add	r24, r18
    129e:	91 1d       	adc	r25, r1
    12a0:	81 39       	cpi	r24, 0x91	; 145
    12a2:	91 40       	sbci	r25, 0x01	; 1
    12a4:	4c f0       	brlt	.+18     	; 0x12b8 <forward_wls+0x148>
    12a6:	fc ec       	ldi	r31, 0xCC	; 204
    12a8:	2c ee       	ldi	r18, 0xEC	; 236
    12aa:	82 e0       	ldi	r24, 0x02	; 2
    12ac:	f1 50       	subi	r31, 0x01	; 1
    12ae:	20 40       	sbci	r18, 0x00	; 0
    12b0:	80 40       	sbci	r24, 0x00	; 0
    12b2:	e1 f7       	brne	.-8      	; 0x12ac <forward_wls+0x13c>
    12b4:	00 c0       	rjmp	.+0      	; 0x12b6 <forward_wls+0x146>
    12b6:	71 c0       	rjmp	.+226    	; 0x139a <forward_wls+0x22a>
    12b8:	20 91 34 05 	lds	r18, 0x0534
    12bc:	2c 33       	cpi	r18, 0x3C	; 60
    12be:	a8 f4       	brcc	.+42     	; 0x12ea <forward_wls+0x17a>
    12c0:	80 91 29 05 	lds	r24, 0x0529
    12c4:	8d 37       	cpi	r24, 0x7D	; 125
    12c6:	88 f0       	brcs	.+34     	; 0x12ea <forward_wls+0x17a>
    12c8:	80 91 2c 05 	lds	r24, 0x052C
    12cc:	8c 33       	cpi	r24, 0x3C	; 60
    12ce:	68 f4       	brcc	.+26     	; 0x12ea <forward_wls+0x17a>
    12d0:	80 91 42 04 	lds	r24, 0x0442
    12d4:	f7 01       	movw	r30, r14
    12d6:	80 83       	st	Z, r24
    12d8:	80 91 42 04 	lds	r24, 0x0442
    12dc:	f8 01       	movw	r30, r16
    12de:	80 83       	st	Z, r24
    12e0:	83 e3       	ldi	r24, 0x33	; 51
    12e2:	9b e2       	ldi	r25, 0x2B	; 43
    12e4:	01 97       	sbiw	r24, 0x01	; 1
    12e6:	f1 f7       	brne	.-4      	; 0x12e4 <forward_wls+0x174>
    12e8:	5a cf       	rjmp	.-332    	; 0x119e <forward_wls+0x2e>
    12ea:	40 91 29 05 	lds	r20, 0x0529
    12ee:	30 91 2c 05 	lds	r19, 0x052C
    12f2:	84 2f       	mov	r24, r20
    12f4:	90 e0       	ldi	r25, 0x00	; 0
    12f6:	82 0f       	add	r24, r18
    12f8:	91 1d       	adc	r25, r1
    12fa:	83 0f       	add	r24, r19
    12fc:	91 1d       	adc	r25, r1
    12fe:	88 3c       	cpi	r24, 0xC8	; 200
    1300:	91 05       	cpc	r25, r1
    1302:	2c f5       	brge	.+74     	; 0x134e <forward_wls+0x1de>
    1304:	8d ec       	ldi	r24, 0xCD	; 205
    1306:	84 0f       	add	r24, r20
    1308:	81 33       	cpi	r24, 0x31	; 49
    130a:	08 f5       	brcc	.+66     	; 0x134e <forward_wls+0x1de>
    130c:	32 17       	cp	r19, r18
    130e:	08 f0       	brcs	.+2      	; 0x1312 <forward_wls+0x1a2>
    1310:	50 c0       	rjmp	.+160    	; 0x13b2 <forward_wls+0x242>
    1312:	80 91 40 04 	lds	r24, 0x0440
    1316:	f7 01       	movw	r30, r14
    1318:	80 83       	st	Z, r24
    131a:	80 91 42 04 	lds	r24, 0x0442
    131e:	f8 01       	movw	r30, r16
    1320:	80 83       	st	Z, r24
    1322:	8c ec       	ldi	r24, 0xCC	; 204
    1324:	9c e1       	ldi	r25, 0x1C	; 28
    1326:	01 97       	sbiw	r24, 0x01	; 1
    1328:	f1 f7       	brne	.-4      	; 0x1326 <forward_wls+0x1b6>
    132a:	00 c0       	rjmp	.+0      	; 0x132c <forward_wls+0x1bc>
    132c:	00 00       	nop
    132e:	37 cf       	rjmp	.-402    	; 0x119e <forward_wls+0x2e>
    1330:	80 91 42 04 	lds	r24, 0x0442
    1334:	f7 01       	movw	r30, r14
    1336:	80 83       	st	Z, r24
    1338:	80 91 40 04 	lds	r24, 0x0440
    133c:	f8 01       	movw	r30, r16
    133e:	80 83       	st	Z, r24
    1340:	8c ec       	ldi	r24, 0xCC	; 204
    1342:	9c e1       	ldi	r25, 0x1C	; 28
    1344:	01 97       	sbiw	r24, 0x01	; 1
    1346:	f1 f7       	brne	.-4      	; 0x1344 <forward_wls+0x1d4>
    1348:	00 c0       	rjmp	.+0      	; 0x134a <forward_wls+0x1da>
    134a:	00 00       	nop
    134c:	28 cf       	rjmp	.-432    	; 0x119e <forward_wls+0x2e>
    134e:	28 32       	cpi	r18, 0x28	; 40
    1350:	80 f4       	brcc	.+32     	; 0x1372 <forward_wls+0x202>
    1352:	4c 33       	cpi	r20, 0x3C	; 60
    1354:	08 f0       	brcs	.+2      	; 0x1358 <forward_wls+0x1e8>
    1356:	23 cf       	rjmp	.-442    	; 0x119e <forward_wls+0x2e>
    1358:	3d 38       	cpi	r19, 0x8D	; 141
    135a:	40 f1       	brcs	.+80     	; 0x13ac <forward_wls+0x23c>
    135c:	30 dc       	rcall	.-1952   	; 0xbbe <soft_right>
    135e:	f7 01       	movw	r30, r14
    1360:	d0 82       	st	Z, r13
    1362:	f8 01       	movw	r30, r16
    1364:	d0 82       	st	Z, r13
    1366:	86 e6       	ldi	r24, 0x66	; 102
    1368:	9e e0       	ldi	r25, 0x0E	; 14
    136a:	01 97       	sbiw	r24, 0x01	; 1
    136c:	f1 f7       	brne	.-4      	; 0x136a <forward_wls+0x1fa>
    136e:	00 00       	nop
    1370:	16 cf       	rjmp	.-468    	; 0x119e <forward_wls+0x2e>
    1372:	38 32       	cpi	r19, 0x28	; 40
    1374:	08 f0       	brcs	.+2      	; 0x1378 <forward_wls+0x208>
    1376:	13 cf       	rjmp	.-474    	; 0x119e <forward_wls+0x2e>
    1378:	4c 33       	cpi	r20, 0x3C	; 60
    137a:	08 f0       	brcs	.+2      	; 0x137e <forward_wls+0x20e>
    137c:	10 cf       	rjmp	.-480    	; 0x119e <forward_wls+0x2e>
    137e:	2d 38       	cpi	r18, 0x8D	; 141
    1380:	08 f4       	brcc	.+2      	; 0x1384 <forward_wls+0x214>
    1382:	0d cf       	rjmp	.-486    	; 0x119e <forward_wls+0x2e>
    1384:	1f dc       	rcall	.-1986   	; 0xbc4 <soft_left>
    1386:	f7 01       	movw	r30, r14
    1388:	d0 82       	st	Z, r13
    138a:	f8 01       	movw	r30, r16
    138c:	d0 82       	st	Z, r13
    138e:	86 e6       	ldi	r24, 0x66	; 102
    1390:	9e e0       	ldi	r25, 0x0E	; 14
    1392:	01 97       	sbiw	r24, 0x01	; 1
    1394:	f1 f7       	brne	.-4      	; 0x1392 <forward_wls+0x222>
    1396:	00 00       	nop
    1398:	02 cf       	rjmp	.-508    	; 0x119e <forward_wls+0x2e>
    139a:	96 e6       	ldi	r25, 0x66	; 102
    139c:	e6 ee       	ldi	r30, 0xE6	; 230
    139e:	f0 e0       	ldi	r31, 0x00	; 0
    13a0:	91 50       	subi	r25, 0x01	; 1
    13a2:	e0 40       	sbci	r30, 0x00	; 0
    13a4:	f0 40       	sbci	r31, 0x00	; 0
    13a6:	e1 f7       	brne	.-8      	; 0x13a0 <forward_wls+0x230>
    13a8:	10 dc       	rcall	.-2016   	; 0xbca <stop>
    13aa:	06 c0       	rjmp	.+12     	; 0x13b8 <forward_wls+0x248>
    13ac:	38 32       	cpi	r19, 0x28	; 40
    13ae:	38 f3       	brcs	.-50     	; 0x137e <forward_wls+0x20e>
    13b0:	f6 ce       	rjmp	.-532    	; 0x119e <forward_wls+0x2e>
    13b2:	23 17       	cp	r18, r19
    13b4:	60 f6       	brcc	.-104    	; 0x134e <forward_wls+0x1de>
    13b6:	bc cf       	rjmp	.-136    	; 0x1330 <forward_wls+0x1c0>
    13b8:	df 91       	pop	r29
    13ba:	cf 91       	pop	r28
    13bc:	1f 91       	pop	r17
    13be:	0f 91       	pop	r16
    13c0:	ff 90       	pop	r15
    13c2:	ef 90       	pop	r14
    13c4:	df 90       	pop	r13
    13c6:	08 95       	ret

000013c8 <forward_walls>:
    13c8:	df 92       	push	r13
    13ca:	ef 92       	push	r14
    13cc:	ff 92       	push	r15
    13ce:	0f 93       	push	r16
    13d0:	1f 93       	push	r17
    13d2:	cf 93       	push	r28
    13d4:	df 93       	push	r29
    13d6:	81 e0       	ldi	r24, 0x01	; 1
    13d8:	90 e0       	ldi	r25, 0x00	; 0
    13da:	7b dc       	rcall	.-1802   	; 0xcd2 <LCD_Function>
    13dc:	e7 db       	rcall	.-2098   	; 0xbac <forward>
    13de:	80 91 42 04 	lds	r24, 0x0442
    13e2:	80 93 28 01 	sts	0x0128, r24
    13e6:	80 93 2a 01 	sts	0x012A, r24
    13ea:	2f ef       	ldi	r18, 0xFF	; 255
    13ec:	8f e7       	ldi	r24, 0x7F	; 127
    13ee:	96 e1       	ldi	r25, 0x16	; 22
    13f0:	21 50       	subi	r18, 0x01	; 1
    13f2:	80 40       	sbci	r24, 0x00	; 0
    13f4:	90 40       	sbci	r25, 0x00	; 0
    13f6:	e1 f7       	brne	.-8      	; 0x13f0 <forward_walls+0x28>
    13f8:	00 c0       	rjmp	.+0      	; 0x13fa <forward_walls+0x32>
    13fa:	00 00       	nop
    13fc:	08 e2       	ldi	r16, 0x28	; 40
    13fe:	11 e0       	ldi	r17, 0x01	; 1
    1400:	0f 2e       	mov	r0, r31
    1402:	f8 e7       	ldi	r31, 0x78	; 120
    1404:	df 2e       	mov	r13, r31
    1406:	f0 2d       	mov	r31, r0
    1408:	ca e2       	ldi	r28, 0x2A	; 42
    140a:	d1 e0       	ldi	r29, 0x01	; 1
    140c:	0f 2e       	mov	r0, r31
    140e:	f5 e7       	ldi	r31, 0x75	; 117
    1410:	ef 2e       	mov	r14, r31
    1412:	f0 2d       	mov	r31, r0
    1414:	0f 2e       	mov	r0, r31
    1416:	fc ed       	ldi	r31, 0xDC	; 220
    1418:	ff 2e       	mov	r15, r31
    141a:	f0 2d       	mov	r31, r0
    141c:	c7 db       	rcall	.-2162   	; 0xbac <forward>
    141e:	8b e0       	ldi	r24, 0x0B	; 11
    1420:	3d dc       	rcall	.-1926   	; 0xc9c <ADC_Conversion>
    1422:	80 93 33 05 	sts	0x0533, r24
    1426:	83 e0       	ldi	r24, 0x03	; 3
    1428:	39 dc       	rcall	.-1934   	; 0xc9c <ADC_Conversion>
    142a:	80 93 2c 05 	sts	0x052C, r24
    142e:	82 e0       	ldi	r24, 0x02	; 2
    1430:	35 dc       	rcall	.-1942   	; 0xc9c <ADC_Conversion>
    1432:	80 93 29 05 	sts	0x0529, r24
    1436:	90 91 2c 05 	lds	r25, 0x052C
    143a:	91 35       	cpi	r25, 0x51	; 81
    143c:	10 f4       	brcc	.+4      	; 0x1442 <forward_walls+0x7a>
    143e:	81 35       	cpi	r24, 0x51	; 81
    1440:	58 f0       	brcs	.+22     	; 0x1458 <forward_walls+0x90>
    1442:	80 91 33 05 	lds	r24, 0x0533
    1446:	80 35       	cpi	r24, 0x50	; 80
    1448:	38 f4       	brcc	.+14     	; 0x1458 <forward_walls+0x90>
    144a:	bf db       	rcall	.-2178   	; 0xbca <stop>
    144c:	61 e0       	ldi	r22, 0x01	; 1
    144e:	70 e0       	ldi	r23, 0x00	; 0
    1450:	80 e0       	ldi	r24, 0x00	; 0
    1452:	90 e0       	ldi	r25, 0x00	; 0
    1454:	8d de       	rcall	.-742    	; 0x1170 <forward_wls>
    1456:	2b c0       	rjmp	.+86     	; 0x14ae <forward_walls+0xe6>
    1458:	80 91 33 05 	lds	r24, 0x0533
    145c:	9d e8       	ldi	r25, 0x8D	; 141
    145e:	98 0f       	add	r25, r24
    1460:	90 31       	cpi	r25, 0x10	; 16
    1462:	58 f4       	brcc	.+22     	; 0x147a <forward_walls+0xb2>
    1464:	f8 01       	movw	r30, r16
    1466:	f0 82       	st	Z, r15
    1468:	f8 82       	st	Y, r15
    146a:	f6 e6       	ldi	r31, 0x66	; 102
    146c:	26 ee       	ldi	r18, 0xE6	; 230
    146e:	80 e0       	ldi	r24, 0x00	; 0
    1470:	f1 50       	subi	r31, 0x01	; 1
    1472:	20 40       	sbci	r18, 0x00	; 0
    1474:	80 40       	sbci	r24, 0x00	; 0
    1476:	e1 f7       	brne	.-8      	; 0x1470 <forward_walls+0xa8>
    1478:	d1 cf       	rjmp	.-94     	; 0x141c <forward_walls+0x54>
    147a:	83 38       	cpi	r24, 0x83	; 131
    147c:	50 f0       	brcs	.+20     	; 0x1492 <forward_walls+0xca>
    147e:	99 db       	rcall	.-2254   	; 0xbb2 <right>
    1480:	f8 01       	movw	r30, r16
    1482:	e0 82       	st	Z, r14
    1484:	d8 82       	st	Y, r13
    1486:	86 e6       	ldi	r24, 0x66	; 102
    1488:	9e e0       	ldi	r25, 0x0E	; 14
    148a:	01 97       	sbiw	r24, 0x01	; 1
    148c:	f1 f7       	brne	.-4      	; 0x148a <forward_walls+0xc2>
    148e:	00 00       	nop
    1490:	c5 cf       	rjmp	.-118    	; 0x141c <forward_walls+0x54>
    1492:	83 53       	subi	r24, 0x33	; 51
    1494:	80 34       	cpi	r24, 0x40	; 64
    1496:	08 f0       	brcs	.+2      	; 0x149a <forward_walls+0xd2>
    1498:	c1 cf       	rjmp	.-126    	; 0x141c <forward_walls+0x54>
    149a:	8e db       	rcall	.-2276   	; 0xbb8 <left>
    149c:	f8 01       	movw	r30, r16
    149e:	d0 82       	st	Z, r13
    14a0:	e8 82       	st	Y, r14
    14a2:	86 e6       	ldi	r24, 0x66	; 102
    14a4:	9e e0       	ldi	r25, 0x0E	; 14
    14a6:	01 97       	sbiw	r24, 0x01	; 1
    14a8:	f1 f7       	brne	.-4      	; 0x14a6 <forward_walls+0xde>
    14aa:	00 00       	nop
    14ac:	b7 cf       	rjmp	.-146    	; 0x141c <forward_walls+0x54>
    14ae:	df 91       	pop	r29
    14b0:	cf 91       	pop	r28
    14b2:	1f 91       	pop	r17
    14b4:	0f 91       	pop	r16
    14b6:	ff 90       	pop	r15
    14b8:	ef 90       	pop	r14
    14ba:	df 90       	pop	r13
    14bc:	08 95       	ret

000014be <forward_inv>:
    14be:	ff 92       	push	r15
    14c0:	0f 93       	push	r16
    14c2:	1f 93       	push	r17
    14c4:	cf 93       	push	r28
    14c6:	df 93       	push	r29
    14c8:	83 e0       	ldi	r24, 0x03	; 3
    14ca:	90 e0       	ldi	r25, 0x00	; 0
    14cc:	02 dc       	rcall	.-2044   	; 0xcd2 <LCD_Function>
    14ce:	22 e0       	ldi	r18, 0x02	; 2
    14d0:	30 e0       	ldi	r19, 0x00	; 0
    14d2:	40 e0       	ldi	r20, 0x00	; 0
    14d4:	50 e0       	ldi	r21, 0x00	; 0
    14d6:	67 e0       	ldi	r22, 0x07	; 7
    14d8:	82 e0       	ldi	r24, 0x02	; 2
    14da:	0e 94 4c 01 	call	0x298	; 0x298 <lcd_print>
    14de:	f1 2c       	mov	r15, r1
    14e0:	08 e2       	ldi	r16, 0x28	; 40
    14e2:	11 e0       	ldi	r17, 0x01	; 1
    14e4:	ca e2       	ldi	r28, 0x2A	; 42
    14e6:	d1 e0       	ldi	r29, 0x01	; 1
    14e8:	61 db       	rcall	.-2366   	; 0xbac <forward>
    14ea:	80 91 42 04 	lds	r24, 0x0442
    14ee:	f8 01       	movw	r30, r16
    14f0:	80 83       	st	Z, r24
    14f2:	88 83       	st	Y, r24
    14f4:	81 e0       	ldi	r24, 0x01	; 1
    14f6:	d2 db       	rcall	.-2140   	; 0xc9c <ADC_Conversion>
    14f8:	80 93 34 05 	sts	0x0534, r24
    14fc:	82 e0       	ldi	r24, 0x02	; 2
    14fe:	ce db       	rcall	.-2148   	; 0xc9c <ADC_Conversion>
    1500:	80 93 29 05 	sts	0x0529, r24
    1504:	83 e0       	ldi	r24, 0x03	; 3
    1506:	ca db       	rcall	.-2156   	; 0xc9c <ADC_Conversion>
    1508:	80 93 2c 05 	sts	0x052C, r24
    150c:	90 91 34 05 	lds	r25, 0x0534
    1510:	40 91 29 05 	lds	r20, 0x0529
    1514:	24 2f       	mov	r18, r20
    1516:	30 e0       	ldi	r19, 0x00	; 0
    1518:	29 0f       	add	r18, r25
    151a:	31 1d       	adc	r19, r1
    151c:	28 0f       	add	r18, r24
    151e:	31 1d       	adc	r19, r1
    1520:	2a 34       	cpi	r18, 0x4A	; 74
    1522:	31 40       	sbci	r19, 0x01	; 1
    1524:	74 f5       	brge	.+92     	; 0x1582 <forward_inv+0xc4>
    1526:	4a 35       	cpi	r20, 0x5A	; 90
    1528:	60 f5       	brcc	.+88     	; 0x1582 <forward_inv+0xc4>
    152a:	f1 10       	cpse	r15, r1
    152c:	2a c0       	rjmp	.+84     	; 0x1582 <forward_inv+0xc4>
    152e:	2f ef       	ldi	r18, 0xFF	; 255
    1530:	5f e7       	ldi	r21, 0x7F	; 127
    1532:	84 e0       	ldi	r24, 0x04	; 4
    1534:	21 50       	subi	r18, 0x01	; 1
    1536:	50 40       	sbci	r21, 0x00	; 0
    1538:	80 40       	sbci	r24, 0x00	; 0
    153a:	e1 f7       	brne	.-8      	; 0x1534 <forward_inv+0x76>
    153c:	00 c0       	rjmp	.+0      	; 0x153e <forward_inv+0x80>
    153e:	00 00       	nop
    1540:	22 e0       	ldi	r18, 0x02	; 2
    1542:	30 e0       	ldi	r19, 0x00	; 0
    1544:	41 e0       	ldi	r20, 0x01	; 1
    1546:	50 e0       	ldi	r21, 0x00	; 0
    1548:	67 e0       	ldi	r22, 0x07	; 7
    154a:	82 e0       	ldi	r24, 0x02	; 2
    154c:	0e 94 4c 01 	call	0x298	; 0x298 <lcd_print>
    1550:	2a db       	rcall	.-2476   	; 0xba6 <back>
    1552:	9f ef       	ldi	r25, 0xFF	; 255
    1554:	ef e3       	ldi	r30, 0x3F	; 63
    1556:	fb e0       	ldi	r31, 0x0B	; 11
    1558:	91 50       	subi	r25, 0x01	; 1
    155a:	e0 40       	sbci	r30, 0x00	; 0
    155c:	f0 40       	sbci	r31, 0x00	; 0
    155e:	e1 f7       	brne	.-8      	; 0x1558 <forward_inv+0x9a>
    1560:	00 c0       	rjmp	.+0      	; 0x1562 <forward_inv+0xa4>
    1562:	00 00       	nop
    1564:	32 db       	rcall	.-2460   	; 0xbca <stop>
    1566:	fa db       	rcall	.-2060   	; 0xd5c <inv_place>
    1568:	21 db       	rcall	.-2494   	; 0xbac <forward>
    156a:	2f ef       	ldi	r18, 0xFF	; 255
    156c:	5f e7       	ldi	r21, 0x7F	; 127
    156e:	84 e0       	ldi	r24, 0x04	; 4
    1570:	21 50       	subi	r18, 0x01	; 1
    1572:	50 40       	sbci	r21, 0x00	; 0
    1574:	80 40       	sbci	r24, 0x00	; 0
    1576:	e1 f7       	brne	.-8      	; 0x1570 <forward_inv+0xb2>
    1578:	00 c0       	rjmp	.+0      	; 0x157a <forward_inv+0xbc>
    157a:	00 00       	nop
    157c:	ff 24       	eor	r15, r15
    157e:	f3 94       	inc	r15
    1580:	b3 cf       	rjmp	.-154    	; 0x14e8 <forward_inv+0x2a>
    1582:	95 3b       	cpi	r25, 0xB5	; 181
    1584:	60 f0       	brcs	.+24     	; 0x159e <forward_inv+0xe0>
    1586:	42 38       	cpi	r20, 0x82	; 130
    1588:	50 f4       	brcc	.+20     	; 0x159e <forward_inv+0xe0>
    158a:	85 3b       	cpi	r24, 0xB5	; 181
    158c:	40 f0       	brcs	.+16     	; 0x159e <forward_inv+0xe0>
    158e:	80 91 42 04 	lds	r24, 0x0442
    1592:	f8 01       	movw	r30, r16
    1594:	80 83       	st	Z, r24
    1596:	80 91 42 04 	lds	r24, 0x0442
    159a:	88 83       	st	Y, r24
    159c:	a5 cf       	rjmp	.-182    	; 0x14e8 <forward_inv+0x2a>
    159e:	90 35       	cpi	r25, 0x50	; 80
    15a0:	98 f4       	brcc	.+38     	; 0x15c8 <forward_inv+0x10a>
    15a2:	43 38       	cpi	r20, 0x83	; 131
    15a4:	30 f1       	brcs	.+76     	; 0x15f2 <forward_inv+0x134>
    15a6:	87 39       	cpi	r24, 0x97	; 151
    15a8:	98 f1       	brcs	.+102    	; 0x1610 <forward_inv+0x152>
    15aa:	0c db       	rcall	.-2536   	; 0xbc4 <soft_left>
    15ac:	80 91 41 04 	lds	r24, 0x0441
    15b0:	82 53       	subi	r24, 0x32	; 50
    15b2:	f8 01       	movw	r30, r16
    15b4:	80 83       	st	Z, r24
    15b6:	80 91 42 04 	lds	r24, 0x0442
    15ba:	88 83       	st	Y, r24
    15bc:	86 e6       	ldi	r24, 0x66	; 102
    15be:	9e e0       	ldi	r25, 0x0E	; 14
    15c0:	01 97       	sbiw	r24, 0x01	; 1
    15c2:	f1 f7       	brne	.-4      	; 0x15c0 <forward_inv+0x102>
    15c4:	00 00       	nop
    15c6:	90 cf       	rjmp	.-224    	; 0x14e8 <forward_inv+0x2a>
    15c8:	86 39       	cpi	r24, 0x96	; 150
    15ca:	98 f4       	brcc	.+38     	; 0x15f2 <forward_inv+0x134>
    15cc:	43 38       	cpi	r20, 0x83	; 131
    15ce:	88 f0       	brcs	.+34     	; 0x15f2 <forward_inv+0x134>
    15d0:	91 35       	cpi	r25, 0x51	; 81
    15d2:	78 f0       	brcs	.+30     	; 0x15f2 <forward_inv+0x134>
    15d4:	f4 da       	rcall	.-2584   	; 0xbbe <soft_right>
    15d6:	80 91 42 04 	lds	r24, 0x0442
    15da:	f8 01       	movw	r30, r16
    15dc:	80 83       	st	Z, r24
    15de:	80 91 41 04 	lds	r24, 0x0441
    15e2:	82 53       	subi	r24, 0x32	; 50
    15e4:	88 83       	st	Y, r24
    15e6:	86 e6       	ldi	r24, 0x66	; 102
    15e8:	9e e0       	ldi	r25, 0x0E	; 14
    15ea:	01 97       	sbiw	r24, 0x01	; 1
    15ec:	f1 f7       	brne	.-4      	; 0x15ea <forward_inv+0x12c>
    15ee:	00 00       	nop
    15f0:	7b cf       	rjmp	.-266    	; 0x14e8 <forward_inv+0x2a>
    15f2:	84 36       	cpi	r24, 0x64	; 100
    15f4:	08 f0       	brcs	.+2      	; 0x15f8 <forward_inv+0x13a>
    15f6:	78 cf       	rjmp	.-272    	; 0x14e8 <forward_inv+0x2a>
    15f8:	45 36       	cpi	r20, 0x65	; 101
    15fa:	08 f4       	brcc	.+2      	; 0x15fe <forward_inv+0x140>
    15fc:	75 cf       	rjmp	.-278    	; 0x14e8 <forward_inv+0x2a>
    15fe:	94 36       	cpi	r25, 0x64	; 100
    1600:	08 f0       	brcs	.+2      	; 0x1604 <forward_inv+0x146>
    1602:	72 cf       	rjmp	.-284    	; 0x14e8 <forward_inv+0x2a>
    1604:	61 e0       	ldi	r22, 0x01	; 1
    1606:	70 e0       	ldi	r23, 0x00	; 0
    1608:	82 e0       	ldi	r24, 0x02	; 2
    160a:	90 e0       	ldi	r25, 0x00	; 0
    160c:	b1 dd       	rcall	.-1182   	; 0x1170 <forward_wls>
    160e:	03 c0       	rjmp	.+6      	; 0x1616 <forward_inv+0x158>
    1610:	86 39       	cpi	r24, 0x96	; 150
    1612:	f0 f2       	brcs	.-68     	; 0x15d0 <forward_inv+0x112>
    1614:	ee cf       	rjmp	.-36     	; 0x15f2 <forward_inv+0x134>
    1616:	df 91       	pop	r29
    1618:	cf 91       	pop	r28
    161a:	1f 91       	pop	r17
    161c:	0f 91       	pop	r16
    161e:	ff 90       	pop	r15
    1620:	08 95       	ret

00001622 <static_reorientation_inv>:
    1622:	84 e0       	ldi	r24, 0x04	; 4
    1624:	90 e0       	ldi	r25, 0x00	; 0
    1626:	55 db       	rcall	.-2390   	; 0xcd2 <LCD_Function>
    1628:	d0 da       	rcall	.-2656   	; 0xbca <stop>
    162a:	81 e0       	ldi	r24, 0x01	; 1
    162c:	37 db       	rcall	.-2450   	; 0xc9c <ADC_Conversion>
    162e:	80 93 34 05 	sts	0x0534, r24
    1632:	82 e0       	ldi	r24, 0x02	; 2
    1634:	33 db       	rcall	.-2458   	; 0xc9c <ADC_Conversion>
    1636:	80 93 29 05 	sts	0x0529, r24
    163a:	83 e0       	ldi	r24, 0x03	; 3
    163c:	2f db       	rcall	.-2466   	; 0xc9c <ADC_Conversion>
    163e:	80 93 2c 05 	sts	0x052C, r24
    1642:	80 91 29 05 	lds	r24, 0x0529
    1646:	8f 36       	cpi	r24, 0x6F	; 111
    1648:	08 f4       	brcc	.+2      	; 0x164c <static_reorientation_inv+0x2a>
    164a:	41 c0       	rjmp	.+130    	; 0x16ce <static_reorientation_inv+0xac>
    164c:	86 e9       	ldi	r24, 0x96	; 150
    164e:	80 93 28 01 	sts	0x0128, r24
    1652:	80 93 2a 01 	sts	0x012A, r24
    1656:	ad da       	rcall	.-2726   	; 0xbb2 <right>
    1658:	2f ef       	ldi	r18, 0xFF	; 255
    165a:	8f ef       	ldi	r24, 0xFF	; 255
    165c:	91 e1       	ldi	r25, 0x11	; 17
    165e:	21 50       	subi	r18, 0x01	; 1
    1660:	80 40       	sbci	r24, 0x00	; 0
    1662:	90 40       	sbci	r25, 0x00	; 0
    1664:	e1 f7       	brne	.-8      	; 0x165e <static_reorientation_inv+0x3c>
    1666:	00 c0       	rjmp	.+0      	; 0x1668 <static_reorientation_inv+0x46>
    1668:	00 00       	nop
    166a:	af da       	rcall	.-2722   	; 0xbca <stop>
    166c:	8e e6       	ldi	r24, 0x6E	; 110
    166e:	80 93 28 01 	sts	0x0128, r24
    1672:	80 93 2a 01 	sts	0x012A, r24
    1676:	a0 da       	rcall	.-2752   	; 0xbb8 <left>
    1678:	2f ef       	ldi	r18, 0xFF	; 255
    167a:	8f e3       	ldi	r24, 0x3F	; 63
    167c:	92 e0       	ldi	r25, 0x02	; 2
    167e:	21 50       	subi	r18, 0x01	; 1
    1680:	80 40       	sbci	r24, 0x00	; 0
    1682:	90 40       	sbci	r25, 0x00	; 0
    1684:	e1 f7       	brne	.-8      	; 0x167e <static_reorientation_inv+0x5c>
    1686:	00 c0       	rjmp	.+0      	; 0x1688 <static_reorientation_inv+0x66>
    1688:	00 00       	nop
    168a:	81 e0       	ldi	r24, 0x01	; 1
    168c:	07 db       	rcall	.-2546   	; 0xc9c <ADC_Conversion>
    168e:	80 93 34 05 	sts	0x0534, r24
    1692:	82 e0       	ldi	r24, 0x02	; 2
    1694:	03 db       	rcall	.-2554   	; 0xc9c <ADC_Conversion>
    1696:	80 93 29 05 	sts	0x0529, r24
    169a:	83 e0       	ldi	r24, 0x03	; 3
    169c:	ff da       	rcall	.-2562   	; 0xc9c <ADC_Conversion>
    169e:	80 93 2c 05 	sts	0x052C, r24
    16a2:	90 91 34 05 	lds	r25, 0x0534
    16a6:	20 91 29 05 	lds	r18, 0x0529
    16aa:	30 e0       	ldi	r19, 0x00	; 0
    16ac:	29 0f       	add	r18, r25
    16ae:	31 1d       	adc	r19, r1
    16b0:	2b 3f       	cpi	r18, 0xFB	; 251
    16b2:	31 05       	cpc	r19, r1
    16b4:	54 f7       	brge	.-44     	; 0x168a <static_reorientation_inv+0x68>
    16b6:	82 38       	cpi	r24, 0x82	; 130
    16b8:	40 f3       	brcs	.-48     	; 0x168a <static_reorientation_inv+0x68>
    16ba:	12 b8       	out	0x02, r1	; 2
    16bc:	86 da       	rcall	.-2804   	; 0xbca <stop>
    16be:	80 91 42 04 	lds	r24, 0x0442
    16c2:	80 93 28 01 	sts	0x0128, r24
    16c6:	80 91 42 04 	lds	r24, 0x0442
    16ca:	80 93 2a 01 	sts	0x012A, r24
    16ce:	08 95       	ret

000016d0 <forward_zigzag>:
    16d0:	9f 92       	push	r9
    16d2:	af 92       	push	r10
    16d4:	bf 92       	push	r11
    16d6:	cf 92       	push	r12
    16d8:	df 92       	push	r13
    16da:	ef 92       	push	r14
    16dc:	ff 92       	push	r15
    16de:	0f 93       	push	r16
    16e0:	1f 93       	push	r17
    16e2:	cf 93       	push	r28
    16e4:	df 93       	push	r29
    16e6:	85 e0       	ldi	r24, 0x05	; 5
    16e8:	90 e0       	ldi	r25, 0x00	; 0
    16ea:	f3 da       	rcall	.-2586   	; 0xcd2 <LCD_Function>
    16ec:	e1 2c       	mov	r14, r1
    16ee:	f1 2c       	mov	r15, r1
    16f0:	08 e2       	ldi	r16, 0x28	; 40
    16f2:	11 e0       	ldi	r17, 0x01	; 1
    16f4:	0f 2e       	mov	r0, r31
    16f6:	fa ef       	ldi	r31, 0xFA	; 250
    16f8:	df 2e       	mov	r13, r31
    16fa:	f0 2d       	mov	r31, r0
    16fc:	ca e2       	ldi	r28, 0x2A	; 42
    16fe:	d1 e0       	ldi	r29, 0x01	; 1
    1700:	0f 2e       	mov	r0, r31
    1702:	f0 ea       	ldi	r31, 0xA0	; 160
    1704:	bf 2e       	mov	r11, r31
    1706:	f0 2d       	mov	r31, r0
    1708:	0f 2e       	mov	r0, r31
    170a:	f4 eb       	ldi	r31, 0xB4	; 180
    170c:	cf 2e       	mov	r12, r31
    170e:	f0 2d       	mov	r31, r0
    1710:	91 2c       	mov	r9, r1
    1712:	a1 2c       	mov	r10, r1
    1714:	81 e0       	ldi	r24, 0x01	; 1
    1716:	c2 da       	rcall	.-2684   	; 0xc9c <ADC_Conversion>
    1718:	80 93 34 05 	sts	0x0534, r24
    171c:	82 e0       	ldi	r24, 0x02	; 2
    171e:	be da       	rcall	.-2692   	; 0xc9c <ADC_Conversion>
    1720:	80 93 29 05 	sts	0x0529, r24
    1724:	83 e0       	ldi	r24, 0x03	; 3
    1726:	ba da       	rcall	.-2700   	; 0xc9c <ADC_Conversion>
    1728:	80 93 2c 05 	sts	0x052C, r24
    172c:	3f da       	rcall	.-2946   	; 0xbac <forward>
    172e:	f8 01       	movw	r30, r16
    1730:	d0 82       	st	Z, r13
    1732:	d8 82       	st	Y, r13
    1734:	30 91 34 05 	lds	r19, 0x0534
    1738:	20 91 29 05 	lds	r18, 0x0529
    173c:	40 91 2c 05 	lds	r20, 0x052C
    1740:	82 2f       	mov	r24, r18
    1742:	90 e0       	ldi	r25, 0x00	; 0
    1744:	83 0f       	add	r24, r19
    1746:	91 1d       	adc	r25, r1
    1748:	84 0f       	add	r24, r20
    174a:	91 1d       	adc	r25, r1
    174c:	81 39       	cpi	r24, 0x91	; 145
    174e:	91 40       	sbci	r25, 0x01	; 1
    1750:	ec f0       	brlt	.+58     	; 0x178c <forward_zigzag+0xbc>
    1752:	3b da       	rcall	.-2954   	; 0xbca <stop>
    1754:	3a da       	rcall	.-2956   	; 0xbca <stop>
    1756:	2f ef       	ldi	r18, 0xFF	; 255
    1758:	5f e7       	ldi	r21, 0x7F	; 127
    175a:	84 e0       	ldi	r24, 0x04	; 4
    175c:	21 50       	subi	r18, 0x01	; 1
    175e:	50 40       	sbci	r21, 0x00	; 0
    1760:	80 40       	sbci	r24, 0x00	; 0
    1762:	e1 f7       	brne	.-8      	; 0x175c <forward_zigzag+0x8c>
    1764:	00 c0       	rjmp	.+0      	; 0x1766 <forward_zigzag+0x96>
    1766:	00 00       	nop
    1768:	80 91 42 04 	lds	r24, 0x0442
    176c:	80 93 28 01 	sts	0x0128, r24
    1770:	80 93 2a 01 	sts	0x012A, r24
    1774:	1b da       	rcall	.-3018   	; 0xbac <forward>
    1776:	9f ef       	ldi	r25, 0xFF	; 255
    1778:	ef e7       	ldi	r30, 0x7F	; 127
    177a:	f4 e0       	ldi	r31, 0x04	; 4
    177c:	91 50       	subi	r25, 0x01	; 1
    177e:	e0 40       	sbci	r30, 0x00	; 0
    1780:	f0 40       	sbci	r31, 0x00	; 0
    1782:	e1 f7       	brne	.-8      	; 0x177c <forward_zigzag+0xac>
    1784:	00 c0       	rjmp	.+0      	; 0x1786 <forward_zigzag+0xb6>
    1786:	00 00       	nop
    1788:	20 da       	rcall	.-3008   	; 0xbca <stop>
    178a:	38 c0       	rjmp	.+112    	; 0x17fc <forward_zigzag+0x12c>
    178c:	25 36       	cpi	r18, 0x65	; 101
    178e:	58 f0       	brcs	.+22     	; 0x17a6 <forward_zigzag+0xd6>
    1790:	0d da       	rcall	.-3046   	; 0xbac <forward>
    1792:	f8 01       	movw	r30, r16
    1794:	d0 82       	st	Z, r13
    1796:	d8 82       	st	Y, r13
    1798:	8f ef       	ldi	r24, 0xFF	; 255
    179a:	97 e4       	ldi	r25, 0x47	; 71
    179c:	01 97       	sbiw	r24, 0x01	; 1
    179e:	f1 f7       	brne	.-4      	; 0x179c <forward_zigzag+0xcc>
    17a0:	00 c0       	rjmp	.+0      	; 0x17a2 <forward_zigzag+0xd2>
    17a2:	00 00       	nop
    17a4:	b7 cf       	rjmp	.-146    	; 0x1714 <forward_zigzag+0x44>
    17a6:	34 31       	cpi	r19, 0x14	; 20
    17a8:	80 f4       	brcc	.+32     	; 0x17ca <forward_zigzag+0xfa>
    17aa:	24 31       	cpi	r18, 0x14	; 20
    17ac:	70 f4       	brcc	.+28     	; 0x17ca <forward_zigzag+0xfa>
    17ae:	44 31       	cpi	r20, 0x14	; 20
    17b0:	60 f4       	brcc	.+24     	; 0x17ca <forward_zigzag+0xfa>
    17b2:	9f ef       	ldi	r25, 0xFF	; 255
    17b4:	e9 1a       	sub	r14, r25
    17b6:	f9 0a       	sbc	r15, r25
    17b8:	e4 e0       	ldi	r30, 0x04	; 4
    17ba:	ee 16       	cp	r14, r30
    17bc:	f1 04       	cpc	r15, r1
    17be:	0c f4       	brge	.+2      	; 0x17c2 <forward_zigzag+0xf2>
    17c0:	a9 cf       	rjmp	.-174    	; 0x1714 <forward_zigzag+0x44>
    17c2:	0d dc       	rcall	.-2022   	; 0xfde <static_reorientation>
    17c4:	e9 2c       	mov	r14, r9
    17c6:	fa 2c       	mov	r15, r10
    17c8:	a5 cf       	rjmp	.-182    	; 0x1714 <forward_zigzag+0x44>
    17ca:	23 17       	cp	r18, r19
    17cc:	50 f4       	brcc	.+20     	; 0x17e2 <forward_zigzag+0x112>
    17ce:	f4 d9       	rcall	.-3096   	; 0xbb8 <left>
    17d0:	f8 01       	movw	r30, r16
    17d2:	c0 82       	st	Z, r12
    17d4:	b8 82       	st	Y, r11
    17d6:	86 e6       	ldi	r24, 0x66	; 102
    17d8:	9e e0       	ldi	r25, 0x0E	; 14
    17da:	01 97       	sbiw	r24, 0x01	; 1
    17dc:	f1 f7       	brne	.-4      	; 0x17da <forward_zigzag+0x10a>
    17de:	00 00       	nop
    17e0:	99 cf       	rjmp	.-206    	; 0x1714 <forward_zigzag+0x44>
    17e2:	24 17       	cp	r18, r20
    17e4:	08 f0       	brcs	.+2      	; 0x17e8 <forward_zigzag+0x118>
    17e6:	96 cf       	rjmp	.-212    	; 0x1714 <forward_zigzag+0x44>
    17e8:	e4 d9       	rcall	.-3128   	; 0xbb2 <right>
    17ea:	f8 01       	movw	r30, r16
    17ec:	b0 82       	st	Z, r11
    17ee:	c8 82       	st	Y, r12
    17f0:	86 e6       	ldi	r24, 0x66	; 102
    17f2:	9e e0       	ldi	r25, 0x0E	; 14
    17f4:	01 97       	sbiw	r24, 0x01	; 1
    17f6:	f1 f7       	brne	.-4      	; 0x17f4 <forward_zigzag+0x124>
    17f8:	00 00       	nop
    17fa:	8c cf       	rjmp	.-232    	; 0x1714 <forward_zigzag+0x44>
    17fc:	df 91       	pop	r29
    17fe:	cf 91       	pop	r28
    1800:	1f 91       	pop	r17
    1802:	0f 91       	pop	r16
    1804:	ff 90       	pop	r15
    1806:	ef 90       	pop	r14
    1808:	df 90       	pop	r13
    180a:	cf 90       	pop	r12
    180c:	bf 90       	pop	r11
    180e:	af 90       	pop	r10
    1810:	9f 90       	pop	r9
    1812:	08 95       	ret

00001814 <right_turn_wls>:
    1814:	cb d9       	rcall	.-3178   	; 0xbac <forward>
    1816:	29 e9       	ldi	r18, 0x99	; 153
    1818:	89 e1       	ldi	r24, 0x19	; 25
    181a:	98 e0       	ldi	r25, 0x08	; 8
    181c:	21 50       	subi	r18, 0x01	; 1
    181e:	80 40       	sbci	r24, 0x00	; 0
    1820:	90 40       	sbci	r25, 0x00	; 0
    1822:	e1 f7       	brne	.-8      	; 0x181c <right_turn_wls+0x8>
    1824:	00 00       	nop
    1826:	86 e9       	ldi	r24, 0x96	; 150
    1828:	80 93 28 01 	sts	0x0128, r24
    182c:	80 93 2a 01 	sts	0x012A, r24
    1830:	c0 d9       	rcall	.-3200   	; 0xbb2 <right>
    1832:	2f ef       	ldi	r18, 0xFF	; 255
    1834:	8f ef       	ldi	r24, 0xFF	; 255
    1836:	98 e0       	ldi	r25, 0x08	; 8
    1838:	21 50       	subi	r18, 0x01	; 1
    183a:	80 40       	sbci	r24, 0x00	; 0
    183c:	90 40       	sbci	r25, 0x00	; 0
    183e:	e1 f7       	brne	.-8      	; 0x1838 <right_turn_wls+0x24>
    1840:	00 c0       	rjmp	.+0      	; 0x1842 <right_turn_wls+0x2e>
    1842:	00 00       	nop
    1844:	84 e6       	ldi	r24, 0x64	; 100
    1846:	80 93 28 01 	sts	0x0128, r24
    184a:	80 93 2a 01 	sts	0x012A, r24
    184e:	83 e0       	ldi	r24, 0x03	; 3
    1850:	25 da       	rcall	.-2998   	; 0xc9c <ADC_Conversion>
    1852:	80 93 2c 05 	sts	0x052C, r24
    1856:	81 35       	cpi	r24, 0x51	; 81
    1858:	d0 f3       	brcs	.-12     	; 0x184e <right_turn_wls+0x3a>
    185a:	12 b8       	out	0x02, r1	; 2
    185c:	b6 d9       	rcall	.-3220   	; 0xbca <stop>
    185e:	80 91 42 04 	lds	r24, 0x0442
    1862:	80 93 28 01 	sts	0x0128, r24
    1866:	80 91 42 04 	lds	r24, 0x0442
    186a:	80 93 2a 01 	sts	0x012A, r24
    186e:	08 95       	ret

00001870 <right_turn_inv>:
    1870:	9d d9       	rcall	.-3270   	; 0xbac <forward>
    1872:	2f ef       	ldi	r18, 0xFF	; 255
    1874:	4f e3       	ldi	r20, 0x3F	; 63
    1876:	5b e0       	ldi	r21, 0x0B	; 11
    1878:	21 50       	subi	r18, 0x01	; 1
    187a:	40 40       	sbci	r20, 0x00	; 0
    187c:	50 40       	sbci	r21, 0x00	; 0
    187e:	e1 f7       	brne	.-8      	; 0x1878 <right_turn_inv+0x8>
    1880:	00 c0       	rjmp	.+0      	; 0x1882 <right_turn_inv+0x12>
    1882:	00 00       	nop
    1884:	86 e9       	ldi	r24, 0x96	; 150
    1886:	80 93 28 01 	sts	0x0128, r24
    188a:	80 93 2a 01 	sts	0x012A, r24
    188e:	91 d9       	rcall	.-3294   	; 0xbb2 <right>
    1890:	8f ef       	ldi	r24, 0xFF	; 255
    1892:	9f ef       	ldi	r25, 0xFF	; 255
    1894:	28 e0       	ldi	r18, 0x08	; 8
    1896:	81 50       	subi	r24, 0x01	; 1
    1898:	90 40       	sbci	r25, 0x00	; 0
    189a:	20 40       	sbci	r18, 0x00	; 0
    189c:	e1 f7       	brne	.-8      	; 0x1896 <right_turn_inv+0x26>
    189e:	00 c0       	rjmp	.+0      	; 0x18a0 <right_turn_inv+0x30>
    18a0:	00 00       	nop
    18a2:	8e e6       	ldi	r24, 0x6E	; 110
    18a4:	80 93 28 01 	sts	0x0128, r24
    18a8:	80 93 2a 01 	sts	0x012A, r24
    18ac:	82 e0       	ldi	r24, 0x02	; 2
    18ae:	f6 d9       	rcall	.-3092   	; 0xc9c <ADC_Conversion>
    18b0:	80 93 29 05 	sts	0x0529, r24
    18b4:	81 e0       	ldi	r24, 0x01	; 1
    18b6:	f2 d9       	rcall	.-3100   	; 0xc9c <ADC_Conversion>
    18b8:	80 93 34 05 	sts	0x0534, r24
    18bc:	83 e0       	ldi	r24, 0x03	; 3
    18be:	ee d9       	rcall	.-3108   	; 0xc9c <ADC_Conversion>
    18c0:	80 93 2c 05 	sts	0x052C, r24
    18c4:	20 91 29 05 	lds	r18, 0x0529
    18c8:	30 e0       	ldi	r19, 0x00	; 0
    18ca:	a9 01       	movw	r20, r18
    18cc:	48 0f       	add	r20, r24
    18ce:	51 1d       	adc	r21, r1
    18d0:	4b 3f       	cpi	r20, 0xFB	; 251
    18d2:	51 05       	cpc	r21, r1
    18d4:	5c f7       	brge	.-42     	; 0x18ac <right_turn_inv+0x3c>
    18d6:	80 91 34 05 	lds	r24, 0x0534
    18da:	82 38       	cpi	r24, 0x82	; 130
    18dc:	38 f3       	brcs	.-50     	; 0x18ac <right_turn_inv+0x3c>
    18de:	12 b8       	out	0x02, r1	; 2
    18e0:	74 d9       	rcall	.-3352   	; 0xbca <stop>
    18e2:	9f ce       	rjmp	.-706    	; 0x1622 <static_reorientation_inv>
    18e4:	08 95       	ret

000018e6 <right_turn_wls_bwall>:
    18e6:	86 e9       	ldi	r24, 0x96	; 150
    18e8:	80 93 28 01 	sts	0x0128, r24
    18ec:	80 93 2a 01 	sts	0x012A, r24
    18f0:	60 d9       	rcall	.-3392   	; 0xbb2 <right>
    18f2:	2f ef       	ldi	r18, 0xFF	; 255
    18f4:	8f ef       	ldi	r24, 0xFF	; 255
    18f6:	98 e0       	ldi	r25, 0x08	; 8
    18f8:	21 50       	subi	r18, 0x01	; 1
    18fa:	80 40       	sbci	r24, 0x00	; 0
    18fc:	90 40       	sbci	r25, 0x00	; 0
    18fe:	e1 f7       	brne	.-8      	; 0x18f8 <right_turn_wls_bwall+0x12>
    1900:	00 c0       	rjmp	.+0      	; 0x1902 <right_turn_wls_bwall+0x1c>
    1902:	00 00       	nop
    1904:	84 e6       	ldi	r24, 0x64	; 100
    1906:	80 93 28 01 	sts	0x0128, r24
    190a:	80 93 2a 01 	sts	0x012A, r24
    190e:	83 e0       	ldi	r24, 0x03	; 3
    1910:	c5 d9       	rcall	.-3190   	; 0xc9c <ADC_Conversion>
    1912:	80 93 2c 05 	sts	0x052C, r24
    1916:	81 35       	cpi	r24, 0x51	; 81
    1918:	d0 f3       	brcs	.-12     	; 0x190e <right_turn_wls_bwall+0x28>
    191a:	12 b8       	out	0x02, r1	; 2
    191c:	56 d9       	rcall	.-3412   	; 0xbca <stop>
    191e:	80 91 42 04 	lds	r24, 0x0442
    1922:	80 93 28 01 	sts	0x0128, r24
    1926:	80 91 42 04 	lds	r24, 0x0442
    192a:	80 93 2a 01 	sts	0x012A, r24
    192e:	08 95       	ret

00001930 <left_turn_wls>:
    1930:	3d d9       	rcall	.-3462   	; 0xbac <forward>
    1932:	29 e9       	ldi	r18, 0x99	; 153
    1934:	89 e1       	ldi	r24, 0x19	; 25
    1936:	98 e0       	ldi	r25, 0x08	; 8
    1938:	21 50       	subi	r18, 0x01	; 1
    193a:	80 40       	sbci	r24, 0x00	; 0
    193c:	90 40       	sbci	r25, 0x00	; 0
    193e:	e1 f7       	brne	.-8      	; 0x1938 <left_turn_wls+0x8>
    1940:	00 00       	nop
    1942:	86 e9       	ldi	r24, 0x96	; 150
    1944:	80 93 28 01 	sts	0x0128, r24
    1948:	80 93 2a 01 	sts	0x012A, r24
    194c:	35 d9       	rcall	.-3478   	; 0xbb8 <left>
    194e:	2f ef       	ldi	r18, 0xFF	; 255
    1950:	8f ef       	ldi	r24, 0xFF	; 255
    1952:	91 e1       	ldi	r25, 0x11	; 17
    1954:	21 50       	subi	r18, 0x01	; 1
    1956:	80 40       	sbci	r24, 0x00	; 0
    1958:	90 40       	sbci	r25, 0x00	; 0
    195a:	e1 f7       	brne	.-8      	; 0x1954 <left_turn_wls+0x24>
    195c:	00 c0       	rjmp	.+0      	; 0x195e <left_turn_wls+0x2e>
    195e:	00 00       	nop
    1960:	8e e6       	ldi	r24, 0x6E	; 110
    1962:	80 93 28 01 	sts	0x0128, r24
    1966:	80 93 2a 01 	sts	0x012A, r24
    196a:	82 e0       	ldi	r24, 0x02	; 2
    196c:	97 d9       	rcall	.-3282   	; 0xc9c <ADC_Conversion>
    196e:	80 93 34 05 	sts	0x0534, r24
    1972:	80 35       	cpi	r24, 0x50	; 80
    1974:	d0 f3       	brcs	.-12     	; 0x196a <left_turn_wls+0x3a>
    1976:	12 b8       	out	0x02, r1	; 2
    1978:	28 d9       	rcall	.-3504   	; 0xbca <stop>
    197a:	80 91 42 04 	lds	r24, 0x0442
    197e:	80 93 28 01 	sts	0x0128, r24
    1982:	80 91 42 04 	lds	r24, 0x0442
    1986:	80 93 2a 01 	sts	0x012A, r24
    198a:	08 95       	ret

0000198c <traverse>:
    198c:	2f 92       	push	r2
    198e:	3f 92       	push	r3
    1990:	4f 92       	push	r4
    1992:	5f 92       	push	r5
    1994:	6f 92       	push	r6
    1996:	7f 92       	push	r7
    1998:	8f 92       	push	r8
    199a:	9f 92       	push	r9
    199c:	af 92       	push	r10
    199e:	bf 92       	push	r11
    19a0:	cf 92       	push	r12
    19a2:	df 92       	push	r13
    19a4:	ef 92       	push	r14
    19a6:	ff 92       	push	r15
    19a8:	0f 93       	push	r16
    19aa:	1f 93       	push	r17
    19ac:	cf 93       	push	r28
    19ae:	df 93       	push	r29
    19b0:	da 01       	movw	r26, r20
    19b2:	0d 91       	ld	r16, X+
    19b4:	1c 91       	ld	r17, X
    19b6:	98 01       	movw	r18, r16
    19b8:	21 50       	subi	r18, 0x01	; 1
    19ba:	31 09       	sbc	r19, r1
    19bc:	12 16       	cp	r1, r18
    19be:	13 06       	cpc	r1, r19
    19c0:	0c f0       	brlt	.+2      	; 0x19c4 <traverse+0x38>
    19c2:	97 c6       	rjmp	.+3374   	; 0x26f2 <__stack+0x4f3>
    19c4:	28 2e       	mov	r2, r24
    19c6:	39 2e       	mov	r3, r25
    19c8:	ee 24       	eor	r14, r14
    19ca:	e3 94       	inc	r14
    19cc:	f1 2c       	mov	r15, r1
    19ce:	cc 24       	eor	r12, r12
    19d0:	c3 94       	inc	r12
    19d2:	d1 2c       	mov	r13, r1
    19d4:	b1 2c       	mov	r11, r1
    19d6:	a1 2c       	mov	r10, r1
    19d8:	0f 2e       	mov	r0, r31
    19da:	f7 e7       	ldi	r31, 0x77	; 119
    19dc:	7f 2e       	mov	r7, r31
    19de:	f0 2d       	mov	r31, r0
    19e0:	0f 2e       	mov	r0, r31
    19e2:	f3 e7       	ldi	r31, 0x73	; 115
    19e4:	6f 2e       	mov	r6, r31
    19e6:	f0 2d       	mov	r31, r0
    19e8:	0f 2e       	mov	r0, r31
    19ea:	f5 e6       	ldi	r31, 0x65	; 101
    19ec:	5f 2e       	mov	r5, r31
    19ee:	f0 2d       	mov	r31, r0
    19f0:	0f 2e       	mov	r0, r31
    19f2:	fe e6       	ldi	r31, 0x6E	; 110
    19f4:	4f 2e       	mov	r4, r31
    19f6:	f0 2d       	mov	r31, r0
    19f8:	f1 01       	movw	r30, r2
    19fa:	80 81       	ld	r24, Z
    19fc:	91 81       	ldd	r25, Z+1	; 0x01
    19fe:	00 97       	sbiw	r24, 0x00	; 0
    1a00:	49 f4       	brne	.+18     	; 0x1a14 <traverse+0x88>
    1a02:	22 81       	ldd	r18, Z+2	; 0x02
    1a04:	33 81       	ldd	r19, Z+3	; 0x03
    1a06:	21 30       	cpi	r18, 0x01	; 1
    1a08:	31 05       	cpc	r19, r1
    1a0a:	b1 f1       	breq	.+108    	; 0x1a78 <traverse+0xec>
    1a0c:	2e 30       	cpi	r18, 0x0E	; 14
    1a0e:	31 05       	cpc	r19, r1
    1a10:	99 f4       	brne	.+38     	; 0x1a38 <traverse+0xac>
    1a12:	32 c0       	rjmp	.+100    	; 0x1a78 <traverse+0xec>
    1a14:	89 30       	cpi	r24, 0x09	; 9
    1a16:	91 05       	cpc	r25, r1
    1a18:	31 f4       	brne	.+12     	; 0x1a26 <traverse+0x9a>
    1a1a:	22 81       	ldd	r18, Z+2	; 0x02
    1a1c:	33 81       	ldd	r19, Z+3	; 0x03
    1a1e:	28 30       	cpi	r18, 0x08	; 8
    1a20:	31 05       	cpc	r19, r1
    1a22:	a1 f4       	brne	.+40     	; 0x1a4c <traverse+0xc0>
    1a24:	29 c0       	rjmp	.+82     	; 0x1a78 <traverse+0xec>
    1a26:	86 30       	cpi	r24, 0x06	; 6
    1a28:	91 05       	cpc	r25, r1
    1a2a:	31 f4       	brne	.+12     	; 0x1a38 <traverse+0xac>
    1a2c:	22 81       	ldd	r18, Z+2	; 0x02
    1a2e:	33 81       	ldd	r19, Z+3	; 0x03
    1a30:	27 30       	cpi	r18, 0x07	; 7
    1a32:	31 05       	cpc	r19, r1
    1a34:	a9 f4       	brne	.+42     	; 0x1a60 <traverse+0xd4>
    1a36:	20 c0       	rjmp	.+64     	; 0x1a78 <traverse+0xec>
    1a38:	8d 30       	cpi	r24, 0x0D	; 13
    1a3a:	91 05       	cpc	r25, r1
    1a3c:	39 f4       	brne	.+14     	; 0x1a4c <traverse+0xc0>
    1a3e:	22 81       	ldd	r18, Z+2	; 0x02
    1a40:	33 81       	ldd	r19, Z+3	; 0x03
    1a42:	2e 30       	cpi	r18, 0x0E	; 14
    1a44:	31 05       	cpc	r19, r1
    1a46:	09 f0       	breq	.+2      	; 0x1a4a <traverse+0xbe>
    1a48:	a9 c1       	rjmp	.+850    	; 0x1d9c <traverse+0x410>
    1a4a:	16 c0       	rjmp	.+44     	; 0x1a78 <traverse+0xec>
    1a4c:	82 30       	cpi	r24, 0x02	; 2
    1a4e:	91 05       	cpc	r25, r1
    1a50:	39 f4       	brne	.+14     	; 0x1a60 <traverse+0xd4>
    1a52:	22 81       	ldd	r18, Z+2	; 0x02
    1a54:	33 81       	ldd	r19, Z+3	; 0x03
    1a56:	21 30       	cpi	r18, 0x01	; 1
    1a58:	31 05       	cpc	r19, r1
    1a5a:	09 f0       	breq	.+2      	; 0x1a5e <traverse+0xd2>
    1a5c:	41 c3       	rjmp	.+1666   	; 0x20e0 <traverse+0x754>
    1a5e:	0c c0       	rjmp	.+24     	; 0x1a78 <traverse+0xec>
    1a60:	8e 30       	cpi	r24, 0x0E	; 14
    1a62:	91 05       	cpc	r25, r1
    1a64:	21 f0       	breq	.+8      	; 0x1a6e <traverse+0xe2>
    1a66:	81 30       	cpi	r24, 0x01	; 1
    1a68:	91 05       	cpc	r25, r1
    1a6a:	09 f0       	breq	.+2      	; 0x1a6e <traverse+0xe2>
    1a6c:	97 c1       	rjmp	.+814    	; 0x1d9c <traverse+0x410>
    1a6e:	22 81       	ldd	r18, Z+2	; 0x02
    1a70:	33 81       	ldd	r19, Z+3	; 0x03
    1a72:	23 2b       	or	r18, r19
    1a74:	09 f0       	breq	.+2      	; 0x1a78 <traverse+0xec>
    1a76:	92 c1       	rjmp	.+804    	; 0x1d9c <traverse+0x410>
    1a78:	4c 2d       	mov	r20, r12
    1a7a:	5d 2d       	mov	r21, r13
    1a7c:	2b 2d       	mov	r18, r11
    1a7e:	3a 2d       	mov	r19, r10
    1a80:	04 c0       	rjmp	.+8      	; 0x1a8a <traverse+0xfe>
    1a82:	2f 5f       	subi	r18, 0xFF	; 255
    1a84:	3f 4f       	sbci	r19, 0xFF	; 255
    1a86:	4f 5f       	subi	r20, 0xFF	; 255
    1a88:	5f 4f       	sbci	r21, 0xFF	; 255
    1a8a:	d9 01       	movw	r26, r18
    1a8c:	80 81       	ld	r24, Z
    1a8e:	91 81       	ldd	r25, Z+1	; 0x01
    1a90:	88 0f       	add	r24, r24
    1a92:	99 1f       	adc	r25, r25
    1a94:	88 0f       	add	r24, r24
    1a96:	99 1f       	adc	r25, r25
    1a98:	82 0f       	add	r24, r18
    1a9a:	93 1f       	adc	r25, r19
    1a9c:	88 0f       	add	r24, r24
    1a9e:	99 1f       	adc	r25, r25
    1aa0:	8a 5f       	subi	r24, 0xFA	; 250
    1aa2:	9d 4f       	sbci	r25, 0xFD	; 253
    1aa4:	ec 01       	movw	r28, r24
    1aa6:	68 81       	ld	r22, Y
    1aa8:	79 81       	ldd	r23, Y+1	; 0x01
    1aaa:	82 81       	ldd	r24, Z+2	; 0x02
    1aac:	93 81       	ldd	r25, Z+3	; 0x03
    1aae:	68 17       	cp	r22, r24
    1ab0:	79 07       	cpc	r23, r25
    1ab2:	b9 f4       	brne	.+46     	; 0x1ae2 <traverse+0x156>
    1ab4:	10 97       	sbiw	r26, 0x00	; 0
    1ab6:	19 f4       	brne	.+6      	; 0x1abe <traverse+0x132>
    1ab8:	40 92 85 04 	sts	0x0485, r4
    1abc:	e2 cf       	rjmp	.-60     	; 0x1a82 <traverse+0xf6>
    1abe:	21 30       	cpi	r18, 0x01	; 1
    1ac0:	31 05       	cpc	r19, r1
    1ac2:	19 f4       	brne	.+6      	; 0x1aca <traverse+0x13e>
    1ac4:	50 92 85 04 	sts	0x0485, r5
    1ac8:	dc cf       	rjmp	.-72     	; 0x1a82 <traverse+0xf6>
    1aca:	22 30       	cpi	r18, 0x02	; 2
    1acc:	31 05       	cpc	r19, r1
    1ace:	19 f4       	brne	.+6      	; 0x1ad6 <traverse+0x14a>
    1ad0:	60 92 85 04 	sts	0x0485, r6
    1ad4:	d6 cf       	rjmp	.-84     	; 0x1a82 <traverse+0xf6>
    1ad6:	23 30       	cpi	r18, 0x03	; 3
    1ad8:	31 05       	cpc	r19, r1
    1ada:	19 f4       	brne	.+6      	; 0x1ae2 <traverse+0x156>
    1adc:	70 92 85 04 	sts	0x0485, r7
    1ae0:	03 c0       	rjmp	.+6      	; 0x1ae8 <traverse+0x15c>
    1ae2:	44 30       	cpi	r20, 0x04	; 4
    1ae4:	51 05       	cpc	r21, r1
    1ae6:	6c f2       	brlt	.-102    	; 0x1a82 <traverse+0xf6>
    1ae8:	80 91 86 04 	lds	r24, 0x0486
    1aec:	8e 36       	cpi	r24, 0x6E	; 110
    1aee:	09 f0       	breq	.+2      	; 0x1af2 <traverse+0x166>
    1af0:	53 c0       	rjmp	.+166    	; 0x1b98 <traverse+0x20c>
    1af2:	90 91 85 04 	lds	r25, 0x0485
    1af6:	9e 36       	cpi	r25, 0x6E	; 110
    1af8:	89 f4       	brne	.+34     	; 0x1b1c <traverse+0x190>
    1afa:	6c 2d       	mov	r22, r12
    1afc:	7d 2d       	mov	r23, r13
    1afe:	82 e0       	ldi	r24, 0x02	; 2
    1b00:	90 e0       	ldi	r25, 0x00	; 0
    1b02:	36 db       	rcall	.-2452   	; 0x1170 <forward_wls>
    1b04:	80 91 85 04 	lds	r24, 0x0485
    1b08:	80 93 86 04 	sts	0x0486, r24
    1b0c:	86 ec       	ldi	r24, 0xC6	; 198
    1b0e:	0e 94 e0 00 	call	0x1c0	; 0x1c0 <lcd_wr_command>
    1b12:	80 91 86 04 	lds	r24, 0x0486
    1b16:	0e 94 16 01 	call	0x22c	; 0x22c <lcd_wr_char>
    1b1a:	e1 c5       	rjmp	.+3010   	; 0x26de <__stack+0x4df>
    1b1c:	95 36       	cpi	r25, 0x65	; 101
    1b1e:	91 f4       	brne	.+36     	; 0x1b44 <traverse+0x1b8>
    1b20:	79 de       	rcall	.-782    	; 0x1814 <right_turn_wls>
    1b22:	6c 2d       	mov	r22, r12
    1b24:	7d 2d       	mov	r23, r13
    1b26:	82 e0       	ldi	r24, 0x02	; 2
    1b28:	90 e0       	ldi	r25, 0x00	; 0
    1b2a:	22 db       	rcall	.-2492   	; 0x1170 <forward_wls>
    1b2c:	80 91 85 04 	lds	r24, 0x0485
    1b30:	80 93 86 04 	sts	0x0486, r24
    1b34:	86 ec       	ldi	r24, 0xC6	; 198
    1b36:	0e 94 e0 00 	call	0x1c0	; 0x1c0 <lcd_wr_command>
    1b3a:	80 91 86 04 	lds	r24, 0x0486
    1b3e:	0e 94 16 01 	call	0x22c	; 0x22c <lcd_wr_char>
    1b42:	cd c5       	rjmp	.+2970   	; 0x26de <__stack+0x4df>
    1b44:	93 37       	cpi	r25, 0x73	; 115
    1b46:	99 f4       	brne	.+38     	; 0x1b6e <traverse+0x1e2>
    1b48:	65 de       	rcall	.-822    	; 0x1814 <right_turn_wls>
    1b4a:	64 de       	rcall	.-824    	; 0x1814 <right_turn_wls>
    1b4c:	6c 2d       	mov	r22, r12
    1b4e:	7d 2d       	mov	r23, r13
    1b50:	82 e0       	ldi	r24, 0x02	; 2
    1b52:	90 e0       	ldi	r25, 0x00	; 0
    1b54:	0d db       	rcall	.-2534   	; 0x1170 <forward_wls>
    1b56:	80 91 85 04 	lds	r24, 0x0485
    1b5a:	80 93 86 04 	sts	0x0486, r24
    1b5e:	86 ec       	ldi	r24, 0xC6	; 198
    1b60:	0e 94 e0 00 	call	0x1c0	; 0x1c0 <lcd_wr_command>
    1b64:	80 91 86 04 	lds	r24, 0x0486
    1b68:	0e 94 16 01 	call	0x22c	; 0x22c <lcd_wr_char>
    1b6c:	b8 c5       	rjmp	.+2928   	; 0x26de <__stack+0x4df>
    1b6e:	97 37       	cpi	r25, 0x77	; 119
    1b70:	09 f0       	breq	.+2      	; 0x1b74 <traverse+0x1e8>
    1b72:	be c0       	rjmp	.+380    	; 0x1cf0 <traverse+0x364>
    1b74:	dd de       	rcall	.-582    	; 0x1930 <left_turn_wls>
    1b76:	6c 2d       	mov	r22, r12
    1b78:	7d 2d       	mov	r23, r13
    1b7a:	82 e0       	ldi	r24, 0x02	; 2
    1b7c:	90 e0       	ldi	r25, 0x00	; 0
    1b7e:	f8 da       	rcall	.-2576   	; 0x1170 <forward_wls>
    1b80:	80 91 85 04 	lds	r24, 0x0485
    1b84:	80 93 86 04 	sts	0x0486, r24
    1b88:	86 ec       	ldi	r24, 0xC6	; 198
    1b8a:	0e 94 e0 00 	call	0x1c0	; 0x1c0 <lcd_wr_command>
    1b8e:	80 91 86 04 	lds	r24, 0x0486
    1b92:	0e 94 16 01 	call	0x22c	; 0x22c <lcd_wr_char>
    1b96:	a3 c5       	rjmp	.+2886   	; 0x26de <__stack+0x4df>
    1b98:	85 36       	cpi	r24, 0x65	; 101
    1b9a:	09 f0       	breq	.+2      	; 0x1b9e <traverse+0x212>
    1b9c:	53 c0       	rjmp	.+166    	; 0x1c44 <traverse+0x2b8>
    1b9e:	80 91 85 04 	lds	r24, 0x0485
    1ba2:	85 36       	cpi	r24, 0x65	; 101
    1ba4:	89 f4       	brne	.+34     	; 0x1bc8 <traverse+0x23c>
    1ba6:	6c 2d       	mov	r22, r12
    1ba8:	7d 2d       	mov	r23, r13
    1baa:	82 e0       	ldi	r24, 0x02	; 2
    1bac:	90 e0       	ldi	r25, 0x00	; 0
    1bae:	e0 da       	rcall	.-2624   	; 0x1170 <forward_wls>
    1bb0:	80 91 85 04 	lds	r24, 0x0485
    1bb4:	80 93 86 04 	sts	0x0486, r24
    1bb8:	86 ec       	ldi	r24, 0xC6	; 198
    1bba:	0e 94 e0 00 	call	0x1c0	; 0x1c0 <lcd_wr_command>
    1bbe:	80 91 86 04 	lds	r24, 0x0486
    1bc2:	0e 94 16 01 	call	0x22c	; 0x22c <lcd_wr_char>
    1bc6:	8b c5       	rjmp	.+2838   	; 0x26de <__stack+0x4df>
    1bc8:	83 37       	cpi	r24, 0x73	; 115
    1bca:	91 f4       	brne	.+36     	; 0x1bf0 <traverse+0x264>
    1bcc:	23 de       	rcall	.-954    	; 0x1814 <right_turn_wls>
    1bce:	6c 2d       	mov	r22, r12
    1bd0:	7d 2d       	mov	r23, r13
    1bd2:	82 e0       	ldi	r24, 0x02	; 2
    1bd4:	90 e0       	ldi	r25, 0x00	; 0
    1bd6:	cc da       	rcall	.-2664   	; 0x1170 <forward_wls>
    1bd8:	80 91 85 04 	lds	r24, 0x0485
    1bdc:	80 93 86 04 	sts	0x0486, r24
    1be0:	86 ec       	ldi	r24, 0xC6	; 198
    1be2:	0e 94 e0 00 	call	0x1c0	; 0x1c0 <lcd_wr_command>
    1be6:	80 91 86 04 	lds	r24, 0x0486
    1bea:	0e 94 16 01 	call	0x22c	; 0x22c <lcd_wr_char>
    1bee:	77 c5       	rjmp	.+2798   	; 0x26de <__stack+0x4df>
    1bf0:	87 37       	cpi	r24, 0x77	; 119
    1bf2:	99 f4       	brne	.+38     	; 0x1c1a <traverse+0x28e>
    1bf4:	0f de       	rcall	.-994    	; 0x1814 <right_turn_wls>
    1bf6:	0e de       	rcall	.-996    	; 0x1814 <right_turn_wls>
    1bf8:	6c 2d       	mov	r22, r12
    1bfa:	7d 2d       	mov	r23, r13
    1bfc:	82 e0       	ldi	r24, 0x02	; 2
    1bfe:	90 e0       	ldi	r25, 0x00	; 0
    1c00:	b7 da       	rcall	.-2706   	; 0x1170 <forward_wls>
    1c02:	80 91 85 04 	lds	r24, 0x0485
    1c06:	80 93 86 04 	sts	0x0486, r24
    1c0a:	86 ec       	ldi	r24, 0xC6	; 198
    1c0c:	0e 94 e0 00 	call	0x1c0	; 0x1c0 <lcd_wr_command>
    1c10:	80 91 86 04 	lds	r24, 0x0486
    1c14:	0e 94 16 01 	call	0x22c	; 0x22c <lcd_wr_char>
    1c18:	62 c5       	rjmp	.+2756   	; 0x26de <__stack+0x4df>
    1c1a:	8e 36       	cpi	r24, 0x6E	; 110
    1c1c:	09 f0       	breq	.+2      	; 0x1c20 <traverse+0x294>
    1c1e:	5f c5       	rjmp	.+2750   	; 0x26de <__stack+0x4df>
    1c20:	87 de       	rcall	.-754    	; 0x1930 <left_turn_wls>
    1c22:	6c 2d       	mov	r22, r12
    1c24:	7d 2d       	mov	r23, r13
    1c26:	82 e0       	ldi	r24, 0x02	; 2
    1c28:	90 e0       	ldi	r25, 0x00	; 0
    1c2a:	a2 da       	rcall	.-2748   	; 0x1170 <forward_wls>
    1c2c:	80 91 85 04 	lds	r24, 0x0485
    1c30:	80 93 86 04 	sts	0x0486, r24
    1c34:	86 ec       	ldi	r24, 0xC6	; 198
    1c36:	0e 94 e0 00 	call	0x1c0	; 0x1c0 <lcd_wr_command>
    1c3a:	80 91 86 04 	lds	r24, 0x0486
    1c3e:	0e 94 16 01 	call	0x22c	; 0x22c <lcd_wr_char>
    1c42:	4d c5       	rjmp	.+2714   	; 0x26de <__stack+0x4df>
    1c44:	83 37       	cpi	r24, 0x73	; 115
    1c46:	09 f0       	breq	.+2      	; 0x1c4a <traverse+0x2be>
    1c48:	53 c0       	rjmp	.+166    	; 0x1cf0 <traverse+0x364>
    1c4a:	80 91 85 04 	lds	r24, 0x0485
    1c4e:	83 37       	cpi	r24, 0x73	; 115
    1c50:	89 f4       	brne	.+34     	; 0x1c74 <traverse+0x2e8>
    1c52:	6c 2d       	mov	r22, r12
    1c54:	7d 2d       	mov	r23, r13
    1c56:	82 e0       	ldi	r24, 0x02	; 2
    1c58:	90 e0       	ldi	r25, 0x00	; 0
    1c5a:	8a da       	rcall	.-2796   	; 0x1170 <forward_wls>
    1c5c:	80 91 85 04 	lds	r24, 0x0485
    1c60:	80 93 86 04 	sts	0x0486, r24
    1c64:	86 ec       	ldi	r24, 0xC6	; 198
    1c66:	0e 94 e0 00 	call	0x1c0	; 0x1c0 <lcd_wr_command>
    1c6a:	80 91 86 04 	lds	r24, 0x0486
    1c6e:	0e 94 16 01 	call	0x22c	; 0x22c <lcd_wr_char>
    1c72:	35 c5       	rjmp	.+2666   	; 0x26de <__stack+0x4df>
    1c74:	87 37       	cpi	r24, 0x77	; 119
    1c76:	91 f4       	brne	.+36     	; 0x1c9c <traverse+0x310>
    1c78:	cd dd       	rcall	.-1126   	; 0x1814 <right_turn_wls>
    1c7a:	6c 2d       	mov	r22, r12
    1c7c:	7d 2d       	mov	r23, r13
    1c7e:	82 e0       	ldi	r24, 0x02	; 2
    1c80:	90 e0       	ldi	r25, 0x00	; 0
    1c82:	76 da       	rcall	.-2836   	; 0x1170 <forward_wls>
    1c84:	80 91 85 04 	lds	r24, 0x0485
    1c88:	80 93 86 04 	sts	0x0486, r24
    1c8c:	86 ec       	ldi	r24, 0xC6	; 198
    1c8e:	0e 94 e0 00 	call	0x1c0	; 0x1c0 <lcd_wr_command>
    1c92:	80 91 86 04 	lds	r24, 0x0486
    1c96:	0e 94 16 01 	call	0x22c	; 0x22c <lcd_wr_char>
    1c9a:	21 c5       	rjmp	.+2626   	; 0x26de <__stack+0x4df>
    1c9c:	8e 36       	cpi	r24, 0x6E	; 110
    1c9e:	99 f4       	brne	.+38     	; 0x1cc6 <traverse+0x33a>
    1ca0:	b9 dd       	rcall	.-1166   	; 0x1814 <right_turn_wls>
    1ca2:	b8 dd       	rcall	.-1168   	; 0x1814 <right_turn_wls>
    1ca4:	6c 2d       	mov	r22, r12
    1ca6:	7d 2d       	mov	r23, r13
    1ca8:	82 e0       	ldi	r24, 0x02	; 2
    1caa:	90 e0       	ldi	r25, 0x00	; 0
    1cac:	61 da       	rcall	.-2878   	; 0x1170 <forward_wls>
    1cae:	80 91 85 04 	lds	r24, 0x0485
    1cb2:	80 93 86 04 	sts	0x0486, r24
    1cb6:	86 ec       	ldi	r24, 0xC6	; 198
    1cb8:	0e 94 e0 00 	call	0x1c0	; 0x1c0 <lcd_wr_command>
    1cbc:	80 91 86 04 	lds	r24, 0x0486
    1cc0:	0e 94 16 01 	call	0x22c	; 0x22c <lcd_wr_char>
    1cc4:	0c c5       	rjmp	.+2584   	; 0x26de <__stack+0x4df>
    1cc6:	85 36       	cpi	r24, 0x65	; 101
    1cc8:	09 f0       	breq	.+2      	; 0x1ccc <traverse+0x340>
    1cca:	09 c5       	rjmp	.+2578   	; 0x26de <__stack+0x4df>
    1ccc:	31 de       	rcall	.-926    	; 0x1930 <left_turn_wls>
    1cce:	6c 2d       	mov	r22, r12
    1cd0:	7d 2d       	mov	r23, r13
    1cd2:	82 e0       	ldi	r24, 0x02	; 2
    1cd4:	90 e0       	ldi	r25, 0x00	; 0
    1cd6:	4c da       	rcall	.-2920   	; 0x1170 <forward_wls>
    1cd8:	80 91 85 04 	lds	r24, 0x0485
    1cdc:	80 93 86 04 	sts	0x0486, r24
    1ce0:	86 ec       	ldi	r24, 0xC6	; 198
    1ce2:	0e 94 e0 00 	call	0x1c0	; 0x1c0 <lcd_wr_command>
    1ce6:	80 91 86 04 	lds	r24, 0x0486
    1cea:	0e 94 16 01 	call	0x22c	; 0x22c <lcd_wr_char>
    1cee:	f7 c4       	rjmp	.+2542   	; 0x26de <__stack+0x4df>
    1cf0:	87 37       	cpi	r24, 0x77	; 119
    1cf2:	09 f0       	breq	.+2      	; 0x1cf6 <traverse+0x36a>
    1cf4:	f4 c4       	rjmp	.+2536   	; 0x26de <__stack+0x4df>
    1cf6:	80 91 85 04 	lds	r24, 0x0485
    1cfa:	87 37       	cpi	r24, 0x77	; 119
    1cfc:	89 f4       	brne	.+34     	; 0x1d20 <traverse+0x394>
    1cfe:	6c 2d       	mov	r22, r12
    1d00:	7d 2d       	mov	r23, r13
    1d02:	82 e0       	ldi	r24, 0x02	; 2
    1d04:	90 e0       	ldi	r25, 0x00	; 0
    1d06:	34 da       	rcall	.-2968   	; 0x1170 <forward_wls>
    1d08:	80 91 85 04 	lds	r24, 0x0485
    1d0c:	80 93 86 04 	sts	0x0486, r24
    1d10:	86 ec       	ldi	r24, 0xC6	; 198
    1d12:	0e 94 e0 00 	call	0x1c0	; 0x1c0 <lcd_wr_command>
    1d16:	80 91 86 04 	lds	r24, 0x0486
    1d1a:	0e 94 16 01 	call	0x22c	; 0x22c <lcd_wr_char>
    1d1e:	df c4       	rjmp	.+2494   	; 0x26de <__stack+0x4df>
    1d20:	8e 36       	cpi	r24, 0x6E	; 110
    1d22:	91 f4       	brne	.+36     	; 0x1d48 <traverse+0x3bc>
    1d24:	77 dd       	rcall	.-1298   	; 0x1814 <right_turn_wls>
    1d26:	6c 2d       	mov	r22, r12
    1d28:	7d 2d       	mov	r23, r13
    1d2a:	82 e0       	ldi	r24, 0x02	; 2
    1d2c:	90 e0       	ldi	r25, 0x00	; 0
    1d2e:	20 da       	rcall	.-3008   	; 0x1170 <forward_wls>
    1d30:	80 91 85 04 	lds	r24, 0x0485
    1d34:	80 93 86 04 	sts	0x0486, r24
    1d38:	86 ec       	ldi	r24, 0xC6	; 198
    1d3a:	0e 94 e0 00 	call	0x1c0	; 0x1c0 <lcd_wr_command>
    1d3e:	80 91 86 04 	lds	r24, 0x0486
    1d42:	0e 94 16 01 	call	0x22c	; 0x22c <lcd_wr_char>
    1d46:	cb c4       	rjmp	.+2454   	; 0x26de <__stack+0x4df>
    1d48:	85 36       	cpi	r24, 0x65	; 101
    1d4a:	99 f4       	brne	.+38     	; 0x1d72 <traverse+0x3e6>
    1d4c:	63 dd       	rcall	.-1338   	; 0x1814 <right_turn_wls>
    1d4e:	62 dd       	rcall	.-1340   	; 0x1814 <right_turn_wls>
    1d50:	6c 2d       	mov	r22, r12
    1d52:	7d 2d       	mov	r23, r13
    1d54:	82 e0       	ldi	r24, 0x02	; 2
    1d56:	90 e0       	ldi	r25, 0x00	; 0
    1d58:	0b da       	rcall	.-3050   	; 0x1170 <forward_wls>
    1d5a:	80 91 85 04 	lds	r24, 0x0485
    1d5e:	80 93 86 04 	sts	0x0486, r24
    1d62:	86 ec       	ldi	r24, 0xC6	; 198
    1d64:	0e 94 e0 00 	call	0x1c0	; 0x1c0 <lcd_wr_command>
    1d68:	80 91 86 04 	lds	r24, 0x0486
    1d6c:	0e 94 16 01 	call	0x22c	; 0x22c <lcd_wr_char>
    1d70:	b6 c4       	rjmp	.+2412   	; 0x26de <__stack+0x4df>
    1d72:	83 37       	cpi	r24, 0x73	; 115
    1d74:	09 f0       	breq	.+2      	; 0x1d78 <traverse+0x3ec>
    1d76:	b3 c4       	rjmp	.+2406   	; 0x26de <__stack+0x4df>
    1d78:	db dd       	rcall	.-1098   	; 0x1930 <left_turn_wls>
    1d7a:	6c 2d       	mov	r22, r12
    1d7c:	7d 2d       	mov	r23, r13
    1d7e:	82 e0       	ldi	r24, 0x02	; 2
    1d80:	90 e0       	ldi	r25, 0x00	; 0
    1d82:	f6 d9       	rcall	.-3092   	; 0x1170 <forward_wls>
    1d84:	80 91 85 04 	lds	r24, 0x0485
    1d88:	80 93 86 04 	sts	0x0486, r24
    1d8c:	86 ec       	ldi	r24, 0xC6	; 198
    1d8e:	0e 94 e0 00 	call	0x1c0	; 0x1c0 <lcd_wr_command>
    1d92:	80 91 86 04 	lds	r24, 0x0486
    1d96:	0e 94 16 01 	call	0x22c	; 0x22c <lcd_wr_char>
    1d9a:	a1 c4       	rjmp	.+2370   	; 0x26de <__stack+0x4df>
    1d9c:	83 30       	cpi	r24, 0x03	; 3
    1d9e:	91 05       	cpc	r25, r1
    1da0:	39 f4       	brne	.+14     	; 0x1db0 <traverse+0x424>
    1da2:	22 81       	ldd	r18, Z+2	; 0x02
    1da4:	33 81       	ldd	r19, Z+3	; 0x03
    1da6:	2c 30       	cpi	r18, 0x0C	; 12
    1da8:	31 05       	cpc	r19, r1
    1daa:	09 f0       	breq	.+2      	; 0x1dae <traverse+0x422>
    1dac:	a2 c1       	rjmp	.+836    	; 0x20f2 <traverse+0x766>
    1dae:	09 c0       	rjmp	.+18     	; 0x1dc2 <traverse+0x436>
    1db0:	8c 30       	cpi	r24, 0x0C	; 12
    1db2:	91 05       	cpc	r25, r1
    1db4:	09 f0       	breq	.+2      	; 0x1db8 <traverse+0x42c>
    1db6:	94 c1       	rjmp	.+808    	; 0x20e0 <traverse+0x754>
    1db8:	82 81       	ldd	r24, Z+2	; 0x02
    1dba:	93 81       	ldd	r25, Z+3	; 0x03
    1dbc:	03 97       	sbiw	r24, 0x03	; 3
    1dbe:	09 f0       	breq	.+2      	; 0x1dc2 <traverse+0x436>
    1dc0:	ef c2       	rjmp	.+1502   	; 0x23a0 <__stack+0x1a1>
    1dc2:	2c 2d       	mov	r18, r12
    1dc4:	3d 2d       	mov	r19, r13
    1dc6:	8b 2d       	mov	r24, r11
    1dc8:	9a 2d       	mov	r25, r10
    1dca:	03 c0       	rjmp	.+6      	; 0x1dd2 <traverse+0x446>
    1dcc:	01 96       	adiw	r24, 0x01	; 1
    1dce:	2f 5f       	subi	r18, 0xFF	; 255
    1dd0:	3f 4f       	sbci	r19, 0xFF	; 255
    1dd2:	a0 81       	ld	r26, Z
    1dd4:	b1 81       	ldd	r27, Z+1	; 0x01
    1dd6:	aa 0f       	add	r26, r26
    1dd8:	bb 1f       	adc	r27, r27
    1dda:	aa 0f       	add	r26, r26
    1ddc:	bb 1f       	adc	r27, r27
    1dde:	a8 0f       	add	r26, r24
    1de0:	b9 1f       	adc	r27, r25
    1de2:	aa 0f       	add	r26, r26
    1de4:	bb 1f       	adc	r27, r27
    1de6:	aa 5f       	subi	r26, 0xFA	; 250
    1de8:	bd 4f       	sbci	r27, 0xFD	; 253
    1dea:	6d 91       	ld	r22, X+
    1dec:	7c 91       	ld	r23, X
    1dee:	42 81       	ldd	r20, Z+2	; 0x02
    1df0:	53 81       	ldd	r21, Z+3	; 0x03
    1df2:	64 17       	cp	r22, r20
    1df4:	75 07       	cpc	r23, r21
    1df6:	b9 f4       	brne	.+46     	; 0x1e26 <traverse+0x49a>
    1df8:	00 97       	sbiw	r24, 0x00	; 0
    1dfa:	19 f4       	brne	.+6      	; 0x1e02 <traverse+0x476>
    1dfc:	40 92 85 04 	sts	0x0485, r4
    1e00:	e5 cf       	rjmp	.-54     	; 0x1dcc <traverse+0x440>
    1e02:	81 30       	cpi	r24, 0x01	; 1
    1e04:	91 05       	cpc	r25, r1
    1e06:	19 f4       	brne	.+6      	; 0x1e0e <traverse+0x482>
    1e08:	50 92 85 04 	sts	0x0485, r5
    1e0c:	df cf       	rjmp	.-66     	; 0x1dcc <traverse+0x440>
    1e0e:	82 30       	cpi	r24, 0x02	; 2
    1e10:	91 05       	cpc	r25, r1
    1e12:	19 f4       	brne	.+6      	; 0x1e1a <traverse+0x48e>
    1e14:	60 92 85 04 	sts	0x0485, r6
    1e18:	d9 cf       	rjmp	.-78     	; 0x1dcc <traverse+0x440>
    1e1a:	83 30       	cpi	r24, 0x03	; 3
    1e1c:	91 05       	cpc	r25, r1
    1e1e:	19 f4       	brne	.+6      	; 0x1e26 <traverse+0x49a>
    1e20:	70 92 85 04 	sts	0x0485, r7
    1e24:	03 c0       	rjmp	.+6      	; 0x1e2c <traverse+0x4a0>
    1e26:	24 30       	cpi	r18, 0x04	; 4
    1e28:	31 05       	cpc	r19, r1
    1e2a:	84 f2       	brlt	.-96     	; 0x1dcc <traverse+0x440>
    1e2c:	80 91 86 04 	lds	r24, 0x0486
    1e30:	8e 36       	cpi	r24, 0x6E	; 110
    1e32:	09 f0       	breq	.+2      	; 0x1e36 <traverse+0x4aa>
    1e34:	53 c0       	rjmp	.+166    	; 0x1edc <traverse+0x550>
    1e36:	90 91 85 04 	lds	r25, 0x0485
    1e3a:	9e 36       	cpi	r25, 0x6E	; 110
    1e3c:	89 f4       	brne	.+34     	; 0x1e60 <traverse+0x4d4>
    1e3e:	6c 2d       	mov	r22, r12
    1e40:	7d 2d       	mov	r23, r13
    1e42:	8c 2d       	mov	r24, r12
    1e44:	9d 2d       	mov	r25, r13
    1e46:	94 d9       	rcall	.-3288   	; 0x1170 <forward_wls>
    1e48:	80 91 85 04 	lds	r24, 0x0485
    1e4c:	80 93 86 04 	sts	0x0486, r24
    1e50:	86 ec       	ldi	r24, 0xC6	; 198
    1e52:	0e 94 e0 00 	call	0x1c0	; 0x1c0 <lcd_wr_command>
    1e56:	80 91 86 04 	lds	r24, 0x0486
    1e5a:	0e 94 16 01 	call	0x22c	; 0x22c <lcd_wr_char>
    1e5e:	3f c4       	rjmp	.+2174   	; 0x26de <__stack+0x4df>
    1e60:	95 36       	cpi	r25, 0x65	; 101
    1e62:	91 f4       	brne	.+36     	; 0x1e88 <traverse+0x4fc>
    1e64:	d7 dc       	rcall	.-1618   	; 0x1814 <right_turn_wls>
    1e66:	6c 2d       	mov	r22, r12
    1e68:	7d 2d       	mov	r23, r13
    1e6a:	8c 2d       	mov	r24, r12
    1e6c:	9d 2d       	mov	r25, r13
    1e6e:	80 d9       	rcall	.-3328   	; 0x1170 <forward_wls>
    1e70:	80 91 85 04 	lds	r24, 0x0485
    1e74:	80 93 86 04 	sts	0x0486, r24
    1e78:	86 ec       	ldi	r24, 0xC6	; 198
    1e7a:	0e 94 e0 00 	call	0x1c0	; 0x1c0 <lcd_wr_command>
    1e7e:	80 91 86 04 	lds	r24, 0x0486
    1e82:	0e 94 16 01 	call	0x22c	; 0x22c <lcd_wr_char>
    1e86:	2b c4       	rjmp	.+2134   	; 0x26de <__stack+0x4df>
    1e88:	93 37       	cpi	r25, 0x73	; 115
    1e8a:	99 f4       	brne	.+38     	; 0x1eb2 <traverse+0x526>
    1e8c:	c3 dc       	rcall	.-1658   	; 0x1814 <right_turn_wls>
    1e8e:	c2 dc       	rcall	.-1660   	; 0x1814 <right_turn_wls>
    1e90:	6c 2d       	mov	r22, r12
    1e92:	7d 2d       	mov	r23, r13
    1e94:	8c 2d       	mov	r24, r12
    1e96:	9d 2d       	mov	r25, r13
    1e98:	6b d9       	rcall	.-3370   	; 0x1170 <forward_wls>
    1e9a:	80 91 85 04 	lds	r24, 0x0485
    1e9e:	80 93 86 04 	sts	0x0486, r24
    1ea2:	86 ec       	ldi	r24, 0xC6	; 198
    1ea4:	0e 94 e0 00 	call	0x1c0	; 0x1c0 <lcd_wr_command>
    1ea8:	80 91 86 04 	lds	r24, 0x0486
    1eac:	0e 94 16 01 	call	0x22c	; 0x22c <lcd_wr_char>
    1eb0:	16 c4       	rjmp	.+2092   	; 0x26de <__stack+0x4df>
    1eb2:	97 37       	cpi	r25, 0x77	; 119
    1eb4:	09 f0       	breq	.+2      	; 0x1eb8 <traverse+0x52c>
    1eb6:	be c0       	rjmp	.+380    	; 0x2034 <traverse+0x6a8>
    1eb8:	3b dd       	rcall	.-1418   	; 0x1930 <left_turn_wls>
    1eba:	6c 2d       	mov	r22, r12
    1ebc:	7d 2d       	mov	r23, r13
    1ebe:	8c 2d       	mov	r24, r12
    1ec0:	9d 2d       	mov	r25, r13
    1ec2:	56 d9       	rcall	.-3412   	; 0x1170 <forward_wls>
    1ec4:	80 91 85 04 	lds	r24, 0x0485
    1ec8:	80 93 86 04 	sts	0x0486, r24
    1ecc:	86 ec       	ldi	r24, 0xC6	; 198
    1ece:	0e 94 e0 00 	call	0x1c0	; 0x1c0 <lcd_wr_command>
    1ed2:	80 91 86 04 	lds	r24, 0x0486
    1ed6:	0e 94 16 01 	call	0x22c	; 0x22c <lcd_wr_char>
    1eda:	01 c4       	rjmp	.+2050   	; 0x26de <__stack+0x4df>
    1edc:	85 36       	cpi	r24, 0x65	; 101
    1ede:	09 f0       	breq	.+2      	; 0x1ee2 <traverse+0x556>
    1ee0:	53 c0       	rjmp	.+166    	; 0x1f88 <traverse+0x5fc>
    1ee2:	80 91 85 04 	lds	r24, 0x0485
    1ee6:	85 36       	cpi	r24, 0x65	; 101
    1ee8:	89 f4       	brne	.+34     	; 0x1f0c <traverse+0x580>
    1eea:	6c 2d       	mov	r22, r12
    1eec:	7d 2d       	mov	r23, r13
    1eee:	8c 2d       	mov	r24, r12
    1ef0:	9d 2d       	mov	r25, r13
    1ef2:	3e d9       	rcall	.-3460   	; 0x1170 <forward_wls>
    1ef4:	80 91 85 04 	lds	r24, 0x0485
    1ef8:	80 93 86 04 	sts	0x0486, r24
    1efc:	86 ec       	ldi	r24, 0xC6	; 198
    1efe:	0e 94 e0 00 	call	0x1c0	; 0x1c0 <lcd_wr_command>
    1f02:	80 91 86 04 	lds	r24, 0x0486
    1f06:	0e 94 16 01 	call	0x22c	; 0x22c <lcd_wr_char>
    1f0a:	e9 c3       	rjmp	.+2002   	; 0x26de <__stack+0x4df>
    1f0c:	83 37       	cpi	r24, 0x73	; 115
    1f0e:	91 f4       	brne	.+36     	; 0x1f34 <traverse+0x5a8>
    1f10:	81 dc       	rcall	.-1790   	; 0x1814 <right_turn_wls>
    1f12:	6c 2d       	mov	r22, r12
    1f14:	7d 2d       	mov	r23, r13
    1f16:	8c 2d       	mov	r24, r12
    1f18:	9d 2d       	mov	r25, r13
    1f1a:	2a d9       	rcall	.-3500   	; 0x1170 <forward_wls>
    1f1c:	80 91 85 04 	lds	r24, 0x0485
    1f20:	80 93 86 04 	sts	0x0486, r24
    1f24:	86 ec       	ldi	r24, 0xC6	; 198
    1f26:	0e 94 e0 00 	call	0x1c0	; 0x1c0 <lcd_wr_command>
    1f2a:	80 91 86 04 	lds	r24, 0x0486
    1f2e:	0e 94 16 01 	call	0x22c	; 0x22c <lcd_wr_char>
    1f32:	d5 c3       	rjmp	.+1962   	; 0x26de <__stack+0x4df>
    1f34:	87 37       	cpi	r24, 0x77	; 119
    1f36:	99 f4       	brne	.+38     	; 0x1f5e <traverse+0x5d2>
    1f38:	6d dc       	rcall	.-1830   	; 0x1814 <right_turn_wls>
    1f3a:	6c dc       	rcall	.-1832   	; 0x1814 <right_turn_wls>
    1f3c:	6c 2d       	mov	r22, r12
    1f3e:	7d 2d       	mov	r23, r13
    1f40:	8c 2d       	mov	r24, r12
    1f42:	9d 2d       	mov	r25, r13
    1f44:	15 d9       	rcall	.-3542   	; 0x1170 <forward_wls>
    1f46:	80 91 85 04 	lds	r24, 0x0485
    1f4a:	80 93 86 04 	sts	0x0486, r24
    1f4e:	86 ec       	ldi	r24, 0xC6	; 198
    1f50:	0e 94 e0 00 	call	0x1c0	; 0x1c0 <lcd_wr_command>
    1f54:	80 91 86 04 	lds	r24, 0x0486
    1f58:	0e 94 16 01 	call	0x22c	; 0x22c <lcd_wr_char>
    1f5c:	c0 c3       	rjmp	.+1920   	; 0x26de <__stack+0x4df>
    1f5e:	8e 36       	cpi	r24, 0x6E	; 110
    1f60:	09 f0       	breq	.+2      	; 0x1f64 <traverse+0x5d8>
    1f62:	bd c3       	rjmp	.+1914   	; 0x26de <__stack+0x4df>
    1f64:	e5 dc       	rcall	.-1590   	; 0x1930 <left_turn_wls>
    1f66:	6c 2d       	mov	r22, r12
    1f68:	7d 2d       	mov	r23, r13
    1f6a:	8c 2d       	mov	r24, r12
    1f6c:	9d 2d       	mov	r25, r13
    1f6e:	00 d9       	rcall	.-3584   	; 0x1170 <forward_wls>
    1f70:	80 91 85 04 	lds	r24, 0x0485
    1f74:	80 93 86 04 	sts	0x0486, r24
    1f78:	86 ec       	ldi	r24, 0xC6	; 198
    1f7a:	0e 94 e0 00 	call	0x1c0	; 0x1c0 <lcd_wr_command>
    1f7e:	80 91 86 04 	lds	r24, 0x0486
    1f82:	0e 94 16 01 	call	0x22c	; 0x22c <lcd_wr_char>
    1f86:	ab c3       	rjmp	.+1878   	; 0x26de <__stack+0x4df>
    1f88:	83 37       	cpi	r24, 0x73	; 115
    1f8a:	09 f0       	breq	.+2      	; 0x1f8e <traverse+0x602>
    1f8c:	53 c0       	rjmp	.+166    	; 0x2034 <traverse+0x6a8>
    1f8e:	80 91 85 04 	lds	r24, 0x0485
    1f92:	83 37       	cpi	r24, 0x73	; 115
    1f94:	89 f4       	brne	.+34     	; 0x1fb8 <traverse+0x62c>
    1f96:	6c 2d       	mov	r22, r12
    1f98:	7d 2d       	mov	r23, r13
    1f9a:	8c 2d       	mov	r24, r12
    1f9c:	9d 2d       	mov	r25, r13
    1f9e:	e8 d8       	rcall	.-3632   	; 0x1170 <forward_wls>
    1fa0:	80 91 85 04 	lds	r24, 0x0485
    1fa4:	80 93 86 04 	sts	0x0486, r24
    1fa8:	86 ec       	ldi	r24, 0xC6	; 198
    1faa:	0e 94 e0 00 	call	0x1c0	; 0x1c0 <lcd_wr_command>
    1fae:	80 91 86 04 	lds	r24, 0x0486
    1fb2:	0e 94 16 01 	call	0x22c	; 0x22c <lcd_wr_char>
    1fb6:	93 c3       	rjmp	.+1830   	; 0x26de <__stack+0x4df>
    1fb8:	87 37       	cpi	r24, 0x77	; 119
    1fba:	91 f4       	brne	.+36     	; 0x1fe0 <traverse+0x654>
    1fbc:	2b dc       	rcall	.-1962   	; 0x1814 <right_turn_wls>
    1fbe:	6c 2d       	mov	r22, r12
    1fc0:	7d 2d       	mov	r23, r13
    1fc2:	8c 2d       	mov	r24, r12
    1fc4:	9d 2d       	mov	r25, r13
    1fc6:	d4 d8       	rcall	.-3672   	; 0x1170 <forward_wls>
    1fc8:	80 91 85 04 	lds	r24, 0x0485
    1fcc:	80 93 86 04 	sts	0x0486, r24
    1fd0:	86 ec       	ldi	r24, 0xC6	; 198
    1fd2:	0e 94 e0 00 	call	0x1c0	; 0x1c0 <lcd_wr_command>
    1fd6:	80 91 86 04 	lds	r24, 0x0486
    1fda:	0e 94 16 01 	call	0x22c	; 0x22c <lcd_wr_char>
    1fde:	7f c3       	rjmp	.+1790   	; 0x26de <__stack+0x4df>
    1fe0:	8e 36       	cpi	r24, 0x6E	; 110
    1fe2:	99 f4       	brne	.+38     	; 0x200a <traverse+0x67e>
    1fe4:	17 dc       	rcall	.-2002   	; 0x1814 <right_turn_wls>
    1fe6:	16 dc       	rcall	.-2004   	; 0x1814 <right_turn_wls>
    1fe8:	6c 2d       	mov	r22, r12
    1fea:	7d 2d       	mov	r23, r13
    1fec:	8c 2d       	mov	r24, r12
    1fee:	9d 2d       	mov	r25, r13
    1ff0:	bf d8       	rcall	.-3714   	; 0x1170 <forward_wls>
    1ff2:	80 91 85 04 	lds	r24, 0x0485
    1ff6:	80 93 86 04 	sts	0x0486, r24
    1ffa:	86 ec       	ldi	r24, 0xC6	; 198
    1ffc:	0e 94 e0 00 	call	0x1c0	; 0x1c0 <lcd_wr_command>
    2000:	80 91 86 04 	lds	r24, 0x0486
    2004:	0e 94 16 01 	call	0x22c	; 0x22c <lcd_wr_char>
    2008:	6a c3       	rjmp	.+1748   	; 0x26de <__stack+0x4df>
    200a:	85 36       	cpi	r24, 0x65	; 101
    200c:	09 f0       	breq	.+2      	; 0x2010 <traverse+0x684>
    200e:	67 c3       	rjmp	.+1742   	; 0x26de <__stack+0x4df>
    2010:	8f dc       	rcall	.-1762   	; 0x1930 <left_turn_wls>
    2012:	6c 2d       	mov	r22, r12
    2014:	7d 2d       	mov	r23, r13
    2016:	8c 2d       	mov	r24, r12
    2018:	9d 2d       	mov	r25, r13
    201a:	aa d8       	rcall	.-3756   	; 0x1170 <forward_wls>
    201c:	80 91 85 04 	lds	r24, 0x0485
    2020:	80 93 86 04 	sts	0x0486, r24
    2024:	86 ec       	ldi	r24, 0xC6	; 198
    2026:	0e 94 e0 00 	call	0x1c0	; 0x1c0 <lcd_wr_command>
    202a:	80 91 86 04 	lds	r24, 0x0486
    202e:	0e 94 16 01 	call	0x22c	; 0x22c <lcd_wr_char>
    2032:	55 c3       	rjmp	.+1706   	; 0x26de <__stack+0x4df>
    2034:	87 37       	cpi	r24, 0x77	; 119
    2036:	09 f0       	breq	.+2      	; 0x203a <traverse+0x6ae>
    2038:	52 c3       	rjmp	.+1700   	; 0x26de <__stack+0x4df>
    203a:	80 91 85 04 	lds	r24, 0x0485
    203e:	87 37       	cpi	r24, 0x77	; 119
    2040:	89 f4       	brne	.+34     	; 0x2064 <traverse+0x6d8>
    2042:	6c 2d       	mov	r22, r12
    2044:	7d 2d       	mov	r23, r13
    2046:	8c 2d       	mov	r24, r12
    2048:	9d 2d       	mov	r25, r13
    204a:	92 d8       	rcall	.-3804   	; 0x1170 <forward_wls>
    204c:	80 91 85 04 	lds	r24, 0x0485
    2050:	80 93 86 04 	sts	0x0486, r24
    2054:	86 ec       	ldi	r24, 0xC6	; 198
    2056:	0e 94 e0 00 	call	0x1c0	; 0x1c0 <lcd_wr_command>
    205a:	80 91 86 04 	lds	r24, 0x0486
    205e:	0e 94 16 01 	call	0x22c	; 0x22c <lcd_wr_char>
    2062:	3d c3       	rjmp	.+1658   	; 0x26de <__stack+0x4df>
    2064:	8e 36       	cpi	r24, 0x6E	; 110
    2066:	91 f4       	brne	.+36     	; 0x208c <traverse+0x700>
    2068:	d5 db       	rcall	.-2134   	; 0x1814 <right_turn_wls>
    206a:	6c 2d       	mov	r22, r12
    206c:	7d 2d       	mov	r23, r13
    206e:	8c 2d       	mov	r24, r12
    2070:	9d 2d       	mov	r25, r13
    2072:	7e d8       	rcall	.-3844   	; 0x1170 <forward_wls>
    2074:	80 91 85 04 	lds	r24, 0x0485
    2078:	80 93 86 04 	sts	0x0486, r24
    207c:	86 ec       	ldi	r24, 0xC6	; 198
    207e:	0e 94 e0 00 	call	0x1c0	; 0x1c0 <lcd_wr_command>
    2082:	80 91 86 04 	lds	r24, 0x0486
    2086:	0e 94 16 01 	call	0x22c	; 0x22c <lcd_wr_char>
    208a:	29 c3       	rjmp	.+1618   	; 0x26de <__stack+0x4df>
    208c:	85 36       	cpi	r24, 0x65	; 101
    208e:	99 f4       	brne	.+38     	; 0x20b6 <traverse+0x72a>
    2090:	c1 db       	rcall	.-2174   	; 0x1814 <right_turn_wls>
    2092:	c0 db       	rcall	.-2176   	; 0x1814 <right_turn_wls>
    2094:	6c 2d       	mov	r22, r12
    2096:	7d 2d       	mov	r23, r13
    2098:	8c 2d       	mov	r24, r12
    209a:	9d 2d       	mov	r25, r13
    209c:	69 d8       	rcall	.-3886   	; 0x1170 <forward_wls>
    209e:	80 91 85 04 	lds	r24, 0x0485
    20a2:	80 93 86 04 	sts	0x0486, r24
    20a6:	86 ec       	ldi	r24, 0xC6	; 198
    20a8:	0e 94 e0 00 	call	0x1c0	; 0x1c0 <lcd_wr_command>
    20ac:	80 91 86 04 	lds	r24, 0x0486
    20b0:	0e 94 16 01 	call	0x22c	; 0x22c <lcd_wr_char>
    20b4:	14 c3       	rjmp	.+1576   	; 0x26de <__stack+0x4df>
    20b6:	83 37       	cpi	r24, 0x73	; 115
    20b8:	09 f0       	breq	.+2      	; 0x20bc <traverse+0x730>
    20ba:	11 c3       	rjmp	.+1570   	; 0x26de <__stack+0x4df>
    20bc:	39 dc       	rcall	.-1934   	; 0x1930 <left_turn_wls>
    20be:	6c 2d       	mov	r22, r12
    20c0:	7d 2d       	mov	r23, r13
    20c2:	8c 2d       	mov	r24, r12
    20c4:	9d 2d       	mov	r25, r13
    20c6:	54 d8       	rcall	.-3928   	; 0x1170 <forward_wls>
    20c8:	80 91 85 04 	lds	r24, 0x0485
    20cc:	80 93 86 04 	sts	0x0486, r24
    20d0:	86 ec       	ldi	r24, 0xC6	; 198
    20d2:	0e 94 e0 00 	call	0x1c0	; 0x1c0 <lcd_wr_command>
    20d6:	80 91 86 04 	lds	r24, 0x0486
    20da:	0e 94 16 01 	call	0x22c	; 0x22c <lcd_wr_char>
    20de:	ff c2       	rjmp	.+1534   	; 0x26de <__stack+0x4df>
    20e0:	8a 30       	cpi	r24, 0x0A	; 10
    20e2:	91 05       	cpc	r25, r1
    20e4:	31 f4       	brne	.+12     	; 0x20f2 <traverse+0x766>
    20e6:	82 81       	ldd	r24, Z+2	; 0x02
    20e8:	93 81       	ldd	r25, Z+3	; 0x03
    20ea:	05 97       	sbiw	r24, 0x05	; 5
    20ec:	09 f0       	breq	.+2      	; 0x20f0 <traverse+0x764>
    20ee:	58 c1       	rjmp	.+688    	; 0x23a0 <__stack+0x1a1>
    20f0:	08 c0       	rjmp	.+16     	; 0x2102 <traverse+0x776>
    20f2:	05 97       	sbiw	r24, 0x05	; 5
    20f4:	09 f0       	breq	.+2      	; 0x20f8 <traverse+0x76c>
    20f6:	54 c1       	rjmp	.+680    	; 0x23a0 <__stack+0x1a1>
    20f8:	82 81       	ldd	r24, Z+2	; 0x02
    20fa:	93 81       	ldd	r25, Z+3	; 0x03
    20fc:	0a 97       	sbiw	r24, 0x0a	; 10
    20fe:	09 f0       	breq	.+2      	; 0x2102 <traverse+0x776>
    2100:	4f c1       	rjmp	.+670    	; 0x23a0 <__stack+0x1a1>
    2102:	6c 2d       	mov	r22, r12
    2104:	7d 2d       	mov	r23, r13
    2106:	8b 2d       	mov	r24, r11
    2108:	9a 2d       	mov	r25, r10
    210a:	03 c0       	rjmp	.+6      	; 0x2112 <traverse+0x786>
    210c:	01 96       	adiw	r24, 0x01	; 1
    210e:	6f 5f       	subi	r22, 0xFF	; 255
    2110:	7f 4f       	sbci	r23, 0xFF	; 255
    2112:	a0 81       	ld	r26, Z
    2114:	b1 81       	ldd	r27, Z+1	; 0x01
    2116:	aa 0f       	add	r26, r26
    2118:	bb 1f       	adc	r27, r27
    211a:	aa 0f       	add	r26, r26
    211c:	bb 1f       	adc	r27, r27
    211e:	a8 0f       	add	r26, r24
    2120:	b9 1f       	adc	r27, r25
    2122:	aa 0f       	add	r26, r26
    2124:	bb 1f       	adc	r27, r27
    2126:	aa 5f       	subi	r26, 0xFA	; 250
    2128:	bd 4f       	sbci	r27, 0xFD	; 253
    212a:	4d 91       	ld	r20, X+
    212c:	5c 91       	ld	r21, X
    212e:	22 81       	ldd	r18, Z+2	; 0x02
    2130:	33 81       	ldd	r19, Z+3	; 0x03
    2132:	42 17       	cp	r20, r18
    2134:	53 07       	cpc	r21, r19
    2136:	b9 f4       	brne	.+46     	; 0x2166 <traverse+0x7da>
    2138:	00 97       	sbiw	r24, 0x00	; 0
    213a:	19 f4       	brne	.+6      	; 0x2142 <traverse+0x7b6>
    213c:	40 92 85 04 	sts	0x0485, r4
    2140:	e5 cf       	rjmp	.-54     	; 0x210c <traverse+0x780>
    2142:	81 30       	cpi	r24, 0x01	; 1
    2144:	91 05       	cpc	r25, r1
    2146:	19 f4       	brne	.+6      	; 0x214e <traverse+0x7c2>
    2148:	50 92 85 04 	sts	0x0485, r5
    214c:	df cf       	rjmp	.-66     	; 0x210c <traverse+0x780>
    214e:	82 30       	cpi	r24, 0x02	; 2
    2150:	91 05       	cpc	r25, r1
    2152:	19 f4       	brne	.+6      	; 0x215a <traverse+0x7ce>
    2154:	60 92 85 04 	sts	0x0485, r6
    2158:	d9 cf       	rjmp	.-78     	; 0x210c <traverse+0x780>
    215a:	83 30       	cpi	r24, 0x03	; 3
    215c:	91 05       	cpc	r25, r1
    215e:	19 f4       	brne	.+6      	; 0x2166 <traverse+0x7da>
    2160:	70 92 85 04 	sts	0x0485, r7
    2164:	03 c0       	rjmp	.+6      	; 0x216c <traverse+0x7e0>
    2166:	64 30       	cpi	r22, 0x04	; 4
    2168:	71 05       	cpc	r23, r1
    216a:	84 f2       	brlt	.-96     	; 0x210c <traverse+0x780>
    216c:	80 91 86 04 	lds	r24, 0x0486
    2170:	8e 36       	cpi	r24, 0x6E	; 110
    2172:	09 f0       	breq	.+2      	; 0x2176 <traverse+0x7ea>
    2174:	43 c0       	rjmp	.+134    	; 0x21fc <traverse+0x870>
    2176:	90 91 85 04 	lds	r25, 0x0485
    217a:	9e 36       	cpi	r25, 0x6E	; 110
    217c:	69 f4       	brne	.+26     	; 0x2198 <traverse+0x80c>
    217e:	a8 da       	rcall	.-2736   	; 0x16d0 <forward_zigzag>
    2180:	80 91 85 04 	lds	r24, 0x0485
    2184:	80 93 86 04 	sts	0x0486, r24
    2188:	86 ec       	ldi	r24, 0xC6	; 198
    218a:	0e 94 e0 00 	call	0x1c0	; 0x1c0 <lcd_wr_command>
    218e:	80 91 86 04 	lds	r24, 0x0486
    2192:	0e 94 16 01 	call	0x22c	; 0x22c <lcd_wr_char>
    2196:	a3 c2       	rjmp	.+1350   	; 0x26de <__stack+0x4df>
    2198:	95 36       	cpi	r25, 0x65	; 101
    219a:	71 f4       	brne	.+28     	; 0x21b8 <traverse+0x82c>
    219c:	3b db       	rcall	.-2442   	; 0x1814 <right_turn_wls>
    219e:	98 da       	rcall	.-2768   	; 0x16d0 <forward_zigzag>
    21a0:	80 91 85 04 	lds	r24, 0x0485
    21a4:	80 93 86 04 	sts	0x0486, r24
    21a8:	86 ec       	ldi	r24, 0xC6	; 198
    21aa:	0e 94 e0 00 	call	0x1c0	; 0x1c0 <lcd_wr_command>
    21ae:	80 91 86 04 	lds	r24, 0x0486
    21b2:	0e 94 16 01 	call	0x22c	; 0x22c <lcd_wr_char>
    21b6:	93 c2       	rjmp	.+1318   	; 0x26de <__stack+0x4df>
    21b8:	93 37       	cpi	r25, 0x73	; 115
    21ba:	79 f4       	brne	.+30     	; 0x21da <traverse+0x84e>
    21bc:	2b db       	rcall	.-2474   	; 0x1814 <right_turn_wls>
    21be:	2a db       	rcall	.-2476   	; 0x1814 <right_turn_wls>
    21c0:	87 da       	rcall	.-2802   	; 0x16d0 <forward_zigzag>
    21c2:	80 91 85 04 	lds	r24, 0x0485
    21c6:	80 93 86 04 	sts	0x0486, r24
    21ca:	86 ec       	ldi	r24, 0xC6	; 198
    21cc:	0e 94 e0 00 	call	0x1c0	; 0x1c0 <lcd_wr_command>
    21d0:	80 91 86 04 	lds	r24, 0x0486
    21d4:	0e 94 16 01 	call	0x22c	; 0x22c <lcd_wr_char>
    21d8:	82 c2       	rjmp	.+1284   	; 0x26de <__stack+0x4df>
    21da:	97 37       	cpi	r25, 0x77	; 119
    21dc:	09 f0       	breq	.+2      	; 0x21e0 <traverse+0x854>
    21de:	9a c0       	rjmp	.+308    	; 0x2314 <__stack+0x115>
    21e0:	a7 db       	rcall	.-2226   	; 0x1930 <left_turn_wls>
    21e2:	76 da       	rcall	.-2836   	; 0x16d0 <forward_zigzag>
    21e4:	80 91 85 04 	lds	r24, 0x0485
    21e8:	80 93 86 04 	sts	0x0486, r24
    21ec:	86 ec       	ldi	r24, 0xC6	; 198
    21ee:	0e 94 e0 00 	call	0x1c0	; 0x1c0 <lcd_wr_command>
    21f2:	80 91 86 04 	lds	r24, 0x0486
    21f6:	0e 94 16 01 	call	0x22c	; 0x22c <lcd_wr_char>
    21fa:	71 c2       	rjmp	.+1250   	; 0x26de <__stack+0x4df>
    21fc:	85 36       	cpi	r24, 0x65	; 101
    21fe:	09 f0       	breq	.+2      	; 0x2202 <__stack+0x3>
    2200:	43 c0       	rjmp	.+134    	; 0x2288 <__stack+0x89>
    2202:	80 91 85 04 	lds	r24, 0x0485
    2206:	85 36       	cpi	r24, 0x65	; 101
    2208:	69 f4       	brne	.+26     	; 0x2224 <__stack+0x25>
    220a:	62 da       	rcall	.-2876   	; 0x16d0 <forward_zigzag>
    220c:	80 91 85 04 	lds	r24, 0x0485
    2210:	80 93 86 04 	sts	0x0486, r24
    2214:	86 ec       	ldi	r24, 0xC6	; 198
    2216:	0e 94 e0 00 	call	0x1c0	; 0x1c0 <lcd_wr_command>
    221a:	80 91 86 04 	lds	r24, 0x0486
    221e:	0e 94 16 01 	call	0x22c	; 0x22c <lcd_wr_char>
    2222:	5d c2       	rjmp	.+1210   	; 0x26de <__stack+0x4df>
    2224:	83 37       	cpi	r24, 0x73	; 115
    2226:	71 f4       	brne	.+28     	; 0x2244 <__stack+0x45>
    2228:	f5 da       	rcall	.-2582   	; 0x1814 <right_turn_wls>
    222a:	52 da       	rcall	.-2908   	; 0x16d0 <forward_zigzag>
    222c:	80 91 85 04 	lds	r24, 0x0485
    2230:	80 93 86 04 	sts	0x0486, r24
    2234:	86 ec       	ldi	r24, 0xC6	; 198
    2236:	0e 94 e0 00 	call	0x1c0	; 0x1c0 <lcd_wr_command>
    223a:	80 91 86 04 	lds	r24, 0x0486
    223e:	0e 94 16 01 	call	0x22c	; 0x22c <lcd_wr_char>
    2242:	4d c2       	rjmp	.+1178   	; 0x26de <__stack+0x4df>
    2244:	87 37       	cpi	r24, 0x77	; 119
    2246:	79 f4       	brne	.+30     	; 0x2266 <__stack+0x67>
    2248:	e5 da       	rcall	.-2614   	; 0x1814 <right_turn_wls>
    224a:	e4 da       	rcall	.-2616   	; 0x1814 <right_turn_wls>
    224c:	41 da       	rcall	.-2942   	; 0x16d0 <forward_zigzag>
    224e:	80 91 85 04 	lds	r24, 0x0485
    2252:	80 93 86 04 	sts	0x0486, r24
    2256:	86 ec       	ldi	r24, 0xC6	; 198
    2258:	0e 94 e0 00 	call	0x1c0	; 0x1c0 <lcd_wr_command>
    225c:	80 91 86 04 	lds	r24, 0x0486
    2260:	0e 94 16 01 	call	0x22c	; 0x22c <lcd_wr_char>
    2264:	3c c2       	rjmp	.+1144   	; 0x26de <__stack+0x4df>
    2266:	8e 36       	cpi	r24, 0x6E	; 110
    2268:	09 f0       	breq	.+2      	; 0x226c <__stack+0x6d>
    226a:	39 c2       	rjmp	.+1138   	; 0x26de <__stack+0x4df>
    226c:	61 db       	rcall	.-2366   	; 0x1930 <left_turn_wls>
    226e:	30 da       	rcall	.-2976   	; 0x16d0 <forward_zigzag>
    2270:	80 91 85 04 	lds	r24, 0x0485
    2274:	80 93 86 04 	sts	0x0486, r24
    2278:	86 ec       	ldi	r24, 0xC6	; 198
    227a:	0e 94 e0 00 	call	0x1c0	; 0x1c0 <lcd_wr_command>
    227e:	80 91 86 04 	lds	r24, 0x0486
    2282:	0e 94 16 01 	call	0x22c	; 0x22c <lcd_wr_char>
    2286:	2b c2       	rjmp	.+1110   	; 0x26de <__stack+0x4df>
    2288:	83 37       	cpi	r24, 0x73	; 115
    228a:	09 f0       	breq	.+2      	; 0x228e <__stack+0x8f>
    228c:	43 c0       	rjmp	.+134    	; 0x2314 <__stack+0x115>
    228e:	80 91 85 04 	lds	r24, 0x0485
    2292:	83 37       	cpi	r24, 0x73	; 115
    2294:	69 f4       	brne	.+26     	; 0x22b0 <__stack+0xb1>
    2296:	1c da       	rcall	.-3016   	; 0x16d0 <forward_zigzag>
    2298:	80 91 85 04 	lds	r24, 0x0485
    229c:	80 93 86 04 	sts	0x0486, r24
    22a0:	86 ec       	ldi	r24, 0xC6	; 198
    22a2:	0e 94 e0 00 	call	0x1c0	; 0x1c0 <lcd_wr_command>
    22a6:	80 91 86 04 	lds	r24, 0x0486
    22aa:	0e 94 16 01 	call	0x22c	; 0x22c <lcd_wr_char>
    22ae:	17 c2       	rjmp	.+1070   	; 0x26de <__stack+0x4df>
    22b0:	87 37       	cpi	r24, 0x77	; 119
    22b2:	71 f4       	brne	.+28     	; 0x22d0 <__stack+0xd1>
    22b4:	af da       	rcall	.-2722   	; 0x1814 <right_turn_wls>
    22b6:	0c da       	rcall	.-3048   	; 0x16d0 <forward_zigzag>
    22b8:	80 91 85 04 	lds	r24, 0x0485
    22bc:	80 93 86 04 	sts	0x0486, r24
    22c0:	86 ec       	ldi	r24, 0xC6	; 198
    22c2:	0e 94 e0 00 	call	0x1c0	; 0x1c0 <lcd_wr_command>
    22c6:	80 91 86 04 	lds	r24, 0x0486
    22ca:	0e 94 16 01 	call	0x22c	; 0x22c <lcd_wr_char>
    22ce:	07 c2       	rjmp	.+1038   	; 0x26de <__stack+0x4df>
    22d0:	8e 36       	cpi	r24, 0x6E	; 110
    22d2:	79 f4       	brne	.+30     	; 0x22f2 <__stack+0xf3>
    22d4:	9f da       	rcall	.-2754   	; 0x1814 <right_turn_wls>
    22d6:	9e da       	rcall	.-2756   	; 0x1814 <right_turn_wls>
    22d8:	fb d9       	rcall	.-3082   	; 0x16d0 <forward_zigzag>
    22da:	80 91 85 04 	lds	r24, 0x0485
    22de:	80 93 86 04 	sts	0x0486, r24
    22e2:	86 ec       	ldi	r24, 0xC6	; 198
    22e4:	0e 94 e0 00 	call	0x1c0	; 0x1c0 <lcd_wr_command>
    22e8:	80 91 86 04 	lds	r24, 0x0486
    22ec:	0e 94 16 01 	call	0x22c	; 0x22c <lcd_wr_char>
    22f0:	f6 c1       	rjmp	.+1004   	; 0x26de <__stack+0x4df>
    22f2:	85 36       	cpi	r24, 0x65	; 101
    22f4:	09 f0       	breq	.+2      	; 0x22f8 <__stack+0xf9>
    22f6:	f3 c1       	rjmp	.+998    	; 0x26de <__stack+0x4df>
    22f8:	1b db       	rcall	.-2506   	; 0x1930 <left_turn_wls>
    22fa:	ea d9       	rcall	.-3116   	; 0x16d0 <forward_zigzag>
    22fc:	80 91 85 04 	lds	r24, 0x0485
    2300:	80 93 86 04 	sts	0x0486, r24
    2304:	86 ec       	ldi	r24, 0xC6	; 198
    2306:	0e 94 e0 00 	call	0x1c0	; 0x1c0 <lcd_wr_command>
    230a:	80 91 86 04 	lds	r24, 0x0486
    230e:	0e 94 16 01 	call	0x22c	; 0x22c <lcd_wr_char>
    2312:	e5 c1       	rjmp	.+970    	; 0x26de <__stack+0x4df>
    2314:	87 37       	cpi	r24, 0x77	; 119
    2316:	09 f0       	breq	.+2      	; 0x231a <__stack+0x11b>
    2318:	e2 c1       	rjmp	.+964    	; 0x26de <__stack+0x4df>
    231a:	80 91 85 04 	lds	r24, 0x0485
    231e:	87 37       	cpi	r24, 0x77	; 119
    2320:	69 f4       	brne	.+26     	; 0x233c <__stack+0x13d>
    2322:	d6 d9       	rcall	.-3156   	; 0x16d0 <forward_zigzag>
    2324:	80 91 85 04 	lds	r24, 0x0485
    2328:	80 93 86 04 	sts	0x0486, r24
    232c:	86 ec       	ldi	r24, 0xC6	; 198
    232e:	0e 94 e0 00 	call	0x1c0	; 0x1c0 <lcd_wr_command>
    2332:	80 91 86 04 	lds	r24, 0x0486
    2336:	0e 94 16 01 	call	0x22c	; 0x22c <lcd_wr_char>
    233a:	d1 c1       	rjmp	.+930    	; 0x26de <__stack+0x4df>
    233c:	8e 36       	cpi	r24, 0x6E	; 110
    233e:	71 f4       	brne	.+28     	; 0x235c <__stack+0x15d>
    2340:	69 da       	rcall	.-2862   	; 0x1814 <right_turn_wls>
    2342:	c6 d9       	rcall	.-3188   	; 0x16d0 <forward_zigzag>
    2344:	80 91 85 04 	lds	r24, 0x0485
    2348:	80 93 86 04 	sts	0x0486, r24
    234c:	86 ec       	ldi	r24, 0xC6	; 198
    234e:	0e 94 e0 00 	call	0x1c0	; 0x1c0 <lcd_wr_command>
    2352:	80 91 86 04 	lds	r24, 0x0486
    2356:	0e 94 16 01 	call	0x22c	; 0x22c <lcd_wr_char>
    235a:	c1 c1       	rjmp	.+898    	; 0x26de <__stack+0x4df>
    235c:	85 36       	cpi	r24, 0x65	; 101
    235e:	79 f4       	brne	.+30     	; 0x237e <__stack+0x17f>
    2360:	59 da       	rcall	.-2894   	; 0x1814 <right_turn_wls>
    2362:	58 da       	rcall	.-2896   	; 0x1814 <right_turn_wls>
    2364:	b5 d9       	rcall	.-3222   	; 0x16d0 <forward_zigzag>
    2366:	80 91 85 04 	lds	r24, 0x0485
    236a:	80 93 86 04 	sts	0x0486, r24
    236e:	86 ec       	ldi	r24, 0xC6	; 198
    2370:	0e 94 e0 00 	call	0x1c0	; 0x1c0 <lcd_wr_command>
    2374:	80 91 86 04 	lds	r24, 0x0486
    2378:	0e 94 16 01 	call	0x22c	; 0x22c <lcd_wr_char>
    237c:	b0 c1       	rjmp	.+864    	; 0x26de <__stack+0x4df>
    237e:	83 37       	cpi	r24, 0x73	; 115
    2380:	09 f0       	breq	.+2      	; 0x2384 <__stack+0x185>
    2382:	ad c1       	rjmp	.+858    	; 0x26de <__stack+0x4df>
    2384:	d5 da       	rcall	.-2646   	; 0x1930 <left_turn_wls>
    2386:	a4 d9       	rcall	.-3256   	; 0x16d0 <forward_zigzag>
    2388:	80 91 85 04 	lds	r24, 0x0485
    238c:	80 93 86 04 	sts	0x0486, r24
    2390:	86 ec       	ldi	r24, 0xC6	; 198
    2392:	0e 94 e0 00 	call	0x1c0	; 0x1c0 <lcd_wr_command>
    2396:	80 91 86 04 	lds	r24, 0x0486
    239a:	0e 94 16 01 	call	0x22c	; 0x22c <lcd_wr_char>
    239e:	9f c1       	rjmp	.+830    	; 0x26de <__stack+0x4df>
    23a0:	8c 2d       	mov	r24, r12
    23a2:	9d 2d       	mov	r25, r13
    23a4:	2b 2d       	mov	r18, r11
    23a6:	3a 2d       	mov	r19, r10
    23a8:	03 c0       	rjmp	.+6      	; 0x23b0 <__stack+0x1b1>
    23aa:	2f 5f       	subi	r18, 0xFF	; 255
    23ac:	3f 4f       	sbci	r19, 0xFF	; 255
    23ae:	01 96       	adiw	r24, 0x01	; 1
    23b0:	a0 81       	ld	r26, Z
    23b2:	b1 81       	ldd	r27, Z+1	; 0x01
    23b4:	aa 0f       	add	r26, r26
    23b6:	bb 1f       	adc	r27, r27
    23b8:	aa 0f       	add	r26, r26
    23ba:	bb 1f       	adc	r27, r27
    23bc:	a2 0f       	add	r26, r18
    23be:	b3 1f       	adc	r27, r19
    23c0:	aa 0f       	add	r26, r26
    23c2:	bb 1f       	adc	r27, r27
    23c4:	aa 5f       	subi	r26, 0xFA	; 250
    23c6:	bd 4f       	sbci	r27, 0xFD	; 253
    23c8:	0d 90       	ld	r0, X+
    23ca:	bc 91       	ld	r27, X
    23cc:	a0 2d       	mov	r26, r0
    23ce:	62 81       	ldd	r22, Z+2	; 0x02
    23d0:	73 81       	ldd	r23, Z+3	; 0x03
    23d2:	a6 17       	cp	r26, r22
    23d4:	b7 07       	cpc	r27, r23
    23d6:	c1 f4       	brne	.+48     	; 0x2408 <__stack+0x209>
    23d8:	21 15       	cp	r18, r1
    23da:	31 05       	cpc	r19, r1
    23dc:	19 f4       	brne	.+6      	; 0x23e4 <__stack+0x1e5>
    23de:	40 92 85 04 	sts	0x0485, r4
    23e2:	e3 cf       	rjmp	.-58     	; 0x23aa <__stack+0x1ab>
    23e4:	21 30       	cpi	r18, 0x01	; 1
    23e6:	31 05       	cpc	r19, r1
    23e8:	19 f4       	brne	.+6      	; 0x23f0 <__stack+0x1f1>
    23ea:	50 92 85 04 	sts	0x0485, r5
    23ee:	dd cf       	rjmp	.-70     	; 0x23aa <__stack+0x1ab>
    23f0:	22 30       	cpi	r18, 0x02	; 2
    23f2:	31 05       	cpc	r19, r1
    23f4:	19 f4       	brne	.+6      	; 0x23fc <__stack+0x1fd>
    23f6:	60 92 85 04 	sts	0x0485, r6
    23fa:	d7 cf       	rjmp	.-82     	; 0x23aa <__stack+0x1ab>
    23fc:	23 30       	cpi	r18, 0x03	; 3
    23fe:	31 05       	cpc	r19, r1
    2400:	19 f4       	brne	.+6      	; 0x2408 <__stack+0x209>
    2402:	70 92 85 04 	sts	0x0485, r7
    2406:	03 c0       	rjmp	.+6      	; 0x240e <__stack+0x20f>
    2408:	84 30       	cpi	r24, 0x04	; 4
    240a:	91 05       	cpc	r25, r1
    240c:	74 f2       	brlt	.-100    	; 0x23aa <__stack+0x1ab>
    240e:	80 91 86 04 	lds	r24, 0x0486
    2412:	8e 36       	cpi	r24, 0x6E	; 110
    2414:	09 f0       	breq	.+2      	; 0x2418 <__stack+0x219>
    2416:	57 c0       	rjmp	.+174    	; 0x24c6 <__stack+0x2c7>
    2418:	90 91 85 04 	lds	r25, 0x0485
    241c:	9e 36       	cpi	r25, 0x6E	; 110
    241e:	91 f4       	brne	.+36     	; 0x2444 <__stack+0x245>
    2420:	6c 2d       	mov	r22, r12
    2422:	7d 2d       	mov	r23, r13
    2424:	8b 2d       	mov	r24, r11
    2426:	9a 2d       	mov	r25, r10
    2428:	0e 94 b8 08 	call	0x1170	; 0x1170 <forward_wls>
    242c:	80 91 85 04 	lds	r24, 0x0485
    2430:	80 93 86 04 	sts	0x0486, r24
    2434:	86 ec       	ldi	r24, 0xC6	; 198
    2436:	0e 94 e0 00 	call	0x1c0	; 0x1c0 <lcd_wr_command>
    243a:	80 91 86 04 	lds	r24, 0x0486
    243e:	0e 94 16 01 	call	0x22c	; 0x22c <lcd_wr_char>
    2442:	4d c1       	rjmp	.+666    	; 0x26de <__stack+0x4df>
    2444:	95 36       	cpi	r25, 0x65	; 101
    2446:	99 f4       	brne	.+38     	; 0x246e <__stack+0x26f>
    2448:	e5 d9       	rcall	.-3126   	; 0x1814 <right_turn_wls>
    244a:	6c 2d       	mov	r22, r12
    244c:	7d 2d       	mov	r23, r13
    244e:	8b 2d       	mov	r24, r11
    2450:	9a 2d       	mov	r25, r10
    2452:	0e 94 b8 08 	call	0x1170	; 0x1170 <forward_wls>
    2456:	80 91 85 04 	lds	r24, 0x0485
    245a:	80 93 86 04 	sts	0x0486, r24
    245e:	86 ec       	ldi	r24, 0xC6	; 198
    2460:	0e 94 e0 00 	call	0x1c0	; 0x1c0 <lcd_wr_command>
    2464:	80 91 86 04 	lds	r24, 0x0486
    2468:	0e 94 16 01 	call	0x22c	; 0x22c <lcd_wr_char>
    246c:	38 c1       	rjmp	.+624    	; 0x26de <__stack+0x4df>
    246e:	93 37       	cpi	r25, 0x73	; 115
    2470:	a1 f4       	brne	.+40     	; 0x249a <__stack+0x29b>
    2472:	d0 d9       	rcall	.-3168   	; 0x1814 <right_turn_wls>
    2474:	cf d9       	rcall	.-3170   	; 0x1814 <right_turn_wls>
    2476:	6c 2d       	mov	r22, r12
    2478:	7d 2d       	mov	r23, r13
    247a:	8b 2d       	mov	r24, r11
    247c:	9a 2d       	mov	r25, r10
    247e:	0e 94 b8 08 	call	0x1170	; 0x1170 <forward_wls>
    2482:	80 91 85 04 	lds	r24, 0x0485
    2486:	80 93 86 04 	sts	0x0486, r24
    248a:	86 ec       	ldi	r24, 0xC6	; 198
    248c:	0e 94 e0 00 	call	0x1c0	; 0x1c0 <lcd_wr_command>
    2490:	80 91 86 04 	lds	r24, 0x0486
    2494:	0e 94 16 01 	call	0x22c	; 0x22c <lcd_wr_char>
    2498:	22 c1       	rjmp	.+580    	; 0x26de <__stack+0x4df>
    249a:	97 37       	cpi	r25, 0x77	; 119
    249c:	09 f0       	breq	.+2      	; 0x24a0 <__stack+0x2a1>
    249e:	c7 c0       	rjmp	.+398    	; 0x262e <__stack+0x42f>
    24a0:	47 da       	rcall	.-2930   	; 0x1930 <left_turn_wls>
    24a2:	6c 2d       	mov	r22, r12
    24a4:	7d 2d       	mov	r23, r13
    24a6:	8b 2d       	mov	r24, r11
    24a8:	9a 2d       	mov	r25, r10
    24aa:	0e 94 b8 08 	call	0x1170	; 0x1170 <forward_wls>
    24ae:	80 91 85 04 	lds	r24, 0x0485
    24b2:	80 93 86 04 	sts	0x0486, r24
    24b6:	86 ec       	ldi	r24, 0xC6	; 198
    24b8:	0e 94 e0 00 	call	0x1c0	; 0x1c0 <lcd_wr_command>
    24bc:	80 91 86 04 	lds	r24, 0x0486
    24c0:	0e 94 16 01 	call	0x22c	; 0x22c <lcd_wr_char>
    24c4:	0c c1       	rjmp	.+536    	; 0x26de <__stack+0x4df>
    24c6:	85 36       	cpi	r24, 0x65	; 101
    24c8:	09 f0       	breq	.+2      	; 0x24cc <__stack+0x2cd>
    24ca:	57 c0       	rjmp	.+174    	; 0x257a <__stack+0x37b>
    24cc:	80 91 85 04 	lds	r24, 0x0485
    24d0:	85 36       	cpi	r24, 0x65	; 101
    24d2:	91 f4       	brne	.+36     	; 0x24f8 <__stack+0x2f9>
    24d4:	6c 2d       	mov	r22, r12
    24d6:	7d 2d       	mov	r23, r13
    24d8:	8b 2d       	mov	r24, r11
    24da:	9a 2d       	mov	r25, r10
    24dc:	0e 94 b8 08 	call	0x1170	; 0x1170 <forward_wls>
    24e0:	80 91 85 04 	lds	r24, 0x0485
    24e4:	80 93 86 04 	sts	0x0486, r24
    24e8:	86 ec       	ldi	r24, 0xC6	; 198
    24ea:	0e 94 e0 00 	call	0x1c0	; 0x1c0 <lcd_wr_command>
    24ee:	80 91 86 04 	lds	r24, 0x0486
    24f2:	0e 94 16 01 	call	0x22c	; 0x22c <lcd_wr_char>
    24f6:	f3 c0       	rjmp	.+486    	; 0x26de <__stack+0x4df>
    24f8:	83 37       	cpi	r24, 0x73	; 115
    24fa:	99 f4       	brne	.+38     	; 0x2522 <__stack+0x323>
    24fc:	8b d9       	rcall	.-3306   	; 0x1814 <right_turn_wls>
    24fe:	6c 2d       	mov	r22, r12
    2500:	7d 2d       	mov	r23, r13
    2502:	8b 2d       	mov	r24, r11
    2504:	9a 2d       	mov	r25, r10
    2506:	0e 94 b8 08 	call	0x1170	; 0x1170 <forward_wls>
    250a:	80 91 85 04 	lds	r24, 0x0485
    250e:	80 93 86 04 	sts	0x0486, r24
    2512:	86 ec       	ldi	r24, 0xC6	; 198
    2514:	0e 94 e0 00 	call	0x1c0	; 0x1c0 <lcd_wr_command>
    2518:	80 91 86 04 	lds	r24, 0x0486
    251c:	0e 94 16 01 	call	0x22c	; 0x22c <lcd_wr_char>
    2520:	de c0       	rjmp	.+444    	; 0x26de <__stack+0x4df>
    2522:	87 37       	cpi	r24, 0x77	; 119
    2524:	a1 f4       	brne	.+40     	; 0x254e <__stack+0x34f>
    2526:	76 d9       	rcall	.-3348   	; 0x1814 <right_turn_wls>
    2528:	75 d9       	rcall	.-3350   	; 0x1814 <right_turn_wls>
    252a:	6c 2d       	mov	r22, r12
    252c:	7d 2d       	mov	r23, r13
    252e:	8b 2d       	mov	r24, r11
    2530:	9a 2d       	mov	r25, r10
    2532:	0e 94 b8 08 	call	0x1170	; 0x1170 <forward_wls>
    2536:	80 91 85 04 	lds	r24, 0x0485
    253a:	80 93 86 04 	sts	0x0486, r24
    253e:	86 ec       	ldi	r24, 0xC6	; 198
    2540:	0e 94 e0 00 	call	0x1c0	; 0x1c0 <lcd_wr_command>
    2544:	80 91 86 04 	lds	r24, 0x0486
    2548:	0e 94 16 01 	call	0x22c	; 0x22c <lcd_wr_char>
    254c:	c8 c0       	rjmp	.+400    	; 0x26de <__stack+0x4df>
    254e:	8e 36       	cpi	r24, 0x6E	; 110
    2550:	09 f0       	breq	.+2      	; 0x2554 <__stack+0x355>
    2552:	c5 c0       	rjmp	.+394    	; 0x26de <__stack+0x4df>
    2554:	ed d9       	rcall	.-3110   	; 0x1930 <left_turn_wls>
    2556:	6c 2d       	mov	r22, r12
    2558:	7d 2d       	mov	r23, r13
    255a:	8b 2d       	mov	r24, r11
    255c:	9a 2d       	mov	r25, r10
    255e:	0e 94 b8 08 	call	0x1170	; 0x1170 <forward_wls>
    2562:	80 91 85 04 	lds	r24, 0x0485
    2566:	80 93 86 04 	sts	0x0486, r24
    256a:	86 ec       	ldi	r24, 0xC6	; 198
    256c:	0e 94 e0 00 	call	0x1c0	; 0x1c0 <lcd_wr_command>
    2570:	80 91 86 04 	lds	r24, 0x0486
    2574:	0e 94 16 01 	call	0x22c	; 0x22c <lcd_wr_char>
    2578:	b2 c0       	rjmp	.+356    	; 0x26de <__stack+0x4df>
    257a:	83 37       	cpi	r24, 0x73	; 115
    257c:	09 f0       	breq	.+2      	; 0x2580 <__stack+0x381>
    257e:	57 c0       	rjmp	.+174    	; 0x262e <__stack+0x42f>
    2580:	80 91 85 04 	lds	r24, 0x0485
    2584:	83 37       	cpi	r24, 0x73	; 115
    2586:	91 f4       	brne	.+36     	; 0x25ac <__stack+0x3ad>
    2588:	6c 2d       	mov	r22, r12
    258a:	7d 2d       	mov	r23, r13
    258c:	8b 2d       	mov	r24, r11
    258e:	9a 2d       	mov	r25, r10
    2590:	0e 94 b8 08 	call	0x1170	; 0x1170 <forward_wls>
    2594:	80 91 85 04 	lds	r24, 0x0485
    2598:	80 93 86 04 	sts	0x0486, r24
    259c:	86 ec       	ldi	r24, 0xC6	; 198
    259e:	0e 94 e0 00 	call	0x1c0	; 0x1c0 <lcd_wr_command>
    25a2:	80 91 86 04 	lds	r24, 0x0486
    25a6:	0e 94 16 01 	call	0x22c	; 0x22c <lcd_wr_char>
    25aa:	99 c0       	rjmp	.+306    	; 0x26de <__stack+0x4df>
    25ac:	87 37       	cpi	r24, 0x77	; 119
    25ae:	99 f4       	brne	.+38     	; 0x25d6 <__stack+0x3d7>
    25b0:	31 d9       	rcall	.-3486   	; 0x1814 <right_turn_wls>
    25b2:	6c 2d       	mov	r22, r12
    25b4:	7d 2d       	mov	r23, r13
    25b6:	8b 2d       	mov	r24, r11
    25b8:	9a 2d       	mov	r25, r10
    25ba:	0e 94 b8 08 	call	0x1170	; 0x1170 <forward_wls>
    25be:	80 91 85 04 	lds	r24, 0x0485
    25c2:	80 93 86 04 	sts	0x0486, r24
    25c6:	86 ec       	ldi	r24, 0xC6	; 198
    25c8:	0e 94 e0 00 	call	0x1c0	; 0x1c0 <lcd_wr_command>
    25cc:	80 91 86 04 	lds	r24, 0x0486
    25d0:	0e 94 16 01 	call	0x22c	; 0x22c <lcd_wr_char>
    25d4:	84 c0       	rjmp	.+264    	; 0x26de <__stack+0x4df>
    25d6:	8e 36       	cpi	r24, 0x6E	; 110
    25d8:	a1 f4       	brne	.+40     	; 0x2602 <__stack+0x403>
    25da:	1c d9       	rcall	.-3528   	; 0x1814 <right_turn_wls>
    25dc:	1b d9       	rcall	.-3530   	; 0x1814 <right_turn_wls>
    25de:	6c 2d       	mov	r22, r12
    25e0:	7d 2d       	mov	r23, r13
    25e2:	8b 2d       	mov	r24, r11
    25e4:	9a 2d       	mov	r25, r10
    25e6:	0e 94 b8 08 	call	0x1170	; 0x1170 <forward_wls>
    25ea:	80 91 85 04 	lds	r24, 0x0485
    25ee:	80 93 86 04 	sts	0x0486, r24
    25f2:	86 ec       	ldi	r24, 0xC6	; 198
    25f4:	0e 94 e0 00 	call	0x1c0	; 0x1c0 <lcd_wr_command>
    25f8:	80 91 86 04 	lds	r24, 0x0486
    25fc:	0e 94 16 01 	call	0x22c	; 0x22c <lcd_wr_char>
    2600:	6e c0       	rjmp	.+220    	; 0x26de <__stack+0x4df>
    2602:	85 36       	cpi	r24, 0x65	; 101
    2604:	09 f0       	breq	.+2      	; 0x2608 <__stack+0x409>
    2606:	6b c0       	rjmp	.+214    	; 0x26de <__stack+0x4df>
    2608:	93 d9       	rcall	.-3290   	; 0x1930 <left_turn_wls>
    260a:	6c 2d       	mov	r22, r12
    260c:	7d 2d       	mov	r23, r13
    260e:	8b 2d       	mov	r24, r11
    2610:	9a 2d       	mov	r25, r10
    2612:	0e 94 b8 08 	call	0x1170	; 0x1170 <forward_wls>
    2616:	80 91 85 04 	lds	r24, 0x0485
    261a:	80 93 86 04 	sts	0x0486, r24
    261e:	86 ec       	ldi	r24, 0xC6	; 198
    2620:	0e 94 e0 00 	call	0x1c0	; 0x1c0 <lcd_wr_command>
    2624:	80 91 86 04 	lds	r24, 0x0486
    2628:	0e 94 16 01 	call	0x22c	; 0x22c <lcd_wr_char>
    262c:	58 c0       	rjmp	.+176    	; 0x26de <__stack+0x4df>
    262e:	87 37       	cpi	r24, 0x77	; 119
    2630:	09 f0       	breq	.+2      	; 0x2634 <__stack+0x435>
    2632:	55 c0       	rjmp	.+170    	; 0x26de <__stack+0x4df>
    2634:	80 91 85 04 	lds	r24, 0x0485
    2638:	87 37       	cpi	r24, 0x77	; 119
    263a:	91 f4       	brne	.+36     	; 0x2660 <__stack+0x461>
    263c:	6c 2d       	mov	r22, r12
    263e:	7d 2d       	mov	r23, r13
    2640:	8b 2d       	mov	r24, r11
    2642:	9a 2d       	mov	r25, r10
    2644:	0e 94 b8 08 	call	0x1170	; 0x1170 <forward_wls>
    2648:	80 91 85 04 	lds	r24, 0x0485
    264c:	80 93 86 04 	sts	0x0486, r24
    2650:	86 ec       	ldi	r24, 0xC6	; 198
    2652:	0e 94 e0 00 	call	0x1c0	; 0x1c0 <lcd_wr_command>
    2656:	80 91 86 04 	lds	r24, 0x0486
    265a:	0e 94 16 01 	call	0x22c	; 0x22c <lcd_wr_char>
    265e:	3f c0       	rjmp	.+126    	; 0x26de <__stack+0x4df>
    2660:	8e 36       	cpi	r24, 0x6E	; 110
    2662:	99 f4       	brne	.+38     	; 0x268a <__stack+0x48b>
    2664:	d7 d8       	rcall	.-3666   	; 0x1814 <right_turn_wls>
    2666:	6c 2d       	mov	r22, r12
    2668:	7d 2d       	mov	r23, r13
    266a:	8b 2d       	mov	r24, r11
    266c:	9a 2d       	mov	r25, r10
    266e:	0e 94 b8 08 	call	0x1170	; 0x1170 <forward_wls>
    2672:	80 91 85 04 	lds	r24, 0x0485
    2676:	80 93 86 04 	sts	0x0486, r24
    267a:	86 ec       	ldi	r24, 0xC6	; 198
    267c:	0e 94 e0 00 	call	0x1c0	; 0x1c0 <lcd_wr_command>
    2680:	80 91 86 04 	lds	r24, 0x0486
    2684:	0e 94 16 01 	call	0x22c	; 0x22c <lcd_wr_char>
    2688:	2a c0       	rjmp	.+84     	; 0x26de <__stack+0x4df>
    268a:	85 36       	cpi	r24, 0x65	; 101
    268c:	a1 f4       	brne	.+40     	; 0x26b6 <__stack+0x4b7>
    268e:	c2 d8       	rcall	.-3708   	; 0x1814 <right_turn_wls>
    2690:	c1 d8       	rcall	.-3710   	; 0x1814 <right_turn_wls>
    2692:	6c 2d       	mov	r22, r12
    2694:	7d 2d       	mov	r23, r13
    2696:	8b 2d       	mov	r24, r11
    2698:	9a 2d       	mov	r25, r10
    269a:	0e 94 b8 08 	call	0x1170	; 0x1170 <forward_wls>
    269e:	80 91 85 04 	lds	r24, 0x0485
    26a2:	80 93 86 04 	sts	0x0486, r24
    26a6:	86 ec       	ldi	r24, 0xC6	; 198
    26a8:	0e 94 e0 00 	call	0x1c0	; 0x1c0 <lcd_wr_command>
    26ac:	80 91 86 04 	lds	r24, 0x0486
    26b0:	0e 94 16 01 	call	0x22c	; 0x22c <lcd_wr_char>
    26b4:	14 c0       	rjmp	.+40     	; 0x26de <__stack+0x4df>
    26b6:	83 37       	cpi	r24, 0x73	; 115
    26b8:	91 f4       	brne	.+36     	; 0x26de <__stack+0x4df>
    26ba:	3a d9       	rcall	.-3468   	; 0x1930 <left_turn_wls>
    26bc:	6c 2d       	mov	r22, r12
    26be:	7d 2d       	mov	r23, r13
    26c0:	8b 2d       	mov	r24, r11
    26c2:	9a 2d       	mov	r25, r10
    26c4:	0e 94 b8 08 	call	0x1170	; 0x1170 <forward_wls>
    26c8:	80 91 85 04 	lds	r24, 0x0485
    26cc:	80 93 86 04 	sts	0x0486, r24
    26d0:	86 ec       	ldi	r24, 0xC6	; 198
    26d2:	0e 94 e0 00 	call	0x1c0	; 0x1c0 <lcd_wr_command>
    26d6:	80 91 86 04 	lds	r24, 0x0486
    26da:	0e 94 16 01 	call	0x22c	; 0x22c <lcd_wr_char>
    26de:	ef ef       	ldi	r30, 0xFF	; 255
    26e0:	ee 1a       	sub	r14, r30
    26e2:	fe 0a       	sbc	r15, r30
    26e4:	f2 e0       	ldi	r31, 0x02	; 2
    26e6:	2f 0e       	add	r2, r31
    26e8:	31 1c       	adc	r3, r1
    26ea:	e0 16       	cp	r14, r16
    26ec:	f1 06       	cpc	r15, r17
    26ee:	09 f0       	breq	.+2      	; 0x26f2 <__stack+0x4f3>
    26f0:	83 c9       	rjmp	.-3322   	; 0x19f8 <traverse+0x6c>
    26f2:	df 91       	pop	r29
    26f4:	cf 91       	pop	r28
    26f6:	1f 91       	pop	r17
    26f8:	0f 91       	pop	r16
    26fa:	ff 90       	pop	r15
    26fc:	ef 90       	pop	r14
    26fe:	df 90       	pop	r13
    2700:	cf 90       	pop	r12
    2702:	bf 90       	pop	r11
    2704:	af 90       	pop	r10
    2706:	9f 90       	pop	r9
    2708:	8f 90       	pop	r8
    270a:	7f 90       	pop	r7
    270c:	6f 90       	pop	r6
    270e:	5f 90       	pop	r5
    2710:	4f 90       	pop	r4
    2712:	3f 90       	pop	r3
    2714:	2f 90       	pop	r2
    2716:	08 95       	ret

00002718 <block_traverse>:
    2718:	80 91 86 04 	lds	r24, 0x0486
    271c:	8e 36       	cpi	r24, 0x6E	; 110
    271e:	a1 f5       	brne	.+104    	; 0x2788 <block_traverse+0x70>
    2720:	90 91 85 04 	lds	r25, 0x0485
    2724:	9e 36       	cpi	r25, 0x6E	; 110
    2726:	41 f4       	brne	.+16     	; 0x2738 <block_traverse+0x20>
    2728:	86 ec       	ldi	r24, 0xC6	; 198
    272a:	0e 94 e0 00 	call	0x1c0	; 0x1c0 <lcd_wr_command>
    272e:	80 91 86 04 	lds	r24, 0x0486
    2732:	0c 94 16 01 	jmp	0x22c	; 0x22c <lcd_wr_char>
    2736:	08 95       	ret
    2738:	95 36       	cpi	r25, 0x65	; 101
    273a:	69 f4       	brne	.+26     	; 0x2756 <block_traverse+0x3e>
    273c:	6b d8       	rcall	.-3882   	; 0x1814 <right_turn_wls>
    273e:	80 91 85 04 	lds	r24, 0x0485
    2742:	80 93 86 04 	sts	0x0486, r24
    2746:	86 ec       	ldi	r24, 0xC6	; 198
    2748:	0e 94 e0 00 	call	0x1c0	; 0x1c0 <lcd_wr_command>
    274c:	80 91 86 04 	lds	r24, 0x0486
    2750:	0c 94 16 01 	jmp	0x22c	; 0x22c <lcd_wr_char>
    2754:	08 95       	ret
    2756:	93 37       	cpi	r25, 0x73	; 115
    2758:	39 f4       	brne	.+14     	; 0x2768 <block_traverse+0x50>
    275a:	5c d8       	rcall	.-3912   	; 0x1814 <right_turn_wls>
    275c:	c4 d8       	rcall	.-3704   	; 0x18e6 <right_turn_wls_bwall>
    275e:	80 91 85 04 	lds	r24, 0x0485
    2762:	80 93 86 04 	sts	0x0486, r24
    2766:	08 95       	ret
    2768:	97 37       	cpi	r25, 0x77	; 119
    276a:	09 f0       	breq	.+2      	; 0x276e <block_traverse+0x56>
    276c:	8b c0       	rjmp	.+278    	; 0x2884 <block_traverse+0x16c>
    276e:	e0 d8       	rcall	.-3648   	; 0x1930 <left_turn_wls>
    2770:	80 91 85 04 	lds	r24, 0x0485
    2774:	80 93 86 04 	sts	0x0486, r24
    2778:	86 ec       	ldi	r24, 0xC6	; 198
    277a:	0e 94 e0 00 	call	0x1c0	; 0x1c0 <lcd_wr_command>
    277e:	80 91 86 04 	lds	r24, 0x0486
    2782:	0c 94 16 01 	jmp	0x22c	; 0x22c <lcd_wr_char>
    2786:	08 95       	ret
    2788:	85 36       	cpi	r24, 0x65	; 101
    278a:	09 f0       	breq	.+2      	; 0x278e <block_traverse+0x76>
    278c:	3b c0       	rjmp	.+118    	; 0x2804 <block_traverse+0xec>
    278e:	80 91 85 04 	lds	r24, 0x0485
    2792:	85 36       	cpi	r24, 0x65	; 101
    2794:	41 f4       	brne	.+16     	; 0x27a6 <block_traverse+0x8e>
    2796:	86 ec       	ldi	r24, 0xC6	; 198
    2798:	0e 94 e0 00 	call	0x1c0	; 0x1c0 <lcd_wr_command>
    279c:	80 91 86 04 	lds	r24, 0x0486
    27a0:	0c 94 16 01 	jmp	0x22c	; 0x22c <lcd_wr_char>
    27a4:	08 95       	ret
    27a6:	83 37       	cpi	r24, 0x73	; 115
    27a8:	69 f4       	brne	.+26     	; 0x27c4 <block_traverse+0xac>
    27aa:	34 d8       	rcall	.-3992   	; 0x1814 <right_turn_wls>
    27ac:	80 91 85 04 	lds	r24, 0x0485
    27b0:	80 93 86 04 	sts	0x0486, r24
    27b4:	86 ec       	ldi	r24, 0xC6	; 198
    27b6:	0e 94 e0 00 	call	0x1c0	; 0x1c0 <lcd_wr_command>
    27ba:	80 91 86 04 	lds	r24, 0x0486
    27be:	0c 94 16 01 	jmp	0x22c	; 0x22c <lcd_wr_char>
    27c2:	08 95       	ret
    27c4:	87 37       	cpi	r24, 0x77	; 119
    27c6:	71 f4       	brne	.+28     	; 0x27e4 <block_traverse+0xcc>
    27c8:	25 d8       	rcall	.-4022   	; 0x1814 <right_turn_wls>
    27ca:	8d d8       	rcall	.-3814   	; 0x18e6 <right_turn_wls_bwall>
    27cc:	80 91 85 04 	lds	r24, 0x0485
    27d0:	80 93 86 04 	sts	0x0486, r24
    27d4:	86 ec       	ldi	r24, 0xC6	; 198
    27d6:	0e 94 e0 00 	call	0x1c0	; 0x1c0 <lcd_wr_command>
    27da:	80 91 86 04 	lds	r24, 0x0486
    27de:	0c 94 16 01 	jmp	0x22c	; 0x22c <lcd_wr_char>
    27e2:	08 95       	ret
    27e4:	8e 36       	cpi	r24, 0x6E	; 110
    27e6:	09 f0       	breq	.+2      	; 0x27ea <block_traverse+0xd2>
    27e8:	8a c0       	rjmp	.+276    	; 0x28fe <block_traverse+0x1e6>
    27ea:	a2 d8       	rcall	.-3772   	; 0x1930 <left_turn_wls>
    27ec:	80 91 85 04 	lds	r24, 0x0485
    27f0:	80 93 86 04 	sts	0x0486, r24
    27f4:	86 ec       	ldi	r24, 0xC6	; 198
    27f6:	0e 94 e0 00 	call	0x1c0	; 0x1c0 <lcd_wr_command>
    27fa:	80 91 86 04 	lds	r24, 0x0486
    27fe:	0c 94 16 01 	jmp	0x22c	; 0x22c <lcd_wr_char>
    2802:	08 95       	ret
    2804:	83 37       	cpi	r24, 0x73	; 115
    2806:	09 f0       	breq	.+2      	; 0x280a <block_traverse+0xf2>
    2808:	3d c0       	rjmp	.+122    	; 0x2884 <block_traverse+0x16c>
    280a:	80 91 85 04 	lds	r24, 0x0485
    280e:	83 37       	cpi	r24, 0x73	; 115
    2810:	41 f4       	brne	.+16     	; 0x2822 <block_traverse+0x10a>
    2812:	86 ec       	ldi	r24, 0xC6	; 198
    2814:	0e 94 e0 00 	call	0x1c0	; 0x1c0 <lcd_wr_command>
    2818:	80 91 86 04 	lds	r24, 0x0486
    281c:	0c 94 16 01 	jmp	0x22c	; 0x22c <lcd_wr_char>
    2820:	08 95       	ret
    2822:	87 37       	cpi	r24, 0x77	; 119
    2824:	71 f4       	brne	.+28     	; 0x2842 <block_traverse+0x12a>
    2826:	0e 94 0a 0c 	call	0x1814	; 0x1814 <right_turn_wls>
    282a:	80 91 85 04 	lds	r24, 0x0485
    282e:	80 93 86 04 	sts	0x0486, r24
    2832:	86 ec       	ldi	r24, 0xC6	; 198
    2834:	0e 94 e0 00 	call	0x1c0	; 0x1c0 <lcd_wr_command>
    2838:	80 91 86 04 	lds	r24, 0x0486
    283c:	0c 94 16 01 	jmp	0x22c	; 0x22c <lcd_wr_char>
    2840:	08 95       	ret
    2842:	8e 36       	cpi	r24, 0x6E	; 110
    2844:	79 f4       	brne	.+30     	; 0x2864 <block_traverse+0x14c>
    2846:	0e 94 0a 0c 	call	0x1814	; 0x1814 <right_turn_wls>
    284a:	4d d8       	rcall	.-3942   	; 0x18e6 <right_turn_wls_bwall>
    284c:	80 91 85 04 	lds	r24, 0x0485
    2850:	80 93 86 04 	sts	0x0486, r24
    2854:	86 ec       	ldi	r24, 0xC6	; 198
    2856:	0e 94 e0 00 	call	0x1c0	; 0x1c0 <lcd_wr_command>
    285a:	80 91 86 04 	lds	r24, 0x0486
    285e:	0c 94 16 01 	jmp	0x22c	; 0x22c <lcd_wr_char>
    2862:	08 95       	ret
    2864:	85 36       	cpi	r24, 0x65	; 101
    2866:	09 f0       	breq	.+2      	; 0x286a <block_traverse+0x152>
    2868:	4a c0       	rjmp	.+148    	; 0x28fe <block_traverse+0x1e6>
    286a:	62 d8       	rcall	.-3900   	; 0x1930 <left_turn_wls>
    286c:	80 91 85 04 	lds	r24, 0x0485
    2870:	80 93 86 04 	sts	0x0486, r24
    2874:	86 ec       	ldi	r24, 0xC6	; 198
    2876:	0e 94 e0 00 	call	0x1c0	; 0x1c0 <lcd_wr_command>
    287a:	80 91 86 04 	lds	r24, 0x0486
    287e:	0c 94 16 01 	jmp	0x22c	; 0x22c <lcd_wr_char>
    2882:	08 95       	ret
    2884:	87 37       	cpi	r24, 0x77	; 119
    2886:	d9 f5       	brne	.+118    	; 0x28fe <block_traverse+0x1e6>
    2888:	80 91 85 04 	lds	r24, 0x0485
    288c:	87 37       	cpi	r24, 0x77	; 119
    288e:	41 f4       	brne	.+16     	; 0x28a0 <block_traverse+0x188>
    2890:	86 ec       	ldi	r24, 0xC6	; 198
    2892:	0e 94 e0 00 	call	0x1c0	; 0x1c0 <lcd_wr_command>
    2896:	80 91 86 04 	lds	r24, 0x0486
    289a:	0c 94 16 01 	jmp	0x22c	; 0x22c <lcd_wr_char>
    289e:	08 95       	ret
    28a0:	8e 36       	cpi	r24, 0x6E	; 110
    28a2:	71 f4       	brne	.+28     	; 0x28c0 <block_traverse+0x1a8>
    28a4:	0e 94 0a 0c 	call	0x1814	; 0x1814 <right_turn_wls>
    28a8:	80 91 85 04 	lds	r24, 0x0485
    28ac:	80 93 86 04 	sts	0x0486, r24
    28b0:	86 ec       	ldi	r24, 0xC6	; 198
    28b2:	0e 94 e0 00 	call	0x1c0	; 0x1c0 <lcd_wr_command>
    28b6:	80 91 86 04 	lds	r24, 0x0486
    28ba:	0c 94 16 01 	jmp	0x22c	; 0x22c <lcd_wr_char>
    28be:	08 95       	ret
    28c0:	85 36       	cpi	r24, 0x65	; 101
    28c2:	79 f4       	brne	.+30     	; 0x28e2 <block_traverse+0x1ca>
    28c4:	0e 94 0a 0c 	call	0x1814	; 0x1814 <right_turn_wls>
    28c8:	0e d8       	rcall	.-4068   	; 0x18e6 <right_turn_wls_bwall>
    28ca:	80 91 85 04 	lds	r24, 0x0485
    28ce:	80 93 86 04 	sts	0x0486, r24
    28d2:	86 ec       	ldi	r24, 0xC6	; 198
    28d4:	0e 94 e0 00 	call	0x1c0	; 0x1c0 <lcd_wr_command>
    28d8:	80 91 86 04 	lds	r24, 0x0486
    28dc:	0c 94 16 01 	jmp	0x22c	; 0x22c <lcd_wr_char>
    28e0:	08 95       	ret
    28e2:	83 37       	cpi	r24, 0x73	; 115
    28e4:	61 f4       	brne	.+24     	; 0x28fe <block_traverse+0x1e6>
    28e6:	24 d8       	rcall	.-4024   	; 0x1930 <left_turn_wls>
    28e8:	80 91 85 04 	lds	r24, 0x0485
    28ec:	80 93 86 04 	sts	0x0486, r24
    28f0:	86 ec       	ldi	r24, 0xC6	; 198
    28f2:	0e 94 e0 00 	call	0x1c0	; 0x1c0 <lcd_wr_command>
    28f6:	80 91 86 04 	lds	r24, 0x0486
    28fa:	0c 94 16 01 	jmp	0x22c	; 0x22c <lcd_wr_char>
    28fe:	08 95       	ret

00002900 <block_choose2>:
    2900:	0f 93       	push	r16
    2902:	1f 93       	push	r17
    2904:	cf 93       	push	r28
    2906:	df 93       	push	r29
    2908:	ec 01       	movw	r28, r24
    290a:	8b 01       	movw	r16, r22
    290c:	80 fd       	sbrc	r24, 0
    290e:	1d c0       	rjmp	.+58     	; 0x294a <block_choose2+0x4a>
    2910:	85 e6       	ldi	r24, 0x65	; 101
    2912:	80 93 85 04 	sts	0x0485, r24
    2916:	00 df       	rcall	.-512    	; 0x2718 <block_traverse>
    2918:	c1 50       	subi	r28, 0x01	; 1
    291a:	d0 48       	sbci	r29, 0x80	; 128
    291c:	cc 0f       	add	r28, r28
    291e:	dd 1f       	adc	r29, r29
    2920:	f8 01       	movw	r30, r16
    2922:	ec 0f       	add	r30, r28
    2924:	fd 1f       	adc	r31, r29
    2926:	81 e0       	ldi	r24, 0x01	; 1
    2928:	90 e0       	ldi	r25, 0x00	; 0
    292a:	91 83       	std	Z+1, r25	; 0x01
    292c:	80 83       	st	Z, r24
    292e:	0e 94 d3 05 	call	0xba6	; 0xba6 <back>
    2932:	8f ef       	ldi	r24, 0xFF	; 255
    2934:	9f e3       	ldi	r25, 0x3F	; 63
    2936:	2b e0       	ldi	r18, 0x0B	; 11
    2938:	81 50       	subi	r24, 0x01	; 1
    293a:	90 40       	sbci	r25, 0x00	; 0
    293c:	20 40       	sbci	r18, 0x00	; 0
    293e:	e1 f7       	brne	.-8      	; 0x2938 <block_choose2+0x38>
    2940:	00 c0       	rjmp	.+0      	; 0x2942 <block_choose2+0x42>
    2942:	00 00       	nop
    2944:	0e 94 e5 05 	call	0xbca	; 0xbca <stop>
    2948:	2a c0       	rjmp	.+84     	; 0x299e <block_choose2+0x9e>
    294a:	9c 01       	movw	r18, r24
    294c:	21 70       	andi	r18, 0x01	; 1
    294e:	30 78       	andi	r19, 0x80	; 128
    2950:	33 23       	and	r19, r19
    2952:	34 f4       	brge	.+12     	; 0x2960 <block_choose2+0x60>
    2954:	21 50       	subi	r18, 0x01	; 1
    2956:	31 09       	sbc	r19, r1
    2958:	2e 6f       	ori	r18, 0xFE	; 254
    295a:	3f 6f       	ori	r19, 0xFF	; 255
    295c:	2f 5f       	subi	r18, 0xFF	; 255
    295e:	3f 4f       	sbci	r19, 0xFF	; 255
    2960:	21 30       	cpi	r18, 0x01	; 1
    2962:	31 05       	cpc	r19, r1
    2964:	e1 f4       	brne	.+56     	; 0x299e <block_choose2+0x9e>
    2966:	87 e7       	ldi	r24, 0x77	; 119
    2968:	80 93 85 04 	sts	0x0485, r24
    296c:	d5 de       	rcall	.-598    	; 0x2718 <block_traverse>
    296e:	c1 50       	subi	r28, 0x01	; 1
    2970:	d0 48       	sbci	r29, 0x80	; 128
    2972:	cc 0f       	add	r28, r28
    2974:	dd 1f       	adc	r29, r29
    2976:	f8 01       	movw	r30, r16
    2978:	ec 0f       	add	r30, r28
    297a:	fd 1f       	adc	r31, r29
    297c:	81 e0       	ldi	r24, 0x01	; 1
    297e:	90 e0       	ldi	r25, 0x00	; 0
    2980:	91 83       	std	Z+1, r25	; 0x01
    2982:	80 83       	st	Z, r24
    2984:	0e 94 d3 05 	call	0xba6	; 0xba6 <back>
    2988:	8f ef       	ldi	r24, 0xFF	; 255
    298a:	9f e3       	ldi	r25, 0x3F	; 63
    298c:	2b e0       	ldi	r18, 0x0B	; 11
    298e:	81 50       	subi	r24, 0x01	; 1
    2990:	90 40       	sbci	r25, 0x00	; 0
    2992:	20 40       	sbci	r18, 0x00	; 0
    2994:	e1 f7       	brne	.-8      	; 0x298e <block_choose2+0x8e>
    2996:	00 c0       	rjmp	.+0      	; 0x2998 <block_choose2+0x98>
    2998:	00 00       	nop
    299a:	0e 94 e5 05 	call	0xbca	; 0xbca <stop>
    299e:	df 91       	pop	r29
    29a0:	cf 91       	pop	r28
    29a2:	1f 91       	pop	r17
    29a4:	0f 91       	pop	r16
    29a6:	08 95       	ret

000029a8 <left_turn_inv>:
    29a8:	0e 94 d6 05 	call	0xbac	; 0xbac <forward>
    29ac:	2f ef       	ldi	r18, 0xFF	; 255
    29ae:	8f e3       	ldi	r24, 0x3F	; 63
    29b0:	9b e0       	ldi	r25, 0x0B	; 11
    29b2:	21 50       	subi	r18, 0x01	; 1
    29b4:	80 40       	sbci	r24, 0x00	; 0
    29b6:	90 40       	sbci	r25, 0x00	; 0
    29b8:	e1 f7       	brne	.-8      	; 0x29b2 <left_turn_inv+0xa>
    29ba:	00 c0       	rjmp	.+0      	; 0x29bc <left_turn_inv+0x14>
    29bc:	00 00       	nop
    29be:	86 e9       	ldi	r24, 0x96	; 150
    29c0:	80 93 28 01 	sts	0x0128, r24
    29c4:	80 93 2a 01 	sts	0x012A, r24
    29c8:	0e 94 dc 05 	call	0xbb8	; 0xbb8 <left>
    29cc:	2f ef       	ldi	r18, 0xFF	; 255
    29ce:	8f ef       	ldi	r24, 0xFF	; 255
    29d0:	98 e0       	ldi	r25, 0x08	; 8
    29d2:	21 50       	subi	r18, 0x01	; 1
    29d4:	80 40       	sbci	r24, 0x00	; 0
    29d6:	90 40       	sbci	r25, 0x00	; 0
    29d8:	e1 f7       	brne	.-8      	; 0x29d2 <left_turn_inv+0x2a>
    29da:	00 c0       	rjmp	.+0      	; 0x29dc <left_turn_inv+0x34>
    29dc:	00 00       	nop
    29de:	8e e6       	ldi	r24, 0x6E	; 110
    29e0:	80 93 28 01 	sts	0x0128, r24
    29e4:	80 93 2a 01 	sts	0x012A, r24
    29e8:	82 e0       	ldi	r24, 0x02	; 2
    29ea:	0e 94 4e 06 	call	0xc9c	; 0xc9c <ADC_Conversion>
    29ee:	80 93 29 05 	sts	0x0529, r24
    29f2:	81 e0       	ldi	r24, 0x01	; 1
    29f4:	0e 94 4e 06 	call	0xc9c	; 0xc9c <ADC_Conversion>
    29f8:	80 93 34 05 	sts	0x0534, r24
    29fc:	83 e0       	ldi	r24, 0x03	; 3
    29fe:	0e 94 4e 06 	call	0xc9c	; 0xc9c <ADC_Conversion>
    2a02:	80 93 2c 05 	sts	0x052C, r24
    2a06:	90 91 34 05 	lds	r25, 0x0534
    2a0a:	20 91 29 05 	lds	r18, 0x0529
    2a0e:	30 e0       	ldi	r19, 0x00	; 0
    2a10:	29 0f       	add	r18, r25
    2a12:	31 1d       	adc	r19, r1
    2a14:	2b 3f       	cpi	r18, 0xFB	; 251
    2a16:	31 05       	cpc	r19, r1
    2a18:	3c f7       	brge	.-50     	; 0x29e8 <left_turn_inv+0x40>
    2a1a:	82 38       	cpi	r24, 0x82	; 130
    2a1c:	28 f3       	brcs	.-54     	; 0x29e8 <left_turn_inv+0x40>
    2a1e:	12 b8       	out	0x02, r1	; 2
    2a20:	0e 94 e5 05 	call	0xbca	; 0xbca <stop>
    2a24:	0c 94 11 0b 	jmp	0x1622	; 0x1622 <static_reorientation_inv>
    2a28:	08 95       	ret

00002a2a <adc_init>:
}
/* -------------------------------------------------------------INITIALIZATION--------------------------------------------------*/

//Function to Initialize ADC
void adc_init() {
  ADCSRA = 0x00;
    2a2a:	ea e7       	ldi	r30, 0x7A	; 122
    2a2c:	f0 e0       	ldi	r31, 0x00	; 0
    2a2e:	10 82       	st	Z, r1
  ADCSRB = 0x00; //MUX5 = 0
    2a30:	10 92 7b 00 	sts	0x007B, r1
  ADMUX = 0x20; //Vref=5V external --- ADLAR=1 --- MUX4:0 = 0000
    2a34:	80 e2       	ldi	r24, 0x20	; 32
    2a36:	80 93 7c 00 	sts	0x007C, r24
  ACSR = 0x80;
    2a3a:	80 e8       	ldi	r24, 0x80	; 128
    2a3c:	80 bf       	out	0x30, r24	; 48
  ADCSRA = 0x86; //ADEN=1 --- ADIE=1 --- ADPS2:0 = 1 1 0
    2a3e:	86 e8       	ldi	r24, 0x86	; 134
    2a40:	80 83       	st	Z, r24
    2a42:	08 95       	ret

00002a44 <init_devices>:
}

void init_devices(void) {
  cli(); //Clears the global interrupts
    2a44:	f8 94       	cli
  port_init();
    2a46:	0e 94 7a 05 	call	0xaf4	; 0xaf4 <port_init>
  adc_init();
    2a4a:	ef df       	rcall	.-34     	; 0x2a2a <adc_init>
  timer5_init();
    2a4c:	0e 94 30 05 	call	0xa60	; 0xa60 <timer5_init>
  timer1_init();
    2a50:	0e 94 0d 05 	call	0xa1a	; 0xa1a <timer1_init>
  sei(); //Enables the global interrupts
    2a54:	78 94       	sei
  lcd_set_4bit(); //These functions need not to be inside interrupt blocked code
    2a56:	0e 94 9b 00 	call	0x136	; 0x136 <lcd_set_4bit>
  lcd_init();
    2a5a:	0c 94 05 01 	jmp	0x20a	; 0x20a <lcd_init>
    2a5e:	08 95       	ret

00002a60 <main>:
}
/* --------------------------------------------------------------MAIN-----------------------------------------------------------*/

int main()
{
    2a60:	8f 92       	push	r8
    2a62:	9f 92       	push	r9
    2a64:	af 92       	push	r10
    2a66:	bf 92       	push	r11
    2a68:	cf 92       	push	r12
    2a6a:	df 92       	push	r13
    2a6c:	ef 92       	push	r14
    2a6e:	ff 92       	push	r15
    2a70:	0f 93       	push	r16
    2a72:	1f 93       	push	r17
    2a74:	cf 93       	push	r28
    2a76:	df 93       	push	r29
    2a78:	1f 92       	push	r1
    2a7a:	1f 92       	push	r1
    2a7c:	cd b7       	in	r28, 0x3d	; 61
    2a7e:	de b7       	in	r29, 0x3e	; 62
	init_devices();
    2a80:	e1 df       	rcall	.-62     	; 0x2a44 <init_devices>
	int house_no = 0;
	int block = 0;
	int bnode;
	int len = 0;
    2a82:	1a 82       	std	Y+2, r1	; 0x02
    2a84:	19 82       	std	Y+1, r1	; 0x01
	int *path = (int*)malloc(80);
    2a86:	80 e5       	ldi	r24, 0x50	; 80
    2a88:	90 e0       	ldi	r25, 0x00	; 0
    2a8a:	0e 94 f0 1f 	call	0x3fe0	; 0x3fe0 <malloc>
    2a8e:	7c 01       	movw	r14, r24
	u = 0;
    2a90:	10 92 05 05 	sts	0x0505, r1
    2a94:	10 92 04 05 	sts	0x0504, r1
	face = 's';
    2a98:	83 e7       	ldi	r24, 0x73	; 115
    2a9a:	80 93 86 04 	sts	0x0486, r24
	forward_wls(0,1);
    2a9e:	61 e0       	ldi	r22, 0x01	; 1
    2aa0:	70 e0       	ldi	r23, 0x00	; 0
    2aa2:	80 e0       	ldi	r24, 0x00	; 0
    2aa4:	90 e0       	ldi	r25, 0x00	; 0
    2aa6:	0e 94 b8 08 	call	0x1170	; 0x1170 <forward_wls>
	block = which_material[8];
    2aaa:	00 91 77 04 	lds	r16, 0x0477
    2aae:	10 91 78 04 	lds	r17, 0x0478
	if (block==0)
    2ab2:	01 15       	cp	r16, r1
    2ab4:	11 05       	cpc	r17, r1
    2ab6:	09 f0       	breq	.+2      	; 0x2aba <main+0x5a>
    2ab8:	9a c0       	rjmp	.+308    	; 0x2bee <main+0x18e>
	{
		block = which_material[9];
    2aba:	a0 90 79 04 	lds	r10, 0x0479
    2abe:	b0 90 7a 04 	lds	r11, 0x047A
		lcd_init();
    2ac2:	0e 94 05 01 	call	0x20a	; 0x20a <lcd_init>
		//printf("Block - %d\n",block);
		//lcd_print(2,1,block,3);
		bnode = which_node(block);
    2ac6:	c5 01       	movw	r24, r10
    2ac8:	0e 94 89 04 	call	0x912	; 0x912 <which_node>
    2acc:	6c 01       	movw	r12, r24
		//printf("Node - %d\n",bnode);
		//lcd_print(2,14,bnode,3);
		dijkstra(G,n,u);
    2ace:	40 91 04 05 	lds	r20, 0x0504
    2ad2:	50 91 05 05 	lds	r21, 0x0505
    2ad6:	60 91 87 04 	lds	r22, 0x0487
    2ada:	70 91 88 04 	lds	r23, 0x0488
    2ade:	8e e7       	ldi	r24, 0x7E	; 126
    2ae0:	92 e0       	ldi	r25, 0x02	; 2
    2ae2:	0e 94 77 02 	call	0x4ee	; 0x4ee <dijkstra>
		//printf("Dijkstra Completed\n");
		dist_comp(bnode,bnode,path,&len);
    2ae6:	9e 01       	movw	r18, r28
    2ae8:	2f 5f       	subi	r18, 0xFF	; 255
    2aea:	3f 4f       	sbci	r19, 0xFF	; 255
    2aec:	a7 01       	movw	r20, r14
    2aee:	b6 01       	movw	r22, r12
    2af0:	c6 01       	movw	r24, r12
    2af2:	0e 94 f8 03 	call	0x7f0	; 0x7f0 <dist_comp>
		//printf("Dist compare Completed\n");
		for(int p = 0;p<len;p++)
    2af6:	89 81       	ldd	r24, Y+1	; 0x01
    2af8:	9a 81       	ldd	r25, Y+2	; 0x02
    2afa:	18 16       	cp	r1, r24
    2afc:	19 06       	cpc	r1, r25
    2afe:	3c f4       	brge	.+14     	; 0x2b0e <main+0xae>
    2b00:	20 e0       	ldi	r18, 0x00	; 0
    2b02:	30 e0       	ldi	r19, 0x00	; 0
    2b04:	2f 5f       	subi	r18, 0xFF	; 255
    2b06:	3f 4f       	sbci	r19, 0xFF	; 255
    2b08:	28 17       	cp	r18, r24
    2b0a:	39 07       	cpc	r19, r25
    2b0c:	d9 f7       	brne	.-10     	; 0x2b04 <main+0xa4>
		{
			//printf("%d\n",path[p]);
			//lcd_print(1,2*p,path[p],2);
		}
		traverse(path,u,&len);
    2b0e:	60 91 04 05 	lds	r22, 0x0504
    2b12:	70 91 05 05 	lds	r23, 0x0505
    2b16:	ae 01       	movw	r20, r28
    2b18:	4f 5f       	subi	r20, 0xFF	; 255
    2b1a:	5f 4f       	sbci	r21, 0xFF	; 255
    2b1c:	c7 01       	movw	r24, r14
    2b1e:	0e 94 c6 0c 	call	0x198c	; 0x198c <traverse>
		//printf("Traverse Completed\n");
		free(path);
    2b22:	c7 01       	movw	r24, r14
    2b24:	0e 94 88 20 	call	0x4110	; 0x4110 <free>
		len = 0;
    2b28:	1a 82       	std	Y+2, r1	; 0x02
    2b2a:	19 82       	std	Y+1, r1	; 0x01
		block_choose2(block,block_placed);
    2b2c:	6c ee       	ldi	r22, 0xEC	; 236
    2b2e:	74 e0       	ldi	r23, 0x04	; 4
    2b30:	c5 01       	movw	r24, r10
    2b32:	e6 de       	rcall	.-564    	; 0x2900 <block_choose2>
		//block_choose(bnode,block_placed);
		//printf("Block Choose Completed\n");
		s_pick();
    2b34:	0e 94 64 08 	call	0x10c8	; 0x10c8 <s_pick>
		lcd_init();
    2b38:	0e 94 05 01 	call	0x20a	; 0x20a <lcd_init>
    2b3c:	47 01       	movw	r8, r14
		for(int p = 0;p<=12;p++)
    2b3e:	00 e0       	ldi	r16, 0x00	; 0
    2b40:	10 e0       	ldi	r17, 0x00	; 0
		{
			if (path[p] == 1) lcd_print(1,1,p,2);
    2b42:	f4 01       	movw	r30, r8
    2b44:	81 91       	ld	r24, Z+
    2b46:	91 91       	ld	r25, Z+
    2b48:	4f 01       	movw	r8, r30
    2b4a:	01 97       	sbiw	r24, 0x01	; 1
    2b4c:	39 f4       	brne	.+14     	; 0x2b5c <main+0xfc>
    2b4e:	22 e0       	ldi	r18, 0x02	; 2
    2b50:	30 e0       	ldi	r19, 0x00	; 0
    2b52:	a8 01       	movw	r20, r16
    2b54:	61 e0       	ldi	r22, 0x01	; 1
    2b56:	81 e0       	ldi	r24, 0x01	; 1
    2b58:	0e 94 4c 01 	call	0x298	; 0x298 <lcd_print>
		block_choose2(block,block_placed);
		//block_choose(bnode,block_placed);
		//printf("Block Choose Completed\n");
		s_pick();
		lcd_init();
		for(int p = 0;p<=12;p++)
    2b5c:	0f 5f       	subi	r16, 0xFF	; 255
    2b5e:	1f 4f       	sbci	r17, 0xFF	; 255
    2b60:	0d 30       	cpi	r16, 0x0D	; 13
    2b62:	11 05       	cpc	r17, r1
    2b64:	71 f7       	brne	.-36     	; 0x2b42 <main+0xe2>
		{
			if (path[p] == 1) lcd_print(1,1,p,2);
		}
		u=bnode;
    2b66:	d0 92 05 05 	sts	0x0505, r13
    2b6a:	c0 92 04 05 	sts	0x0504, r12

		dijkstra(G,n,u);
    2b6e:	60 91 87 04 	lds	r22, 0x0487
    2b72:	70 91 88 04 	lds	r23, 0x0488
    2b76:	a6 01       	movw	r20, r12
    2b78:	8e e7       	ldi	r24, 0x7E	; 126
    2b7a:	92 e0       	ldi	r25, 0x02	; 2
    2b7c:	0e 94 77 02 	call	0x4ee	; 0x4ee <dijkstra>
		//printf("Dijkstra Completed\n");
		dist_comp(h51,h52,path,&len);
    2b80:	60 91 43 04 	lds	r22, 0x0443
    2b84:	70 91 44 04 	lds	r23, 0x0444
    2b88:	9e 01       	movw	r18, r28
    2b8a:	2f 5f       	subi	r18, 0xFF	; 255
    2b8c:	3f 4f       	sbci	r19, 0xFF	; 255
    2b8e:	a7 01       	movw	r20, r14
    2b90:	80 91 45 04 	lds	r24, 0x0445
    2b94:	90 91 46 04 	lds	r25, 0x0446
    2b98:	0e 94 f8 03 	call	0x7f0	; 0x7f0 <dist_comp>

		//printf("Dist compare Completed\n");
		for(int p = 0;p<len;p++)
    2b9c:	29 81       	ldd	r18, Y+1	; 0x01
    2b9e:	3a 81       	ldd	r19, Y+2	; 0x02
    2ba0:	12 16       	cp	r1, r18
    2ba2:	13 06       	cpc	r1, r19
    2ba4:	34 f4       	brge	.+12     	; 0x2bb2 <main+0x152>
    2ba6:	80 e0       	ldi	r24, 0x00	; 0
    2ba8:	90 e0       	ldi	r25, 0x00	; 0
    2baa:	01 96       	adiw	r24, 0x01	; 1
    2bac:	82 17       	cp	r24, r18
    2bae:	93 07       	cpc	r25, r19
    2bb0:	e1 f7       	brne	.-8      	; 0x2baa <main+0x14a>
		{
			//printf("%d\n",path[p]);
			//lcd_print(1,2*p,path[p],2);
		}
		traverse(path,u,&len);
    2bb2:	60 91 04 05 	lds	r22, 0x0504
    2bb6:	70 91 05 05 	lds	r23, 0x0505
    2bba:	ae 01       	movw	r20, r28
    2bbc:	4f 5f       	subi	r20, 0xFF	; 255
    2bbe:	5f 4f       	sbci	r21, 0xFF	; 255
    2bc0:	c7 01       	movw	r24, r14
    2bc2:	0e 94 c6 0c 	call	0x198c	; 0x198c <traverse>
		//printf("Traverse Completed\n");
		u = path[len-1];
    2bc6:	e9 81       	ldd	r30, Y+1	; 0x01
    2bc8:	fa 81       	ldd	r31, Y+2	; 0x02
    2bca:	e1 50       	subi	r30, 0x01	; 1
    2bcc:	f0 48       	sbci	r31, 0x80	; 128
    2bce:	ee 0f       	add	r30, r30
    2bd0:	ff 1f       	adc	r31, r31
    2bd2:	ee 0d       	add	r30, r14
    2bd4:	ff 1d       	adc	r31, r15
    2bd6:	80 81       	ld	r24, Z
    2bd8:	91 81       	ldd	r25, Z+1	; 0x01
    2bda:	90 93 05 05 	sts	0x0505, r25
    2bde:	80 93 04 05 	sts	0x0504, r24
		free(path);
    2be2:	c7 01       	movw	r24, r14
    2be4:	0e 94 88 20 	call	0x4110	; 0x4110 <free>
		len = 0;
    2be8:	1a 82       	std	Y+2, r1	; 0x02
    2bea:	19 82       	std	Y+1, r1	; 0x01
    2bec:	da c0       	rjmp	.+436    	; 0x2da2 <main+0x342>
	}
	else
	{
		lcd_init();
    2bee:	0e 94 05 01 	call	0x20a	; 0x20a <lcd_init>
		//printf("Block - %d\n",block);
		//lcd_print(2,1,block,3);
		bnode = which_node(block);
    2bf2:	c8 01       	movw	r24, r16
    2bf4:	0e 94 89 04 	call	0x912	; 0x912 <which_node>
    2bf8:	6c 01       	movw	r12, r24
		//printf("Node - %d\n",bnode);
		//lcd_print(2,14,bnode,3);
		dijkstra(G,n,u);
    2bfa:	40 91 04 05 	lds	r20, 0x0504
    2bfe:	50 91 05 05 	lds	r21, 0x0505
    2c02:	60 91 87 04 	lds	r22, 0x0487
    2c06:	70 91 88 04 	lds	r23, 0x0488
    2c0a:	8e e7       	ldi	r24, 0x7E	; 126
    2c0c:	92 e0       	ldi	r25, 0x02	; 2
    2c0e:	0e 94 77 02 	call	0x4ee	; 0x4ee <dijkstra>
		//printf("Dijkstra Completed\n");
		//int *path = (int*)malloc(80);
		dist_comp(bnode,bnode,path,&len);
    2c12:	9e 01       	movw	r18, r28
    2c14:	2f 5f       	subi	r18, 0xFF	; 255
    2c16:	3f 4f       	sbci	r19, 0xFF	; 255
    2c18:	a7 01       	movw	r20, r14
    2c1a:	b6 01       	movw	r22, r12
    2c1c:	c6 01       	movw	r24, r12
    2c1e:	0e 94 f8 03 	call	0x7f0	; 0x7f0 <dist_comp>
		//printf("Dist compare Completed\n");
		for(int p = 0;p<len;p++)
    2c22:	49 81       	ldd	r20, Y+1	; 0x01
    2c24:	5a 81       	ldd	r21, Y+2	; 0x02
    2c26:	14 16       	cp	r1, r20
    2c28:	15 06       	cpc	r1, r21
    2c2a:	3c f4       	brge	.+14     	; 0x2c3a <main+0x1da>
    2c2c:	20 e0       	ldi	r18, 0x00	; 0
    2c2e:	30 e0       	ldi	r19, 0x00	; 0
    2c30:	2f 5f       	subi	r18, 0xFF	; 255
    2c32:	3f 4f       	sbci	r19, 0xFF	; 255
    2c34:	24 17       	cp	r18, r20
    2c36:	35 07       	cpc	r19, r21
    2c38:	d9 f7       	brne	.-10     	; 0x2c30 <main+0x1d0>
		{
			//printf("%d\n",path[p]);
			//lcd_print(1,2*p,path[p],2);
		}
		traverse(path,u,&len);
    2c3a:	60 91 04 05 	lds	r22, 0x0504
    2c3e:	70 91 05 05 	lds	r23, 0x0505
    2c42:	ae 01       	movw	r20, r28
    2c44:	4f 5f       	subi	r20, 0xFF	; 255
    2c46:	5f 4f       	sbci	r21, 0xFF	; 255
    2c48:	c7 01       	movw	r24, r14
    2c4a:	0e 94 c6 0c 	call	0x198c	; 0x198c <traverse>
		//printf("Traverse Completed\n");
		free(path);
    2c4e:	c7 01       	movw	r24, r14
    2c50:	0e 94 88 20 	call	0x4110	; 0x4110 <free>
		len = 0;
    2c54:	1a 82       	std	Y+2, r1	; 0x02
    2c56:	19 82       	std	Y+1, r1	; 0x01
		block_choose2(block,block_placed);
    2c58:	6c ee       	ldi	r22, 0xEC	; 236
    2c5a:	74 e0       	ldi	r23, 0x04	; 4
    2c5c:	c8 01       	movw	r24, r16
    2c5e:	50 de       	rcall	.-864    	; 0x2900 <block_choose2>
		//printf("Block Choose Completed\n");
		m_pick();
    2c60:	0e 94 20 08 	call	0x1040	; 0x1040 <m_pick>
		lcd_init();
    2c64:	0e 94 05 01 	call	0x20a	; 0x20a <lcd_init>
		u=bnode;
    2c68:	d0 92 05 05 	sts	0x0505, r13
    2c6c:	c0 92 04 05 	sts	0x0504, r12

		block = which_material[9];
    2c70:	a0 90 79 04 	lds	r10, 0x0479
    2c74:	b0 90 7a 04 	lds	r11, 0x047A
		lcd_init();
    2c78:	0e 94 05 01 	call	0x20a	; 0x20a <lcd_init>
		//printf("Block - %d\n",block);
		//lcd_print(2,1,block,3);
		bnode = which_node(block);
    2c7c:	c5 01       	movw	r24, r10
    2c7e:	0e 94 89 04 	call	0x912	; 0x912 <which_node>
    2c82:	6c 01       	movw	r12, r24
		//printf("Node - %d\n",bnode);
		//lcd_print(2,14,bnode,3);
		dijkstra(G,n,u);
    2c84:	40 91 04 05 	lds	r20, 0x0504
    2c88:	50 91 05 05 	lds	r21, 0x0505
    2c8c:	60 91 87 04 	lds	r22, 0x0487
    2c90:	70 91 88 04 	lds	r23, 0x0488
    2c94:	8e e7       	ldi	r24, 0x7E	; 126
    2c96:	92 e0       	ldi	r25, 0x02	; 2
    2c98:	0e 94 77 02 	call	0x4ee	; 0x4ee <dijkstra>
		//printf("Dijkstra Completed\n");
		dist_comp(bnode,bnode,path,&len);
    2c9c:	9e 01       	movw	r18, r28
    2c9e:	2f 5f       	subi	r18, 0xFF	; 255
    2ca0:	3f 4f       	sbci	r19, 0xFF	; 255
    2ca2:	a7 01       	movw	r20, r14
    2ca4:	b6 01       	movw	r22, r12
    2ca6:	c6 01       	movw	r24, r12
    2ca8:	0e 94 f8 03 	call	0x7f0	; 0x7f0 <dist_comp>
		//printf("Dist compare Completed\n");
		for(int p = 0;p<len;p++)
    2cac:	89 81       	ldd	r24, Y+1	; 0x01
    2cae:	9a 81       	ldd	r25, Y+2	; 0x02
    2cb0:	18 16       	cp	r1, r24
    2cb2:	19 06       	cpc	r1, r25
    2cb4:	3c f4       	brge	.+14     	; 0x2cc4 <main+0x264>
    2cb6:	20 e0       	ldi	r18, 0x00	; 0
    2cb8:	30 e0       	ldi	r19, 0x00	; 0
    2cba:	2f 5f       	subi	r18, 0xFF	; 255
    2cbc:	3f 4f       	sbci	r19, 0xFF	; 255
    2cbe:	28 17       	cp	r18, r24
    2cc0:	39 07       	cpc	r19, r25
    2cc2:	d9 f7       	brne	.-10     	; 0x2cba <main+0x25a>
		{
			//printf("%d\n",path[p]);
			//lcd_print(1,2*p,path[p],2);
		}
		traverse(path,u,&len);
    2cc4:	60 91 04 05 	lds	r22, 0x0504
    2cc8:	70 91 05 05 	lds	r23, 0x0505
    2ccc:	ae 01       	movw	r20, r28
    2cce:	4f 5f       	subi	r20, 0xFF	; 255
    2cd0:	5f 4f       	sbci	r21, 0xFF	; 255
    2cd2:	c7 01       	movw	r24, r14
    2cd4:	0e 94 c6 0c 	call	0x198c	; 0x198c <traverse>
		//printf("Traverse Completed\n");
		free(path);
    2cd8:	c7 01       	movw	r24, r14
    2cda:	0e 94 88 20 	call	0x4110	; 0x4110 <free>
		len = 0;
    2cde:	1a 82       	std	Y+2, r1	; 0x02
    2ce0:	19 82       	std	Y+1, r1	; 0x01
		block_choose2(block,block_placed);
    2ce2:	6c ee       	ldi	r22, 0xEC	; 236
    2ce4:	74 e0       	ldi	r23, 0x04	; 4
    2ce6:	c5 01       	movw	r24, r10
    2ce8:	0b de       	rcall	.-1002   	; 0x2900 <block_choose2>
		//printf("Block Choose Completed\n");
		s_pick();
    2cea:	0e 94 64 08 	call	0x10c8	; 0x10c8 <s_pick>
		lcd_init();
    2cee:	0e 94 05 01 	call	0x20a	; 0x20a <lcd_init>
    2cf2:	47 01       	movw	r8, r14
		for(int p = 0;p<=12;p++)
    2cf4:	00 e0       	ldi	r16, 0x00	; 0
    2cf6:	10 e0       	ldi	r17, 0x00	; 0
		{
			if (path[p] == 1) lcd_print(1,1,p,2);
    2cf8:	f4 01       	movw	r30, r8
    2cfa:	81 91       	ld	r24, Z+
    2cfc:	91 91       	ld	r25, Z+
    2cfe:	4f 01       	movw	r8, r30
    2d00:	01 97       	sbiw	r24, 0x01	; 1
    2d02:	39 f4       	brne	.+14     	; 0x2d12 <main+0x2b2>
    2d04:	22 e0       	ldi	r18, 0x02	; 2
    2d06:	30 e0       	ldi	r19, 0x00	; 0
    2d08:	a8 01       	movw	r20, r16
    2d0a:	61 e0       	ldi	r22, 0x01	; 1
    2d0c:	81 e0       	ldi	r24, 0x01	; 1
    2d0e:	0e 94 4c 01 	call	0x298	; 0x298 <lcd_print>
		len = 0;
		block_choose2(block,block_placed);
		//printf("Block Choose Completed\n");
		s_pick();
		lcd_init();
		for(int p = 0;p<=12;p++)
    2d12:	0f 5f       	subi	r16, 0xFF	; 255
    2d14:	1f 4f       	sbci	r17, 0xFF	; 255
    2d16:	0d 30       	cpi	r16, 0x0D	; 13
    2d18:	11 05       	cpc	r17, r1
    2d1a:	71 f7       	brne	.-36     	; 0x2cf8 <main+0x298>
		{
			if (path[p] == 1) lcd_print(1,1,p,2);
		}
		u=bnode;
    2d1c:	d0 92 05 05 	sts	0x0505, r13
    2d20:	c0 92 04 05 	sts	0x0504, r12

		dijkstra(G,n,u);
    2d24:	60 91 87 04 	lds	r22, 0x0487
    2d28:	70 91 88 04 	lds	r23, 0x0488
    2d2c:	a6 01       	movw	r20, r12
    2d2e:	8e e7       	ldi	r24, 0x7E	; 126
    2d30:	92 e0       	ldi	r25, 0x02	; 2
    2d32:	0e 94 77 02 	call	0x4ee	; 0x4ee <dijkstra>
		//printf("Dijkstra Completed\n");
		dist_comp(h51,h52,path,&len);
    2d36:	60 91 43 04 	lds	r22, 0x0443
    2d3a:	70 91 44 04 	lds	r23, 0x0444
    2d3e:	9e 01       	movw	r18, r28
    2d40:	2f 5f       	subi	r18, 0xFF	; 255
    2d42:	3f 4f       	sbci	r19, 0xFF	; 255
    2d44:	a7 01       	movw	r20, r14
    2d46:	80 91 45 04 	lds	r24, 0x0445
    2d4a:	90 91 46 04 	lds	r25, 0x0446
    2d4e:	0e 94 f8 03 	call	0x7f0	; 0x7f0 <dist_comp>

		//printf("Dist compare Completed\n");
		for(int p = 0;p<len;p++)
    2d52:	29 81       	ldd	r18, Y+1	; 0x01
    2d54:	3a 81       	ldd	r19, Y+2	; 0x02
    2d56:	12 16       	cp	r1, r18
    2d58:	13 06       	cpc	r1, r19
    2d5a:	34 f4       	brge	.+12     	; 0x2d68 <main+0x308>
    2d5c:	80 e0       	ldi	r24, 0x00	; 0
    2d5e:	90 e0       	ldi	r25, 0x00	; 0
    2d60:	01 96       	adiw	r24, 0x01	; 1
    2d62:	82 17       	cp	r24, r18
    2d64:	93 07       	cpc	r25, r19
    2d66:	e1 f7       	brne	.-8      	; 0x2d60 <main+0x300>
		{
			//printf("%d\n",path[p]);
			//lcd_print(1,2*p,path[p],2);
		}
		traverse(path,u,&len);
    2d68:	60 91 04 05 	lds	r22, 0x0504
    2d6c:	70 91 05 05 	lds	r23, 0x0505
    2d70:	ae 01       	movw	r20, r28
    2d72:	4f 5f       	subi	r20, 0xFF	; 255
    2d74:	5f 4f       	sbci	r21, 0xFF	; 255
    2d76:	c7 01       	movw	r24, r14
    2d78:	0e 94 c6 0c 	call	0x198c	; 0x198c <traverse>
		//printf("Traverse Completed\n");
		u = path[len-1];
    2d7c:	e9 81       	ldd	r30, Y+1	; 0x01
    2d7e:	fa 81       	ldd	r31, Y+2	; 0x02
    2d80:	e1 50       	subi	r30, 0x01	; 1
    2d82:	f0 48       	sbci	r31, 0x80	; 128
    2d84:	ee 0f       	add	r30, r30
    2d86:	ff 1f       	adc	r31, r31
    2d88:	ee 0d       	add	r30, r14
    2d8a:	ff 1d       	adc	r31, r15
    2d8c:	80 81       	ld	r24, Z
    2d8e:	91 81       	ldd	r25, Z+1	; 0x01
    2d90:	90 93 05 05 	sts	0x0505, r25
    2d94:	80 93 04 05 	sts	0x0504, r24
		free(path);
    2d98:	c7 01       	movw	r24, r14
    2d9a:	0e 94 88 20 	call	0x4110	; 0x4110 <free>
		len = 0;
    2d9e:	1a 82       	std	Y+2, r1	; 0x02
    2da0:	19 82       	std	Y+1, r1	; 0x01
	}
	if (u==7)
    2da2:	80 91 04 05 	lds	r24, 0x0504
    2da6:	90 91 05 05 	lds	r25, 0x0505
    2daa:	87 30       	cpi	r24, 0x07	; 7
    2dac:	91 05       	cpc	r25, r1
    2dae:	f1 f4       	brne	.+60     	; 0x2dec <main+0x38c>
	{
		right_turn_inv();
    2db0:	0e 94 38 0c 	call	0x1870	; 0x1870 <right_turn_inv>
		forward_wls(3,1);
    2db4:	61 e0       	ldi	r22, 0x01	; 1
    2db6:	70 e0       	ldi	r23, 0x00	; 0
    2db8:	83 e0       	ldi	r24, 0x03	; 3
    2dba:	90 e0       	ldi	r25, 0x00	; 0
    2dbc:	0e 94 b8 08 	call	0x1170	; 0x1170 <forward_wls>
		face = 'e';
    2dc0:	85 e6       	ldi	r24, 0x65	; 101
    2dc2:	80 93 86 04 	sts	0x0486, r24
		u = 8;
    2dc6:	88 e0       	ldi	r24, 0x08	; 8
    2dc8:	90 e0       	ldi	r25, 0x00	; 0
    2dca:	90 93 05 05 	sts	0x0505, r25
    2dce:	80 93 04 05 	sts	0x0504, r24
		if (block_placed[10] == 0) block = 11;
    2dd2:	80 91 00 05 	lds	r24, 0x0500
    2dd6:	90 91 01 05 	lds	r25, 0x0501
    2dda:	89 2b       	or	r24, r25
    2ddc:	31 f1       	breq	.+76     	; 0x2e2a <main+0x3ca>
		else if (block_placed[11] == 0) block = 12;
    2dde:	80 91 02 05 	lds	r24, 0x0502
    2de2:	90 91 03 05 	lds	r25, 0x0503
    2de6:	89 2b       	or	r24, r25
    2de8:	31 f1       	breq	.+76     	; 0x2e36 <main+0x3d6>
    2dea:	36 c0       	rjmp	.+108    	; 0x2e58 <main+0x3f8>
	}
	else if (u==8)
    2dec:	08 97       	sbiw	r24, 0x08	; 8
    2dee:	a1 f5       	brne	.+104    	; 0x2e58 <main+0x3f8>
	{
		left_turn_inv();
    2df0:	db dd       	rcall	.-1098   	; 0x29a8 <left_turn_inv>
		forward_wls(3,1);
    2df2:	61 e0       	ldi	r22, 0x01	; 1
    2df4:	70 e0       	ldi	r23, 0x00	; 0
    2df6:	83 e0       	ldi	r24, 0x03	; 3
    2df8:	90 e0       	ldi	r25, 0x00	; 0
    2dfa:	0e 94 b8 08 	call	0x1170	; 0x1170 <forward_wls>
		face = 'w';
    2dfe:	87 e7       	ldi	r24, 0x77	; 119
    2e00:	80 93 86 04 	sts	0x0486, r24
		u = 7;
    2e04:	87 e0       	ldi	r24, 0x07	; 7
    2e06:	90 e0       	ldi	r25, 0x00	; 0
    2e08:	90 93 05 05 	sts	0x0505, r25
    2e0c:	80 93 04 05 	sts	0x0504, r24
		if (block_placed[8] == 0) block = 9;
    2e10:	80 91 fc 04 	lds	r24, 0x04FC
    2e14:	90 91 fd 04 	lds	r25, 0x04FD
    2e18:	89 2b       	or	r24, r25
    2e1a:	99 f0       	breq	.+38     	; 0x2e42 <main+0x3e2>
		else if (block_placed[9] == 0) block = 10;
    2e1c:	80 91 fe 04 	lds	r24, 0x04FE
    2e20:	90 91 ff 04 	lds	r25, 0x04FF
    2e24:	89 2b       	or	r24, r25
    2e26:	99 f0       	breq	.+38     	; 0x2e4e <main+0x3ee>
    2e28:	17 c0       	rjmp	.+46     	; 0x2e58 <main+0x3f8>
	{
		right_turn_inv();
		forward_wls(3,1);
		face = 'e';
		u = 8;
		if (block_placed[10] == 0) block = 11;
    2e2a:	0f 2e       	mov	r0, r31
    2e2c:	fb e0       	ldi	r31, 0x0B	; 11
    2e2e:	af 2e       	mov	r10, r31
    2e30:	b1 2c       	mov	r11, r1
    2e32:	f0 2d       	mov	r31, r0
    2e34:	11 c0       	rjmp	.+34     	; 0x2e58 <main+0x3f8>
		else if (block_placed[11] == 0) block = 12;
    2e36:	0f 2e       	mov	r0, r31
    2e38:	fc e0       	ldi	r31, 0x0C	; 12
    2e3a:	af 2e       	mov	r10, r31
    2e3c:	b1 2c       	mov	r11, r1
    2e3e:	f0 2d       	mov	r31, r0
    2e40:	0b c0       	rjmp	.+22     	; 0x2e58 <main+0x3f8>
	{
		left_turn_inv();
		forward_wls(3,1);
		face = 'w';
		u = 7;
		if (block_placed[8] == 0) block = 9;
    2e42:	0f 2e       	mov	r0, r31
    2e44:	f9 e0       	ldi	r31, 0x09	; 9
    2e46:	af 2e       	mov	r10, r31
    2e48:	b1 2c       	mov	r11, r1
    2e4a:	f0 2d       	mov	r31, r0
    2e4c:	05 c0       	rjmp	.+10     	; 0x2e58 <main+0x3f8>
		else if (block_placed[9] == 0) block = 10;
    2e4e:	0f 2e       	mov	r0, r31
    2e50:	fa e0       	ldi	r31, 0x0A	; 10
    2e52:	af 2e       	mov	r10, r31
    2e54:	b1 2c       	mov	r11, r1
    2e56:	f0 2d       	mov	r31, r0
	}

	bnode = which_node(block);
    2e58:	c5 01       	movw	r24, r10
    2e5a:	0e 94 89 04 	call	0x912	; 0x912 <which_node>
    2e5e:	8c 01       	movw	r16, r24
	dijkstra(G,n,u);
    2e60:	40 91 04 05 	lds	r20, 0x0504
    2e64:	50 91 05 05 	lds	r21, 0x0505
    2e68:	60 91 87 04 	lds	r22, 0x0487
    2e6c:	70 91 88 04 	lds	r23, 0x0488
    2e70:	8e e7       	ldi	r24, 0x7E	; 126
    2e72:	92 e0       	ldi	r25, 0x02	; 2
    2e74:	0e 94 77 02 	call	0x4ee	; 0x4ee <dijkstra>
	//printf("Dijkstra Completed\n");
	//printf("Block - %d\n",block);
	//printf("Node - %d\n",bnode);
	dist_comp(bnode,bnode,path,&len);
    2e78:	9e 01       	movw	r18, r28
    2e7a:	2f 5f       	subi	r18, 0xFF	; 255
    2e7c:	3f 4f       	sbci	r19, 0xFF	; 255
    2e7e:	a7 01       	movw	r20, r14
    2e80:	b8 01       	movw	r22, r16
    2e82:	c8 01       	movw	r24, r16
    2e84:	0e 94 f8 03 	call	0x7f0	; 0x7f0 <dist_comp>
	//printf("Dist compare Completed\n");
	for(int p = 0;p<len;p++)
    2e88:	49 81       	ldd	r20, Y+1	; 0x01
    2e8a:	5a 81       	ldd	r21, Y+2	; 0x02
    2e8c:	14 16       	cp	r1, r20
    2e8e:	15 06       	cpc	r1, r21
    2e90:	3c f4       	brge	.+14     	; 0x2ea0 <main+0x440>
    2e92:	20 e0       	ldi	r18, 0x00	; 0
    2e94:	30 e0       	ldi	r19, 0x00	; 0
    2e96:	2f 5f       	subi	r18, 0xFF	; 255
    2e98:	3f 4f       	sbci	r19, 0xFF	; 255
    2e9a:	24 17       	cp	r18, r20
    2e9c:	35 07       	cpc	r19, r21
    2e9e:	d9 f7       	brne	.-10     	; 0x2e96 <main+0x436>
	{
		//printf("%d\n",path[p]);
		//lcd_print(1,2*p,path[p],2);
	}
	traverse(path,u,&len);
    2ea0:	60 91 04 05 	lds	r22, 0x0504
    2ea4:	70 91 05 05 	lds	r23, 0x0505
    2ea8:	ae 01       	movw	r20, r28
    2eaa:	4f 5f       	subi	r20, 0xFF	; 255
    2eac:	5f 4f       	sbci	r21, 0xFF	; 255
    2eae:	c7 01       	movw	r24, r14
    2eb0:	0e 94 c6 0c 	call	0x198c	; 0x198c <traverse>
	//printf("Traverse Completed\n");
	free(path);
    2eb4:	c7 01       	movw	r24, r14
    2eb6:	0e 94 88 20 	call	0x4110	; 0x4110 <free>
	len = 0;
    2eba:	1a 82       	std	Y+2, r1	; 0x02
    2ebc:	19 82       	std	Y+1, r1	; 0x01
	block_choose2(block,block_placed);
    2ebe:	6c ee       	ldi	r22, 0xEC	; 236
    2ec0:	74 e0       	ldi	r23, 0x04	; 4
    2ec2:	c5 01       	movw	r24, r10
    2ec4:	1d dd       	rcall	.-1478   	; 0x2900 <block_choose2>
	//block_choose(bnode,block_placed);
	//printf("Block Choose Completed\n");
	u = bnode;
    2ec6:	10 93 05 05 	sts	0x0505, r17
    2eca:	00 93 04 05 	sts	0x0504, r16
    2ece:	e7 e6       	ldi	r30, 0x67	; 103
    2ed0:	f4 e0       	ldi	r31, 0x04	; 4
	for (int i = 0; i < 10; i++)
    2ed2:	80 e0       	ldi	r24, 0x00	; 0
    2ed4:	90 e0       	ldi	r25, 0x00	; 0
/* --------------------------------------------------------------MAIN-----------------------------------------------------------*/

int main()
{
	init_devices();
	int house_no = 0;
    2ed6:	00 e0       	ldi	r16, 0x00	; 0
    2ed8:	10 e0       	ldi	r17, 0x00	; 0
			else if (i==6) {house_no = 4;break;}
			else if (i==7) {house_no = 4;break;}
		}
		else
		{
			house_no = -1;
    2eda:	7f ef       	ldi	r23, 0xFF	; 255
    2edc:	6f ef       	ldi	r22, 0xFF	; 255
	//block_choose(bnode,block_placed);
	//printf("Block Choose Completed\n");
	u = bnode;
	for (int i = 0; i < 10; i++)
	{
		if (which_material[i] == block)
    2ede:	21 91       	ld	r18, Z+
    2ee0:	31 91       	ld	r19, Z+
    2ee2:	2a 15       	cp	r18, r10
    2ee4:	3b 05       	cpc	r19, r11
    2ee6:	c1 f4       	brne	.+48     	; 0x2f18 <main+0x4b8>
    2ee8:	9c 01       	movw	r18, r24
		{
			if (i==0) {house_no = 1;break;}
    2eea:	82 30       	cpi	r24, 0x02	; 2
    2eec:	91 05       	cpc	r25, r1
    2eee:	08 f4       	brcc	.+2      	; 0x2ef2 <main+0x492>
    2ef0:	a0 c6       	rjmp	.+3392   	; 0x3c32 <main+0x11d2>
    2ef2:	ac 01       	movw	r20, r24
    2ef4:	42 50       	subi	r20, 0x02	; 2
    2ef6:	51 09       	sbc	r21, r1
			else if (i==1) {house_no = 1;break;}
			else if (i==2) {house_no = 2;break;}
    2ef8:	42 30       	cpi	r20, 0x02	; 2
    2efa:	51 05       	cpc	r21, r1
    2efc:	08 f4       	brcc	.+2      	; 0x2f00 <main+0x4a0>
    2efe:	9c c6       	rjmp	.+3384   	; 0x3c38 <main+0x11d8>
    2f00:	42 50       	subi	r20, 0x02	; 2
    2f02:	51 09       	sbc	r21, r1
			else if (i==3) {house_no = 2;break;}
			else if (i==4) {house_no = 3;break;}
    2f04:	42 30       	cpi	r20, 0x02	; 2
    2f06:	51 05       	cpc	r21, r1
    2f08:	08 f4       	brcc	.+2      	; 0x2f0c <main+0x4ac>
    2f0a:	99 c6       	rjmp	.+3378   	; 0x3c3e <main+0x11de>
    2f0c:	26 50       	subi	r18, 0x06	; 6
    2f0e:	31 09       	sbc	r19, r1
			else if (i==5) {house_no = 3;break;}
			else if (i==6) {house_no = 4;break;}
    2f10:	22 30       	cpi	r18, 0x02	; 2
    2f12:	31 05       	cpc	r19, r1
    2f14:	18 f4       	brcc	.+6      	; 0x2f1c <main+0x4bc>
    2f16:	96 c6       	rjmp	.+3372   	; 0x3c44 <main+0x11e4>
			else if (i==7) {house_no = 4;break;}
		}
		else
		{
			house_no = -1;
    2f18:	07 2f       	mov	r16, r23
    2f1a:	16 2f       	mov	r17, r22
	len = 0;
	block_choose2(block,block_placed);
	//block_choose(bnode,block_placed);
	//printf("Block Choose Completed\n");
	u = bnode;
	for (int i = 0; i < 10; i++)
    2f1c:	01 96       	adiw	r24, 0x01	; 1
    2f1e:	8a 30       	cpi	r24, 0x0A	; 10
    2f20:	91 05       	cpc	r25, r1
    2f22:	e9 f6       	brne	.-70     	; 0x2ede <main+0x47e>
		else
		{
			house_no = -1;
		}
	}
	if (house_no != -1)
    2f24:	0f 3f       	cpi	r16, 0xFF	; 255
    2f26:	ff ef       	ldi	r31, 0xFF	; 255
    2f28:	1f 07       	cpc	r17, r31
    2f2a:	11 f0       	breq	.+4      	; 0x2f30 <main+0x4d0>
	{
		m_pick();
    2f2c:	0e 94 20 08 	call	0x1040	; 0x1040 <m_pick>
	}
	if (block == which_material[2*house_no - 1])
    2f30:	c8 01       	movw	r24, r16
    2f32:	88 0f       	add	r24, r24
    2f34:	99 1f       	adc	r25, r25
    2f36:	fc 01       	movw	r30, r24
    2f38:	ee 0f       	add	r30, r30
    2f3a:	ff 1f       	adc	r31, r31
    2f3c:	eb 59       	subi	r30, 0x9B	; 155
    2f3e:	fb 4f       	sbci	r31, 0xFB	; 251
    2f40:	c0 80       	ld	r12, Z
    2f42:	d1 80       	ldd	r13, Z+1	; 0x01
    2f44:	ca 14       	cp	r12, r10
    2f46:	db 04       	cpc	r13, r11
    2f48:	39 f4       	brne	.+14     	; 0x2f58 <main+0x4f8>
	{
	block = which_material[2*house_no - 2];  }
    2f4a:	fc 01       	movw	r30, r24
    2f4c:	ee 0f       	add	r30, r30
    2f4e:	ff 1f       	adc	r31, r31
    2f50:	ed 59       	subi	r30, 0x9D	; 157
    2f52:	fb 4f       	sbci	r31, 0xFB	; 251
    2f54:	c0 80       	ld	r12, Z
    2f56:	d1 80       	ldd	r13, Z+1	; 0x01
	else
	{
		block = which_material[2*house_no - 1];
	}
	if (block != 0)
    2f58:	c1 14       	cp	r12, r1
    2f5a:	d1 04       	cpc	r13, r1
    2f5c:	b1 f1       	breq	.+108    	; 0x2fca <main+0x56a>
	{
		dijkstra(G,n,u);
    2f5e:	40 91 04 05 	lds	r20, 0x0504
    2f62:	50 91 05 05 	lds	r21, 0x0505
    2f66:	60 91 87 04 	lds	r22, 0x0487
    2f6a:	70 91 88 04 	lds	r23, 0x0488
    2f6e:	8e e7       	ldi	r24, 0x7E	; 126
    2f70:	92 e0       	ldi	r25, 0x02	; 2
    2f72:	0e 94 77 02 	call	0x4ee	; 0x4ee <dijkstra>
		//printf("Dijkstra Completed\n");
		bnode = which_node(block);
    2f76:	c6 01       	movw	r24, r12
    2f78:	0e 94 89 04 	call	0x912	; 0x912 <which_node>
		dist_comp(bnode,bnode,path,&len);
    2f7c:	9e 01       	movw	r18, r28
    2f7e:	2f 5f       	subi	r18, 0xFF	; 255
    2f80:	3f 4f       	sbci	r19, 0xFF	; 255
    2f82:	a7 01       	movw	r20, r14
    2f84:	bc 01       	movw	r22, r24
    2f86:	0e 94 f8 03 	call	0x7f0	; 0x7f0 <dist_comp>
		//printf("Dist compare Completed\n");
		//printf("Block - %d\n",block);
		//printf("Node - %d\n",bnode);
		for(int p = 0;p<len;p++)
    2f8a:	29 81       	ldd	r18, Y+1	; 0x01
    2f8c:	3a 81       	ldd	r19, Y+2	; 0x02
    2f8e:	12 16       	cp	r1, r18
    2f90:	13 06       	cpc	r1, r19
    2f92:	34 f4       	brge	.+12     	; 0x2fa0 <main+0x540>
    2f94:	80 e0       	ldi	r24, 0x00	; 0
    2f96:	90 e0       	ldi	r25, 0x00	; 0
    2f98:	01 96       	adiw	r24, 0x01	; 1
    2f9a:	82 17       	cp	r24, r18
    2f9c:	93 07       	cpc	r25, r19
    2f9e:	e1 f7       	brne	.-8      	; 0x2f98 <main+0x538>
		{
			//printf("%d\n",path[p]);
			//lcd_print(1,2*p,path[p],2);
		}
		bnode = path[len-1];
		traverse(path,u,&len);
    2fa0:	60 91 04 05 	lds	r22, 0x0504
    2fa4:	70 91 05 05 	lds	r23, 0x0505
    2fa8:	ae 01       	movw	r20, r28
    2faa:	4f 5f       	subi	r20, 0xFF	; 255
    2fac:	5f 4f       	sbci	r21, 0xFF	; 255
    2fae:	c7 01       	movw	r24, r14
    2fb0:	0e 94 c6 0c 	call	0x198c	; 0x198c <traverse>
		//printf("Traverse Completed\n");
		free(path);
    2fb4:	c7 01       	movw	r24, r14
    2fb6:	0e 94 88 20 	call	0x4110	; 0x4110 <free>
		len = 0;
    2fba:	1a 82       	std	Y+2, r1	; 0x02
    2fbc:	19 82       	std	Y+1, r1	; 0x01
		block_choose2(block,block_placed);
    2fbe:	6c ee       	ldi	r22, 0xEC	; 236
    2fc0:	74 e0       	ldi	r23, 0x04	; 4
    2fc2:	c6 01       	movw	r24, r12
    2fc4:	9d dc       	rcall	.-1734   	; 0x2900 <block_choose2>
		//printf("Block Choose Completed\n");
		s_pick();
    2fc6:	0e 94 64 08 	call	0x10c8	; 0x10c8 <s_pick>
	}

	dijkstra(G,n,u);
    2fca:	40 91 04 05 	lds	r20, 0x0504
    2fce:	50 91 05 05 	lds	r21, 0x0505
    2fd2:	60 91 87 04 	lds	r22, 0x0487
    2fd6:	70 91 88 04 	lds	r23, 0x0488
    2fda:	8e e7       	ldi	r24, 0x7E	; 126
    2fdc:	92 e0       	ldi	r25, 0x02	; 2
    2fde:	0e 94 77 02 	call	0x4ee	; 0x4ee <dijkstra>
	//printf("Dijkstra Completed\n");
	int hnode = 0;
	hnode = which_house(house_no);
    2fe2:	c8 01       	movw	r24, r16
    2fe4:	0e 94 eb 04 	call	0x9d6	; 0x9d6 <which_house>
	dist_comp(hnode,hnode,path,&len);
    2fe8:	9e 01       	movw	r18, r28
    2fea:	2f 5f       	subi	r18, 0xFF	; 255
    2fec:	3f 4f       	sbci	r19, 0xFF	; 255
    2fee:	a7 01       	movw	r20, r14
    2ff0:	bc 01       	movw	r22, r24
    2ff2:	0e 94 f8 03 	call	0x7f0	; 0x7f0 <dist_comp>
	//printf("Dist compare Completed\n");
	for(int p = 0;p<len;p++)
    2ff6:	29 81       	ldd	r18, Y+1	; 0x01
    2ff8:	3a 81       	ldd	r19, Y+2	; 0x02
    2ffa:	12 16       	cp	r1, r18
    2ffc:	13 06       	cpc	r1, r19
    2ffe:	34 f4       	brge	.+12     	; 0x300c <main+0x5ac>
    3000:	80 e0       	ldi	r24, 0x00	; 0
    3002:	90 e0       	ldi	r25, 0x00	; 0
    3004:	01 96       	adiw	r24, 0x01	; 1
    3006:	82 17       	cp	r24, r18
    3008:	93 07       	cpc	r25, r19
    300a:	e1 f7       	brne	.-8      	; 0x3004 <main+0x5a4>
	{
		//printf("%d\n",path[p]);
		//lcd_print(1,2*p,path[p],2);
	}
	traverse(path,u,&len);
    300c:	60 91 04 05 	lds	r22, 0x0504
    3010:	70 91 05 05 	lds	r23, 0x0505
    3014:	ae 01       	movw	r20, r28
    3016:	4f 5f       	subi	r20, 0xFF	; 255
    3018:	5f 4f       	sbci	r21, 0xFF	; 255
    301a:	c7 01       	movw	r24, r14
    301c:	0e 94 c6 0c 	call	0x198c	; 0x198c <traverse>
	//printf("Traverse Completed\n");
	free(path);
    3020:	c7 01       	movw	r24, r14
    3022:	0e 94 88 20 	call	0x4110	; 0x4110 <free>
	len = 0;
    3026:	1a 82       	std	Y+2, r1	; 0x02
    3028:	19 82       	std	Y+1, r1	; 0x01
	if (house_no == 1)
    302a:	01 30       	cpi	r16, 0x01	; 1
    302c:	11 05       	cpc	r17, r1
    302e:	69 f5       	brne	.+90     	; 0x308a <main+0x62a>
	{
		fdir = 'w';
    3030:	87 e7       	ldi	r24, 0x77	; 119
    3032:	80 93 85 04 	sts	0x0485, r24
		block_traverse();
    3036:	70 db       	rcall	.-2336   	; 0x2718 <block_traverse>
		back();
    3038:	0e 94 d3 05 	call	0xba6	; 0xba6 <back>
	#else
		//round up by default
		__ticks_dc = (uint32_t)(ceil(fabs(__tmp)));
	#endif

	__builtin_avr_delay_cycles(__ticks_dc);
    303c:	2f ef       	ldi	r18, 0xFF	; 255
    303e:	8f e7       	ldi	r24, 0x7F	; 127
    3040:	94 e0       	ldi	r25, 0x04	; 4
    3042:	21 50       	subi	r18, 0x01	; 1
    3044:	80 40       	sbci	r24, 0x00	; 0
    3046:	90 40       	sbci	r25, 0x00	; 0
    3048:	e1 f7       	brne	.-8      	; 0x3042 <main+0x5e2>
    304a:	00 c0       	rjmp	.+0      	; 0x304c <main+0x5ec>
    304c:	00 00       	nop
		_delay_ms(100);
		stop();
    304e:	0e 94 e5 05 	call	0xbca	; 0xbca <stop>
		if (house_config[house_no-1]==0)
    3052:	80 91 7b 04 	lds	r24, 0x047B
    3056:	90 91 7c 04 	lds	r25, 0x047C
    305a:	89 2b       	or	r24, r25
    305c:	29 f4       	brne	.+10     	; 0x3068 <main+0x608>
		{
			m_place_lr();
    305e:	0e 94 21 07 	call	0xe42	; 0xe42 <m_place_lr>
			s_place_lr();
    3062:	0e 94 63 07 	call	0xec6	; 0xec6 <s_place_lr>
    3066:	02 c0       	rjmp	.+4      	; 0x306c <main+0x60c>
		}
		else
		{
			m_place_hr();
			s_place_hr();
    3068:	0e 94 a9 07 	call	0xf52	; 0xf52 <s_place_hr>
		}
		if (block_placed[0] == 0) block = 1;
    306c:	80 91 ec 04 	lds	r24, 0x04EC
    3070:	90 91 ed 04 	lds	r25, 0x04ED
    3074:	89 2b       	or	r24, r25
    3076:	09 f4       	brne	.+2      	; 0x307a <main+0x61a>
    3078:	97 c0       	rjmp	.+302    	; 0x31a8 <main+0x748>
		else if (block_placed[1] == 0) block = 2;
    307a:	80 91 ee 04 	lds	r24, 0x04EE
    307e:	90 91 ef 04 	lds	r25, 0x04EF
    3082:	89 2b       	or	r24, r25
    3084:	09 f4       	brne	.+2      	; 0x3088 <main+0x628>
    3086:	94 c0       	rjmp	.+296    	; 0x31b0 <main+0x750>
    3088:	b9 c0       	rjmp	.+370    	; 0x31fc <main+0x79c>
	}
	else if (house_no == 2)
    308a:	02 30       	cpi	r16, 0x02	; 2
    308c:	11 05       	cpc	r17, r1
    308e:	69 f5       	brne	.+90     	; 0x30ea <main+0x68a>
	{
		fdir = 'e';
    3090:	85 e6       	ldi	r24, 0x65	; 101
    3092:	80 93 85 04 	sts	0x0485, r24
		block_traverse();
    3096:	40 db       	rcall	.-2432   	; 0x2718 <block_traverse>
		back();
    3098:	0e 94 d3 05 	call	0xba6	; 0xba6 <back>
    309c:	ef ef       	ldi	r30, 0xFF	; 255
    309e:	ff e7       	ldi	r31, 0x7F	; 127
    30a0:	24 e0       	ldi	r18, 0x04	; 4
    30a2:	e1 50       	subi	r30, 0x01	; 1
    30a4:	f0 40       	sbci	r31, 0x00	; 0
    30a6:	20 40       	sbci	r18, 0x00	; 0
    30a8:	e1 f7       	brne	.-8      	; 0x30a2 <main+0x642>
    30aa:	00 c0       	rjmp	.+0      	; 0x30ac <main+0x64c>
    30ac:	00 00       	nop
		_delay_ms(100);
		stop();
    30ae:	0e 94 e5 05 	call	0xbca	; 0xbca <stop>
		if (house_config[house_no-1]==0)
    30b2:	80 91 7d 04 	lds	r24, 0x047D
    30b6:	90 91 7e 04 	lds	r25, 0x047E
    30ba:	89 2b       	or	r24, r25
    30bc:	29 f4       	brne	.+10     	; 0x30c8 <main+0x668>
		{
			m_place_lr();
    30be:	0e 94 21 07 	call	0xe42	; 0xe42 <m_place_lr>
			s_place_lr();
    30c2:	0e 94 63 07 	call	0xec6	; 0xec6 <s_place_lr>
    30c6:	02 c0       	rjmp	.+4      	; 0x30cc <main+0x66c>
		}
		else
		{
			m_place_hr();
			s_place_hr();
    30c8:	0e 94 a9 07 	call	0xf52	; 0xf52 <s_place_hr>
		}
		if (block_placed[2] == 0) block = 3;
    30cc:	80 91 f0 04 	lds	r24, 0x04F0
    30d0:	90 91 f1 04 	lds	r25, 0x04F1
    30d4:	89 2b       	or	r24, r25
    30d6:	09 f4       	brne	.+2      	; 0x30da <main+0x67a>
    30d8:	70 c0       	rjmp	.+224    	; 0x31ba <main+0x75a>
		else if (block_placed[3] == 0) block = 4;
    30da:	80 91 f2 04 	lds	r24, 0x04F2
    30de:	90 91 f3 04 	lds	r25, 0x04F3
    30e2:	89 2b       	or	r24, r25
    30e4:	09 f4       	brne	.+2      	; 0x30e8 <main+0x688>
    30e6:	6f c0       	rjmp	.+222    	; 0x31c6 <main+0x766>
    30e8:	89 c0       	rjmp	.+274    	; 0x31fc <main+0x79c>
	}
	else if (house_no == 3)
    30ea:	03 30       	cpi	r16, 0x03	; 3
    30ec:	11 05       	cpc	r17, r1
    30ee:	69 f5       	brne	.+90     	; 0x314a <main+0x6ea>
	{
		fdir = 'w';
    30f0:	87 e7       	ldi	r24, 0x77	; 119
    30f2:	80 93 85 04 	sts	0x0485, r24
		block_traverse();
    30f6:	10 db       	rcall	.-2528   	; 0x2718 <block_traverse>
		back();
    30f8:	0e 94 d3 05 	call	0xba6	; 0xba6 <back>
    30fc:	8f ef       	ldi	r24, 0xFF	; 255
    30fe:	9f e7       	ldi	r25, 0x7F	; 127
    3100:	e4 e0       	ldi	r30, 0x04	; 4
    3102:	81 50       	subi	r24, 0x01	; 1
    3104:	90 40       	sbci	r25, 0x00	; 0
    3106:	e0 40       	sbci	r30, 0x00	; 0
    3108:	e1 f7       	brne	.-8      	; 0x3102 <main+0x6a2>
    310a:	00 c0       	rjmp	.+0      	; 0x310c <main+0x6ac>
    310c:	00 00       	nop
		_delay_ms(100);
		stop();
    310e:	0e 94 e5 05 	call	0xbca	; 0xbca <stop>
		if (house_config[house_no-1]==0)
    3112:	80 91 7f 04 	lds	r24, 0x047F
    3116:	90 91 80 04 	lds	r25, 0x0480
    311a:	89 2b       	or	r24, r25
    311c:	29 f4       	brne	.+10     	; 0x3128 <main+0x6c8>
		{
			m_place_lr();
    311e:	0e 94 21 07 	call	0xe42	; 0xe42 <m_place_lr>
			s_place_lr();
    3122:	0e 94 63 07 	call	0xec6	; 0xec6 <s_place_lr>
    3126:	02 c0       	rjmp	.+4      	; 0x312c <main+0x6cc>
		}
		else
		{
			m_place_hr();
			s_place_hr();
    3128:	0e 94 a9 07 	call	0xf52	; 0xf52 <s_place_hr>
		}
		if (block_placed[4] == 0) block = 5;
    312c:	80 91 f4 04 	lds	r24, 0x04F4
    3130:	90 91 f5 04 	lds	r25, 0x04F5
    3134:	89 2b       	or	r24, r25
    3136:	09 f4       	brne	.+2      	; 0x313a <main+0x6da>
    3138:	4b c0       	rjmp	.+150    	; 0x31d0 <main+0x770>
		else if (block_placed[5] == 0) block = 6;
    313a:	80 91 f6 04 	lds	r24, 0x04F6
    313e:	90 91 f7 04 	lds	r25, 0x04F7
    3142:	89 2b       	or	r24, r25
    3144:	09 f4       	brne	.+2      	; 0x3148 <main+0x6e8>
    3146:	4a c0       	rjmp	.+148    	; 0x31dc <main+0x77c>
    3148:	59 c0       	rjmp	.+178    	; 0x31fc <main+0x79c>
	}
	else if (house_no == 4)
    314a:	04 30       	cpi	r16, 0x04	; 4
    314c:	11 05       	cpc	r17, r1
    314e:	09 f0       	breq	.+2      	; 0x3152 <main+0x6f2>
    3150:	55 c0       	rjmp	.+170    	; 0x31fc <main+0x79c>
	{
		fdir = 'e';
    3152:	85 e6       	ldi	r24, 0x65	; 101
    3154:	80 93 85 04 	sts	0x0485, r24
		block_traverse();
    3158:	df da       	rcall	.-2626   	; 0x2718 <block_traverse>
		back();
    315a:	0e 94 d3 05 	call	0xba6	; 0xba6 <back>
    315e:	ff ef       	ldi	r31, 0xFF	; 255
    3160:	2f e7       	ldi	r18, 0x7F	; 127
    3162:	84 e0       	ldi	r24, 0x04	; 4
    3164:	f1 50       	subi	r31, 0x01	; 1
    3166:	20 40       	sbci	r18, 0x00	; 0
    3168:	80 40       	sbci	r24, 0x00	; 0
    316a:	e1 f7       	brne	.-8      	; 0x3164 <main+0x704>
    316c:	00 c0       	rjmp	.+0      	; 0x316e <main+0x70e>
    316e:	00 00       	nop
		_delay_ms(100);
		stop();
    3170:	0e 94 e5 05 	call	0xbca	; 0xbca <stop>
		if (house_config[house_no-1]==0)
    3174:	80 91 81 04 	lds	r24, 0x0481
    3178:	90 91 82 04 	lds	r25, 0x0482
    317c:	89 2b       	or	r24, r25
    317e:	29 f4       	brne	.+10     	; 0x318a <main+0x72a>
		{
			m_place_lr();
    3180:	0e 94 21 07 	call	0xe42	; 0xe42 <m_place_lr>
			s_place_lr();
    3184:	0e 94 63 07 	call	0xec6	; 0xec6 <s_place_lr>
    3188:	02 c0       	rjmp	.+4      	; 0x318e <main+0x72e>
		}
		else
		{
			m_place_hr();
			s_place_hr();
    318a:	0e 94 a9 07 	call	0xf52	; 0xf52 <s_place_hr>
		}
		if (block_placed[6] == 0) block = 7;
    318e:	80 91 f8 04 	lds	r24, 0x04F8
    3192:	90 91 f9 04 	lds	r25, 0x04F9
    3196:	89 2b       	or	r24, r25
    3198:	39 f1       	breq	.+78     	; 0x31e8 <main+0x788>
		else if (block_placed[7] == 0) block = 8;
    319a:	80 91 fa 04 	lds	r24, 0x04FA
    319e:	90 91 fb 04 	lds	r25, 0x04FB
    31a2:	89 2b       	or	r24, r25
    31a4:	39 f1       	breq	.+78     	; 0x31f4 <main+0x794>
    31a6:	2a c0       	rjmp	.+84     	; 0x31fc <main+0x79c>
		else
		{
			m_place_hr();
			s_place_hr();
		}
		if (block_placed[0] == 0) block = 1;
    31a8:	cc 24       	eor	r12, r12
    31aa:	c3 94       	inc	r12
    31ac:	d1 2c       	mov	r13, r1
    31ae:	26 c0       	rjmp	.+76     	; 0x31fc <main+0x79c>
		else if (block_placed[1] == 0) block = 2;
    31b0:	68 94       	set
    31b2:	cc 24       	eor	r12, r12
    31b4:	c1 f8       	bld	r12, 1
    31b6:	d1 2c       	mov	r13, r1
    31b8:	21 c0       	rjmp	.+66     	; 0x31fc <main+0x79c>
		else
		{
			m_place_hr();
			s_place_hr();
		}
		if (block_placed[2] == 0) block = 3;
    31ba:	0f 2e       	mov	r0, r31
    31bc:	f3 e0       	ldi	r31, 0x03	; 3
    31be:	cf 2e       	mov	r12, r31
    31c0:	d1 2c       	mov	r13, r1
    31c2:	f0 2d       	mov	r31, r0
    31c4:	1b c0       	rjmp	.+54     	; 0x31fc <main+0x79c>
		else if (block_placed[3] == 0) block = 4;
    31c6:	68 94       	set
    31c8:	cc 24       	eor	r12, r12
    31ca:	c2 f8       	bld	r12, 2
    31cc:	d1 2c       	mov	r13, r1
    31ce:	16 c0       	rjmp	.+44     	; 0x31fc <main+0x79c>
		else
		{
			m_place_hr();
			s_place_hr();
		}
		if (block_placed[4] == 0) block = 5;
    31d0:	0f 2e       	mov	r0, r31
    31d2:	f5 e0       	ldi	r31, 0x05	; 5
    31d4:	cf 2e       	mov	r12, r31
    31d6:	d1 2c       	mov	r13, r1
    31d8:	f0 2d       	mov	r31, r0
    31da:	10 c0       	rjmp	.+32     	; 0x31fc <main+0x79c>
		else if (block_placed[5] == 0) block = 6;
    31dc:	0f 2e       	mov	r0, r31
    31de:	f6 e0       	ldi	r31, 0x06	; 6
    31e0:	cf 2e       	mov	r12, r31
    31e2:	d1 2c       	mov	r13, r1
    31e4:	f0 2d       	mov	r31, r0
    31e6:	0a c0       	rjmp	.+20     	; 0x31fc <main+0x79c>
		else
		{
			m_place_hr();
			s_place_hr();
		}
		if (block_placed[6] == 0) block = 7;
    31e8:	0f 2e       	mov	r0, r31
    31ea:	f7 e0       	ldi	r31, 0x07	; 7
    31ec:	cf 2e       	mov	r12, r31
    31ee:	d1 2c       	mov	r13, r1
    31f0:	f0 2d       	mov	r31, r0
    31f2:	04 c0       	rjmp	.+8      	; 0x31fc <main+0x79c>
		else if (block_placed[7] == 0) block = 8;
    31f4:	68 94       	set
    31f6:	cc 24       	eor	r12, r12
    31f8:	c3 f8       	bld	r12, 3
    31fa:	d1 2c       	mov	r13, r1
	}

	bnode = which_node(block);
    31fc:	c6 01       	movw	r24, r12
    31fe:	0e 94 89 04 	call	0x912	; 0x912 <which_node>
    3202:	5c 01       	movw	r10, r24
	dijkstra(G,n,u);
    3204:	40 91 04 05 	lds	r20, 0x0504
    3208:	50 91 05 05 	lds	r21, 0x0505
    320c:	60 91 87 04 	lds	r22, 0x0487
    3210:	70 91 88 04 	lds	r23, 0x0488
    3214:	8e e7       	ldi	r24, 0x7E	; 126
    3216:	92 e0       	ldi	r25, 0x02	; 2
    3218:	0e 94 77 02 	call	0x4ee	; 0x4ee <dijkstra>
	//printf("Dijkstra Completed\n");
	//printf("Block - %d\n",block);
	//printf("Node - %d\n",bnode);
	dist_comp(bnode,bnode,path,&len);
    321c:	9e 01       	movw	r18, r28
    321e:	2f 5f       	subi	r18, 0xFF	; 255
    3220:	3f 4f       	sbci	r19, 0xFF	; 255
    3222:	a7 01       	movw	r20, r14
    3224:	b5 01       	movw	r22, r10
    3226:	c5 01       	movw	r24, r10
    3228:	0e 94 f8 03 	call	0x7f0	; 0x7f0 <dist_comp>
	//printf("Dist compare Completed\n");
	for(int p = 0;p<len;p++)
    322c:	89 81       	ldd	r24, Y+1	; 0x01
    322e:	9a 81       	ldd	r25, Y+2	; 0x02
    3230:	18 16       	cp	r1, r24
    3232:	19 06       	cpc	r1, r25
    3234:	3c f4       	brge	.+14     	; 0x3244 <main+0x7e4>
    3236:	20 e0       	ldi	r18, 0x00	; 0
    3238:	30 e0       	ldi	r19, 0x00	; 0
    323a:	2f 5f       	subi	r18, 0xFF	; 255
    323c:	3f 4f       	sbci	r19, 0xFF	; 255
    323e:	28 17       	cp	r18, r24
    3240:	39 07       	cpc	r19, r25
    3242:	d9 f7       	brne	.-10     	; 0x323a <main+0x7da>
	{
		//printf("%d\n",path[p]);
		//lcd_print(1,2*p,path[p],2);
	}
	traverse(path,u,&len);
    3244:	60 91 04 05 	lds	r22, 0x0504
    3248:	70 91 05 05 	lds	r23, 0x0505
    324c:	ae 01       	movw	r20, r28
    324e:	4f 5f       	subi	r20, 0xFF	; 255
    3250:	5f 4f       	sbci	r21, 0xFF	; 255
    3252:	c7 01       	movw	r24, r14
    3254:	0e 94 c6 0c 	call	0x198c	; 0x198c <traverse>
	//printf("Traverse Completed\n");
	free(path);
    3258:	c7 01       	movw	r24, r14
    325a:	5a d7       	rcall	.+3764   	; 0x4110 <free>
	len = 0;
    325c:	1a 82       	std	Y+2, r1	; 0x02
    325e:	19 82       	std	Y+1, r1	; 0x01
	block_choose2(block,block_placed);
    3260:	6c ee       	ldi	r22, 0xEC	; 236
    3262:	74 e0       	ldi	r23, 0x04	; 4
    3264:	c6 01       	movw	r24, r12
    3266:	4c db       	rcall	.-2408   	; 0x2900 <block_choose2>
	//block_choose(bnode,block_placed);
	//printf("Block Choose Completed\n");
	u = bnode;
    3268:	b0 92 05 05 	sts	0x0505, r11
    326c:	a0 92 04 05 	sts	0x0504, r10
    3270:	e7 e6       	ldi	r30, 0x67	; 103
    3272:	f4 e0       	ldi	r31, 0x04	; 4
	for (int i = 0; i < 10; i++)
    3274:	80 e0       	ldi	r24, 0x00	; 0
    3276:	90 e0       	ldi	r25, 0x00	; 0
			else if (i==6) {house_no = 4;break;}
			else if (i==7) {house_no = 4;break;}
		}
		else
		{
			house_no = -1;
    3278:	7f ef       	ldi	r23, 0xFF	; 255
    327a:	6f ef       	ldi	r22, 0xFF	; 255
	//block_choose(bnode,block_placed);
	//printf("Block Choose Completed\n");
	u = bnode;
	for (int i = 0; i < 10; i++)
	{
		if (which_material[i] == block)
    327c:	21 91       	ld	r18, Z+
    327e:	31 91       	ld	r19, Z+
    3280:	2c 15       	cp	r18, r12
    3282:	3d 05       	cpc	r19, r13
    3284:	c1 f4       	brne	.+48     	; 0x32b6 <main+0x856>
    3286:	9c 01       	movw	r18, r24
		{
			if (i==0) {house_no = 1;break;}
    3288:	82 30       	cpi	r24, 0x02	; 2
    328a:	91 05       	cpc	r25, r1
    328c:	08 f4       	brcc	.+2      	; 0x3290 <main+0x830>
    328e:	dd c4       	rjmp	.+2490   	; 0x3c4a <main+0x11ea>
    3290:	ac 01       	movw	r20, r24
    3292:	42 50       	subi	r20, 0x02	; 2
    3294:	51 09       	sbc	r21, r1
			else if (i==1) {house_no = 1;break;}
			else if (i==2) {house_no = 2;break;}
    3296:	42 30       	cpi	r20, 0x02	; 2
    3298:	51 05       	cpc	r21, r1
    329a:	08 f4       	brcc	.+2      	; 0x329e <main+0x83e>
    329c:	d9 c4       	rjmp	.+2482   	; 0x3c50 <main+0x11f0>
    329e:	42 50       	subi	r20, 0x02	; 2
    32a0:	51 09       	sbc	r21, r1
			else if (i==3) {house_no = 2;break;}
			else if (i==4) {house_no = 3;break;}
    32a2:	42 30       	cpi	r20, 0x02	; 2
    32a4:	51 05       	cpc	r21, r1
    32a6:	08 f4       	brcc	.+2      	; 0x32aa <main+0x84a>
    32a8:	d6 c4       	rjmp	.+2476   	; 0x3c56 <main+0x11f6>
    32aa:	26 50       	subi	r18, 0x06	; 6
    32ac:	31 09       	sbc	r19, r1
			else if (i==5) {house_no = 3;break;}
			else if (i==6) {house_no = 4;break;}
    32ae:	22 30       	cpi	r18, 0x02	; 2
    32b0:	31 05       	cpc	r19, r1
    32b2:	18 f4       	brcc	.+6      	; 0x32ba <main+0x85a>
    32b4:	d3 c4       	rjmp	.+2470   	; 0x3c5c <main+0x11fc>
			else if (i==7) {house_no = 4;break;}
		}
		else
		{
			house_no = -1;
    32b6:	07 2f       	mov	r16, r23
    32b8:	16 2f       	mov	r17, r22
	len = 0;
	block_choose2(block,block_placed);
	//block_choose(bnode,block_placed);
	//printf("Block Choose Completed\n");
	u = bnode;
	for (int i = 0; i < 10; i++)
    32ba:	01 96       	adiw	r24, 0x01	; 1
    32bc:	8a 30       	cpi	r24, 0x0A	; 10
    32be:	91 05       	cpc	r25, r1
    32c0:	e9 f6       	brne	.-70     	; 0x327c <main+0x81c>
		else
		{
			house_no = -1;
		}
	}
	if (house_no != -1)
    32c2:	0f 3f       	cpi	r16, 0xFF	; 255
    32c4:	9f ef       	ldi	r25, 0xFF	; 255
    32c6:	19 07       	cpc	r17, r25
    32c8:	11 f0       	breq	.+4      	; 0x32ce <main+0x86e>
	{
		m_pick();
    32ca:	0e 94 20 08 	call	0x1040	; 0x1040 <m_pick>
	}
	if (block == which_material[2*house_no - 1])
    32ce:	c8 01       	movw	r24, r16
    32d0:	88 0f       	add	r24, r24
    32d2:	99 1f       	adc	r25, r25
    32d4:	fc 01       	movw	r30, r24
    32d6:	ee 0f       	add	r30, r30
    32d8:	ff 1f       	adc	r31, r31
    32da:	eb 59       	subi	r30, 0x9B	; 155
    32dc:	fb 4f       	sbci	r31, 0xFB	; 251
    32de:	a0 80       	ld	r10, Z
    32e0:	b1 80       	ldd	r11, Z+1	; 0x01
    32e2:	ac 14       	cp	r10, r12
    32e4:	bd 04       	cpc	r11, r13
    32e6:	39 f4       	brne	.+14     	; 0x32f6 <main+0x896>
	{
	block = which_material[2*house_no - 2];  }
    32e8:	fc 01       	movw	r30, r24
    32ea:	ee 0f       	add	r30, r30
    32ec:	ff 1f       	adc	r31, r31
    32ee:	ed 59       	subi	r30, 0x9D	; 157
    32f0:	fb 4f       	sbci	r31, 0xFB	; 251
    32f2:	a0 80       	ld	r10, Z
    32f4:	b1 80       	ldd	r11, Z+1	; 0x01
	else
	{
		block = which_material[2*house_no - 1];
	}
	if (block != 0)
    32f6:	a1 14       	cp	r10, r1
    32f8:	b1 04       	cpc	r11, r1
    32fa:	a9 f1       	breq	.+106    	; 0x3366 <main+0x906>
	{
		dijkstra(G,n,u);
    32fc:	40 91 04 05 	lds	r20, 0x0504
    3300:	50 91 05 05 	lds	r21, 0x0505
    3304:	60 91 87 04 	lds	r22, 0x0487
    3308:	70 91 88 04 	lds	r23, 0x0488
    330c:	8e e7       	ldi	r24, 0x7E	; 126
    330e:	92 e0       	ldi	r25, 0x02	; 2
    3310:	0e 94 77 02 	call	0x4ee	; 0x4ee <dijkstra>
		//printf("Dijkstra Completed\n");
		bnode = which_node(block);
    3314:	c5 01       	movw	r24, r10
    3316:	0e 94 89 04 	call	0x912	; 0x912 <which_node>
		dist_comp(bnode,bnode,path,&len);
    331a:	9e 01       	movw	r18, r28
    331c:	2f 5f       	subi	r18, 0xFF	; 255
    331e:	3f 4f       	sbci	r19, 0xFF	; 255
    3320:	a7 01       	movw	r20, r14
    3322:	bc 01       	movw	r22, r24
    3324:	0e 94 f8 03 	call	0x7f0	; 0x7f0 <dist_comp>
		//printf("Dist compare Completed\n");
		//printf("Block - %d\n",block);
		//printf("Node - %d\n",bnode);
		for(int p = 0;p<len;p++)
    3328:	29 81       	ldd	r18, Y+1	; 0x01
    332a:	3a 81       	ldd	r19, Y+2	; 0x02
    332c:	12 16       	cp	r1, r18
    332e:	13 06       	cpc	r1, r19
    3330:	34 f4       	brge	.+12     	; 0x333e <main+0x8de>
    3332:	80 e0       	ldi	r24, 0x00	; 0
    3334:	90 e0       	ldi	r25, 0x00	; 0
    3336:	01 96       	adiw	r24, 0x01	; 1
    3338:	82 17       	cp	r24, r18
    333a:	93 07       	cpc	r25, r19
    333c:	e1 f7       	brne	.-8      	; 0x3336 <main+0x8d6>
		{
			//printf("%d\n",path[p]);
			//lcd_print(1,2*p,path[p],2);
		}
		bnode = path[len-1];
		traverse(path,u,&len);
    333e:	60 91 04 05 	lds	r22, 0x0504
    3342:	70 91 05 05 	lds	r23, 0x0505
    3346:	ae 01       	movw	r20, r28
    3348:	4f 5f       	subi	r20, 0xFF	; 255
    334a:	5f 4f       	sbci	r21, 0xFF	; 255
    334c:	c7 01       	movw	r24, r14
    334e:	0e 94 c6 0c 	call	0x198c	; 0x198c <traverse>
		//printf("Traverse Completed\n");
		free(path);
    3352:	c7 01       	movw	r24, r14
    3354:	dd d6       	rcall	.+3514   	; 0x4110 <free>
		len = 0;
    3356:	1a 82       	std	Y+2, r1	; 0x02
    3358:	19 82       	std	Y+1, r1	; 0x01
		block_choose2(block,block_placed);
    335a:	6c ee       	ldi	r22, 0xEC	; 236
    335c:	74 e0       	ldi	r23, 0x04	; 4
    335e:	c5 01       	movw	r24, r10
    3360:	cf da       	rcall	.-2658   	; 0x2900 <block_choose2>
		//printf("Block Choose Completed\n");
		s_pick();
    3362:	0e 94 64 08 	call	0x10c8	; 0x10c8 <s_pick>
	}

	dijkstra(G,n,u);
    3366:	40 91 04 05 	lds	r20, 0x0504
    336a:	50 91 05 05 	lds	r21, 0x0505
    336e:	60 91 87 04 	lds	r22, 0x0487
    3372:	70 91 88 04 	lds	r23, 0x0488
    3376:	8e e7       	ldi	r24, 0x7E	; 126
    3378:	92 e0       	ldi	r25, 0x02	; 2
    337a:	0e 94 77 02 	call	0x4ee	; 0x4ee <dijkstra>
	//printf("Dijkstra Completed\n");
	hnode = 0;
	hnode = which_house(house_no);
    337e:	c8 01       	movw	r24, r16
    3380:	0e 94 eb 04 	call	0x9d6	; 0x9d6 <which_house>
	dist_comp(hnode,hnode,path,&len);
    3384:	9e 01       	movw	r18, r28
    3386:	2f 5f       	subi	r18, 0xFF	; 255
    3388:	3f 4f       	sbci	r19, 0xFF	; 255
    338a:	a7 01       	movw	r20, r14
    338c:	bc 01       	movw	r22, r24
    338e:	0e 94 f8 03 	call	0x7f0	; 0x7f0 <dist_comp>
	//printf("Dist compare Completed\n");
	for(int p = 0;p<len;p++)
    3392:	29 81       	ldd	r18, Y+1	; 0x01
    3394:	3a 81       	ldd	r19, Y+2	; 0x02
    3396:	12 16       	cp	r1, r18
    3398:	13 06       	cpc	r1, r19
    339a:	34 f4       	brge	.+12     	; 0x33a8 <main+0x948>
    339c:	80 e0       	ldi	r24, 0x00	; 0
    339e:	90 e0       	ldi	r25, 0x00	; 0
    33a0:	01 96       	adiw	r24, 0x01	; 1
    33a2:	82 17       	cp	r24, r18
    33a4:	93 07       	cpc	r25, r19
    33a6:	e1 f7       	brne	.-8      	; 0x33a0 <main+0x940>
	{
		//printf("%d\n",path[p]);
		//lcd_print(1,2*p,path[p],2);
	}
	traverse(path,u,&len);
    33a8:	60 91 04 05 	lds	r22, 0x0504
    33ac:	70 91 05 05 	lds	r23, 0x0505
    33b0:	ae 01       	movw	r20, r28
    33b2:	4f 5f       	subi	r20, 0xFF	; 255
    33b4:	5f 4f       	sbci	r21, 0xFF	; 255
    33b6:	c7 01       	movw	r24, r14
    33b8:	0e 94 c6 0c 	call	0x198c	; 0x198c <traverse>
	//printf("Traverse Completed\n");
	free(path);
    33bc:	c7 01       	movw	r24, r14
    33be:	a8 d6       	rcall	.+3408   	; 0x4110 <free>
	len = 0;
    33c0:	1a 82       	std	Y+2, r1	; 0x02
    33c2:	19 82       	std	Y+1, r1	; 0x01
	if (house_no == 1)
    33c4:	01 30       	cpi	r16, 0x01	; 1
    33c6:	11 05       	cpc	r17, r1
    33c8:	69 f5       	brne	.+90     	; 0x3424 <main+0x9c4>
	{
		fdir = 'w';
    33ca:	87 e7       	ldi	r24, 0x77	; 119
    33cc:	80 93 85 04 	sts	0x0485, r24
		block_traverse();
    33d0:	a3 d9       	rcall	.-3258   	; 0x2718 <block_traverse>
		back();
    33d2:	0e 94 d3 05 	call	0xba6	; 0xba6 <back>
    33d6:	ef ef       	ldi	r30, 0xFF	; 255
    33d8:	ff e7       	ldi	r31, 0x7F	; 127
    33da:	24 e0       	ldi	r18, 0x04	; 4
    33dc:	e1 50       	subi	r30, 0x01	; 1
    33de:	f0 40       	sbci	r31, 0x00	; 0
    33e0:	20 40       	sbci	r18, 0x00	; 0
    33e2:	e1 f7       	brne	.-8      	; 0x33dc <main+0x97c>
    33e4:	00 c0       	rjmp	.+0      	; 0x33e6 <main+0x986>
    33e6:	00 00       	nop
		_delay_ms(100);
		stop();
    33e8:	0e 94 e5 05 	call	0xbca	; 0xbca <stop>
		if (house_config[house_no-1]==0)
    33ec:	80 91 7b 04 	lds	r24, 0x047B
    33f0:	90 91 7c 04 	lds	r25, 0x047C
    33f4:	89 2b       	or	r24, r25
    33f6:	29 f4       	brne	.+10     	; 0x3402 <main+0x9a2>
		{
			m_place_lr();
    33f8:	0e 94 21 07 	call	0xe42	; 0xe42 <m_place_lr>
			s_place_lr();
    33fc:	0e 94 63 07 	call	0xec6	; 0xec6 <s_place_lr>
    3400:	02 c0       	rjmp	.+4      	; 0x3406 <main+0x9a6>
		}
		else
		{
			m_place_hr();
			s_place_hr();
    3402:	0e 94 a9 07 	call	0xf52	; 0xf52 <s_place_hr>
		}
		if (block_placed[0] == 0) block = 1;
    3406:	80 91 ec 04 	lds	r24, 0x04EC
    340a:	90 91 ed 04 	lds	r25, 0x04ED
    340e:	89 2b       	or	r24, r25
    3410:	09 f4       	brne	.+2      	; 0x3414 <main+0x9b4>
    3412:	97 c0       	rjmp	.+302    	; 0x3542 <main+0xae2>
		else if (block_placed[1] == 0) block = 2;
    3414:	80 91 ee 04 	lds	r24, 0x04EE
    3418:	90 91 ef 04 	lds	r25, 0x04EF
    341c:	89 2b       	or	r24, r25
    341e:	09 f4       	brne	.+2      	; 0x3422 <main+0x9c2>
    3420:	94 c0       	rjmp	.+296    	; 0x354a <main+0xaea>
    3422:	b9 c0       	rjmp	.+370    	; 0x3596 <main+0xb36>
	}
	else if (house_no == 2)
    3424:	02 30       	cpi	r16, 0x02	; 2
    3426:	11 05       	cpc	r17, r1
    3428:	69 f5       	brne	.+90     	; 0x3484 <main+0xa24>
	{
		fdir = 'e';
    342a:	85 e6       	ldi	r24, 0x65	; 101
    342c:	80 93 85 04 	sts	0x0485, r24
		block_traverse();
    3430:	73 d9       	rcall	.-3354   	; 0x2718 <block_traverse>
		back();
    3432:	0e 94 d3 05 	call	0xba6	; 0xba6 <back>
    3436:	8f ef       	ldi	r24, 0xFF	; 255
    3438:	9f e7       	ldi	r25, 0x7F	; 127
    343a:	e4 e0       	ldi	r30, 0x04	; 4
    343c:	81 50       	subi	r24, 0x01	; 1
    343e:	90 40       	sbci	r25, 0x00	; 0
    3440:	e0 40       	sbci	r30, 0x00	; 0
    3442:	e1 f7       	brne	.-8      	; 0x343c <main+0x9dc>
    3444:	00 c0       	rjmp	.+0      	; 0x3446 <main+0x9e6>
    3446:	00 00       	nop
		_delay_ms(100);
		stop();
    3448:	0e 94 e5 05 	call	0xbca	; 0xbca <stop>
		if (house_config[house_no-1]==0)
    344c:	80 91 7d 04 	lds	r24, 0x047D
    3450:	90 91 7e 04 	lds	r25, 0x047E
    3454:	89 2b       	or	r24, r25
    3456:	29 f4       	brne	.+10     	; 0x3462 <main+0xa02>
		{
			m_place_lr();
    3458:	0e 94 21 07 	call	0xe42	; 0xe42 <m_place_lr>
			s_place_lr();
    345c:	0e 94 63 07 	call	0xec6	; 0xec6 <s_place_lr>
    3460:	02 c0       	rjmp	.+4      	; 0x3466 <main+0xa06>
		}
		else
		{
			m_place_hr();
			s_place_hr();
    3462:	0e 94 a9 07 	call	0xf52	; 0xf52 <s_place_hr>
		}
		if (block_placed[2] == 0) block = 3;
    3466:	80 91 f0 04 	lds	r24, 0x04F0
    346a:	90 91 f1 04 	lds	r25, 0x04F1
    346e:	89 2b       	or	r24, r25
    3470:	09 f4       	brne	.+2      	; 0x3474 <main+0xa14>
    3472:	70 c0       	rjmp	.+224    	; 0x3554 <main+0xaf4>
		else if (block_placed[3] == 0) block = 4;
    3474:	80 91 f2 04 	lds	r24, 0x04F2
    3478:	90 91 f3 04 	lds	r25, 0x04F3
    347c:	89 2b       	or	r24, r25
    347e:	09 f4       	brne	.+2      	; 0x3482 <main+0xa22>
    3480:	6f c0       	rjmp	.+222    	; 0x3560 <main+0xb00>
    3482:	89 c0       	rjmp	.+274    	; 0x3596 <main+0xb36>
	}
	else if (house_no == 3)
    3484:	03 30       	cpi	r16, 0x03	; 3
    3486:	11 05       	cpc	r17, r1
    3488:	69 f5       	brne	.+90     	; 0x34e4 <main+0xa84>
	{
		fdir = 'w';
    348a:	87 e7       	ldi	r24, 0x77	; 119
    348c:	80 93 85 04 	sts	0x0485, r24
		block_traverse();
    3490:	43 d9       	rcall	.-3450   	; 0x2718 <block_traverse>
		back();
    3492:	0e 94 d3 05 	call	0xba6	; 0xba6 <back>
    3496:	ff ef       	ldi	r31, 0xFF	; 255
    3498:	2f e7       	ldi	r18, 0x7F	; 127
    349a:	84 e0       	ldi	r24, 0x04	; 4
    349c:	f1 50       	subi	r31, 0x01	; 1
    349e:	20 40       	sbci	r18, 0x00	; 0
    34a0:	80 40       	sbci	r24, 0x00	; 0
    34a2:	e1 f7       	brne	.-8      	; 0x349c <main+0xa3c>
    34a4:	00 c0       	rjmp	.+0      	; 0x34a6 <main+0xa46>
    34a6:	00 00       	nop
		_delay_ms(100);
		stop();
    34a8:	0e 94 e5 05 	call	0xbca	; 0xbca <stop>
		if (house_config[house_no-1]==0)
    34ac:	80 91 7f 04 	lds	r24, 0x047F
    34b0:	90 91 80 04 	lds	r25, 0x0480
    34b4:	89 2b       	or	r24, r25
    34b6:	29 f4       	brne	.+10     	; 0x34c2 <main+0xa62>
		{
			m_place_lr();
    34b8:	0e 94 21 07 	call	0xe42	; 0xe42 <m_place_lr>
			s_place_lr();
    34bc:	0e 94 63 07 	call	0xec6	; 0xec6 <s_place_lr>
    34c0:	02 c0       	rjmp	.+4      	; 0x34c6 <main+0xa66>
		}
		else
		{
			m_place_hr();
			s_place_hr();
    34c2:	0e 94 a9 07 	call	0xf52	; 0xf52 <s_place_hr>
		}
		if (block_placed[4] == 0) block = 5;
    34c6:	80 91 f4 04 	lds	r24, 0x04F4
    34ca:	90 91 f5 04 	lds	r25, 0x04F5
    34ce:	89 2b       	or	r24, r25
    34d0:	09 f4       	brne	.+2      	; 0x34d4 <main+0xa74>
    34d2:	4b c0       	rjmp	.+150    	; 0x356a <main+0xb0a>
		else if (block_placed[5] == 0) block = 6;
    34d4:	80 91 f6 04 	lds	r24, 0x04F6
    34d8:	90 91 f7 04 	lds	r25, 0x04F7
    34dc:	89 2b       	or	r24, r25
    34de:	09 f4       	brne	.+2      	; 0x34e2 <main+0xa82>
    34e0:	4a c0       	rjmp	.+148    	; 0x3576 <main+0xb16>
    34e2:	59 c0       	rjmp	.+178    	; 0x3596 <main+0xb36>
	}
	else if (house_no == 4)
    34e4:	04 30       	cpi	r16, 0x04	; 4
    34e6:	11 05       	cpc	r17, r1
    34e8:	09 f0       	breq	.+2      	; 0x34ec <main+0xa8c>
    34ea:	55 c0       	rjmp	.+170    	; 0x3596 <main+0xb36>
	{
		fdir = 'e';
    34ec:	85 e6       	ldi	r24, 0x65	; 101
    34ee:	80 93 85 04 	sts	0x0485, r24
		block_traverse();
    34f2:	12 d9       	rcall	.-3548   	; 0x2718 <block_traverse>
		back();
    34f4:	0e 94 d3 05 	call	0xba6	; 0xba6 <back>
    34f8:	9f ef       	ldi	r25, 0xFF	; 255
    34fa:	ef e7       	ldi	r30, 0x7F	; 127
    34fc:	f4 e0       	ldi	r31, 0x04	; 4
    34fe:	91 50       	subi	r25, 0x01	; 1
    3500:	e0 40       	sbci	r30, 0x00	; 0
    3502:	f0 40       	sbci	r31, 0x00	; 0
    3504:	e1 f7       	brne	.-8      	; 0x34fe <main+0xa9e>
    3506:	00 c0       	rjmp	.+0      	; 0x3508 <main+0xaa8>
    3508:	00 00       	nop
		_delay_ms(100);
		stop();
    350a:	0e 94 e5 05 	call	0xbca	; 0xbca <stop>
		if (house_config[house_no-1]==0)
    350e:	80 91 81 04 	lds	r24, 0x0481
    3512:	90 91 82 04 	lds	r25, 0x0482
    3516:	89 2b       	or	r24, r25
    3518:	29 f4       	brne	.+10     	; 0x3524 <main+0xac4>
		{
			m_place_lr();
    351a:	0e 94 21 07 	call	0xe42	; 0xe42 <m_place_lr>
			s_place_lr();
    351e:	0e 94 63 07 	call	0xec6	; 0xec6 <s_place_lr>
    3522:	02 c0       	rjmp	.+4      	; 0x3528 <main+0xac8>
		}
		else
		{
			m_place_hr();
			s_place_hr();
    3524:	0e 94 a9 07 	call	0xf52	; 0xf52 <s_place_hr>
		}
		if (block_placed[6] == 0) block = 7;
    3528:	80 91 f8 04 	lds	r24, 0x04F8
    352c:	90 91 f9 04 	lds	r25, 0x04F9
    3530:	89 2b       	or	r24, r25
    3532:	39 f1       	breq	.+78     	; 0x3582 <main+0xb22>
		else if (block_placed[7] == 0) block = 8;
    3534:	80 91 fa 04 	lds	r24, 0x04FA
    3538:	90 91 fb 04 	lds	r25, 0x04FB
    353c:	89 2b       	or	r24, r25
    353e:	39 f1       	breq	.+78     	; 0x358e <main+0xb2e>
    3540:	2a c0       	rjmp	.+84     	; 0x3596 <main+0xb36>
		else
		{
			m_place_hr();
			s_place_hr();
		}
		if (block_placed[0] == 0) block = 1;
    3542:	aa 24       	eor	r10, r10
    3544:	a3 94       	inc	r10
    3546:	b1 2c       	mov	r11, r1
    3548:	26 c0       	rjmp	.+76     	; 0x3596 <main+0xb36>
		else if (block_placed[1] == 0) block = 2;
    354a:	68 94       	set
    354c:	aa 24       	eor	r10, r10
    354e:	a1 f8       	bld	r10, 1
    3550:	b1 2c       	mov	r11, r1
    3552:	21 c0       	rjmp	.+66     	; 0x3596 <main+0xb36>
		else
		{
			m_place_hr();
			s_place_hr();
		}
		if (block_placed[2] == 0) block = 3;
    3554:	0f 2e       	mov	r0, r31
    3556:	f3 e0       	ldi	r31, 0x03	; 3
    3558:	af 2e       	mov	r10, r31
    355a:	b1 2c       	mov	r11, r1
    355c:	f0 2d       	mov	r31, r0
    355e:	1b c0       	rjmp	.+54     	; 0x3596 <main+0xb36>
		else if (block_placed[3] == 0) block = 4;
    3560:	68 94       	set
    3562:	aa 24       	eor	r10, r10
    3564:	a2 f8       	bld	r10, 2
    3566:	b1 2c       	mov	r11, r1
    3568:	16 c0       	rjmp	.+44     	; 0x3596 <main+0xb36>
		else
		{
			m_place_hr();
			s_place_hr();
		}
		if (block_placed[4] == 0) block = 5;
    356a:	0f 2e       	mov	r0, r31
    356c:	f5 e0       	ldi	r31, 0x05	; 5
    356e:	af 2e       	mov	r10, r31
    3570:	b1 2c       	mov	r11, r1
    3572:	f0 2d       	mov	r31, r0
    3574:	10 c0       	rjmp	.+32     	; 0x3596 <main+0xb36>
		else if (block_placed[5] == 0) block = 6;
    3576:	0f 2e       	mov	r0, r31
    3578:	f6 e0       	ldi	r31, 0x06	; 6
    357a:	af 2e       	mov	r10, r31
    357c:	b1 2c       	mov	r11, r1
    357e:	f0 2d       	mov	r31, r0
    3580:	0a c0       	rjmp	.+20     	; 0x3596 <main+0xb36>
		else
		{
			m_place_hr();
			s_place_hr();
		}
		if (block_placed[6] == 0) block = 7;
    3582:	0f 2e       	mov	r0, r31
    3584:	f7 e0       	ldi	r31, 0x07	; 7
    3586:	af 2e       	mov	r10, r31
    3588:	b1 2c       	mov	r11, r1
    358a:	f0 2d       	mov	r31, r0
    358c:	04 c0       	rjmp	.+8      	; 0x3596 <main+0xb36>
		else if (block_placed[7] == 0) block = 8;
    358e:	68 94       	set
    3590:	aa 24       	eor	r10, r10
    3592:	a3 f8       	bld	r10, 3
    3594:	b1 2c       	mov	r11, r1
	}
	free(path);
    3596:	c7 01       	movw	r24, r14
    3598:	bb d5       	rcall	.+2934   	; 0x4110 <free>
	len = 0;
    359a:	1a 82       	std	Y+2, r1	; 0x02
    359c:	19 82       	std	Y+1, r1	; 0x01
	bnode = which_node(block);
    359e:	c5 01       	movw	r24, r10
    35a0:	0e 94 89 04 	call	0x912	; 0x912 <which_node>
    35a4:	6c 01       	movw	r12, r24
	dijkstra(G,n,u);
    35a6:	40 91 04 05 	lds	r20, 0x0504
    35aa:	50 91 05 05 	lds	r21, 0x0505
    35ae:	60 91 87 04 	lds	r22, 0x0487
    35b2:	70 91 88 04 	lds	r23, 0x0488
    35b6:	8e e7       	ldi	r24, 0x7E	; 126
    35b8:	92 e0       	ldi	r25, 0x02	; 2
    35ba:	0e 94 77 02 	call	0x4ee	; 0x4ee <dijkstra>
	//printf("Dijkstra Completed\n");
	//printf("Block - %d\n", block);
	//printf("Node - %d\n", bnode);
	dist_comp(bnode,bnode,path,&len);
    35be:	9e 01       	movw	r18, r28
    35c0:	2f 5f       	subi	r18, 0xFF	; 255
    35c2:	3f 4f       	sbci	r19, 0xFF	; 255
    35c4:	a7 01       	movw	r20, r14
    35c6:	b6 01       	movw	r22, r12
    35c8:	c6 01       	movw	r24, r12
    35ca:	0e 94 f8 03 	call	0x7f0	; 0x7f0 <dist_comp>
	//printf("Dist compare Completed\n");
	for(int p = 0;p<len;p++)
    35ce:	89 81       	ldd	r24, Y+1	; 0x01
    35d0:	9a 81       	ldd	r25, Y+2	; 0x02
    35d2:	18 16       	cp	r1, r24
    35d4:	19 06       	cpc	r1, r25
    35d6:	3c f4       	brge	.+14     	; 0x35e6 <main+0xb86>
    35d8:	20 e0       	ldi	r18, 0x00	; 0
    35da:	30 e0       	ldi	r19, 0x00	; 0
    35dc:	2f 5f       	subi	r18, 0xFF	; 255
    35de:	3f 4f       	sbci	r19, 0xFF	; 255
    35e0:	28 17       	cp	r18, r24
    35e2:	39 07       	cpc	r19, r25
    35e4:	d9 f7       	brne	.-10     	; 0x35dc <main+0xb7c>
	{
		//printf("%d\n",path[p]);
		//lcd_print(1,2*p,path[p],2);
	}
	traverse(path,u,&len);
    35e6:	60 91 04 05 	lds	r22, 0x0504
    35ea:	70 91 05 05 	lds	r23, 0x0505
    35ee:	ae 01       	movw	r20, r28
    35f0:	4f 5f       	subi	r20, 0xFF	; 255
    35f2:	5f 4f       	sbci	r21, 0xFF	; 255
    35f4:	c7 01       	movw	r24, r14
    35f6:	0e 94 c6 0c 	call	0x198c	; 0x198c <traverse>
	//printf("Traverse Completed\n");
	free(path);
    35fa:	c7 01       	movw	r24, r14
    35fc:	89 d5       	rcall	.+2834   	; 0x4110 <free>
	len = 0;
    35fe:	1a 82       	std	Y+2, r1	; 0x02
    3600:	19 82       	std	Y+1, r1	; 0x01
	block_choose2(block,block_placed);
    3602:	6c ee       	ldi	r22, 0xEC	; 236
    3604:	74 e0       	ldi	r23, 0x04	; 4
    3606:	c5 01       	movw	r24, r10
    3608:	7b d9       	rcall	.-3338   	; 0x2900 <block_choose2>
	//printf("Block Choose Completed\n");
	u = bnode;
    360a:	d0 92 05 05 	sts	0x0505, r13
    360e:	c0 92 04 05 	sts	0x0504, r12
    3612:	e7 e6       	ldi	r30, 0x67	; 103
    3614:	f4 e0       	ldi	r31, 0x04	; 4
	for (int i = 0; i < 10; i++)
    3616:	80 e0       	ldi	r24, 0x00	; 0
    3618:	90 e0       	ldi	r25, 0x00	; 0
			else if (i==6) {house_no = 4;break;}
			else if (i==7) {house_no = 4;break;}
		}
		else
		{
			house_no = -1;
    361a:	7f ef       	ldi	r23, 0xFF	; 255
    361c:	6f ef       	ldi	r22, 0xFF	; 255
	block_choose2(block,block_placed);
	//printf("Block Choose Completed\n");
	u = bnode;
	for (int i = 0; i < 10; i++)
	{
		if (which_material[i] == block)
    361e:	21 91       	ld	r18, Z+
    3620:	31 91       	ld	r19, Z+
    3622:	2a 15       	cp	r18, r10
    3624:	3b 05       	cpc	r19, r11
    3626:	c1 f4       	brne	.+48     	; 0x3658 <main+0xbf8>
    3628:	9c 01       	movw	r18, r24
		{
			if (i==0) {house_no = 1;break;}
    362a:	82 30       	cpi	r24, 0x02	; 2
    362c:	91 05       	cpc	r25, r1
    362e:	08 f4       	brcc	.+2      	; 0x3632 <main+0xbd2>
    3630:	18 c3       	rjmp	.+1584   	; 0x3c62 <main+0x1202>
    3632:	ac 01       	movw	r20, r24
    3634:	42 50       	subi	r20, 0x02	; 2
    3636:	51 09       	sbc	r21, r1
			else if (i==1) {house_no = 1;break;}
			else if (i==2) {house_no = 2;break;}
    3638:	42 30       	cpi	r20, 0x02	; 2
    363a:	51 05       	cpc	r21, r1
    363c:	08 f4       	brcc	.+2      	; 0x3640 <main+0xbe0>
    363e:	14 c3       	rjmp	.+1576   	; 0x3c68 <main+0x1208>
    3640:	42 50       	subi	r20, 0x02	; 2
    3642:	51 09       	sbc	r21, r1
			else if (i==3) {house_no = 2;break;}
			else if (i==4) {house_no = 3;break;}
    3644:	42 30       	cpi	r20, 0x02	; 2
    3646:	51 05       	cpc	r21, r1
    3648:	08 f4       	brcc	.+2      	; 0x364c <main+0xbec>
    364a:	11 c3       	rjmp	.+1570   	; 0x3c6e <main+0x120e>
    364c:	26 50       	subi	r18, 0x06	; 6
    364e:	31 09       	sbc	r19, r1
			else if (i==5) {house_no = 3;break;}
			else if (i==6) {house_no = 4;break;}
    3650:	22 30       	cpi	r18, 0x02	; 2
    3652:	31 05       	cpc	r19, r1
    3654:	18 f4       	brcc	.+6      	; 0x365c <main+0xbfc>
    3656:	0e c3       	rjmp	.+1564   	; 0x3c74 <main+0x1214>
			else if (i==7) {house_no = 4;break;}
		}
		else
		{
			house_no = -1;
    3658:	07 2f       	mov	r16, r23
    365a:	16 2f       	mov	r17, r22
	free(path);
	len = 0;
	block_choose2(block,block_placed);
	//printf("Block Choose Completed\n");
	u = bnode;
	for (int i = 0; i < 10; i++)
    365c:	01 96       	adiw	r24, 0x01	; 1
    365e:	8a 30       	cpi	r24, 0x0A	; 10
    3660:	91 05       	cpc	r25, r1
    3662:	e9 f6       	brne	.-70     	; 0x361e <main+0xbbe>
		else
		{
			house_no = -1;
		}
	}
	if (house_no != -1)
    3664:	0f 3f       	cpi	r16, 0xFF	; 255
    3666:	2f ef       	ldi	r18, 0xFF	; 255
    3668:	12 07       	cpc	r17, r18
    366a:	11 f0       	breq	.+4      	; 0x3670 <main+0xc10>
	{
		m_pick();
    366c:	0e 94 20 08 	call	0x1040	; 0x1040 <m_pick>
	}
	if (block == which_material[2*house_no - 1])
    3670:	c8 01       	movw	r24, r16
    3672:	88 0f       	add	r24, r24
    3674:	99 1f       	adc	r25, r25
    3676:	fc 01       	movw	r30, r24
    3678:	ee 0f       	add	r30, r30
    367a:	ff 1f       	adc	r31, r31
    367c:	eb 59       	subi	r30, 0x9B	; 155
    367e:	fb 4f       	sbci	r31, 0xFB	; 251
    3680:	c0 80       	ld	r12, Z
    3682:	d1 80       	ldd	r13, Z+1	; 0x01
    3684:	ca 14       	cp	r12, r10
    3686:	db 04       	cpc	r13, r11
    3688:	39 f4       	brne	.+14     	; 0x3698 <main+0xc38>
	{
	block = which_material[2*house_no - 2];  }
    368a:	fc 01       	movw	r30, r24
    368c:	ee 0f       	add	r30, r30
    368e:	ff 1f       	adc	r31, r31
    3690:	ed 59       	subi	r30, 0x9D	; 157
    3692:	fb 4f       	sbci	r31, 0xFB	; 251
    3694:	c0 80       	ld	r12, Z
    3696:	d1 80       	ldd	r13, Z+1	; 0x01
	else
	{
		block = which_material[2*house_no - 1];
	}
	if (block != 0)
    3698:	c1 14       	cp	r12, r1
    369a:	d1 04       	cpc	r13, r1
    369c:	a9 f1       	breq	.+106    	; 0x3708 <main+0xca8>
	{
		dijkstra(G,n,u);
    369e:	40 91 04 05 	lds	r20, 0x0504
    36a2:	50 91 05 05 	lds	r21, 0x0505
    36a6:	60 91 87 04 	lds	r22, 0x0487
    36aa:	70 91 88 04 	lds	r23, 0x0488
    36ae:	8e e7       	ldi	r24, 0x7E	; 126
    36b0:	92 e0       	ldi	r25, 0x02	; 2
    36b2:	0e 94 77 02 	call	0x4ee	; 0x4ee <dijkstra>
		//printf("Dijkstra Completed\n");
		bnode = which_node(block);
    36b6:	c6 01       	movw	r24, r12
    36b8:	0e 94 89 04 	call	0x912	; 0x912 <which_node>
		dist_comp(bnode,bnode,path,&len);
    36bc:	9e 01       	movw	r18, r28
    36be:	2f 5f       	subi	r18, 0xFF	; 255
    36c0:	3f 4f       	sbci	r19, 0xFF	; 255
    36c2:	a7 01       	movw	r20, r14
    36c4:	bc 01       	movw	r22, r24
    36c6:	0e 94 f8 03 	call	0x7f0	; 0x7f0 <dist_comp>
		//printf("Dist compare Completed\n");
		//printf("Block - %d\n",block);
		//printf("Node - %d\n",bnode);
		for(int p = 0;p<len;p++)
    36ca:	29 81       	ldd	r18, Y+1	; 0x01
    36cc:	3a 81       	ldd	r19, Y+2	; 0x02
    36ce:	12 16       	cp	r1, r18
    36d0:	13 06       	cpc	r1, r19
    36d2:	34 f4       	brge	.+12     	; 0x36e0 <main+0xc80>
    36d4:	80 e0       	ldi	r24, 0x00	; 0
    36d6:	90 e0       	ldi	r25, 0x00	; 0
    36d8:	01 96       	adiw	r24, 0x01	; 1
    36da:	82 17       	cp	r24, r18
    36dc:	93 07       	cpc	r25, r19
    36de:	e1 f7       	brne	.-8      	; 0x36d8 <main+0xc78>
		{
			//printf("%d\n",path[p]);
			//lcd_print(1,2*p,path[p],2);
		}
		bnode = path[len-1];
		traverse(path,u,&len);
    36e0:	60 91 04 05 	lds	r22, 0x0504
    36e4:	70 91 05 05 	lds	r23, 0x0505
    36e8:	ae 01       	movw	r20, r28
    36ea:	4f 5f       	subi	r20, 0xFF	; 255
    36ec:	5f 4f       	sbci	r21, 0xFF	; 255
    36ee:	c7 01       	movw	r24, r14
    36f0:	0e 94 c6 0c 	call	0x198c	; 0x198c <traverse>
		//printf("Traverse Completed\n");
		free(path);
    36f4:	c7 01       	movw	r24, r14
    36f6:	0c d5       	rcall	.+2584   	; 0x4110 <free>
		len = 0;
    36f8:	1a 82       	std	Y+2, r1	; 0x02
    36fa:	19 82       	std	Y+1, r1	; 0x01
		block_choose2(block,block_placed);
    36fc:	6c ee       	ldi	r22, 0xEC	; 236
    36fe:	74 e0       	ldi	r23, 0x04	; 4
    3700:	c6 01       	movw	r24, r12
    3702:	fe d8       	rcall	.-3588   	; 0x2900 <block_choose2>
		//printf("Block Choose Completed\n");
		s_pick();
    3704:	0e 94 64 08 	call	0x10c8	; 0x10c8 <s_pick>
	}
	dijkstra(G,n,u);
    3708:	40 91 04 05 	lds	r20, 0x0504
    370c:	50 91 05 05 	lds	r21, 0x0505
    3710:	60 91 87 04 	lds	r22, 0x0487
    3714:	70 91 88 04 	lds	r23, 0x0488
    3718:	8e e7       	ldi	r24, 0x7E	; 126
    371a:	92 e0       	ldi	r25, 0x02	; 2
    371c:	0e 94 77 02 	call	0x4ee	; 0x4ee <dijkstra>
	//printf("Dijkstra Completed\n");
	hnode = 0;
	hnode = which_house(house_no);
    3720:	c8 01       	movw	r24, r16
    3722:	0e 94 eb 04 	call	0x9d6	; 0x9d6 <which_house>
	dist_comp(hnode,hnode,path,&len);
    3726:	9e 01       	movw	r18, r28
    3728:	2f 5f       	subi	r18, 0xFF	; 255
    372a:	3f 4f       	sbci	r19, 0xFF	; 255
    372c:	a7 01       	movw	r20, r14
    372e:	bc 01       	movw	r22, r24
    3730:	0e 94 f8 03 	call	0x7f0	; 0x7f0 <dist_comp>
	//printf("Dist compare Completed\n");
	for(int p = 0;p<len;p++)
    3734:	89 81       	ldd	r24, Y+1	; 0x01
    3736:	9a 81       	ldd	r25, Y+2	; 0x02
    3738:	18 16       	cp	r1, r24
    373a:	19 06       	cpc	r1, r25
    373c:	3c f4       	brge	.+14     	; 0x374c <main+0xcec>
    373e:	20 e0       	ldi	r18, 0x00	; 0
    3740:	30 e0       	ldi	r19, 0x00	; 0
    3742:	2f 5f       	subi	r18, 0xFF	; 255
    3744:	3f 4f       	sbci	r19, 0xFF	; 255
    3746:	28 17       	cp	r18, r24
    3748:	39 07       	cpc	r19, r25
    374a:	d9 f7       	brne	.-10     	; 0x3742 <main+0xce2>
	{
		//printf("%d\n",path[p]);
		//lcd_print(1,2*p,path[p],2);
	}
	traverse(path,u,&len);
    374c:	60 91 04 05 	lds	r22, 0x0504
    3750:	70 91 05 05 	lds	r23, 0x0505
    3754:	ae 01       	movw	r20, r28
    3756:	4f 5f       	subi	r20, 0xFF	; 255
    3758:	5f 4f       	sbci	r21, 0xFF	; 255
    375a:	c7 01       	movw	r24, r14
    375c:	0e 94 c6 0c 	call	0x198c	; 0x198c <traverse>
	//printf("Traverse Completed\n");
	free(path);
    3760:	c7 01       	movw	r24, r14
    3762:	d6 d4       	rcall	.+2476   	; 0x4110 <free>
	len = 0;
    3764:	1a 82       	std	Y+2, r1	; 0x02
    3766:	19 82       	std	Y+1, r1	; 0x01
	if (house_no == 1)
    3768:	01 30       	cpi	r16, 0x01	; 1
    376a:	11 05       	cpc	r17, r1
    376c:	71 f5       	brne	.+92     	; 0x37ca <main+0xd6a>
	{
		fdir = 'w';
    376e:	87 e7       	ldi	r24, 0x77	; 119
    3770:	80 93 85 04 	sts	0x0485, r24
		block_traverse();
    3774:	0e 94 8c 13 	call	0x2718	; 0x2718 <block_traverse>
		back();
    3778:	0e 94 d3 05 	call	0xba6	; 0xba6 <back>
    377c:	8f ef       	ldi	r24, 0xFF	; 255
    377e:	9f e7       	ldi	r25, 0x7F	; 127
    3780:	e4 e0       	ldi	r30, 0x04	; 4
    3782:	81 50       	subi	r24, 0x01	; 1
    3784:	90 40       	sbci	r25, 0x00	; 0
    3786:	e0 40       	sbci	r30, 0x00	; 0
    3788:	e1 f7       	brne	.-8      	; 0x3782 <main+0xd22>
    378a:	00 c0       	rjmp	.+0      	; 0x378c <main+0xd2c>
    378c:	00 00       	nop
		_delay_ms(100);
		stop();
    378e:	0e 94 e5 05 	call	0xbca	; 0xbca <stop>
		if (house_config[house_no-1]==0)
    3792:	80 91 7b 04 	lds	r24, 0x047B
    3796:	90 91 7c 04 	lds	r25, 0x047C
    379a:	89 2b       	or	r24, r25
    379c:	29 f4       	brne	.+10     	; 0x37a8 <main+0xd48>
		{
			m_place_lr();
    379e:	0e 94 21 07 	call	0xe42	; 0xe42 <m_place_lr>
			s_place_lr();
    37a2:	0e 94 63 07 	call	0xec6	; 0xec6 <s_place_lr>
    37a6:	02 c0       	rjmp	.+4      	; 0x37ac <main+0xd4c>
		}
		else
		{
			m_place_hr();
			s_place_hr();
    37a8:	0e 94 a9 07 	call	0xf52	; 0xf52 <s_place_hr>
		}
		if (block_placed[0] == 0) block = 1;
    37ac:	80 91 ec 04 	lds	r24, 0x04EC
    37b0:	90 91 ed 04 	lds	r25, 0x04ED
    37b4:	89 2b       	or	r24, r25
    37b6:	09 f4       	brne	.+2      	; 0x37ba <main+0xd5a>
    37b8:	9a c0       	rjmp	.+308    	; 0x38ee <main+0xe8e>
		else if (block_placed[1] == 0) block = 2;
    37ba:	80 91 ee 04 	lds	r24, 0x04EE
    37be:	90 91 ef 04 	lds	r25, 0x04EF
    37c2:	89 2b       	or	r24, r25
    37c4:	09 f4       	brne	.+2      	; 0x37c8 <main+0xd68>
    37c6:	97 c0       	rjmp	.+302    	; 0x38f6 <main+0xe96>
    37c8:	bc c0       	rjmp	.+376    	; 0x3942 <main+0xee2>
	}
	else if (house_no == 2)
    37ca:	02 30       	cpi	r16, 0x02	; 2
    37cc:	11 05       	cpc	r17, r1
    37ce:	71 f5       	brne	.+92     	; 0x382c <main+0xdcc>
	{
		fdir = 'e';
    37d0:	85 e6       	ldi	r24, 0x65	; 101
    37d2:	80 93 85 04 	sts	0x0485, r24
		block_traverse();
    37d6:	0e 94 8c 13 	call	0x2718	; 0x2718 <block_traverse>
		back();
    37da:	0e 94 d3 05 	call	0xba6	; 0xba6 <back>
    37de:	ff ef       	ldi	r31, 0xFF	; 255
    37e0:	2f e7       	ldi	r18, 0x7F	; 127
    37e2:	84 e0       	ldi	r24, 0x04	; 4
    37e4:	f1 50       	subi	r31, 0x01	; 1
    37e6:	20 40       	sbci	r18, 0x00	; 0
    37e8:	80 40       	sbci	r24, 0x00	; 0
    37ea:	e1 f7       	brne	.-8      	; 0x37e4 <main+0xd84>
    37ec:	00 c0       	rjmp	.+0      	; 0x37ee <main+0xd8e>
    37ee:	00 00       	nop
		_delay_ms(100);
		stop();
    37f0:	0e 94 e5 05 	call	0xbca	; 0xbca <stop>
		if (house_config[house_no-1]==0)
    37f4:	80 91 7d 04 	lds	r24, 0x047D
    37f8:	90 91 7e 04 	lds	r25, 0x047E
    37fc:	89 2b       	or	r24, r25
    37fe:	29 f4       	brne	.+10     	; 0x380a <main+0xdaa>
		{
			m_place_lr();
    3800:	0e 94 21 07 	call	0xe42	; 0xe42 <m_place_lr>
			s_place_lr();
    3804:	0e 94 63 07 	call	0xec6	; 0xec6 <s_place_lr>
    3808:	02 c0       	rjmp	.+4      	; 0x380e <main+0xdae>
		}
		else
		{
			m_place_hr();
			s_place_hr();
    380a:	0e 94 a9 07 	call	0xf52	; 0xf52 <s_place_hr>
		}
		if (block_placed[2] == 0) block = 3;
    380e:	80 91 f0 04 	lds	r24, 0x04F0
    3812:	90 91 f1 04 	lds	r25, 0x04F1
    3816:	89 2b       	or	r24, r25
    3818:	09 f4       	brne	.+2      	; 0x381c <main+0xdbc>
    381a:	72 c0       	rjmp	.+228    	; 0x3900 <main+0xea0>
		else if (block_placed[3] == 0) block = 4;
    381c:	80 91 f2 04 	lds	r24, 0x04F2
    3820:	90 91 f3 04 	lds	r25, 0x04F3
    3824:	89 2b       	or	r24, r25
    3826:	09 f4       	brne	.+2      	; 0x382a <main+0xdca>
    3828:	71 c0       	rjmp	.+226    	; 0x390c <main+0xeac>
    382a:	8b c0       	rjmp	.+278    	; 0x3942 <main+0xee2>
	}
	else if (house_no == 3)
    382c:	03 30       	cpi	r16, 0x03	; 3
    382e:	11 05       	cpc	r17, r1
    3830:	71 f5       	brne	.+92     	; 0x388e <main+0xe2e>
	{
		fdir = 'w';
    3832:	87 e7       	ldi	r24, 0x77	; 119
    3834:	80 93 85 04 	sts	0x0485, r24
		block_traverse();
    3838:	0e 94 8c 13 	call	0x2718	; 0x2718 <block_traverse>
		back();
    383c:	0e 94 d3 05 	call	0xba6	; 0xba6 <back>
    3840:	9f ef       	ldi	r25, 0xFF	; 255
    3842:	ef e7       	ldi	r30, 0x7F	; 127
    3844:	f4 e0       	ldi	r31, 0x04	; 4
    3846:	91 50       	subi	r25, 0x01	; 1
    3848:	e0 40       	sbci	r30, 0x00	; 0
    384a:	f0 40       	sbci	r31, 0x00	; 0
    384c:	e1 f7       	brne	.-8      	; 0x3846 <main+0xde6>
    384e:	00 c0       	rjmp	.+0      	; 0x3850 <main+0xdf0>
    3850:	00 00       	nop
		_delay_ms(100);
		stop();
    3852:	0e 94 e5 05 	call	0xbca	; 0xbca <stop>
		if (house_config[house_no-1]==0)
    3856:	80 91 7f 04 	lds	r24, 0x047F
    385a:	90 91 80 04 	lds	r25, 0x0480
    385e:	89 2b       	or	r24, r25
    3860:	29 f4       	brne	.+10     	; 0x386c <main+0xe0c>
		{
			m_place_lr();
    3862:	0e 94 21 07 	call	0xe42	; 0xe42 <m_place_lr>
			s_place_lr();
    3866:	0e 94 63 07 	call	0xec6	; 0xec6 <s_place_lr>
    386a:	02 c0       	rjmp	.+4      	; 0x3870 <main+0xe10>
		}
		else
		{
			m_place_hr();
			s_place_hr();
    386c:	0e 94 a9 07 	call	0xf52	; 0xf52 <s_place_hr>
		}
		if (block_placed[4] == 0) block = 5;
    3870:	80 91 f4 04 	lds	r24, 0x04F4
    3874:	90 91 f5 04 	lds	r25, 0x04F5
    3878:	89 2b       	or	r24, r25
    387a:	09 f4       	brne	.+2      	; 0x387e <main+0xe1e>
    387c:	4c c0       	rjmp	.+152    	; 0x3916 <main+0xeb6>
		else if (block_placed[5] == 0) block = 6;
    387e:	80 91 f6 04 	lds	r24, 0x04F6
    3882:	90 91 f7 04 	lds	r25, 0x04F7
    3886:	89 2b       	or	r24, r25
    3888:	09 f4       	brne	.+2      	; 0x388c <main+0xe2c>
    388a:	4b c0       	rjmp	.+150    	; 0x3922 <main+0xec2>
    388c:	5a c0       	rjmp	.+180    	; 0x3942 <main+0xee2>
	}
	else if (house_no == 4)
    388e:	04 30       	cpi	r16, 0x04	; 4
    3890:	11 05       	cpc	r17, r1
    3892:	09 f0       	breq	.+2      	; 0x3896 <main+0xe36>
    3894:	56 c0       	rjmp	.+172    	; 0x3942 <main+0xee2>
	{
		fdir = 'e';
    3896:	85 e6       	ldi	r24, 0x65	; 101
    3898:	80 93 85 04 	sts	0x0485, r24
		block_traverse();
    389c:	0e 94 8c 13 	call	0x2718	; 0x2718 <block_traverse>
		back();
    38a0:	0e 94 d3 05 	call	0xba6	; 0xba6 <back>
    38a4:	2f ef       	ldi	r18, 0xFF	; 255
    38a6:	8f e7       	ldi	r24, 0x7F	; 127
    38a8:	94 e0       	ldi	r25, 0x04	; 4
    38aa:	21 50       	subi	r18, 0x01	; 1
    38ac:	80 40       	sbci	r24, 0x00	; 0
    38ae:	90 40       	sbci	r25, 0x00	; 0
    38b0:	e1 f7       	brne	.-8      	; 0x38aa <main+0xe4a>
    38b2:	00 c0       	rjmp	.+0      	; 0x38b4 <main+0xe54>
    38b4:	00 00       	nop
		_delay_ms(100);
		stop();
    38b6:	0e 94 e5 05 	call	0xbca	; 0xbca <stop>
		if (house_config[house_no-1]==0)
    38ba:	80 91 81 04 	lds	r24, 0x0481
    38be:	90 91 82 04 	lds	r25, 0x0482
    38c2:	89 2b       	or	r24, r25
    38c4:	29 f4       	brne	.+10     	; 0x38d0 <main+0xe70>
		{
			m_place_lr();
    38c6:	0e 94 21 07 	call	0xe42	; 0xe42 <m_place_lr>
			s_place_lr();
    38ca:	0e 94 63 07 	call	0xec6	; 0xec6 <s_place_lr>
    38ce:	02 c0       	rjmp	.+4      	; 0x38d4 <main+0xe74>
		}
		else
		{
			m_place_hr();
			s_place_hr();
    38d0:	0e 94 a9 07 	call	0xf52	; 0xf52 <s_place_hr>
		}
		if (block_placed[6] == 0) block = 7;
    38d4:	80 91 f8 04 	lds	r24, 0x04F8
    38d8:	90 91 f9 04 	lds	r25, 0x04F9
    38dc:	89 2b       	or	r24, r25
    38de:	39 f1       	breq	.+78     	; 0x392e <main+0xece>
		else if (block_placed[7] == 0) block = 8;
    38e0:	80 91 fa 04 	lds	r24, 0x04FA
    38e4:	90 91 fb 04 	lds	r25, 0x04FB
    38e8:	89 2b       	or	r24, r25
    38ea:	39 f1       	breq	.+78     	; 0x393a <main+0xeda>
    38ec:	2a c0       	rjmp	.+84     	; 0x3942 <main+0xee2>
		else
		{
			m_place_hr();
			s_place_hr();
		}
		if (block_placed[0] == 0) block = 1;
    38ee:	cc 24       	eor	r12, r12
    38f0:	c3 94       	inc	r12
    38f2:	d1 2c       	mov	r13, r1
    38f4:	26 c0       	rjmp	.+76     	; 0x3942 <main+0xee2>
		else if (block_placed[1] == 0) block = 2;
    38f6:	68 94       	set
    38f8:	cc 24       	eor	r12, r12
    38fa:	c1 f8       	bld	r12, 1
    38fc:	d1 2c       	mov	r13, r1
    38fe:	21 c0       	rjmp	.+66     	; 0x3942 <main+0xee2>
		else
		{
			m_place_hr();
			s_place_hr();
		}
		if (block_placed[2] == 0) block = 3;
    3900:	0f 2e       	mov	r0, r31
    3902:	f3 e0       	ldi	r31, 0x03	; 3
    3904:	cf 2e       	mov	r12, r31
    3906:	d1 2c       	mov	r13, r1
    3908:	f0 2d       	mov	r31, r0
    390a:	1b c0       	rjmp	.+54     	; 0x3942 <main+0xee2>
		else if (block_placed[3] == 0) block = 4;
    390c:	68 94       	set
    390e:	cc 24       	eor	r12, r12
    3910:	c2 f8       	bld	r12, 2
    3912:	d1 2c       	mov	r13, r1
    3914:	16 c0       	rjmp	.+44     	; 0x3942 <main+0xee2>
		else
		{
			m_place_hr();
			s_place_hr();
		}
		if (block_placed[4] == 0) block = 5;
    3916:	0f 2e       	mov	r0, r31
    3918:	f5 e0       	ldi	r31, 0x05	; 5
    391a:	cf 2e       	mov	r12, r31
    391c:	d1 2c       	mov	r13, r1
    391e:	f0 2d       	mov	r31, r0
    3920:	10 c0       	rjmp	.+32     	; 0x3942 <main+0xee2>
		else if (block_placed[5] == 0) block = 6;
    3922:	0f 2e       	mov	r0, r31
    3924:	f6 e0       	ldi	r31, 0x06	; 6
    3926:	cf 2e       	mov	r12, r31
    3928:	d1 2c       	mov	r13, r1
    392a:	f0 2d       	mov	r31, r0
    392c:	0a c0       	rjmp	.+20     	; 0x3942 <main+0xee2>
		else
		{
			m_place_hr();
			s_place_hr();
		}
		if (block_placed[6] == 0) block = 7;
    392e:	0f 2e       	mov	r0, r31
    3930:	f7 e0       	ldi	r31, 0x07	; 7
    3932:	cf 2e       	mov	r12, r31
    3934:	d1 2c       	mov	r13, r1
    3936:	f0 2d       	mov	r31, r0
    3938:	04 c0       	rjmp	.+8      	; 0x3942 <main+0xee2>
		else if (block_placed[7] == 0) block = 8;
    393a:	68 94       	set
    393c:	cc 24       	eor	r12, r12
    393e:	c3 f8       	bld	r12, 3
    3940:	d1 2c       	mov	r13, r1
	}

	free(path);
    3942:	c7 01       	movw	r24, r14
    3944:	e5 d3       	rcall	.+1994   	; 0x4110 <free>
	len = 0;
    3946:	1a 82       	std	Y+2, r1	; 0x02
    3948:	19 82       	std	Y+1, r1	; 0x01
	bnode = which_node(block);
    394a:	c6 01       	movw	r24, r12
    394c:	0e 94 89 04 	call	0x912	; 0x912 <which_node>
    3950:	5c 01       	movw	r10, r24
	dijkstra(G,n,u);
    3952:	40 91 04 05 	lds	r20, 0x0504
    3956:	50 91 05 05 	lds	r21, 0x0505
    395a:	60 91 87 04 	lds	r22, 0x0487
    395e:	70 91 88 04 	lds	r23, 0x0488
    3962:	8e e7       	ldi	r24, 0x7E	; 126
    3964:	92 e0       	ldi	r25, 0x02	; 2
    3966:	0e 94 77 02 	call	0x4ee	; 0x4ee <dijkstra>
	//printf("Dijkstra Completed\n");
	//printf("Block - %d\n", block);
	//printf("Node - %d\n", bnode);
	dist_comp(bnode,bnode,path,&len);
    396a:	9e 01       	movw	r18, r28
    396c:	2f 5f       	subi	r18, 0xFF	; 255
    396e:	3f 4f       	sbci	r19, 0xFF	; 255
    3970:	a7 01       	movw	r20, r14
    3972:	b5 01       	movw	r22, r10
    3974:	c5 01       	movw	r24, r10
    3976:	0e 94 f8 03 	call	0x7f0	; 0x7f0 <dist_comp>
	//printf("Dist compare Completed\n");
	for(int p = 0;p<len;p++)
    397a:	89 81       	ldd	r24, Y+1	; 0x01
    397c:	9a 81       	ldd	r25, Y+2	; 0x02
    397e:	18 16       	cp	r1, r24
    3980:	19 06       	cpc	r1, r25
    3982:	3c f4       	brge	.+14     	; 0x3992 <main+0xf32>
    3984:	20 e0       	ldi	r18, 0x00	; 0
    3986:	30 e0       	ldi	r19, 0x00	; 0
    3988:	2f 5f       	subi	r18, 0xFF	; 255
    398a:	3f 4f       	sbci	r19, 0xFF	; 255
    398c:	28 17       	cp	r18, r24
    398e:	39 07       	cpc	r19, r25
    3990:	d9 f7       	brne	.-10     	; 0x3988 <main+0xf28>
	{
		//printf("%d\n",path[p]);
		//lcd_print(1,2*p,path[p],2);
	}
	traverse(path,u,&len);
    3992:	60 91 04 05 	lds	r22, 0x0504
    3996:	70 91 05 05 	lds	r23, 0x0505
    399a:	ae 01       	movw	r20, r28
    399c:	4f 5f       	subi	r20, 0xFF	; 255
    399e:	5f 4f       	sbci	r21, 0xFF	; 255
    39a0:	c7 01       	movw	r24, r14
    39a2:	0e 94 c6 0c 	call	0x198c	; 0x198c <traverse>
	//printf("Traverse Completed\n");
	free(path);
    39a6:	c7 01       	movw	r24, r14
    39a8:	b3 d3       	rcall	.+1894   	; 0x4110 <free>
	len = 0;
    39aa:	1a 82       	std	Y+2, r1	; 0x02
    39ac:	19 82       	std	Y+1, r1	; 0x01
	block_choose2(block,block_placed);
    39ae:	6c ee       	ldi	r22, 0xEC	; 236
    39b0:	74 e0       	ldi	r23, 0x04	; 4
    39b2:	c6 01       	movw	r24, r12
    39b4:	0e 94 80 14 	call	0x2900	; 0x2900 <block_choose2>
	//printf("Block Choose Completed\n");
	u = bnode;
    39b8:	b0 92 05 05 	sts	0x0505, r11
    39bc:	a0 92 04 05 	sts	0x0504, r10
    39c0:	e7 e6       	ldi	r30, 0x67	; 103
    39c2:	f4 e0       	ldi	r31, 0x04	; 4
	for (int i = 0; i < 10; i++)
    39c4:	80 e0       	ldi	r24, 0x00	; 0
    39c6:	90 e0       	ldi	r25, 0x00	; 0
			else if (i==6) {house_no = 4;break;}
			else if (i==7) {house_no = 4;break;}
		}
		else
		{
			house_no = -1;
    39c8:	7f ef       	ldi	r23, 0xFF	; 255
    39ca:	6f ef       	ldi	r22, 0xFF	; 255
	block_choose2(block,block_placed);
	//printf("Block Choose Completed\n");
	u = bnode;
	for (int i = 0; i < 10; i++)
	{
		if (which_material[i] == block)
    39cc:	21 91       	ld	r18, Z+
    39ce:	31 91       	ld	r19, Z+
    39d0:	2c 15       	cp	r18, r12
    39d2:	3d 05       	cpc	r19, r13
    39d4:	c1 f4       	brne	.+48     	; 0x3a06 <main+0xfa6>
    39d6:	9c 01       	movw	r18, r24
		{
			if (i==0) {house_no = 1;break;}
    39d8:	82 30       	cpi	r24, 0x02	; 2
    39da:	91 05       	cpc	r25, r1
    39dc:	08 f4       	brcc	.+2      	; 0x39e0 <main+0xf80>
    39de:	4d c1       	rjmp	.+666    	; 0x3c7a <main+0x121a>
    39e0:	ac 01       	movw	r20, r24
    39e2:	42 50       	subi	r20, 0x02	; 2
    39e4:	51 09       	sbc	r21, r1
			else if (i==1) {house_no = 1;break;}
			else if (i==2) {house_no = 2;break;}
    39e6:	42 30       	cpi	r20, 0x02	; 2
    39e8:	51 05       	cpc	r21, r1
    39ea:	08 f4       	brcc	.+2      	; 0x39ee <main+0xf8e>
    39ec:	49 c1       	rjmp	.+658    	; 0x3c80 <main+0x1220>
    39ee:	42 50       	subi	r20, 0x02	; 2
    39f0:	51 09       	sbc	r21, r1
			else if (i==3) {house_no = 2;break;}
			else if (i==4) {house_no = 3;break;}
    39f2:	42 30       	cpi	r20, 0x02	; 2
    39f4:	51 05       	cpc	r21, r1
    39f6:	08 f4       	brcc	.+2      	; 0x39fa <main+0xf9a>
    39f8:	46 c1       	rjmp	.+652    	; 0x3c86 <main+0x1226>
    39fa:	26 50       	subi	r18, 0x06	; 6
    39fc:	31 09       	sbc	r19, r1
			else if (i==5) {house_no = 3;break;}
			else if (i==6) {house_no = 4;break;}
    39fe:	22 30       	cpi	r18, 0x02	; 2
    3a00:	31 05       	cpc	r19, r1
    3a02:	18 f4       	brcc	.+6      	; 0x3a0a <main+0xfaa>
    3a04:	43 c1       	rjmp	.+646    	; 0x3c8c <main+0x122c>
			else if (i==7) {house_no = 4;break;}
		}
		else
		{
			house_no = -1;
    3a06:	07 2f       	mov	r16, r23
    3a08:	16 2f       	mov	r17, r22
	free(path);
	len = 0;
	block_choose2(block,block_placed);
	//printf("Block Choose Completed\n");
	u = bnode;
	for (int i = 0; i < 10; i++)
    3a0a:	01 96       	adiw	r24, 0x01	; 1
    3a0c:	8a 30       	cpi	r24, 0x0A	; 10
    3a0e:	91 05       	cpc	r25, r1
    3a10:	e9 f6       	brne	.-70     	; 0x39cc <main+0xf6c>
		else
		{
			house_no = -1;
		}
	}
	if (house_no != -1)
    3a12:	0f 3f       	cpi	r16, 0xFF	; 255
    3a14:	ef ef       	ldi	r30, 0xFF	; 255
    3a16:	1e 07       	cpc	r17, r30
    3a18:	11 f0       	breq	.+4      	; 0x3a1e <main+0xfbe>
	{
		m_pick();
    3a1a:	0e 94 20 08 	call	0x1040	; 0x1040 <m_pick>
	}
	if (block == which_material[2*house_no - 1])
    3a1e:	c8 01       	movw	r24, r16
    3a20:	88 0f       	add	r24, r24
    3a22:	99 1f       	adc	r25, r25
    3a24:	fc 01       	movw	r30, r24
    3a26:	ee 0f       	add	r30, r30
    3a28:	ff 1f       	adc	r31, r31
    3a2a:	eb 59       	subi	r30, 0x9B	; 155
    3a2c:	fb 4f       	sbci	r31, 0xFB	; 251
    3a2e:	a0 80       	ld	r10, Z
    3a30:	b1 80       	ldd	r11, Z+1	; 0x01
    3a32:	ac 14       	cp	r10, r12
    3a34:	bd 04       	cpc	r11, r13
    3a36:	39 f4       	brne	.+14     	; 0x3a46 <main+0xfe6>
	{
	block = which_material[2*house_no - 2];  }
    3a38:	fc 01       	movw	r30, r24
    3a3a:	ee 0f       	add	r30, r30
    3a3c:	ff 1f       	adc	r31, r31
    3a3e:	ed 59       	subi	r30, 0x9D	; 157
    3a40:	fb 4f       	sbci	r31, 0xFB	; 251
    3a42:	a0 80       	ld	r10, Z
    3a44:	b1 80       	ldd	r11, Z+1	; 0x01
	else
	{
		block = which_material[2*house_no - 1];
	}
	if (block != 0)
    3a46:	a1 14       	cp	r10, r1
    3a48:	b1 04       	cpc	r11, r1
    3a4a:	b9 f1       	breq	.+110    	; 0x3aba <main+0x105a>
	{
		dijkstra(G,n,u);
    3a4c:	40 91 04 05 	lds	r20, 0x0504
    3a50:	50 91 05 05 	lds	r21, 0x0505
    3a54:	60 91 87 04 	lds	r22, 0x0487
    3a58:	70 91 88 04 	lds	r23, 0x0488
    3a5c:	8e e7       	ldi	r24, 0x7E	; 126
    3a5e:	92 e0       	ldi	r25, 0x02	; 2
    3a60:	0e 94 77 02 	call	0x4ee	; 0x4ee <dijkstra>
		//printf("Dijkstra Completed\n");
		bnode = which_node(block);
    3a64:	c5 01       	movw	r24, r10
    3a66:	0e 94 89 04 	call	0x912	; 0x912 <which_node>
		dist_comp(bnode,bnode,path,&len);
    3a6a:	9e 01       	movw	r18, r28
    3a6c:	2f 5f       	subi	r18, 0xFF	; 255
    3a6e:	3f 4f       	sbci	r19, 0xFF	; 255
    3a70:	a7 01       	movw	r20, r14
    3a72:	bc 01       	movw	r22, r24
    3a74:	0e 94 f8 03 	call	0x7f0	; 0x7f0 <dist_comp>
		//printf("Dist compare Completed\n");
		//printf("Block - %d\n",block);
		//printf("Node - %d\n",bnode);
		for(int p = 0;p<len;p++)
    3a78:	89 81       	ldd	r24, Y+1	; 0x01
    3a7a:	9a 81       	ldd	r25, Y+2	; 0x02
    3a7c:	18 16       	cp	r1, r24
    3a7e:	19 06       	cpc	r1, r25
    3a80:	3c f4       	brge	.+14     	; 0x3a90 <main+0x1030>
    3a82:	20 e0       	ldi	r18, 0x00	; 0
    3a84:	30 e0       	ldi	r19, 0x00	; 0
    3a86:	2f 5f       	subi	r18, 0xFF	; 255
    3a88:	3f 4f       	sbci	r19, 0xFF	; 255
    3a8a:	28 17       	cp	r18, r24
    3a8c:	39 07       	cpc	r19, r25
    3a8e:	d9 f7       	brne	.-10     	; 0x3a86 <main+0x1026>
		{
			//printf("%d\n",path[p]);
			//lcd_print(1,2*p,path[p],2);
		}
		bnode = path[len-1];
		traverse(path,u,&len);
    3a90:	60 91 04 05 	lds	r22, 0x0504
    3a94:	70 91 05 05 	lds	r23, 0x0505
    3a98:	ae 01       	movw	r20, r28
    3a9a:	4f 5f       	subi	r20, 0xFF	; 255
    3a9c:	5f 4f       	sbci	r21, 0xFF	; 255
    3a9e:	c7 01       	movw	r24, r14
    3aa0:	0e 94 c6 0c 	call	0x198c	; 0x198c <traverse>
		//printf("Traverse Completed\n");
		free(path);
    3aa4:	c7 01       	movw	r24, r14
    3aa6:	34 d3       	rcall	.+1640   	; 0x4110 <free>
		len = 0;
    3aa8:	1a 82       	std	Y+2, r1	; 0x02
    3aaa:	19 82       	std	Y+1, r1	; 0x01
		block_choose2(block,block_placed);
    3aac:	6c ee       	ldi	r22, 0xEC	; 236
    3aae:	74 e0       	ldi	r23, 0x04	; 4
    3ab0:	c5 01       	movw	r24, r10
    3ab2:	0e 94 80 14 	call	0x2900	; 0x2900 <block_choose2>
		//printf("Block Choose Completed\n");
		s_pick();
    3ab6:	0e 94 64 08 	call	0x10c8	; 0x10c8 <s_pick>
	}
	dijkstra(G,n,u);
    3aba:	40 91 04 05 	lds	r20, 0x0504
    3abe:	50 91 05 05 	lds	r21, 0x0505
    3ac2:	60 91 87 04 	lds	r22, 0x0487
    3ac6:	70 91 88 04 	lds	r23, 0x0488
    3aca:	8e e7       	ldi	r24, 0x7E	; 126
    3acc:	92 e0       	ldi	r25, 0x02	; 2
    3ace:	0e 94 77 02 	call	0x4ee	; 0x4ee <dijkstra>
	//printf("Dijkstra Completed\n");
	hnode = 0;
	hnode = which_house(house_no);
    3ad2:	c8 01       	movw	r24, r16
    3ad4:	0e 94 eb 04 	call	0x9d6	; 0x9d6 <which_house>
	dist_comp(hnode,hnode,path,&len);
    3ad8:	9e 01       	movw	r18, r28
    3ada:	2f 5f       	subi	r18, 0xFF	; 255
    3adc:	3f 4f       	sbci	r19, 0xFF	; 255
    3ade:	a7 01       	movw	r20, r14
    3ae0:	bc 01       	movw	r22, r24
    3ae2:	0e 94 f8 03 	call	0x7f0	; 0x7f0 <dist_comp>
	//printf("Dist compare Completed\n");
	for(int p = 0;p<len;p++)
    3ae6:	29 81       	ldd	r18, Y+1	; 0x01
    3ae8:	3a 81       	ldd	r19, Y+2	; 0x02
    3aea:	12 16       	cp	r1, r18
    3aec:	13 06       	cpc	r1, r19
    3aee:	34 f4       	brge	.+12     	; 0x3afc <main+0x109c>
    3af0:	80 e0       	ldi	r24, 0x00	; 0
    3af2:	90 e0       	ldi	r25, 0x00	; 0
    3af4:	01 96       	adiw	r24, 0x01	; 1
    3af6:	82 17       	cp	r24, r18
    3af8:	93 07       	cpc	r25, r19
    3afa:	e1 f7       	brne	.-8      	; 0x3af4 <main+0x1094>
	{
		//printf("%d\n",path[p]);
		//lcd_print(1,2*p,path[p],2);
	}
	traverse(path,u,&len);
    3afc:	60 91 04 05 	lds	r22, 0x0504
    3b00:	70 91 05 05 	lds	r23, 0x0505
    3b04:	ae 01       	movw	r20, r28
    3b06:	4f 5f       	subi	r20, 0xFF	; 255
    3b08:	5f 4f       	sbci	r21, 0xFF	; 255
    3b0a:	c7 01       	movw	r24, r14
    3b0c:	0e 94 c6 0c 	call	0x198c	; 0x198c <traverse>
	//printf("Traverse Completed\n");
	free(path);
    3b10:	c7 01       	movw	r24, r14
    3b12:	fe d2       	rcall	.+1532   	; 0x4110 <free>
	len = 0;
    3b14:	1a 82       	std	Y+2, r1	; 0x02
    3b16:	19 82       	std	Y+1, r1	; 0x01
	if (house_no == 1)
    3b18:	01 30       	cpi	r16, 0x01	; 1
    3b1a:	11 05       	cpc	r17, r1
    3b1c:	01 f5       	brne	.+64     	; 0x3b5e <main+0x10fe>
	{
		fdir = 'w';
    3b1e:	87 e7       	ldi	r24, 0x77	; 119
    3b20:	80 93 85 04 	sts	0x0485, r24
		block_traverse();
    3b24:	0e 94 8c 13 	call	0x2718	; 0x2718 <block_traverse>
		back();
    3b28:	0e 94 d3 05 	call	0xba6	; 0xba6 <back>
    3b2c:	ff ef       	ldi	r31, 0xFF	; 255
    3b2e:	2f e7       	ldi	r18, 0x7F	; 127
    3b30:	84 e0       	ldi	r24, 0x04	; 4
    3b32:	f1 50       	subi	r31, 0x01	; 1
    3b34:	20 40       	sbci	r18, 0x00	; 0
    3b36:	80 40       	sbci	r24, 0x00	; 0
    3b38:	e1 f7       	brne	.-8      	; 0x3b32 <main+0x10d2>
    3b3a:	00 c0       	rjmp	.+0      	; 0x3b3c <main+0x10dc>
    3b3c:	00 00       	nop
		_delay_ms(100);
		stop();
    3b3e:	0e 94 e5 05 	call	0xbca	; 0xbca <stop>
		if (house_config[house_no-1]==0)
    3b42:	80 91 7b 04 	lds	r24, 0x047B
    3b46:	90 91 7c 04 	lds	r25, 0x047C
    3b4a:	89 2b       	or	r24, r25
    3b4c:	29 f4       	brne	.+10     	; 0x3b58 <main+0x10f8>
		{
			m_place_lr();
    3b4e:	0e 94 21 07 	call	0xe42	; 0xe42 <m_place_lr>
			s_place_lr();
    3b52:	0e 94 63 07 	call	0xec6	; 0xec6 <s_place_lr>
    3b56:	9d c0       	rjmp	.+314    	; 0x3c92 <main+0x1232>
		}
		else
		{
			m_place_hr();
			s_place_hr();
    3b58:	0e 94 a9 07 	call	0xf52	; 0xf52 <s_place_hr>
    3b5c:	9a c0       	rjmp	.+308    	; 0x3c92 <main+0x1232>
		}
		if (block_placed[0] == 0) block = 1;
		else if (block_placed[1] == 0) block = 2;
	}
	else if (house_no == 2)
    3b5e:	02 30       	cpi	r16, 0x02	; 2
    3b60:	11 05       	cpc	r17, r1
    3b62:	01 f5       	brne	.+64     	; 0x3ba4 <main+0x1144>
	{
		fdir = 'e';
    3b64:	85 e6       	ldi	r24, 0x65	; 101
    3b66:	80 93 85 04 	sts	0x0485, r24
		block_traverse();
    3b6a:	0e 94 8c 13 	call	0x2718	; 0x2718 <block_traverse>
		back();
    3b6e:	0e 94 d3 05 	call	0xba6	; 0xba6 <back>
    3b72:	9f ef       	ldi	r25, 0xFF	; 255
    3b74:	ef e7       	ldi	r30, 0x7F	; 127
    3b76:	f4 e0       	ldi	r31, 0x04	; 4
    3b78:	91 50       	subi	r25, 0x01	; 1
    3b7a:	e0 40       	sbci	r30, 0x00	; 0
    3b7c:	f0 40       	sbci	r31, 0x00	; 0
    3b7e:	e1 f7       	brne	.-8      	; 0x3b78 <main+0x1118>
    3b80:	00 c0       	rjmp	.+0      	; 0x3b82 <main+0x1122>
    3b82:	00 00       	nop
		_delay_ms(100);
		stop();
    3b84:	0e 94 e5 05 	call	0xbca	; 0xbca <stop>
		if (house_config[house_no-1]==0)
    3b88:	80 91 7d 04 	lds	r24, 0x047D
    3b8c:	90 91 7e 04 	lds	r25, 0x047E
    3b90:	89 2b       	or	r24, r25
    3b92:	29 f4       	brne	.+10     	; 0x3b9e <main+0x113e>
		{
			m_place_lr();
    3b94:	0e 94 21 07 	call	0xe42	; 0xe42 <m_place_lr>
			s_place_lr();
    3b98:	0e 94 63 07 	call	0xec6	; 0xec6 <s_place_lr>
    3b9c:	7a c0       	rjmp	.+244    	; 0x3c92 <main+0x1232>
		}
		else
		{
			m_place_hr();
			s_place_hr();
    3b9e:	0e 94 a9 07 	call	0xf52	; 0xf52 <s_place_hr>
    3ba2:	77 c0       	rjmp	.+238    	; 0x3c92 <main+0x1232>
		}
		if (block_placed[2] == 0) block = 3;
		else if (block_placed[3] == 0) block = 4;
	}
	else if (house_no == 3)
    3ba4:	03 30       	cpi	r16, 0x03	; 3
    3ba6:	11 05       	cpc	r17, r1
    3ba8:	01 f5       	brne	.+64     	; 0x3bea <main+0x118a>
	{
		fdir = 'w';
    3baa:	87 e7       	ldi	r24, 0x77	; 119
    3bac:	80 93 85 04 	sts	0x0485, r24
		block_traverse();
    3bb0:	0e 94 8c 13 	call	0x2718	; 0x2718 <block_traverse>
		back();
    3bb4:	0e 94 d3 05 	call	0xba6	; 0xba6 <back>
    3bb8:	2f ef       	ldi	r18, 0xFF	; 255
    3bba:	8f e7       	ldi	r24, 0x7F	; 127
    3bbc:	94 e0       	ldi	r25, 0x04	; 4
    3bbe:	21 50       	subi	r18, 0x01	; 1
    3bc0:	80 40       	sbci	r24, 0x00	; 0
    3bc2:	90 40       	sbci	r25, 0x00	; 0
    3bc4:	e1 f7       	brne	.-8      	; 0x3bbe <main+0x115e>
    3bc6:	00 c0       	rjmp	.+0      	; 0x3bc8 <main+0x1168>
    3bc8:	00 00       	nop
		_delay_ms(100);
		stop();
    3bca:	0e 94 e5 05 	call	0xbca	; 0xbca <stop>
		if (house_config[house_no-1]==0)
    3bce:	80 91 7f 04 	lds	r24, 0x047F
    3bd2:	90 91 80 04 	lds	r25, 0x0480
    3bd6:	89 2b       	or	r24, r25
    3bd8:	29 f4       	brne	.+10     	; 0x3be4 <main+0x1184>
		{
			m_place_lr();
    3bda:	0e 94 21 07 	call	0xe42	; 0xe42 <m_place_lr>
			s_place_lr();
    3bde:	0e 94 63 07 	call	0xec6	; 0xec6 <s_place_lr>
    3be2:	57 c0       	rjmp	.+174    	; 0x3c92 <main+0x1232>
		}
		else
		{
			m_place_hr();
			s_place_hr();
    3be4:	0e 94 a9 07 	call	0xf52	; 0xf52 <s_place_hr>
    3be8:	54 c0       	rjmp	.+168    	; 0x3c92 <main+0x1232>
		}
		if (block_placed[4] == 0) block = 5;
		else if (block_placed[5] == 0) block = 6;
	}
	else if (house_no == 4)
    3bea:	04 30       	cpi	r16, 0x04	; 4
    3bec:	11 05       	cpc	r17, r1
    3bee:	09 f0       	breq	.+2      	; 0x3bf2 <main+0x1192>
    3bf0:	50 c0       	rjmp	.+160    	; 0x3c92 <main+0x1232>
	{
		fdir = 'e';
    3bf2:	85 e6       	ldi	r24, 0x65	; 101
    3bf4:	80 93 85 04 	sts	0x0485, r24
		block_traverse();
    3bf8:	0e 94 8c 13 	call	0x2718	; 0x2718 <block_traverse>
		back();
    3bfc:	0e 94 d3 05 	call	0xba6	; 0xba6 <back>
    3c00:	ef ef       	ldi	r30, 0xFF	; 255
    3c02:	ff e7       	ldi	r31, 0x7F	; 127
    3c04:	24 e0       	ldi	r18, 0x04	; 4
    3c06:	e1 50       	subi	r30, 0x01	; 1
    3c08:	f0 40       	sbci	r31, 0x00	; 0
    3c0a:	20 40       	sbci	r18, 0x00	; 0
    3c0c:	e1 f7       	brne	.-8      	; 0x3c06 <main+0x11a6>
    3c0e:	00 c0       	rjmp	.+0      	; 0x3c10 <main+0x11b0>
    3c10:	00 00       	nop
		_delay_ms(100);
		stop();
    3c12:	0e 94 e5 05 	call	0xbca	; 0xbca <stop>
		if (house_config[house_no-1]==0)
    3c16:	80 91 81 04 	lds	r24, 0x0481
    3c1a:	90 91 82 04 	lds	r25, 0x0482
    3c1e:	89 2b       	or	r24, r25
    3c20:	29 f4       	brne	.+10     	; 0x3c2c <main+0x11cc>
		{
			m_place_lr();
    3c22:	0e 94 21 07 	call	0xe42	; 0xe42 <m_place_lr>
			s_place_lr();
    3c26:	0e 94 63 07 	call	0xec6	; 0xec6 <s_place_lr>
    3c2a:	33 c0       	rjmp	.+102    	; 0x3c92 <main+0x1232>
		}
		else
		{
			m_place_hr();
			s_place_hr();
    3c2c:	0e 94 a9 07 	call	0xf52	; 0xf52 <s_place_hr>
    3c30:	30 c0       	rjmp	.+96     	; 0x3c92 <main+0x1232>
	u = bnode;
	for (int i = 0; i < 10; i++)
	{
		if (which_material[i] == block)
		{
			if (i==0) {house_no = 1;break;}
    3c32:	01 e0       	ldi	r16, 0x01	; 1
    3c34:	10 e0       	ldi	r17, 0x00	; 0
    3c36:	7a c9       	rjmp	.-3340   	; 0x2f2c <main+0x4cc>
			else if (i==1) {house_no = 1;break;}
			else if (i==2) {house_no = 2;break;}
    3c38:	02 e0       	ldi	r16, 0x02	; 2
    3c3a:	10 e0       	ldi	r17, 0x00	; 0
    3c3c:	77 c9       	rjmp	.-3346   	; 0x2f2c <main+0x4cc>
			else if (i==3) {house_no = 2;break;}
			else if (i==4) {house_no = 3;break;}
    3c3e:	03 e0       	ldi	r16, 0x03	; 3
    3c40:	10 e0       	ldi	r17, 0x00	; 0
    3c42:	74 c9       	rjmp	.-3352   	; 0x2f2c <main+0x4cc>
			else if (i==5) {house_no = 3;break;}
			else if (i==6) {house_no = 4;break;}
    3c44:	04 e0       	ldi	r16, 0x04	; 4
    3c46:	10 e0       	ldi	r17, 0x00	; 0
    3c48:	71 c9       	rjmp	.-3358   	; 0x2f2c <main+0x4cc>
	u = bnode;
	for (int i = 0; i < 10; i++)
	{
		if (which_material[i] == block)
		{
			if (i==0) {house_no = 1;break;}
    3c4a:	01 e0       	ldi	r16, 0x01	; 1
    3c4c:	10 e0       	ldi	r17, 0x00	; 0
    3c4e:	3d cb       	rjmp	.-2438   	; 0x32ca <main+0x86a>
			else if (i==1) {house_no = 1;break;}
			else if (i==2) {house_no = 2;break;}
    3c50:	02 e0       	ldi	r16, 0x02	; 2
    3c52:	10 e0       	ldi	r17, 0x00	; 0
    3c54:	3a cb       	rjmp	.-2444   	; 0x32ca <main+0x86a>
			else if (i==3) {house_no = 2;break;}
			else if (i==4) {house_no = 3;break;}
    3c56:	03 e0       	ldi	r16, 0x03	; 3
    3c58:	10 e0       	ldi	r17, 0x00	; 0
    3c5a:	37 cb       	rjmp	.-2450   	; 0x32ca <main+0x86a>
			else if (i==5) {house_no = 3;break;}
			else if (i==6) {house_no = 4;break;}
    3c5c:	04 e0       	ldi	r16, 0x04	; 4
    3c5e:	10 e0       	ldi	r17, 0x00	; 0
    3c60:	34 cb       	rjmp	.-2456   	; 0x32ca <main+0x86a>
	u = bnode;
	for (int i = 0; i < 10; i++)
	{
		if (which_material[i] == block)
		{
			if (i==0) {house_no = 1;break;}
    3c62:	01 e0       	ldi	r16, 0x01	; 1
    3c64:	10 e0       	ldi	r17, 0x00	; 0
    3c66:	02 cd       	rjmp	.-1532   	; 0x366c <main+0xc0c>
			else if (i==1) {house_no = 1;break;}
			else if (i==2) {house_no = 2;break;}
    3c68:	02 e0       	ldi	r16, 0x02	; 2
    3c6a:	10 e0       	ldi	r17, 0x00	; 0
    3c6c:	ff cc       	rjmp	.-1538   	; 0x366c <main+0xc0c>
			else if (i==3) {house_no = 2;break;}
			else if (i==4) {house_no = 3;break;}
    3c6e:	03 e0       	ldi	r16, 0x03	; 3
    3c70:	10 e0       	ldi	r17, 0x00	; 0
    3c72:	fc cc       	rjmp	.-1544   	; 0x366c <main+0xc0c>
			else if (i==5) {house_no = 3;break;}
			else if (i==6) {house_no = 4;break;}
    3c74:	04 e0       	ldi	r16, 0x04	; 4
    3c76:	10 e0       	ldi	r17, 0x00	; 0
    3c78:	f9 cc       	rjmp	.-1550   	; 0x366c <main+0xc0c>
	u = bnode;
	for (int i = 0; i < 10; i++)
	{
		if (which_material[i] == block)
		{
			if (i==0) {house_no = 1;break;}
    3c7a:	01 e0       	ldi	r16, 0x01	; 1
    3c7c:	10 e0       	ldi	r17, 0x00	; 0
    3c7e:	cd ce       	rjmp	.-614    	; 0x3a1a <main+0xfba>
			else if (i==1) {house_no = 1;break;}
			else if (i==2) {house_no = 2;break;}
    3c80:	02 e0       	ldi	r16, 0x02	; 2
    3c82:	10 e0       	ldi	r17, 0x00	; 0
    3c84:	ca ce       	rjmp	.-620    	; 0x3a1a <main+0xfba>
			else if (i==3) {house_no = 2;break;}
			else if (i==4) {house_no = 3;break;}
    3c86:	03 e0       	ldi	r16, 0x03	; 3
    3c88:	10 e0       	ldi	r17, 0x00	; 0
    3c8a:	c7 ce       	rjmp	.-626    	; 0x3a1a <main+0xfba>
			else if (i==5) {house_no = 3;break;}
			else if (i==6) {house_no = 4;break;}
    3c8c:	04 e0       	ldi	r16, 0x04	; 4
    3c8e:	10 e0       	ldi	r17, 0x00	; 0
    3c90:	c4 ce       	rjmp	.-632    	; 0x3a1a <main+0xfba>
	for(int p = 0;p<12;p++)
	{
		//printf("%d -- %d\n",p+1,block_placed[p]);
		//lcd_print(1,2*p,path[p],2);
	}
}
    3c92:	80 e0       	ldi	r24, 0x00	; 0
    3c94:	90 e0       	ldi	r25, 0x00	; 0
    3c96:	0f 90       	pop	r0
    3c98:	0f 90       	pop	r0
    3c9a:	df 91       	pop	r29
    3c9c:	cf 91       	pop	r28
    3c9e:	1f 91       	pop	r17
    3ca0:	0f 91       	pop	r16
    3ca2:	ff 90       	pop	r15
    3ca4:	ef 90       	pop	r14
    3ca6:	df 90       	pop	r13
    3ca8:	cf 90       	pop	r12
    3caa:	bf 90       	pop	r11
    3cac:	af 90       	pop	r10
    3cae:	9f 90       	pop	r9
    3cb0:	8f 90       	pop	r8
    3cb2:	08 95       	ret

00003cb4 <__subsf3>:
    3cb4:	50 58       	subi	r21, 0x80	; 128

00003cb6 <__addsf3>:
    3cb6:	bb 27       	eor	r27, r27
    3cb8:	aa 27       	eor	r26, r26
    3cba:	0e d0       	rcall	.+28     	; 0x3cd8 <__addsf3x>
    3cbc:	48 c1       	rjmp	.+656    	; 0x3f4e <__fp_round>
    3cbe:	39 d1       	rcall	.+626    	; 0x3f32 <__fp_pscA>
    3cc0:	30 f0       	brcs	.+12     	; 0x3cce <__addsf3+0x18>
    3cc2:	3e d1       	rcall	.+636    	; 0x3f40 <__fp_pscB>
    3cc4:	20 f0       	brcs	.+8      	; 0x3cce <__addsf3+0x18>
    3cc6:	31 f4       	brne	.+12     	; 0x3cd4 <__addsf3+0x1e>
    3cc8:	9f 3f       	cpi	r25, 0xFF	; 255
    3cca:	11 f4       	brne	.+4      	; 0x3cd0 <__addsf3+0x1a>
    3ccc:	1e f4       	brtc	.+6      	; 0x3cd4 <__addsf3+0x1e>
    3cce:	2e c1       	rjmp	.+604    	; 0x3f2c <__fp_nan>
    3cd0:	0e f4       	brtc	.+2      	; 0x3cd4 <__addsf3+0x1e>
    3cd2:	e0 95       	com	r30
    3cd4:	e7 fb       	bst	r30, 7
    3cd6:	24 c1       	rjmp	.+584    	; 0x3f20 <__fp_inf>

00003cd8 <__addsf3x>:
    3cd8:	e9 2f       	mov	r30, r25
    3cda:	4a d1       	rcall	.+660    	; 0x3f70 <__fp_split3>
    3cdc:	80 f3       	brcs	.-32     	; 0x3cbe <__addsf3+0x8>
    3cde:	ba 17       	cp	r27, r26
    3ce0:	62 07       	cpc	r22, r18
    3ce2:	73 07       	cpc	r23, r19
    3ce4:	84 07       	cpc	r24, r20
    3ce6:	95 07       	cpc	r25, r21
    3ce8:	18 f0       	brcs	.+6      	; 0x3cf0 <__addsf3x+0x18>
    3cea:	71 f4       	brne	.+28     	; 0x3d08 <__addsf3x+0x30>
    3cec:	9e f5       	brtc	.+102    	; 0x3d54 <__addsf3x+0x7c>
    3cee:	62 c1       	rjmp	.+708    	; 0x3fb4 <__fp_zero>
    3cf0:	0e f4       	brtc	.+2      	; 0x3cf4 <__addsf3x+0x1c>
    3cf2:	e0 95       	com	r30
    3cf4:	0b 2e       	mov	r0, r27
    3cf6:	ba 2f       	mov	r27, r26
    3cf8:	a0 2d       	mov	r26, r0
    3cfa:	0b 01       	movw	r0, r22
    3cfc:	b9 01       	movw	r22, r18
    3cfe:	90 01       	movw	r18, r0
    3d00:	0c 01       	movw	r0, r24
    3d02:	ca 01       	movw	r24, r20
    3d04:	a0 01       	movw	r20, r0
    3d06:	11 24       	eor	r1, r1
    3d08:	ff 27       	eor	r31, r31
    3d0a:	59 1b       	sub	r21, r25
    3d0c:	99 f0       	breq	.+38     	; 0x3d34 <__addsf3x+0x5c>
    3d0e:	59 3f       	cpi	r21, 0xF9	; 249
    3d10:	50 f4       	brcc	.+20     	; 0x3d26 <__addsf3x+0x4e>
    3d12:	50 3e       	cpi	r21, 0xE0	; 224
    3d14:	68 f1       	brcs	.+90     	; 0x3d70 <__addsf3x+0x98>
    3d16:	1a 16       	cp	r1, r26
    3d18:	f0 40       	sbci	r31, 0x00	; 0
    3d1a:	a2 2f       	mov	r26, r18
    3d1c:	23 2f       	mov	r18, r19
    3d1e:	34 2f       	mov	r19, r20
    3d20:	44 27       	eor	r20, r20
    3d22:	58 5f       	subi	r21, 0xF8	; 248
    3d24:	f3 cf       	rjmp	.-26     	; 0x3d0c <__addsf3x+0x34>
    3d26:	46 95       	lsr	r20
    3d28:	37 95       	ror	r19
    3d2a:	27 95       	ror	r18
    3d2c:	a7 95       	ror	r26
    3d2e:	f0 40       	sbci	r31, 0x00	; 0
    3d30:	53 95       	inc	r21
    3d32:	c9 f7       	brne	.-14     	; 0x3d26 <__addsf3x+0x4e>
    3d34:	7e f4       	brtc	.+30     	; 0x3d54 <__addsf3x+0x7c>
    3d36:	1f 16       	cp	r1, r31
    3d38:	ba 0b       	sbc	r27, r26
    3d3a:	62 0b       	sbc	r22, r18
    3d3c:	73 0b       	sbc	r23, r19
    3d3e:	84 0b       	sbc	r24, r20
    3d40:	ba f0       	brmi	.+46     	; 0x3d70 <__addsf3x+0x98>
    3d42:	91 50       	subi	r25, 0x01	; 1
    3d44:	a1 f0       	breq	.+40     	; 0x3d6e <__addsf3x+0x96>
    3d46:	ff 0f       	add	r31, r31
    3d48:	bb 1f       	adc	r27, r27
    3d4a:	66 1f       	adc	r22, r22
    3d4c:	77 1f       	adc	r23, r23
    3d4e:	88 1f       	adc	r24, r24
    3d50:	c2 f7       	brpl	.-16     	; 0x3d42 <__addsf3x+0x6a>
    3d52:	0e c0       	rjmp	.+28     	; 0x3d70 <__addsf3x+0x98>
    3d54:	ba 0f       	add	r27, r26
    3d56:	62 1f       	adc	r22, r18
    3d58:	73 1f       	adc	r23, r19
    3d5a:	84 1f       	adc	r24, r20
    3d5c:	48 f4       	brcc	.+18     	; 0x3d70 <__addsf3x+0x98>
    3d5e:	87 95       	ror	r24
    3d60:	77 95       	ror	r23
    3d62:	67 95       	ror	r22
    3d64:	b7 95       	ror	r27
    3d66:	f7 95       	ror	r31
    3d68:	9e 3f       	cpi	r25, 0xFE	; 254
    3d6a:	08 f0       	brcs	.+2      	; 0x3d6e <__addsf3x+0x96>
    3d6c:	b3 cf       	rjmp	.-154    	; 0x3cd4 <__addsf3+0x1e>
    3d6e:	93 95       	inc	r25
    3d70:	88 0f       	add	r24, r24
    3d72:	08 f0       	brcs	.+2      	; 0x3d76 <__addsf3x+0x9e>
    3d74:	99 27       	eor	r25, r25
    3d76:	ee 0f       	add	r30, r30
    3d78:	97 95       	ror	r25
    3d7a:	87 95       	ror	r24
    3d7c:	08 95       	ret

00003d7e <__divsf3>:
    3d7e:	0c d0       	rcall	.+24     	; 0x3d98 <__divsf3x>
    3d80:	e6 c0       	rjmp	.+460    	; 0x3f4e <__fp_round>
    3d82:	de d0       	rcall	.+444    	; 0x3f40 <__fp_pscB>
    3d84:	40 f0       	brcs	.+16     	; 0x3d96 <__divsf3+0x18>
    3d86:	d5 d0       	rcall	.+426    	; 0x3f32 <__fp_pscA>
    3d88:	30 f0       	brcs	.+12     	; 0x3d96 <__divsf3+0x18>
    3d8a:	21 f4       	brne	.+8      	; 0x3d94 <__divsf3+0x16>
    3d8c:	5f 3f       	cpi	r21, 0xFF	; 255
    3d8e:	19 f0       	breq	.+6      	; 0x3d96 <__divsf3+0x18>
    3d90:	c7 c0       	rjmp	.+398    	; 0x3f20 <__fp_inf>
    3d92:	51 11       	cpse	r21, r1
    3d94:	10 c1       	rjmp	.+544    	; 0x3fb6 <__fp_szero>
    3d96:	ca c0       	rjmp	.+404    	; 0x3f2c <__fp_nan>

00003d98 <__divsf3x>:
    3d98:	eb d0       	rcall	.+470    	; 0x3f70 <__fp_split3>
    3d9a:	98 f3       	brcs	.-26     	; 0x3d82 <__divsf3+0x4>

00003d9c <__divsf3_pse>:
    3d9c:	99 23       	and	r25, r25
    3d9e:	c9 f3       	breq	.-14     	; 0x3d92 <__divsf3+0x14>
    3da0:	55 23       	and	r21, r21
    3da2:	b1 f3       	breq	.-20     	; 0x3d90 <__divsf3+0x12>
    3da4:	95 1b       	sub	r25, r21
    3da6:	55 0b       	sbc	r21, r21
    3da8:	bb 27       	eor	r27, r27
    3daa:	aa 27       	eor	r26, r26
    3dac:	62 17       	cp	r22, r18
    3dae:	73 07       	cpc	r23, r19
    3db0:	84 07       	cpc	r24, r20
    3db2:	38 f0       	brcs	.+14     	; 0x3dc2 <__divsf3_pse+0x26>
    3db4:	9f 5f       	subi	r25, 0xFF	; 255
    3db6:	5f 4f       	sbci	r21, 0xFF	; 255
    3db8:	22 0f       	add	r18, r18
    3dba:	33 1f       	adc	r19, r19
    3dbc:	44 1f       	adc	r20, r20
    3dbe:	aa 1f       	adc	r26, r26
    3dc0:	a9 f3       	breq	.-22     	; 0x3dac <__divsf3_pse+0x10>
    3dc2:	33 d0       	rcall	.+102    	; 0x3e2a <__divsf3_pse+0x8e>
    3dc4:	0e 2e       	mov	r0, r30
    3dc6:	3a f0       	brmi	.+14     	; 0x3dd6 <__divsf3_pse+0x3a>
    3dc8:	e0 e8       	ldi	r30, 0x80	; 128
    3dca:	30 d0       	rcall	.+96     	; 0x3e2c <__divsf3_pse+0x90>
    3dcc:	91 50       	subi	r25, 0x01	; 1
    3dce:	50 40       	sbci	r21, 0x00	; 0
    3dd0:	e6 95       	lsr	r30
    3dd2:	00 1c       	adc	r0, r0
    3dd4:	ca f7       	brpl	.-14     	; 0x3dc8 <__divsf3_pse+0x2c>
    3dd6:	29 d0       	rcall	.+82     	; 0x3e2a <__divsf3_pse+0x8e>
    3dd8:	fe 2f       	mov	r31, r30
    3dda:	27 d0       	rcall	.+78     	; 0x3e2a <__divsf3_pse+0x8e>
    3ddc:	66 0f       	add	r22, r22
    3dde:	77 1f       	adc	r23, r23
    3de0:	88 1f       	adc	r24, r24
    3de2:	bb 1f       	adc	r27, r27
    3de4:	26 17       	cp	r18, r22
    3de6:	37 07       	cpc	r19, r23
    3de8:	48 07       	cpc	r20, r24
    3dea:	ab 07       	cpc	r26, r27
    3dec:	b0 e8       	ldi	r27, 0x80	; 128
    3dee:	09 f0       	breq	.+2      	; 0x3df2 <__divsf3_pse+0x56>
    3df0:	bb 0b       	sbc	r27, r27
    3df2:	80 2d       	mov	r24, r0
    3df4:	bf 01       	movw	r22, r30
    3df6:	ff 27       	eor	r31, r31
    3df8:	93 58       	subi	r25, 0x83	; 131
    3dfa:	5f 4f       	sbci	r21, 0xFF	; 255
    3dfc:	2a f0       	brmi	.+10     	; 0x3e08 <__divsf3_pse+0x6c>
    3dfe:	9e 3f       	cpi	r25, 0xFE	; 254
    3e00:	51 05       	cpc	r21, r1
    3e02:	68 f0       	brcs	.+26     	; 0x3e1e <__divsf3_pse+0x82>
    3e04:	8d c0       	rjmp	.+282    	; 0x3f20 <__fp_inf>
    3e06:	d7 c0       	rjmp	.+430    	; 0x3fb6 <__fp_szero>
    3e08:	5f 3f       	cpi	r21, 0xFF	; 255
    3e0a:	ec f3       	brlt	.-6      	; 0x3e06 <__divsf3_pse+0x6a>
    3e0c:	98 3e       	cpi	r25, 0xE8	; 232
    3e0e:	dc f3       	brlt	.-10     	; 0x3e06 <__divsf3_pse+0x6a>
    3e10:	86 95       	lsr	r24
    3e12:	77 95       	ror	r23
    3e14:	67 95       	ror	r22
    3e16:	b7 95       	ror	r27
    3e18:	f7 95       	ror	r31
    3e1a:	9f 5f       	subi	r25, 0xFF	; 255
    3e1c:	c9 f7       	brne	.-14     	; 0x3e10 <__divsf3_pse+0x74>
    3e1e:	88 0f       	add	r24, r24
    3e20:	91 1d       	adc	r25, r1
    3e22:	96 95       	lsr	r25
    3e24:	87 95       	ror	r24
    3e26:	97 f9       	bld	r25, 7
    3e28:	08 95       	ret
    3e2a:	e1 e0       	ldi	r30, 0x01	; 1
    3e2c:	66 0f       	add	r22, r22
    3e2e:	77 1f       	adc	r23, r23
    3e30:	88 1f       	adc	r24, r24
    3e32:	bb 1f       	adc	r27, r27
    3e34:	62 17       	cp	r22, r18
    3e36:	73 07       	cpc	r23, r19
    3e38:	84 07       	cpc	r24, r20
    3e3a:	ba 07       	cpc	r27, r26
    3e3c:	20 f0       	brcs	.+8      	; 0x3e46 <__divsf3_pse+0xaa>
    3e3e:	62 1b       	sub	r22, r18
    3e40:	73 0b       	sbc	r23, r19
    3e42:	84 0b       	sbc	r24, r20
    3e44:	ba 0b       	sbc	r27, r26
    3e46:	ee 1f       	adc	r30, r30
    3e48:	88 f7       	brcc	.-30     	; 0x3e2c <__divsf3_pse+0x90>
    3e4a:	e0 95       	com	r30
    3e4c:	08 95       	ret

00003e4e <__fixunssfsi>:
    3e4e:	98 d0       	rcall	.+304    	; 0x3f80 <__fp_splitA>
    3e50:	88 f0       	brcs	.+34     	; 0x3e74 <__fixunssfsi+0x26>
    3e52:	9f 57       	subi	r25, 0x7F	; 127
    3e54:	90 f0       	brcs	.+36     	; 0x3e7a <__fixunssfsi+0x2c>
    3e56:	b9 2f       	mov	r27, r25
    3e58:	99 27       	eor	r25, r25
    3e5a:	b7 51       	subi	r27, 0x17	; 23
    3e5c:	a0 f0       	brcs	.+40     	; 0x3e86 <__fixunssfsi+0x38>
    3e5e:	d1 f0       	breq	.+52     	; 0x3e94 <__fixunssfsi+0x46>
    3e60:	66 0f       	add	r22, r22
    3e62:	77 1f       	adc	r23, r23
    3e64:	88 1f       	adc	r24, r24
    3e66:	99 1f       	adc	r25, r25
    3e68:	1a f0       	brmi	.+6      	; 0x3e70 <__fixunssfsi+0x22>
    3e6a:	ba 95       	dec	r27
    3e6c:	c9 f7       	brne	.-14     	; 0x3e60 <__fixunssfsi+0x12>
    3e6e:	12 c0       	rjmp	.+36     	; 0x3e94 <__fixunssfsi+0x46>
    3e70:	b1 30       	cpi	r27, 0x01	; 1
    3e72:	81 f0       	breq	.+32     	; 0x3e94 <__fixunssfsi+0x46>
    3e74:	9f d0       	rcall	.+318    	; 0x3fb4 <__fp_zero>
    3e76:	b1 e0       	ldi	r27, 0x01	; 1
    3e78:	08 95       	ret
    3e7a:	9c c0       	rjmp	.+312    	; 0x3fb4 <__fp_zero>
    3e7c:	67 2f       	mov	r22, r23
    3e7e:	78 2f       	mov	r23, r24
    3e80:	88 27       	eor	r24, r24
    3e82:	b8 5f       	subi	r27, 0xF8	; 248
    3e84:	39 f0       	breq	.+14     	; 0x3e94 <__fixunssfsi+0x46>
    3e86:	b9 3f       	cpi	r27, 0xF9	; 249
    3e88:	cc f3       	brlt	.-14     	; 0x3e7c <__fixunssfsi+0x2e>
    3e8a:	86 95       	lsr	r24
    3e8c:	77 95       	ror	r23
    3e8e:	67 95       	ror	r22
    3e90:	b3 95       	inc	r27
    3e92:	d9 f7       	brne	.-10     	; 0x3e8a <__fixunssfsi+0x3c>
    3e94:	3e f4       	brtc	.+14     	; 0x3ea4 <__fixunssfsi+0x56>
    3e96:	90 95       	com	r25
    3e98:	80 95       	com	r24
    3e9a:	70 95       	com	r23
    3e9c:	61 95       	neg	r22
    3e9e:	7f 4f       	sbci	r23, 0xFF	; 255
    3ea0:	8f 4f       	sbci	r24, 0xFF	; 255
    3ea2:	9f 4f       	sbci	r25, 0xFF	; 255
    3ea4:	08 95       	ret

00003ea6 <__floatunsisf>:
    3ea6:	e8 94       	clt
    3ea8:	09 c0       	rjmp	.+18     	; 0x3ebc <__floatsisf+0x12>

00003eaa <__floatsisf>:
    3eaa:	97 fb       	bst	r25, 7
    3eac:	3e f4       	brtc	.+14     	; 0x3ebc <__floatsisf+0x12>
    3eae:	90 95       	com	r25
    3eb0:	80 95       	com	r24
    3eb2:	70 95       	com	r23
    3eb4:	61 95       	neg	r22
    3eb6:	7f 4f       	sbci	r23, 0xFF	; 255
    3eb8:	8f 4f       	sbci	r24, 0xFF	; 255
    3eba:	9f 4f       	sbci	r25, 0xFF	; 255
    3ebc:	99 23       	and	r25, r25
    3ebe:	a9 f0       	breq	.+42     	; 0x3eea <__floatsisf+0x40>
    3ec0:	f9 2f       	mov	r31, r25
    3ec2:	96 e9       	ldi	r25, 0x96	; 150
    3ec4:	bb 27       	eor	r27, r27
    3ec6:	93 95       	inc	r25
    3ec8:	f6 95       	lsr	r31
    3eca:	87 95       	ror	r24
    3ecc:	77 95       	ror	r23
    3ece:	67 95       	ror	r22
    3ed0:	b7 95       	ror	r27
    3ed2:	f1 11       	cpse	r31, r1
    3ed4:	f8 cf       	rjmp	.-16     	; 0x3ec6 <__floatsisf+0x1c>
    3ed6:	fa f4       	brpl	.+62     	; 0x3f16 <__floatsisf+0x6c>
    3ed8:	bb 0f       	add	r27, r27
    3eda:	11 f4       	brne	.+4      	; 0x3ee0 <__floatsisf+0x36>
    3edc:	60 ff       	sbrs	r22, 0
    3ede:	1b c0       	rjmp	.+54     	; 0x3f16 <__floatsisf+0x6c>
    3ee0:	6f 5f       	subi	r22, 0xFF	; 255
    3ee2:	7f 4f       	sbci	r23, 0xFF	; 255
    3ee4:	8f 4f       	sbci	r24, 0xFF	; 255
    3ee6:	9f 4f       	sbci	r25, 0xFF	; 255
    3ee8:	16 c0       	rjmp	.+44     	; 0x3f16 <__floatsisf+0x6c>
    3eea:	88 23       	and	r24, r24
    3eec:	11 f0       	breq	.+4      	; 0x3ef2 <__floatsisf+0x48>
    3eee:	96 e9       	ldi	r25, 0x96	; 150
    3ef0:	11 c0       	rjmp	.+34     	; 0x3f14 <__floatsisf+0x6a>
    3ef2:	77 23       	and	r23, r23
    3ef4:	21 f0       	breq	.+8      	; 0x3efe <__floatsisf+0x54>
    3ef6:	9e e8       	ldi	r25, 0x8E	; 142
    3ef8:	87 2f       	mov	r24, r23
    3efa:	76 2f       	mov	r23, r22
    3efc:	05 c0       	rjmp	.+10     	; 0x3f08 <__floatsisf+0x5e>
    3efe:	66 23       	and	r22, r22
    3f00:	71 f0       	breq	.+28     	; 0x3f1e <__floatsisf+0x74>
    3f02:	96 e8       	ldi	r25, 0x86	; 134
    3f04:	86 2f       	mov	r24, r22
    3f06:	70 e0       	ldi	r23, 0x00	; 0
    3f08:	60 e0       	ldi	r22, 0x00	; 0
    3f0a:	2a f0       	brmi	.+10     	; 0x3f16 <__floatsisf+0x6c>
    3f0c:	9a 95       	dec	r25
    3f0e:	66 0f       	add	r22, r22
    3f10:	77 1f       	adc	r23, r23
    3f12:	88 1f       	adc	r24, r24
    3f14:	da f7       	brpl	.-10     	; 0x3f0c <__floatsisf+0x62>
    3f16:	88 0f       	add	r24, r24
    3f18:	96 95       	lsr	r25
    3f1a:	87 95       	ror	r24
    3f1c:	97 f9       	bld	r25, 7
    3f1e:	08 95       	ret

00003f20 <__fp_inf>:
    3f20:	97 f9       	bld	r25, 7
    3f22:	9f 67       	ori	r25, 0x7F	; 127
    3f24:	80 e8       	ldi	r24, 0x80	; 128
    3f26:	70 e0       	ldi	r23, 0x00	; 0
    3f28:	60 e0       	ldi	r22, 0x00	; 0
    3f2a:	08 95       	ret

00003f2c <__fp_nan>:
    3f2c:	9f ef       	ldi	r25, 0xFF	; 255
    3f2e:	80 ec       	ldi	r24, 0xC0	; 192
    3f30:	08 95       	ret

00003f32 <__fp_pscA>:
    3f32:	00 24       	eor	r0, r0
    3f34:	0a 94       	dec	r0
    3f36:	16 16       	cp	r1, r22
    3f38:	17 06       	cpc	r1, r23
    3f3a:	18 06       	cpc	r1, r24
    3f3c:	09 06       	cpc	r0, r25
    3f3e:	08 95       	ret

00003f40 <__fp_pscB>:
    3f40:	00 24       	eor	r0, r0
    3f42:	0a 94       	dec	r0
    3f44:	12 16       	cp	r1, r18
    3f46:	13 06       	cpc	r1, r19
    3f48:	14 06       	cpc	r1, r20
    3f4a:	05 06       	cpc	r0, r21
    3f4c:	08 95       	ret

00003f4e <__fp_round>:
    3f4e:	09 2e       	mov	r0, r25
    3f50:	03 94       	inc	r0
    3f52:	00 0c       	add	r0, r0
    3f54:	11 f4       	brne	.+4      	; 0x3f5a <__fp_round+0xc>
    3f56:	88 23       	and	r24, r24
    3f58:	52 f0       	brmi	.+20     	; 0x3f6e <__fp_round+0x20>
    3f5a:	bb 0f       	add	r27, r27
    3f5c:	40 f4       	brcc	.+16     	; 0x3f6e <__fp_round+0x20>
    3f5e:	bf 2b       	or	r27, r31
    3f60:	11 f4       	brne	.+4      	; 0x3f66 <__fp_round+0x18>
    3f62:	60 ff       	sbrs	r22, 0
    3f64:	04 c0       	rjmp	.+8      	; 0x3f6e <__fp_round+0x20>
    3f66:	6f 5f       	subi	r22, 0xFF	; 255
    3f68:	7f 4f       	sbci	r23, 0xFF	; 255
    3f6a:	8f 4f       	sbci	r24, 0xFF	; 255
    3f6c:	9f 4f       	sbci	r25, 0xFF	; 255
    3f6e:	08 95       	ret

00003f70 <__fp_split3>:
    3f70:	57 fd       	sbrc	r21, 7
    3f72:	90 58       	subi	r25, 0x80	; 128
    3f74:	44 0f       	add	r20, r20
    3f76:	55 1f       	adc	r21, r21
    3f78:	59 f0       	breq	.+22     	; 0x3f90 <__fp_splitA+0x10>
    3f7a:	5f 3f       	cpi	r21, 0xFF	; 255
    3f7c:	71 f0       	breq	.+28     	; 0x3f9a <__fp_splitA+0x1a>
    3f7e:	47 95       	ror	r20

00003f80 <__fp_splitA>:
    3f80:	88 0f       	add	r24, r24
    3f82:	97 fb       	bst	r25, 7
    3f84:	99 1f       	adc	r25, r25
    3f86:	61 f0       	breq	.+24     	; 0x3fa0 <__fp_splitA+0x20>
    3f88:	9f 3f       	cpi	r25, 0xFF	; 255
    3f8a:	79 f0       	breq	.+30     	; 0x3faa <__fp_splitA+0x2a>
    3f8c:	87 95       	ror	r24
    3f8e:	08 95       	ret
    3f90:	12 16       	cp	r1, r18
    3f92:	13 06       	cpc	r1, r19
    3f94:	14 06       	cpc	r1, r20
    3f96:	55 1f       	adc	r21, r21
    3f98:	f2 cf       	rjmp	.-28     	; 0x3f7e <__fp_split3+0xe>
    3f9a:	46 95       	lsr	r20
    3f9c:	f1 df       	rcall	.-30     	; 0x3f80 <__fp_splitA>
    3f9e:	08 c0       	rjmp	.+16     	; 0x3fb0 <__fp_splitA+0x30>
    3fa0:	16 16       	cp	r1, r22
    3fa2:	17 06       	cpc	r1, r23
    3fa4:	18 06       	cpc	r1, r24
    3fa6:	99 1f       	adc	r25, r25
    3fa8:	f1 cf       	rjmp	.-30     	; 0x3f8c <__fp_splitA+0xc>
    3faa:	86 95       	lsr	r24
    3fac:	71 05       	cpc	r23, r1
    3fae:	61 05       	cpc	r22, r1
    3fb0:	08 94       	sec
    3fb2:	08 95       	ret

00003fb4 <__fp_zero>:
    3fb4:	e8 94       	clt

00003fb6 <__fp_szero>:
    3fb6:	bb 27       	eor	r27, r27
    3fb8:	66 27       	eor	r22, r22
    3fba:	77 27       	eor	r23, r23
    3fbc:	cb 01       	movw	r24, r22
    3fbe:	97 f9       	bld	r25, 7
    3fc0:	08 95       	ret

00003fc2 <__umulhisi3>:
    3fc2:	a2 9f       	mul	r26, r18
    3fc4:	b0 01       	movw	r22, r0
    3fc6:	b3 9f       	mul	r27, r19
    3fc8:	c0 01       	movw	r24, r0
    3fca:	a3 9f       	mul	r26, r19
    3fcc:	70 0d       	add	r23, r0
    3fce:	81 1d       	adc	r24, r1
    3fd0:	11 24       	eor	r1, r1
    3fd2:	91 1d       	adc	r25, r1
    3fd4:	b2 9f       	mul	r27, r18
    3fd6:	70 0d       	add	r23, r0
    3fd8:	81 1d       	adc	r24, r1
    3fda:	11 24       	eor	r1, r1
    3fdc:	91 1d       	adc	r25, r1
    3fde:	08 95       	ret

00003fe0 <malloc>:
    3fe0:	cf 93       	push	r28
    3fe2:	df 93       	push	r29
    3fe4:	82 30       	cpi	r24, 0x02	; 2
    3fe6:	91 05       	cpc	r25, r1
    3fe8:	10 f4       	brcc	.+4      	; 0x3fee <malloc+0xe>
    3fea:	82 e0       	ldi	r24, 0x02	; 2
    3fec:	90 e0       	ldi	r25, 0x00	; 0
    3fee:	e0 91 5c 05 	lds	r30, 0x055C
    3ff2:	f0 91 5d 05 	lds	r31, 0x055D
    3ff6:	20 e0       	ldi	r18, 0x00	; 0
    3ff8:	30 e0       	ldi	r19, 0x00	; 0
    3ffa:	a0 e0       	ldi	r26, 0x00	; 0
    3ffc:	b0 e0       	ldi	r27, 0x00	; 0
    3ffe:	30 97       	sbiw	r30, 0x00	; 0
    4000:	39 f1       	breq	.+78     	; 0x4050 <malloc+0x70>
    4002:	40 81       	ld	r20, Z
    4004:	51 81       	ldd	r21, Z+1	; 0x01
    4006:	48 17       	cp	r20, r24
    4008:	59 07       	cpc	r21, r25
    400a:	b8 f0       	brcs	.+46     	; 0x403a <malloc+0x5a>
    400c:	48 17       	cp	r20, r24
    400e:	59 07       	cpc	r21, r25
    4010:	71 f4       	brne	.+28     	; 0x402e <malloc+0x4e>
    4012:	82 81       	ldd	r24, Z+2	; 0x02
    4014:	93 81       	ldd	r25, Z+3	; 0x03
    4016:	10 97       	sbiw	r26, 0x00	; 0
    4018:	29 f0       	breq	.+10     	; 0x4024 <malloc+0x44>
    401a:	13 96       	adiw	r26, 0x03	; 3
    401c:	9c 93       	st	X, r25
    401e:	8e 93       	st	-X, r24
    4020:	12 97       	sbiw	r26, 0x02	; 2
    4022:	2c c0       	rjmp	.+88     	; 0x407c <malloc+0x9c>
    4024:	90 93 5d 05 	sts	0x055D, r25
    4028:	80 93 5c 05 	sts	0x055C, r24
    402c:	27 c0       	rjmp	.+78     	; 0x407c <malloc+0x9c>
    402e:	21 15       	cp	r18, r1
    4030:	31 05       	cpc	r19, r1
    4032:	31 f0       	breq	.+12     	; 0x4040 <malloc+0x60>
    4034:	42 17       	cp	r20, r18
    4036:	53 07       	cpc	r21, r19
    4038:	18 f0       	brcs	.+6      	; 0x4040 <malloc+0x60>
    403a:	a9 01       	movw	r20, r18
    403c:	db 01       	movw	r26, r22
    403e:	01 c0       	rjmp	.+2      	; 0x4042 <malloc+0x62>
    4040:	ef 01       	movw	r28, r30
    4042:	9a 01       	movw	r18, r20
    4044:	bd 01       	movw	r22, r26
    4046:	df 01       	movw	r26, r30
    4048:	02 80       	ldd	r0, Z+2	; 0x02
    404a:	f3 81       	ldd	r31, Z+3	; 0x03
    404c:	e0 2d       	mov	r30, r0
    404e:	d7 cf       	rjmp	.-82     	; 0x3ffe <malloc+0x1e>
    4050:	21 15       	cp	r18, r1
    4052:	31 05       	cpc	r19, r1
    4054:	f9 f0       	breq	.+62     	; 0x4094 <malloc+0xb4>
    4056:	28 1b       	sub	r18, r24
    4058:	39 0b       	sbc	r19, r25
    405a:	24 30       	cpi	r18, 0x04	; 4
    405c:	31 05       	cpc	r19, r1
    405e:	80 f4       	brcc	.+32     	; 0x4080 <malloc+0xa0>
    4060:	8a 81       	ldd	r24, Y+2	; 0x02
    4062:	9b 81       	ldd	r25, Y+3	; 0x03
    4064:	61 15       	cp	r22, r1
    4066:	71 05       	cpc	r23, r1
    4068:	21 f0       	breq	.+8      	; 0x4072 <malloc+0x92>
    406a:	fb 01       	movw	r30, r22
    406c:	93 83       	std	Z+3, r25	; 0x03
    406e:	82 83       	std	Z+2, r24	; 0x02
    4070:	04 c0       	rjmp	.+8      	; 0x407a <malloc+0x9a>
    4072:	90 93 5d 05 	sts	0x055D, r25
    4076:	80 93 5c 05 	sts	0x055C, r24
    407a:	fe 01       	movw	r30, r28
    407c:	32 96       	adiw	r30, 0x02	; 2
    407e:	44 c0       	rjmp	.+136    	; 0x4108 <malloc+0x128>
    4080:	fe 01       	movw	r30, r28
    4082:	e2 0f       	add	r30, r18
    4084:	f3 1f       	adc	r31, r19
    4086:	81 93       	st	Z+, r24
    4088:	91 93       	st	Z+, r25
    408a:	22 50       	subi	r18, 0x02	; 2
    408c:	31 09       	sbc	r19, r1
    408e:	39 83       	std	Y+1, r19	; 0x01
    4090:	28 83       	st	Y, r18
    4092:	3a c0       	rjmp	.+116    	; 0x4108 <malloc+0x128>
    4094:	20 91 5a 05 	lds	r18, 0x055A
    4098:	30 91 5b 05 	lds	r19, 0x055B
    409c:	23 2b       	or	r18, r19
    409e:	41 f4       	brne	.+16     	; 0x40b0 <malloc+0xd0>
    40a0:	20 91 02 02 	lds	r18, 0x0202
    40a4:	30 91 03 02 	lds	r19, 0x0203
    40a8:	30 93 5b 05 	sts	0x055B, r19
    40ac:	20 93 5a 05 	sts	0x055A, r18
    40b0:	20 91 00 02 	lds	r18, 0x0200
    40b4:	30 91 01 02 	lds	r19, 0x0201
    40b8:	21 15       	cp	r18, r1
    40ba:	31 05       	cpc	r19, r1
    40bc:	41 f4       	brne	.+16     	; 0x40ce <malloc+0xee>
    40be:	2d b7       	in	r18, 0x3d	; 61
    40c0:	3e b7       	in	r19, 0x3e	; 62
    40c2:	40 91 04 02 	lds	r20, 0x0204
    40c6:	50 91 05 02 	lds	r21, 0x0205
    40ca:	24 1b       	sub	r18, r20
    40cc:	35 0b       	sbc	r19, r21
    40ce:	e0 91 5a 05 	lds	r30, 0x055A
    40d2:	f0 91 5b 05 	lds	r31, 0x055B
    40d6:	e2 17       	cp	r30, r18
    40d8:	f3 07       	cpc	r31, r19
    40da:	a0 f4       	brcc	.+40     	; 0x4104 <malloc+0x124>
    40dc:	2e 1b       	sub	r18, r30
    40de:	3f 0b       	sbc	r19, r31
    40e0:	28 17       	cp	r18, r24
    40e2:	39 07       	cpc	r19, r25
    40e4:	78 f0       	brcs	.+30     	; 0x4104 <malloc+0x124>
    40e6:	ac 01       	movw	r20, r24
    40e8:	4e 5f       	subi	r20, 0xFE	; 254
    40ea:	5f 4f       	sbci	r21, 0xFF	; 255
    40ec:	24 17       	cp	r18, r20
    40ee:	35 07       	cpc	r19, r21
    40f0:	48 f0       	brcs	.+18     	; 0x4104 <malloc+0x124>
    40f2:	4e 0f       	add	r20, r30
    40f4:	5f 1f       	adc	r21, r31
    40f6:	50 93 5b 05 	sts	0x055B, r21
    40fa:	40 93 5a 05 	sts	0x055A, r20
    40fe:	81 93       	st	Z+, r24
    4100:	91 93       	st	Z+, r25
    4102:	02 c0       	rjmp	.+4      	; 0x4108 <malloc+0x128>
    4104:	e0 e0       	ldi	r30, 0x00	; 0
    4106:	f0 e0       	ldi	r31, 0x00	; 0
    4108:	cf 01       	movw	r24, r30
    410a:	df 91       	pop	r29
    410c:	cf 91       	pop	r28
    410e:	08 95       	ret

00004110 <free>:
    4110:	cf 93       	push	r28
    4112:	df 93       	push	r29
    4114:	00 97       	sbiw	r24, 0x00	; 0
    4116:	09 f4       	brne	.+2      	; 0x411a <free+0xa>
    4118:	87 c0       	rjmp	.+270    	; 0x4228 <free+0x118>
    411a:	fc 01       	movw	r30, r24
    411c:	32 97       	sbiw	r30, 0x02	; 2
    411e:	13 82       	std	Z+3, r1	; 0x03
    4120:	12 82       	std	Z+2, r1	; 0x02
    4122:	c0 91 5c 05 	lds	r28, 0x055C
    4126:	d0 91 5d 05 	lds	r29, 0x055D
    412a:	20 97       	sbiw	r28, 0x00	; 0
    412c:	81 f4       	brne	.+32     	; 0x414e <free+0x3e>
    412e:	20 81       	ld	r18, Z
    4130:	31 81       	ldd	r19, Z+1	; 0x01
    4132:	28 0f       	add	r18, r24
    4134:	39 1f       	adc	r19, r25
    4136:	80 91 5a 05 	lds	r24, 0x055A
    413a:	90 91 5b 05 	lds	r25, 0x055B
    413e:	82 17       	cp	r24, r18
    4140:	93 07       	cpc	r25, r19
    4142:	79 f5       	brne	.+94     	; 0x41a2 <free+0x92>
    4144:	f0 93 5b 05 	sts	0x055B, r31
    4148:	e0 93 5a 05 	sts	0x055A, r30
    414c:	6d c0       	rjmp	.+218    	; 0x4228 <free+0x118>
    414e:	de 01       	movw	r26, r28
    4150:	20 e0       	ldi	r18, 0x00	; 0
    4152:	30 e0       	ldi	r19, 0x00	; 0
    4154:	ae 17       	cp	r26, r30
    4156:	bf 07       	cpc	r27, r31
    4158:	50 f4       	brcc	.+20     	; 0x416e <free+0x5e>
    415a:	12 96       	adiw	r26, 0x02	; 2
    415c:	4d 91       	ld	r20, X+
    415e:	5c 91       	ld	r21, X
    4160:	13 97       	sbiw	r26, 0x03	; 3
    4162:	9d 01       	movw	r18, r26
    4164:	41 15       	cp	r20, r1
    4166:	51 05       	cpc	r21, r1
    4168:	09 f1       	breq	.+66     	; 0x41ac <free+0x9c>
    416a:	da 01       	movw	r26, r20
    416c:	f3 cf       	rjmp	.-26     	; 0x4154 <free+0x44>
    416e:	b3 83       	std	Z+3, r27	; 0x03
    4170:	a2 83       	std	Z+2, r26	; 0x02
    4172:	40 81       	ld	r20, Z
    4174:	51 81       	ldd	r21, Z+1	; 0x01
    4176:	84 0f       	add	r24, r20
    4178:	95 1f       	adc	r25, r21
    417a:	8a 17       	cp	r24, r26
    417c:	9b 07       	cpc	r25, r27
    417e:	71 f4       	brne	.+28     	; 0x419c <free+0x8c>
    4180:	8d 91       	ld	r24, X+
    4182:	9c 91       	ld	r25, X
    4184:	11 97       	sbiw	r26, 0x01	; 1
    4186:	84 0f       	add	r24, r20
    4188:	95 1f       	adc	r25, r21
    418a:	02 96       	adiw	r24, 0x02	; 2
    418c:	91 83       	std	Z+1, r25	; 0x01
    418e:	80 83       	st	Z, r24
    4190:	12 96       	adiw	r26, 0x02	; 2
    4192:	8d 91       	ld	r24, X+
    4194:	9c 91       	ld	r25, X
    4196:	13 97       	sbiw	r26, 0x03	; 3
    4198:	93 83       	std	Z+3, r25	; 0x03
    419a:	82 83       	std	Z+2, r24	; 0x02
    419c:	21 15       	cp	r18, r1
    419e:	31 05       	cpc	r19, r1
    41a0:	29 f4       	brne	.+10     	; 0x41ac <free+0x9c>
    41a2:	f0 93 5d 05 	sts	0x055D, r31
    41a6:	e0 93 5c 05 	sts	0x055C, r30
    41aa:	3e c0       	rjmp	.+124    	; 0x4228 <free+0x118>
    41ac:	d9 01       	movw	r26, r18
    41ae:	13 96       	adiw	r26, 0x03	; 3
    41b0:	fc 93       	st	X, r31
    41b2:	ee 93       	st	-X, r30
    41b4:	12 97       	sbiw	r26, 0x02	; 2
    41b6:	4d 91       	ld	r20, X+
    41b8:	5d 91       	ld	r21, X+
    41ba:	a4 0f       	add	r26, r20
    41bc:	b5 1f       	adc	r27, r21
    41be:	ea 17       	cp	r30, r26
    41c0:	fb 07       	cpc	r31, r27
    41c2:	79 f4       	brne	.+30     	; 0x41e2 <free+0xd2>
    41c4:	80 81       	ld	r24, Z
    41c6:	91 81       	ldd	r25, Z+1	; 0x01
    41c8:	84 0f       	add	r24, r20
    41ca:	95 1f       	adc	r25, r21
    41cc:	02 96       	adiw	r24, 0x02	; 2
    41ce:	d9 01       	movw	r26, r18
    41d0:	11 96       	adiw	r26, 0x01	; 1
    41d2:	9c 93       	st	X, r25
    41d4:	8e 93       	st	-X, r24
    41d6:	82 81       	ldd	r24, Z+2	; 0x02
    41d8:	93 81       	ldd	r25, Z+3	; 0x03
    41da:	13 96       	adiw	r26, 0x03	; 3
    41dc:	9c 93       	st	X, r25
    41de:	8e 93       	st	-X, r24
    41e0:	12 97       	sbiw	r26, 0x02	; 2
    41e2:	e0 e0       	ldi	r30, 0x00	; 0
    41e4:	f0 e0       	ldi	r31, 0x00	; 0
    41e6:	8a 81       	ldd	r24, Y+2	; 0x02
    41e8:	9b 81       	ldd	r25, Y+3	; 0x03
    41ea:	00 97       	sbiw	r24, 0x00	; 0
    41ec:	19 f0       	breq	.+6      	; 0x41f4 <free+0xe4>
    41ee:	fe 01       	movw	r30, r28
    41f0:	ec 01       	movw	r28, r24
    41f2:	f9 cf       	rjmp	.-14     	; 0x41e6 <free+0xd6>
    41f4:	ce 01       	movw	r24, r28
    41f6:	02 96       	adiw	r24, 0x02	; 2
    41f8:	28 81       	ld	r18, Y
    41fa:	39 81       	ldd	r19, Y+1	; 0x01
    41fc:	82 0f       	add	r24, r18
    41fe:	93 1f       	adc	r25, r19
    4200:	20 91 5a 05 	lds	r18, 0x055A
    4204:	30 91 5b 05 	lds	r19, 0x055B
    4208:	28 17       	cp	r18, r24
    420a:	39 07       	cpc	r19, r25
    420c:	69 f4       	brne	.+26     	; 0x4228 <free+0x118>
    420e:	30 97       	sbiw	r30, 0x00	; 0
    4210:	29 f4       	brne	.+10     	; 0x421c <free+0x10c>
    4212:	10 92 5d 05 	sts	0x055D, r1
    4216:	10 92 5c 05 	sts	0x055C, r1
    421a:	02 c0       	rjmp	.+4      	; 0x4220 <free+0x110>
    421c:	13 82       	std	Z+3, r1	; 0x03
    421e:	12 82       	std	Z+2, r1	; 0x02
    4220:	d0 93 5b 05 	sts	0x055B, r29
    4224:	c0 93 5a 05 	sts	0x055A, r28
    4228:	df 91       	pop	r29
    422a:	cf 91       	pop	r28
    422c:	08 95       	ret

0000422e <_exit>:
    422e:	f8 94       	cli

00004230 <__stop_program>:
    4230:	ff cf       	rjmp	.-2      	; 0x4230 <__stop_program>
