
Task5.elf:     file format elf32-avr

Sections:
Idx Name          Size      VMA       LMA       File off  Algn
  0 .data         0000005c  00800200  00005a84  00005b18  2**0
                  CONTENTS, ALLOC, LOAD, DATA
  1 .text         00005a84  00000000  00000000  00000094  2**1
                  CONTENTS, ALLOC, LOAD, READONLY, CODE
  2 .bss          00000020  0080025c  0080025c  00005b74  2**0
                  ALLOC
  3 .comment      00000030  00000000  00000000  00005b74  2**0
                  CONTENTS, READONLY
  4 .debug_aranges 00000290  00000000  00000000  00005ba4  2**0
                  CONTENTS, READONLY, DEBUGGING
  5 .debug_info   000035e9  00000000  00000000  00005e34  2**0
                  CONTENTS, READONLY, DEBUGGING
  6 .debug_abbrev 00000306  00000000  00000000  0000941d  2**0
                  CONTENTS, READONLY, DEBUGGING
  7 .debug_line   00003719  00000000  00000000  00009723  2**0
                  CONTENTS, READONLY, DEBUGGING
  8 .debug_frame  00000ad4  00000000  00000000  0000ce3c  2**2
                  CONTENTS, READONLY, DEBUGGING
  9 .debug_str    000006d1  00000000  00000000  0000d910  2**0
                  CONTENTS, READONLY, DEBUGGING
 10 .debug_loc    00001663  00000000  00000000  0000dfe1  2**0
                  CONTENTS, READONLY, DEBUGGING
 11 .debug_ranges 00000460  00000000  00000000  0000f644  2**0
                  CONTENTS, READONLY, DEBUGGING

Disassembly of section .text:

00000000 <__vectors>:
       0:	71 c0       	rjmp	.+226    	; 0xe4 <__ctors_end>
       2:	00 00       	nop
       4:	90 c0       	rjmp	.+288    	; 0x126 <__bad_interrupt>
       6:	00 00       	nop
       8:	8e c0       	rjmp	.+284    	; 0x126 <__bad_interrupt>
       a:	00 00       	nop
       c:	8c c0       	rjmp	.+280    	; 0x126 <__bad_interrupt>
       e:	00 00       	nop
      10:	8a c0       	rjmp	.+276    	; 0x126 <__bad_interrupt>
      12:	00 00       	nop
      14:	0c 94 35 0d 	jmp	0x1a6a	; 0x1a6a <__vector_5>
      18:	0c 94 08 0d 	jmp	0x1a10	; 0x1a10 <__vector_6>
      1c:	84 c0       	rjmp	.+264    	; 0x126 <__bad_interrupt>
      1e:	00 00       	nop
      20:	82 c0       	rjmp	.+260    	; 0x126 <__bad_interrupt>
      22:	00 00       	nop
      24:	80 c0       	rjmp	.+256    	; 0x126 <__bad_interrupt>
      26:	00 00       	nop
      28:	7e c0       	rjmp	.+252    	; 0x126 <__bad_interrupt>
      2a:	00 00       	nop
      2c:	7c c0       	rjmp	.+248    	; 0x126 <__bad_interrupt>
      2e:	00 00       	nop
      30:	7a c0       	rjmp	.+244    	; 0x126 <__bad_interrupt>
      32:	00 00       	nop
      34:	78 c0       	rjmp	.+240    	; 0x126 <__bad_interrupt>
      36:	00 00       	nop
      38:	76 c0       	rjmp	.+236    	; 0x126 <__bad_interrupt>
      3a:	00 00       	nop
      3c:	74 c0       	rjmp	.+232    	; 0x126 <__bad_interrupt>
      3e:	00 00       	nop
      40:	72 c0       	rjmp	.+228    	; 0x126 <__bad_interrupt>
      42:	00 00       	nop
      44:	70 c0       	rjmp	.+224    	; 0x126 <__bad_interrupt>
      46:	00 00       	nop
      48:	6e c0       	rjmp	.+220    	; 0x126 <__bad_interrupt>
      4a:	00 00       	nop
      4c:	6c c0       	rjmp	.+216    	; 0x126 <__bad_interrupt>
      4e:	00 00       	nop
      50:	6a c0       	rjmp	.+212    	; 0x126 <__bad_interrupt>
      52:	00 00       	nop
      54:	68 c0       	rjmp	.+208    	; 0x126 <__bad_interrupt>
      56:	00 00       	nop
      58:	66 c0       	rjmp	.+204    	; 0x126 <__bad_interrupt>
      5a:	00 00       	nop
      5c:	64 c0       	rjmp	.+200    	; 0x126 <__bad_interrupt>
      5e:	00 00       	nop
      60:	62 c0       	rjmp	.+196    	; 0x126 <__bad_interrupt>
      62:	00 00       	nop
      64:	60 c0       	rjmp	.+192    	; 0x126 <__bad_interrupt>
      66:	00 00       	nop
      68:	5e c0       	rjmp	.+188    	; 0x126 <__bad_interrupt>
      6a:	00 00       	nop
      6c:	5c c0       	rjmp	.+184    	; 0x126 <__bad_interrupt>
      6e:	00 00       	nop
      70:	5a c0       	rjmp	.+180    	; 0x126 <__bad_interrupt>
      72:	00 00       	nop
      74:	58 c0       	rjmp	.+176    	; 0x126 <__bad_interrupt>
      76:	00 00       	nop
      78:	56 c0       	rjmp	.+172    	; 0x126 <__bad_interrupt>
      7a:	00 00       	nop
      7c:	54 c0       	rjmp	.+168    	; 0x126 <__bad_interrupt>
      7e:	00 00       	nop
      80:	52 c0       	rjmp	.+164    	; 0x126 <__bad_interrupt>
      82:	00 00       	nop
      84:	50 c0       	rjmp	.+160    	; 0x126 <__bad_interrupt>
      86:	00 00       	nop
      88:	4e c0       	rjmp	.+156    	; 0x126 <__bad_interrupt>
      8a:	00 00       	nop
      8c:	4c c0       	rjmp	.+152    	; 0x126 <__bad_interrupt>
      8e:	00 00       	nop
      90:	4a c0       	rjmp	.+148    	; 0x126 <__bad_interrupt>
      92:	00 00       	nop
      94:	48 c0       	rjmp	.+144    	; 0x126 <__bad_interrupt>
      96:	00 00       	nop
      98:	46 c0       	rjmp	.+140    	; 0x126 <__bad_interrupt>
      9a:	00 00       	nop
      9c:	44 c0       	rjmp	.+136    	; 0x126 <__bad_interrupt>
      9e:	00 00       	nop
      a0:	42 c0       	rjmp	.+132    	; 0x126 <__bad_interrupt>
      a2:	00 00       	nop
      a4:	40 c0       	rjmp	.+128    	; 0x126 <__bad_interrupt>
      a6:	00 00       	nop
      a8:	3e c0       	rjmp	.+124    	; 0x126 <__bad_interrupt>
      aa:	00 00       	nop
      ac:	3c c0       	rjmp	.+120    	; 0x126 <__bad_interrupt>
      ae:	00 00       	nop
      b0:	3a c0       	rjmp	.+116    	; 0x126 <__bad_interrupt>
      b2:	00 00       	nop
      b4:	38 c0       	rjmp	.+112    	; 0x126 <__bad_interrupt>
      b6:	00 00       	nop
      b8:	36 c0       	rjmp	.+108    	; 0x126 <__bad_interrupt>
      ba:	00 00       	nop
      bc:	34 c0       	rjmp	.+104    	; 0x126 <__bad_interrupt>
      be:	00 00       	nop
      c0:	32 c0       	rjmp	.+100    	; 0x126 <__bad_interrupt>
      c2:	00 00       	nop
      c4:	30 c0       	rjmp	.+96     	; 0x126 <__bad_interrupt>
      c6:	00 00       	nop
      c8:	2e c0       	rjmp	.+92     	; 0x126 <__bad_interrupt>
      ca:	00 00       	nop
      cc:	2c c0       	rjmp	.+88     	; 0x126 <__bad_interrupt>
      ce:	00 00       	nop
      d0:	2a c0       	rjmp	.+84     	; 0x126 <__bad_interrupt>
      d2:	00 00       	nop
      d4:	28 c0       	rjmp	.+80     	; 0x126 <__bad_interrupt>
      d6:	00 00       	nop
      d8:	26 c0       	rjmp	.+76     	; 0x126 <__bad_interrupt>
      da:	00 00       	nop
      dc:	24 c0       	rjmp	.+72     	; 0x126 <__bad_interrupt>
      de:	00 00       	nop
      e0:	22 c0       	rjmp	.+68     	; 0x126 <__bad_interrupt>
	...

000000e4 <__ctors_end>:
      e4:	11 24       	eor	r1, r1
      e6:	1f be       	out	0x3f, r1	; 63
      e8:	cf ef       	ldi	r28, 0xFF	; 255
      ea:	d1 e2       	ldi	r29, 0x21	; 33
      ec:	de bf       	out	0x3e, r29	; 62
      ee:	cd bf       	out	0x3d, r28	; 61
      f0:	00 e0       	ldi	r16, 0x00	; 0
      f2:	0c bf       	out	0x3c, r16	; 60

000000f4 <__do_copy_data>:
      f4:	12 e0       	ldi	r17, 0x02	; 2
      f6:	a0 e0       	ldi	r26, 0x00	; 0
      f8:	b2 e0       	ldi	r27, 0x02	; 2
      fa:	e4 e8       	ldi	r30, 0x84	; 132
      fc:	fa e5       	ldi	r31, 0x5A	; 90
      fe:	00 e0       	ldi	r16, 0x00	; 0
     100:	0b bf       	out	0x3b, r16	; 59
     102:	02 c0       	rjmp	.+4      	; 0x108 <__do_copy_data+0x14>
     104:	07 90       	elpm	r0, Z+
     106:	0d 92       	st	X+, r0
     108:	ac 35       	cpi	r26, 0x5C	; 92
     10a:	b1 07       	cpc	r27, r17
     10c:	d9 f7       	brne	.-10     	; 0x104 <__do_copy_data+0x10>

0000010e <__do_clear_bss>:
     10e:	22 e0       	ldi	r18, 0x02	; 2
     110:	ac e5       	ldi	r26, 0x5C	; 92
     112:	b2 e0       	ldi	r27, 0x02	; 2
     114:	01 c0       	rjmp	.+2      	; 0x118 <.do_clear_bss_start>

00000116 <.do_clear_bss_loop>:
     116:	1d 92       	st	X+, r1

00000118 <.do_clear_bss_start>:
     118:	ac 37       	cpi	r26, 0x7C	; 124
     11a:	b2 07       	cpc	r27, r18
     11c:	e1 f7       	brne	.-8      	; 0x116 <.do_clear_bss_loop>
     11e:	0e 94 24 29 	call	0x5248	; 0x5248 <main>
     122:	0c 94 40 2d 	jmp	0x5a80	; 0x5a80 <_exit>

00000126 <__bad_interrupt>:
     126:	6c cf       	rjmp	.-296    	; 0x0 <__vectors>

00000128 <lcd_port_config>:

void back_mm(unsigned int DistanceInMM)
{
	back();
	linear_distance_mm(DistanceInMM);
}
     128:	cf 93       	push	r28
     12a:	df 93       	push	r29
     12c:	cd b7       	in	r28, 0x3d	; 61
     12e:	de b7       	in	r29, 0x3e	; 62
     130:	87 e2       	ldi	r24, 0x27	; 39
     132:	90 e0       	ldi	r25, 0x00	; 0
     134:	27 e2       	ldi	r18, 0x27	; 39
     136:	30 e0       	ldi	r19, 0x00	; 0
     138:	f9 01       	movw	r30, r18
     13a:	20 81       	ld	r18, Z
     13c:	27 6f       	ori	r18, 0xF7	; 247
     13e:	fc 01       	movw	r30, r24
     140:	20 83       	st	Z, r18
     142:	88 e2       	ldi	r24, 0x28	; 40
     144:	90 e0       	ldi	r25, 0x00	; 0
     146:	28 e2       	ldi	r18, 0x28	; 40
     148:	30 e0       	ldi	r19, 0x00	; 0
     14a:	f9 01       	movw	r30, r18
     14c:	20 81       	ld	r18, Z
     14e:	28 70       	andi	r18, 0x08	; 8
     150:	fc 01       	movw	r30, r24
     152:	20 83       	st	Z, r18
     154:	df 91       	pop	r29
     156:	cf 91       	pop	r28
     158:	08 95       	ret

0000015a <lcd_set_4bit>:
     15a:	0f 93       	push	r16
     15c:	1f 93       	push	r17
     15e:	cf 93       	push	r28
     160:	df 93       	push	r29
     162:	cd b7       	in	r28, 0x3d	; 61
     164:	de b7       	in	r29, 0x3e	; 62
     166:	c0 57       	subi	r28, 0x70	; 112
     168:	d1 09       	sbc	r29, r1
     16a:	0f b6       	in	r0, 0x3f	; 63
     16c:	f8 94       	cli
     16e:	de bf       	out	0x3e, r29	; 62
     170:	0f be       	out	0x3f, r0	; 63
     172:	cd bf       	out	0x3d, r28	; 61
     174:	80 e0       	ldi	r24, 0x00	; 0
     176:	90 e0       	ldi	r25, 0x00	; 0
     178:	a0 e8       	ldi	r26, 0x80	; 128
     17a:	bf e3       	ldi	r27, 0x3F	; 63
     17c:	89 83       	std	Y+1, r24	; 0x01
     17e:	9a 83       	std	Y+2, r25	; 0x02
     180:	ab 83       	std	Y+3, r26	; 0x03
     182:	bc 83       	std	Y+4, r27	; 0x04
     184:	26 e6       	ldi	r18, 0x66	; 102
     186:	36 e6       	ldi	r19, 0x66	; 102
     188:	46 e6       	ldi	r20, 0x66	; 102
     18a:	55 e4       	ldi	r21, 0x45	; 69
     18c:	69 81       	ldd	r22, Y+1	; 0x01
     18e:	7a 81       	ldd	r23, Y+2	; 0x02
     190:	8b 81       	ldd	r24, Y+3	; 0x03
     192:	9c 81       	ldd	r25, Y+4	; 0x04
     194:	0e 94 ce 2c 	call	0x599c	; 0x599c <__mulsf3>
     198:	dc 01       	movw	r26, r24
     19a:	cb 01       	movw	r24, r22
     19c:	8d 83       	std	Y+5, r24	; 0x05
     19e:	9e 83       	std	Y+6, r25	; 0x06
     1a0:	af 83       	std	Y+7, r26	; 0x07
     1a2:	b8 87       	std	Y+8, r27	; 0x08
     1a4:	20 e0       	ldi	r18, 0x00	; 0
     1a6:	30 e0       	ldi	r19, 0x00	; 0
     1a8:	40 e8       	ldi	r20, 0x80	; 128
     1aa:	5f e3       	ldi	r21, 0x3F	; 63
     1ac:	6d 81       	ldd	r22, Y+5	; 0x05
     1ae:	7e 81       	ldd	r23, Y+6	; 0x06
     1b0:	8f 81       	ldd	r24, Y+7	; 0x07
     1b2:	98 85       	ldd	r25, Y+8	; 0x08
     1b4:	0e 94 80 2b 	call	0x5700	; 0x5700 <__cmpsf2>
     1b8:	88 23       	and	r24, r24
     1ba:	2c f4       	brge	.+10     	; 0x1c6 <lcd_set_4bit+0x6c>
     1bc:	81 e0       	ldi	r24, 0x01	; 1
     1be:	90 e0       	ldi	r25, 0x00	; 0
     1c0:	9a 87       	std	Y+10, r25	; 0x0a
     1c2:	89 87       	std	Y+9, r24	; 0x09
     1c4:	3f c0       	rjmp	.+126    	; 0x244 <lcd_set_4bit+0xea>
     1c6:	20 e0       	ldi	r18, 0x00	; 0
     1c8:	3f ef       	ldi	r19, 0xFF	; 255
     1ca:	4f e7       	ldi	r20, 0x7F	; 127
     1cc:	57 e4       	ldi	r21, 0x47	; 71
     1ce:	6d 81       	ldd	r22, Y+5	; 0x05
     1d0:	7e 81       	ldd	r23, Y+6	; 0x06
     1d2:	8f 81       	ldd	r24, Y+7	; 0x07
     1d4:	98 85       	ldd	r25, Y+8	; 0x08
     1d6:	0e 94 ca 2c 	call	0x5994	; 0x5994 <__gesf2>
     1da:	18 16       	cp	r1, r24
     1dc:	4c f5       	brge	.+82     	; 0x230 <lcd_set_4bit+0xd6>
     1de:	20 e0       	ldi	r18, 0x00	; 0
     1e0:	30 e0       	ldi	r19, 0x00	; 0
     1e2:	40 e2       	ldi	r20, 0x20	; 32
     1e4:	51 e4       	ldi	r21, 0x41	; 65
     1e6:	69 81       	ldd	r22, Y+1	; 0x01
     1e8:	7a 81       	ldd	r23, Y+2	; 0x02
     1ea:	8b 81       	ldd	r24, Y+3	; 0x03
     1ec:	9c 81       	ldd	r25, Y+4	; 0x04
     1ee:	0e 94 ce 2c 	call	0x599c	; 0x599c <__mulsf3>
     1f2:	dc 01       	movw	r26, r24
     1f4:	cb 01       	movw	r24, r22
     1f6:	bc 01       	movw	r22, r24
     1f8:	cd 01       	movw	r24, r26
     1fa:	0e 94 ec 2b 	call	0x57d8	; 0x57d8 <__fixunssfsi>
     1fe:	dc 01       	movw	r26, r24
     200:	cb 01       	movw	r24, r22
     202:	9a 87       	std	Y+10, r25	; 0x0a
     204:	89 87       	std	Y+9, r24	; 0x09
     206:	0f c0       	rjmp	.+30     	; 0x226 <lcd_set_4bit+0xcc>
     208:	80 e7       	ldi	r24, 0x70	; 112
     20a:	91 e0       	ldi	r25, 0x01	; 1
     20c:	9c 87       	std	Y+12, r25	; 0x0c
     20e:	8b 87       	std	Y+11, r24	; 0x0b
     210:	8b 85       	ldd	r24, Y+11	; 0x0b
     212:	9c 85       	ldd	r25, Y+12	; 0x0c
     214:	01 97       	sbiw	r24, 0x01	; 1
     216:	f1 f7       	brne	.-4      	; 0x214 <lcd_set_4bit+0xba>
     218:	9c 87       	std	Y+12, r25	; 0x0c
     21a:	8b 87       	std	Y+11, r24	; 0x0b
     21c:	89 85       	ldd	r24, Y+9	; 0x09
     21e:	9a 85       	ldd	r25, Y+10	; 0x0a
     220:	01 97       	sbiw	r24, 0x01	; 1
     222:	9a 87       	std	Y+10, r25	; 0x0a
     224:	89 87       	std	Y+9, r24	; 0x09
     226:	89 85       	ldd	r24, Y+9	; 0x09
     228:	9a 85       	ldd	r25, Y+10	; 0x0a
     22a:	00 97       	sbiw	r24, 0x00	; 0
     22c:	69 f7       	brne	.-38     	; 0x208 <lcd_set_4bit+0xae>
     22e:	14 c0       	rjmp	.+40     	; 0x258 <lcd_set_4bit+0xfe>
     230:	6d 81       	ldd	r22, Y+5	; 0x05
     232:	7e 81       	ldd	r23, Y+6	; 0x06
     234:	8f 81       	ldd	r24, Y+7	; 0x07
     236:	98 85       	ldd	r25, Y+8	; 0x08
     238:	0e 94 ec 2b 	call	0x57d8	; 0x57d8 <__fixunssfsi>
     23c:	dc 01       	movw	r26, r24
     23e:	cb 01       	movw	r24, r22
     240:	9a 87       	std	Y+10, r25	; 0x0a
     242:	89 87       	std	Y+9, r24	; 0x09
     244:	89 85       	ldd	r24, Y+9	; 0x09
     246:	9a 85       	ldd	r25, Y+10	; 0x0a
     248:	9e 87       	std	Y+14, r25	; 0x0e
     24a:	8d 87       	std	Y+13, r24	; 0x0d
     24c:	8d 85       	ldd	r24, Y+13	; 0x0d
     24e:	9e 85       	ldd	r25, Y+14	; 0x0e
     250:	01 97       	sbiw	r24, 0x01	; 1
     252:	f1 f7       	brne	.-4      	; 0x250 <lcd_set_4bit+0xf6>
     254:	9e 87       	std	Y+14, r25	; 0x0e
     256:	8d 87       	std	Y+13, r24	; 0x0d
     258:	88 e2       	ldi	r24, 0x28	; 40
     25a:	90 e0       	ldi	r25, 0x00	; 0
     25c:	28 e2       	ldi	r18, 0x28	; 40
     25e:	30 e0       	ldi	r19, 0x00	; 0
     260:	f9 01       	movw	r30, r18
     262:	20 81       	ld	r18, Z
     264:	2e 7f       	andi	r18, 0xFE	; 254
     266:	fc 01       	movw	r30, r24
     268:	20 83       	st	Z, r18
     26a:	88 e2       	ldi	r24, 0x28	; 40
     26c:	90 e0       	ldi	r25, 0x00	; 0
     26e:	28 e2       	ldi	r18, 0x28	; 40
     270:	30 e0       	ldi	r19, 0x00	; 0
     272:	f9 01       	movw	r30, r18
     274:	20 81       	ld	r18, Z
     276:	2d 7f       	andi	r18, 0xFD	; 253
     278:	fc 01       	movw	r30, r24
     27a:	20 83       	st	Z, r18
     27c:	88 e2       	ldi	r24, 0x28	; 40
     27e:	90 e0       	ldi	r25, 0x00	; 0
     280:	20 e3       	ldi	r18, 0x30	; 48
     282:	fc 01       	movw	r30, r24
     284:	20 83       	st	Z, r18
     286:	88 e2       	ldi	r24, 0x28	; 40
     288:	90 e0       	ldi	r25, 0x00	; 0
     28a:	28 e2       	ldi	r18, 0x28	; 40
     28c:	30 e0       	ldi	r19, 0x00	; 0
     28e:	f9 01       	movw	r30, r18
     290:	20 81       	ld	r18, Z
     292:	24 60       	ori	r18, 0x04	; 4
     294:	fc 01       	movw	r30, r24
     296:	20 83       	st	Z, r18
     298:	80 e0       	ldi	r24, 0x00	; 0
     29a:	90 e0       	ldi	r25, 0x00	; 0
     29c:	a0 ea       	ldi	r26, 0xA0	; 160
     29e:	b0 e4       	ldi	r27, 0x40	; 64
     2a0:	8f 87       	std	Y+15, r24	; 0x0f
     2a2:	98 8b       	std	Y+16, r25	; 0x10
     2a4:	a9 8b       	std	Y+17, r26	; 0x11
     2a6:	ba 8b       	std	Y+18, r27	; 0x12
     2a8:	26 e6       	ldi	r18, 0x66	; 102
     2aa:	36 e6       	ldi	r19, 0x66	; 102
     2ac:	46 e6       	ldi	r20, 0x66	; 102
     2ae:	55 e4       	ldi	r21, 0x45	; 69
     2b0:	6f 85       	ldd	r22, Y+15	; 0x0f
     2b2:	78 89       	ldd	r23, Y+16	; 0x10
     2b4:	89 89       	ldd	r24, Y+17	; 0x11
     2b6:	9a 89       	ldd	r25, Y+18	; 0x12
     2b8:	0e 94 ce 2c 	call	0x599c	; 0x599c <__mulsf3>
     2bc:	dc 01       	movw	r26, r24
     2be:	cb 01       	movw	r24, r22
     2c0:	8b 8b       	std	Y+19, r24	; 0x13
     2c2:	9c 8b       	std	Y+20, r25	; 0x14
     2c4:	ad 8b       	std	Y+21, r26	; 0x15
     2c6:	be 8b       	std	Y+22, r27	; 0x16
     2c8:	20 e0       	ldi	r18, 0x00	; 0
     2ca:	30 e0       	ldi	r19, 0x00	; 0
     2cc:	40 e8       	ldi	r20, 0x80	; 128
     2ce:	5f e3       	ldi	r21, 0x3F	; 63
     2d0:	6b 89       	ldd	r22, Y+19	; 0x13
     2d2:	7c 89       	ldd	r23, Y+20	; 0x14
     2d4:	8d 89       	ldd	r24, Y+21	; 0x15
     2d6:	9e 89       	ldd	r25, Y+22	; 0x16
     2d8:	0e 94 80 2b 	call	0x5700	; 0x5700 <__cmpsf2>
     2dc:	88 23       	and	r24, r24
     2de:	2c f4       	brge	.+10     	; 0x2ea <lcd_set_4bit+0x190>
     2e0:	81 e0       	ldi	r24, 0x01	; 1
     2e2:	90 e0       	ldi	r25, 0x00	; 0
     2e4:	98 8f       	std	Y+24, r25	; 0x18
     2e6:	8f 8b       	std	Y+23, r24	; 0x17
     2e8:	3f c0       	rjmp	.+126    	; 0x368 <lcd_set_4bit+0x20e>
     2ea:	20 e0       	ldi	r18, 0x00	; 0
     2ec:	3f ef       	ldi	r19, 0xFF	; 255
     2ee:	4f e7       	ldi	r20, 0x7F	; 127
     2f0:	57 e4       	ldi	r21, 0x47	; 71
     2f2:	6b 89       	ldd	r22, Y+19	; 0x13
     2f4:	7c 89       	ldd	r23, Y+20	; 0x14
     2f6:	8d 89       	ldd	r24, Y+21	; 0x15
     2f8:	9e 89       	ldd	r25, Y+22	; 0x16
     2fa:	0e 94 ca 2c 	call	0x5994	; 0x5994 <__gesf2>
     2fe:	18 16       	cp	r1, r24
     300:	4c f5       	brge	.+82     	; 0x354 <lcd_set_4bit+0x1fa>
     302:	20 e0       	ldi	r18, 0x00	; 0
     304:	30 e0       	ldi	r19, 0x00	; 0
     306:	40 e2       	ldi	r20, 0x20	; 32
     308:	51 e4       	ldi	r21, 0x41	; 65
     30a:	6f 85       	ldd	r22, Y+15	; 0x0f
     30c:	78 89       	ldd	r23, Y+16	; 0x10
     30e:	89 89       	ldd	r24, Y+17	; 0x11
     310:	9a 89       	ldd	r25, Y+18	; 0x12
     312:	0e 94 ce 2c 	call	0x599c	; 0x599c <__mulsf3>
     316:	dc 01       	movw	r26, r24
     318:	cb 01       	movw	r24, r22
     31a:	bc 01       	movw	r22, r24
     31c:	cd 01       	movw	r24, r26
     31e:	0e 94 ec 2b 	call	0x57d8	; 0x57d8 <__fixunssfsi>
     322:	dc 01       	movw	r26, r24
     324:	cb 01       	movw	r24, r22
     326:	98 8f       	std	Y+24, r25	; 0x18
     328:	8f 8b       	std	Y+23, r24	; 0x17
     32a:	0f c0       	rjmp	.+30     	; 0x34a <lcd_set_4bit+0x1f0>
     32c:	80 e7       	ldi	r24, 0x70	; 112
     32e:	91 e0       	ldi	r25, 0x01	; 1
     330:	9a 8f       	std	Y+26, r25	; 0x1a
     332:	89 8f       	std	Y+25, r24	; 0x19
     334:	89 8d       	ldd	r24, Y+25	; 0x19
     336:	9a 8d       	ldd	r25, Y+26	; 0x1a
     338:	01 97       	sbiw	r24, 0x01	; 1
     33a:	f1 f7       	brne	.-4      	; 0x338 <lcd_set_4bit+0x1de>
     33c:	9a 8f       	std	Y+26, r25	; 0x1a
     33e:	89 8f       	std	Y+25, r24	; 0x19
     340:	8f 89       	ldd	r24, Y+23	; 0x17
     342:	98 8d       	ldd	r25, Y+24	; 0x18
     344:	01 97       	sbiw	r24, 0x01	; 1
     346:	98 8f       	std	Y+24, r25	; 0x18
     348:	8f 8b       	std	Y+23, r24	; 0x17
     34a:	8f 89       	ldd	r24, Y+23	; 0x17
     34c:	98 8d       	ldd	r25, Y+24	; 0x18
     34e:	00 97       	sbiw	r24, 0x00	; 0
     350:	69 f7       	brne	.-38     	; 0x32c <lcd_set_4bit+0x1d2>
     352:	14 c0       	rjmp	.+40     	; 0x37c <lcd_set_4bit+0x222>
     354:	6b 89       	ldd	r22, Y+19	; 0x13
     356:	7c 89       	ldd	r23, Y+20	; 0x14
     358:	8d 89       	ldd	r24, Y+21	; 0x15
     35a:	9e 89       	ldd	r25, Y+22	; 0x16
     35c:	0e 94 ec 2b 	call	0x57d8	; 0x57d8 <__fixunssfsi>
     360:	dc 01       	movw	r26, r24
     362:	cb 01       	movw	r24, r22
     364:	98 8f       	std	Y+24, r25	; 0x18
     366:	8f 8b       	std	Y+23, r24	; 0x17
     368:	8f 89       	ldd	r24, Y+23	; 0x17
     36a:	98 8d       	ldd	r25, Y+24	; 0x18
     36c:	9c 8f       	std	Y+28, r25	; 0x1c
     36e:	8b 8f       	std	Y+27, r24	; 0x1b
     370:	8b 8d       	ldd	r24, Y+27	; 0x1b
     372:	9c 8d       	ldd	r25, Y+28	; 0x1c
     374:	01 97       	sbiw	r24, 0x01	; 1
     376:	f1 f7       	brne	.-4      	; 0x374 <lcd_set_4bit+0x21a>
     378:	9c 8f       	std	Y+28, r25	; 0x1c
     37a:	8b 8f       	std	Y+27, r24	; 0x1b
     37c:	88 e2       	ldi	r24, 0x28	; 40
     37e:	90 e0       	ldi	r25, 0x00	; 0
     380:	28 e2       	ldi	r18, 0x28	; 40
     382:	30 e0       	ldi	r19, 0x00	; 0
     384:	f9 01       	movw	r30, r18
     386:	20 81       	ld	r18, Z
     388:	2b 7f       	andi	r18, 0xFB	; 251
     38a:	fc 01       	movw	r30, r24
     38c:	20 83       	st	Z, r18
     38e:	80 e0       	ldi	r24, 0x00	; 0
     390:	90 e0       	ldi	r25, 0x00	; 0
     392:	a0 e8       	ldi	r26, 0x80	; 128
     394:	bf e3       	ldi	r27, 0x3F	; 63
     396:	8d 8f       	std	Y+29, r24	; 0x1d
     398:	9e 8f       	std	Y+30, r25	; 0x1e
     39a:	af 8f       	std	Y+31, r26	; 0x1f
     39c:	b8 a3       	std	Y+32, r27	; 0x20
     39e:	26 e6       	ldi	r18, 0x66	; 102
     3a0:	36 e6       	ldi	r19, 0x66	; 102
     3a2:	46 e6       	ldi	r20, 0x66	; 102
     3a4:	55 e4       	ldi	r21, 0x45	; 69
     3a6:	6d 8d       	ldd	r22, Y+29	; 0x1d
     3a8:	7e 8d       	ldd	r23, Y+30	; 0x1e
     3aa:	8f 8d       	ldd	r24, Y+31	; 0x1f
     3ac:	98 a1       	ldd	r25, Y+32	; 0x20
     3ae:	0e 94 ce 2c 	call	0x599c	; 0x599c <__mulsf3>
     3b2:	dc 01       	movw	r26, r24
     3b4:	cb 01       	movw	r24, r22
     3b6:	89 a3       	std	Y+33, r24	; 0x21
     3b8:	9a a3       	std	Y+34, r25	; 0x22
     3ba:	ab a3       	std	Y+35, r26	; 0x23
     3bc:	bc a3       	std	Y+36, r27	; 0x24
     3be:	20 e0       	ldi	r18, 0x00	; 0
     3c0:	30 e0       	ldi	r19, 0x00	; 0
     3c2:	40 e8       	ldi	r20, 0x80	; 128
     3c4:	5f e3       	ldi	r21, 0x3F	; 63
     3c6:	69 a1       	ldd	r22, Y+33	; 0x21
     3c8:	7a a1       	ldd	r23, Y+34	; 0x22
     3ca:	8b a1       	ldd	r24, Y+35	; 0x23
     3cc:	9c a1       	ldd	r25, Y+36	; 0x24
     3ce:	0e 94 80 2b 	call	0x5700	; 0x5700 <__cmpsf2>
     3d2:	88 23       	and	r24, r24
     3d4:	2c f4       	brge	.+10     	; 0x3e0 <lcd_set_4bit+0x286>
     3d6:	81 e0       	ldi	r24, 0x01	; 1
     3d8:	90 e0       	ldi	r25, 0x00	; 0
     3da:	9e a3       	std	Y+38, r25	; 0x26
     3dc:	8d a3       	std	Y+37, r24	; 0x25
     3de:	3f c0       	rjmp	.+126    	; 0x45e <lcd_set_4bit+0x304>
     3e0:	20 e0       	ldi	r18, 0x00	; 0
     3e2:	3f ef       	ldi	r19, 0xFF	; 255
     3e4:	4f e7       	ldi	r20, 0x7F	; 127
     3e6:	57 e4       	ldi	r21, 0x47	; 71
     3e8:	69 a1       	ldd	r22, Y+33	; 0x21
     3ea:	7a a1       	ldd	r23, Y+34	; 0x22
     3ec:	8b a1       	ldd	r24, Y+35	; 0x23
     3ee:	9c a1       	ldd	r25, Y+36	; 0x24
     3f0:	0e 94 ca 2c 	call	0x5994	; 0x5994 <__gesf2>
     3f4:	18 16       	cp	r1, r24
     3f6:	4c f5       	brge	.+82     	; 0x44a <lcd_set_4bit+0x2f0>
     3f8:	20 e0       	ldi	r18, 0x00	; 0
     3fa:	30 e0       	ldi	r19, 0x00	; 0
     3fc:	40 e2       	ldi	r20, 0x20	; 32
     3fe:	51 e4       	ldi	r21, 0x41	; 65
     400:	6d 8d       	ldd	r22, Y+29	; 0x1d
     402:	7e 8d       	ldd	r23, Y+30	; 0x1e
     404:	8f 8d       	ldd	r24, Y+31	; 0x1f
     406:	98 a1       	ldd	r25, Y+32	; 0x20
     408:	0e 94 ce 2c 	call	0x599c	; 0x599c <__mulsf3>
     40c:	dc 01       	movw	r26, r24
     40e:	cb 01       	movw	r24, r22
     410:	bc 01       	movw	r22, r24
     412:	cd 01       	movw	r24, r26
     414:	0e 94 ec 2b 	call	0x57d8	; 0x57d8 <__fixunssfsi>
     418:	dc 01       	movw	r26, r24
     41a:	cb 01       	movw	r24, r22
     41c:	9e a3       	std	Y+38, r25	; 0x26
     41e:	8d a3       	std	Y+37, r24	; 0x25
     420:	0f c0       	rjmp	.+30     	; 0x440 <lcd_set_4bit+0x2e6>
     422:	80 e7       	ldi	r24, 0x70	; 112
     424:	91 e0       	ldi	r25, 0x01	; 1
     426:	98 a7       	std	Y+40, r25	; 0x28
     428:	8f a3       	std	Y+39, r24	; 0x27
     42a:	8f a1       	ldd	r24, Y+39	; 0x27
     42c:	98 a5       	ldd	r25, Y+40	; 0x28
     42e:	01 97       	sbiw	r24, 0x01	; 1
     430:	f1 f7       	brne	.-4      	; 0x42e <lcd_set_4bit+0x2d4>
     432:	98 a7       	std	Y+40, r25	; 0x28
     434:	8f a3       	std	Y+39, r24	; 0x27
     436:	8d a1       	ldd	r24, Y+37	; 0x25
     438:	9e a1       	ldd	r25, Y+38	; 0x26
     43a:	01 97       	sbiw	r24, 0x01	; 1
     43c:	9e a3       	std	Y+38, r25	; 0x26
     43e:	8d a3       	std	Y+37, r24	; 0x25
     440:	8d a1       	ldd	r24, Y+37	; 0x25
     442:	9e a1       	ldd	r25, Y+38	; 0x26
     444:	00 97       	sbiw	r24, 0x00	; 0
     446:	69 f7       	brne	.-38     	; 0x422 <lcd_set_4bit+0x2c8>
     448:	14 c0       	rjmp	.+40     	; 0x472 <lcd_set_4bit+0x318>
     44a:	69 a1       	ldd	r22, Y+33	; 0x21
     44c:	7a a1       	ldd	r23, Y+34	; 0x22
     44e:	8b a1       	ldd	r24, Y+35	; 0x23
     450:	9c a1       	ldd	r25, Y+36	; 0x24
     452:	0e 94 ec 2b 	call	0x57d8	; 0x57d8 <__fixunssfsi>
     456:	dc 01       	movw	r26, r24
     458:	cb 01       	movw	r24, r22
     45a:	9e a3       	std	Y+38, r25	; 0x26
     45c:	8d a3       	std	Y+37, r24	; 0x25
     45e:	8d a1       	ldd	r24, Y+37	; 0x25
     460:	9e a1       	ldd	r25, Y+38	; 0x26
     462:	9a a7       	std	Y+42, r25	; 0x2a
     464:	89 a7       	std	Y+41, r24	; 0x29
     466:	89 a5       	ldd	r24, Y+41	; 0x29
     468:	9a a5       	ldd	r25, Y+42	; 0x2a
     46a:	01 97       	sbiw	r24, 0x01	; 1
     46c:	f1 f7       	brne	.-4      	; 0x46a <lcd_set_4bit+0x310>
     46e:	9a a7       	std	Y+42, r25	; 0x2a
     470:	89 a7       	std	Y+41, r24	; 0x29
     472:	88 e2       	ldi	r24, 0x28	; 40
     474:	90 e0       	ldi	r25, 0x00	; 0
     476:	28 e2       	ldi	r18, 0x28	; 40
     478:	30 e0       	ldi	r19, 0x00	; 0
     47a:	f9 01       	movw	r30, r18
     47c:	20 81       	ld	r18, Z
     47e:	2e 7f       	andi	r18, 0xFE	; 254
     480:	fc 01       	movw	r30, r24
     482:	20 83       	st	Z, r18
     484:	88 e2       	ldi	r24, 0x28	; 40
     486:	90 e0       	ldi	r25, 0x00	; 0
     488:	28 e2       	ldi	r18, 0x28	; 40
     48a:	30 e0       	ldi	r19, 0x00	; 0
     48c:	f9 01       	movw	r30, r18
     48e:	20 81       	ld	r18, Z
     490:	2d 7f       	andi	r18, 0xFD	; 253
     492:	fc 01       	movw	r30, r24
     494:	20 83       	st	Z, r18
     496:	88 e2       	ldi	r24, 0x28	; 40
     498:	90 e0       	ldi	r25, 0x00	; 0
     49a:	20 e3       	ldi	r18, 0x30	; 48
     49c:	fc 01       	movw	r30, r24
     49e:	20 83       	st	Z, r18
     4a0:	88 e2       	ldi	r24, 0x28	; 40
     4a2:	90 e0       	ldi	r25, 0x00	; 0
     4a4:	28 e2       	ldi	r18, 0x28	; 40
     4a6:	30 e0       	ldi	r19, 0x00	; 0
     4a8:	f9 01       	movw	r30, r18
     4aa:	20 81       	ld	r18, Z
     4ac:	24 60       	ori	r18, 0x04	; 4
     4ae:	fc 01       	movw	r30, r24
     4b0:	20 83       	st	Z, r18
     4b2:	80 e0       	ldi	r24, 0x00	; 0
     4b4:	90 e0       	ldi	r25, 0x00	; 0
     4b6:	a0 ea       	ldi	r26, 0xA0	; 160
     4b8:	b0 e4       	ldi	r27, 0x40	; 64
     4ba:	8b a7       	std	Y+43, r24	; 0x2b
     4bc:	9c a7       	std	Y+44, r25	; 0x2c
     4be:	ad a7       	std	Y+45, r26	; 0x2d
     4c0:	be a7       	std	Y+46, r27	; 0x2e
     4c2:	26 e6       	ldi	r18, 0x66	; 102
     4c4:	36 e6       	ldi	r19, 0x66	; 102
     4c6:	46 e6       	ldi	r20, 0x66	; 102
     4c8:	55 e4       	ldi	r21, 0x45	; 69
     4ca:	6b a5       	ldd	r22, Y+43	; 0x2b
     4cc:	7c a5       	ldd	r23, Y+44	; 0x2c
     4ce:	8d a5       	ldd	r24, Y+45	; 0x2d
     4d0:	9e a5       	ldd	r25, Y+46	; 0x2e
     4d2:	0e 94 ce 2c 	call	0x599c	; 0x599c <__mulsf3>
     4d6:	dc 01       	movw	r26, r24
     4d8:	cb 01       	movw	r24, r22
     4da:	8f a7       	std	Y+47, r24	; 0x2f
     4dc:	98 ab       	std	Y+48, r25	; 0x30
     4de:	a9 ab       	std	Y+49, r26	; 0x31
     4e0:	ba ab       	std	Y+50, r27	; 0x32
     4e2:	20 e0       	ldi	r18, 0x00	; 0
     4e4:	30 e0       	ldi	r19, 0x00	; 0
     4e6:	40 e8       	ldi	r20, 0x80	; 128
     4e8:	5f e3       	ldi	r21, 0x3F	; 63
     4ea:	6f a5       	ldd	r22, Y+47	; 0x2f
     4ec:	78 a9       	ldd	r23, Y+48	; 0x30
     4ee:	89 a9       	ldd	r24, Y+49	; 0x31
     4f0:	9a a9       	ldd	r25, Y+50	; 0x32
     4f2:	0e 94 80 2b 	call	0x5700	; 0x5700 <__cmpsf2>
     4f6:	88 23       	and	r24, r24
     4f8:	2c f4       	brge	.+10     	; 0x504 <lcd_set_4bit+0x3aa>
     4fa:	81 e0       	ldi	r24, 0x01	; 1
     4fc:	90 e0       	ldi	r25, 0x00	; 0
     4fe:	9c ab       	std	Y+52, r25	; 0x34
     500:	8b ab       	std	Y+51, r24	; 0x33
     502:	3f c0       	rjmp	.+126    	; 0x582 <lcd_set_4bit+0x428>
     504:	20 e0       	ldi	r18, 0x00	; 0
     506:	3f ef       	ldi	r19, 0xFF	; 255
     508:	4f e7       	ldi	r20, 0x7F	; 127
     50a:	57 e4       	ldi	r21, 0x47	; 71
     50c:	6f a5       	ldd	r22, Y+47	; 0x2f
     50e:	78 a9       	ldd	r23, Y+48	; 0x30
     510:	89 a9       	ldd	r24, Y+49	; 0x31
     512:	9a a9       	ldd	r25, Y+50	; 0x32
     514:	0e 94 ca 2c 	call	0x5994	; 0x5994 <__gesf2>
     518:	18 16       	cp	r1, r24
     51a:	4c f5       	brge	.+82     	; 0x56e <lcd_set_4bit+0x414>
     51c:	20 e0       	ldi	r18, 0x00	; 0
     51e:	30 e0       	ldi	r19, 0x00	; 0
     520:	40 e2       	ldi	r20, 0x20	; 32
     522:	51 e4       	ldi	r21, 0x41	; 65
     524:	6b a5       	ldd	r22, Y+43	; 0x2b
     526:	7c a5       	ldd	r23, Y+44	; 0x2c
     528:	8d a5       	ldd	r24, Y+45	; 0x2d
     52a:	9e a5       	ldd	r25, Y+46	; 0x2e
     52c:	0e 94 ce 2c 	call	0x599c	; 0x599c <__mulsf3>
     530:	dc 01       	movw	r26, r24
     532:	cb 01       	movw	r24, r22
     534:	bc 01       	movw	r22, r24
     536:	cd 01       	movw	r24, r26
     538:	0e 94 ec 2b 	call	0x57d8	; 0x57d8 <__fixunssfsi>
     53c:	dc 01       	movw	r26, r24
     53e:	cb 01       	movw	r24, r22
     540:	9c ab       	std	Y+52, r25	; 0x34
     542:	8b ab       	std	Y+51, r24	; 0x33
     544:	0f c0       	rjmp	.+30     	; 0x564 <lcd_set_4bit+0x40a>
     546:	80 e7       	ldi	r24, 0x70	; 112
     548:	91 e0       	ldi	r25, 0x01	; 1
     54a:	9e ab       	std	Y+54, r25	; 0x36
     54c:	8d ab       	std	Y+53, r24	; 0x35
     54e:	8d a9       	ldd	r24, Y+53	; 0x35
     550:	9e a9       	ldd	r25, Y+54	; 0x36
     552:	01 97       	sbiw	r24, 0x01	; 1
     554:	f1 f7       	brne	.-4      	; 0x552 <lcd_set_4bit+0x3f8>
     556:	9e ab       	std	Y+54, r25	; 0x36
     558:	8d ab       	std	Y+53, r24	; 0x35
     55a:	8b a9       	ldd	r24, Y+51	; 0x33
     55c:	9c a9       	ldd	r25, Y+52	; 0x34
     55e:	01 97       	sbiw	r24, 0x01	; 1
     560:	9c ab       	std	Y+52, r25	; 0x34
     562:	8b ab       	std	Y+51, r24	; 0x33
     564:	8b a9       	ldd	r24, Y+51	; 0x33
     566:	9c a9       	ldd	r25, Y+52	; 0x34
     568:	00 97       	sbiw	r24, 0x00	; 0
     56a:	69 f7       	brne	.-38     	; 0x546 <lcd_set_4bit+0x3ec>
     56c:	14 c0       	rjmp	.+40     	; 0x596 <lcd_set_4bit+0x43c>
     56e:	6f a5       	ldd	r22, Y+47	; 0x2f
     570:	78 a9       	ldd	r23, Y+48	; 0x30
     572:	89 a9       	ldd	r24, Y+49	; 0x31
     574:	9a a9       	ldd	r25, Y+50	; 0x32
     576:	0e 94 ec 2b 	call	0x57d8	; 0x57d8 <__fixunssfsi>
     57a:	dc 01       	movw	r26, r24
     57c:	cb 01       	movw	r24, r22
     57e:	9c ab       	std	Y+52, r25	; 0x34
     580:	8b ab       	std	Y+51, r24	; 0x33
     582:	8b a9       	ldd	r24, Y+51	; 0x33
     584:	9c a9       	ldd	r25, Y+52	; 0x34
     586:	98 af       	std	Y+56, r25	; 0x38
     588:	8f ab       	std	Y+55, r24	; 0x37
     58a:	8f a9       	ldd	r24, Y+55	; 0x37
     58c:	98 ad       	ldd	r25, Y+56	; 0x38
     58e:	01 97       	sbiw	r24, 0x01	; 1
     590:	f1 f7       	brne	.-4      	; 0x58e <lcd_set_4bit+0x434>
     592:	98 af       	std	Y+56, r25	; 0x38
     594:	8f ab       	std	Y+55, r24	; 0x37
     596:	88 e2       	ldi	r24, 0x28	; 40
     598:	90 e0       	ldi	r25, 0x00	; 0
     59a:	28 e2       	ldi	r18, 0x28	; 40
     59c:	30 e0       	ldi	r19, 0x00	; 0
     59e:	f9 01       	movw	r30, r18
     5a0:	20 81       	ld	r18, Z
     5a2:	2b 7f       	andi	r18, 0xFB	; 251
     5a4:	fc 01       	movw	r30, r24
     5a6:	20 83       	st	Z, r18
     5a8:	80 e0       	ldi	r24, 0x00	; 0
     5aa:	90 e0       	ldi	r25, 0x00	; 0
     5ac:	a0 e8       	ldi	r26, 0x80	; 128
     5ae:	bf e3       	ldi	r27, 0x3F	; 63
     5b0:	89 af       	std	Y+57, r24	; 0x39
     5b2:	9a af       	std	Y+58, r25	; 0x3a
     5b4:	ab af       	std	Y+59, r26	; 0x3b
     5b6:	bc af       	std	Y+60, r27	; 0x3c
     5b8:	26 e6       	ldi	r18, 0x66	; 102
     5ba:	36 e6       	ldi	r19, 0x66	; 102
     5bc:	46 e6       	ldi	r20, 0x66	; 102
     5be:	55 e4       	ldi	r21, 0x45	; 69
     5c0:	69 ad       	ldd	r22, Y+57	; 0x39
     5c2:	7a ad       	ldd	r23, Y+58	; 0x3a
     5c4:	8b ad       	ldd	r24, Y+59	; 0x3b
     5c6:	9c ad       	ldd	r25, Y+60	; 0x3c
     5c8:	0e 94 ce 2c 	call	0x599c	; 0x599c <__mulsf3>
     5cc:	dc 01       	movw	r26, r24
     5ce:	cb 01       	movw	r24, r22
     5d0:	9e 01       	movw	r18, r28
     5d2:	23 5c       	subi	r18, 0xC3	; 195
     5d4:	3f 4f       	sbci	r19, 0xFF	; 255
     5d6:	f9 01       	movw	r30, r18
     5d8:	80 83       	st	Z, r24
     5da:	91 83       	std	Z+1, r25	; 0x01
     5dc:	a2 83       	std	Z+2, r26	; 0x02
     5de:	b3 83       	std	Z+3, r27	; 0x03
     5e0:	20 e0       	ldi	r18, 0x00	; 0
     5e2:	30 e0       	ldi	r19, 0x00	; 0
     5e4:	40 e8       	ldi	r20, 0x80	; 128
     5e6:	5f e3       	ldi	r21, 0x3F	; 63
     5e8:	ce 01       	movw	r24, r28
     5ea:	cd 96       	adiw	r24, 0x3d	; 61
     5ec:	fc 01       	movw	r30, r24
     5ee:	60 81       	ld	r22, Z
     5f0:	71 81       	ldd	r23, Z+1	; 0x01
     5f2:	82 81       	ldd	r24, Z+2	; 0x02
     5f4:	93 81       	ldd	r25, Z+3	; 0x03
     5f6:	0e 94 80 2b 	call	0x5700	; 0x5700 <__cmpsf2>
     5fa:	88 23       	and	r24, r24
     5fc:	4c f4       	brge	.+18     	; 0x610 <lcd_set_4bit+0x4b6>
     5fe:	ce 01       	movw	r24, r28
     600:	8f 5b       	subi	r24, 0xBF	; 191
     602:	9f 4f       	sbci	r25, 0xFF	; 255
     604:	21 e0       	ldi	r18, 0x01	; 1
     606:	30 e0       	ldi	r19, 0x00	; 0
     608:	fc 01       	movw	r30, r24
     60a:	31 83       	std	Z+1, r19	; 0x01
     60c:	20 83       	st	Z, r18
     60e:	67 c0       	rjmp	.+206    	; 0x6de <lcd_set_4bit+0x584>
     610:	20 e0       	ldi	r18, 0x00	; 0
     612:	3f ef       	ldi	r19, 0xFF	; 255
     614:	4f e7       	ldi	r20, 0x7F	; 127
     616:	57 e4       	ldi	r21, 0x47	; 71
     618:	ce 01       	movw	r24, r28
     61a:	cd 96       	adiw	r24, 0x3d	; 61
     61c:	fc 01       	movw	r30, r24
     61e:	60 81       	ld	r22, Z
     620:	71 81       	ldd	r23, Z+1	; 0x01
     622:	82 81       	ldd	r24, Z+2	; 0x02
     624:	93 81       	ldd	r25, Z+3	; 0x03
     626:	0e 94 ca 2c 	call	0x5994	; 0x5994 <__gesf2>
     62a:	18 16       	cp	r1, r24
     62c:	0c f0       	brlt	.+2      	; 0x630 <lcd_set_4bit+0x4d6>
     62e:	46 c0       	rjmp	.+140    	; 0x6bc <lcd_set_4bit+0x562>
     630:	20 e0       	ldi	r18, 0x00	; 0
     632:	30 e0       	ldi	r19, 0x00	; 0
     634:	40 e2       	ldi	r20, 0x20	; 32
     636:	51 e4       	ldi	r21, 0x41	; 65
     638:	69 ad       	ldd	r22, Y+57	; 0x39
     63a:	7a ad       	ldd	r23, Y+58	; 0x3a
     63c:	8b ad       	ldd	r24, Y+59	; 0x3b
     63e:	9c ad       	ldd	r25, Y+60	; 0x3c
     640:	0e 94 ce 2c 	call	0x599c	; 0x599c <__mulsf3>
     644:	dc 01       	movw	r26, r24
     646:	cb 01       	movw	r24, r22
     648:	8e 01       	movw	r16, r28
     64a:	0f 5b       	subi	r16, 0xBF	; 191
     64c:	1f 4f       	sbci	r17, 0xFF	; 255
     64e:	bc 01       	movw	r22, r24
     650:	cd 01       	movw	r24, r26
     652:	0e 94 ec 2b 	call	0x57d8	; 0x57d8 <__fixunssfsi>
     656:	dc 01       	movw	r26, r24
     658:	cb 01       	movw	r24, r22
     65a:	f8 01       	movw	r30, r16
     65c:	91 83       	std	Z+1, r25	; 0x01
     65e:	80 83       	st	Z, r24
     660:	24 c0       	rjmp	.+72     	; 0x6aa <lcd_set_4bit+0x550>
     662:	ce 01       	movw	r24, r28
     664:	8d 5b       	subi	r24, 0xBD	; 189
     666:	9f 4f       	sbci	r25, 0xFF	; 255
     668:	20 e7       	ldi	r18, 0x70	; 112
     66a:	31 e0       	ldi	r19, 0x01	; 1
     66c:	fc 01       	movw	r30, r24
     66e:	31 83       	std	Z+1, r19	; 0x01
     670:	20 83       	st	Z, r18
     672:	ce 01       	movw	r24, r28
     674:	8d 5b       	subi	r24, 0xBD	; 189
     676:	9f 4f       	sbci	r25, 0xFF	; 255
     678:	fc 01       	movw	r30, r24
     67a:	80 81       	ld	r24, Z
     67c:	91 81       	ldd	r25, Z+1	; 0x01
     67e:	01 97       	sbiw	r24, 0x01	; 1
     680:	f1 f7       	brne	.-4      	; 0x67e <lcd_set_4bit+0x524>
     682:	9e 01       	movw	r18, r28
     684:	2d 5b       	subi	r18, 0xBD	; 189
     686:	3f 4f       	sbci	r19, 0xFF	; 255
     688:	f9 01       	movw	r30, r18
     68a:	91 83       	std	Z+1, r25	; 0x01
     68c:	80 83       	st	Z, r24
     68e:	ce 01       	movw	r24, r28
     690:	8f 5b       	subi	r24, 0xBF	; 191
     692:	9f 4f       	sbci	r25, 0xFF	; 255
     694:	9e 01       	movw	r18, r28
     696:	2f 5b       	subi	r18, 0xBF	; 191
     698:	3f 4f       	sbci	r19, 0xFF	; 255
     69a:	f9 01       	movw	r30, r18
     69c:	20 81       	ld	r18, Z
     69e:	31 81       	ldd	r19, Z+1	; 0x01
     6a0:	21 50       	subi	r18, 0x01	; 1
     6a2:	31 09       	sbc	r19, r1
     6a4:	fc 01       	movw	r30, r24
     6a6:	31 83       	std	Z+1, r19	; 0x01
     6a8:	20 83       	st	Z, r18
     6aa:	ce 01       	movw	r24, r28
     6ac:	8f 5b       	subi	r24, 0xBF	; 191
     6ae:	9f 4f       	sbci	r25, 0xFF	; 255
     6b0:	fc 01       	movw	r30, r24
     6b2:	80 81       	ld	r24, Z
     6b4:	91 81       	ldd	r25, Z+1	; 0x01
     6b6:	00 97       	sbiw	r24, 0x00	; 0
     6b8:	a1 f6       	brne	.-88     	; 0x662 <lcd_set_4bit+0x508>
     6ba:	2b c0       	rjmp	.+86     	; 0x712 <lcd_set_4bit+0x5b8>
     6bc:	8e 01       	movw	r16, r28
     6be:	0f 5b       	subi	r16, 0xBF	; 191
     6c0:	1f 4f       	sbci	r17, 0xFF	; 255
     6c2:	ce 01       	movw	r24, r28
     6c4:	cd 96       	adiw	r24, 0x3d	; 61
     6c6:	fc 01       	movw	r30, r24
     6c8:	60 81       	ld	r22, Z
     6ca:	71 81       	ldd	r23, Z+1	; 0x01
     6cc:	82 81       	ldd	r24, Z+2	; 0x02
     6ce:	93 81       	ldd	r25, Z+3	; 0x03
     6d0:	0e 94 ec 2b 	call	0x57d8	; 0x57d8 <__fixunssfsi>
     6d4:	dc 01       	movw	r26, r24
     6d6:	cb 01       	movw	r24, r22
     6d8:	f8 01       	movw	r30, r16
     6da:	91 83       	std	Z+1, r25	; 0x01
     6dc:	80 83       	st	Z, r24
     6de:	ce 01       	movw	r24, r28
     6e0:	8b 5b       	subi	r24, 0xBB	; 187
     6e2:	9f 4f       	sbci	r25, 0xFF	; 255
     6e4:	9e 01       	movw	r18, r28
     6e6:	2f 5b       	subi	r18, 0xBF	; 191
     6e8:	3f 4f       	sbci	r19, 0xFF	; 255
     6ea:	f9 01       	movw	r30, r18
     6ec:	20 81       	ld	r18, Z
     6ee:	31 81       	ldd	r19, Z+1	; 0x01
     6f0:	fc 01       	movw	r30, r24
     6f2:	31 83       	std	Z+1, r19	; 0x01
     6f4:	20 83       	st	Z, r18
     6f6:	ce 01       	movw	r24, r28
     6f8:	8b 5b       	subi	r24, 0xBB	; 187
     6fa:	9f 4f       	sbci	r25, 0xFF	; 255
     6fc:	fc 01       	movw	r30, r24
     6fe:	80 81       	ld	r24, Z
     700:	91 81       	ldd	r25, Z+1	; 0x01
     702:	01 97       	sbiw	r24, 0x01	; 1
     704:	f1 f7       	brne	.-4      	; 0x702 <lcd_set_4bit+0x5a8>
     706:	9e 01       	movw	r18, r28
     708:	2b 5b       	subi	r18, 0xBB	; 187
     70a:	3f 4f       	sbci	r19, 0xFF	; 255
     70c:	f9 01       	movw	r30, r18
     70e:	91 83       	std	Z+1, r25	; 0x01
     710:	80 83       	st	Z, r24
     712:	88 e2       	ldi	r24, 0x28	; 40
     714:	90 e0       	ldi	r25, 0x00	; 0
     716:	28 e2       	ldi	r18, 0x28	; 40
     718:	30 e0       	ldi	r19, 0x00	; 0
     71a:	f9 01       	movw	r30, r18
     71c:	20 81       	ld	r18, Z
     71e:	2e 7f       	andi	r18, 0xFE	; 254
     720:	fc 01       	movw	r30, r24
     722:	20 83       	st	Z, r18
     724:	88 e2       	ldi	r24, 0x28	; 40
     726:	90 e0       	ldi	r25, 0x00	; 0
     728:	28 e2       	ldi	r18, 0x28	; 40
     72a:	30 e0       	ldi	r19, 0x00	; 0
     72c:	f9 01       	movw	r30, r18
     72e:	20 81       	ld	r18, Z
     730:	2d 7f       	andi	r18, 0xFD	; 253
     732:	fc 01       	movw	r30, r24
     734:	20 83       	st	Z, r18
     736:	88 e2       	ldi	r24, 0x28	; 40
     738:	90 e0       	ldi	r25, 0x00	; 0
     73a:	20 e3       	ldi	r18, 0x30	; 48
     73c:	fc 01       	movw	r30, r24
     73e:	20 83       	st	Z, r18
     740:	88 e2       	ldi	r24, 0x28	; 40
     742:	90 e0       	ldi	r25, 0x00	; 0
     744:	28 e2       	ldi	r18, 0x28	; 40
     746:	30 e0       	ldi	r19, 0x00	; 0
     748:	f9 01       	movw	r30, r18
     74a:	20 81       	ld	r18, Z
     74c:	24 60       	ori	r18, 0x04	; 4
     74e:	fc 01       	movw	r30, r24
     750:	20 83       	st	Z, r18
     752:	9e 01       	movw	r18, r28
     754:	29 5b       	subi	r18, 0xB9	; 185
     756:	3f 4f       	sbci	r19, 0xFF	; 255
     758:	80 e0       	ldi	r24, 0x00	; 0
     75a:	90 e0       	ldi	r25, 0x00	; 0
     75c:	a0 ea       	ldi	r26, 0xA0	; 160
     75e:	b0 e4       	ldi	r27, 0x40	; 64
     760:	f9 01       	movw	r30, r18
     762:	80 83       	st	Z, r24
     764:	91 83       	std	Z+1, r25	; 0x01
     766:	a2 83       	std	Z+2, r26	; 0x02
     768:	b3 83       	std	Z+3, r27	; 0x03
     76a:	8e 01       	movw	r16, r28
     76c:	05 5b       	subi	r16, 0xB5	; 181
     76e:	1f 4f       	sbci	r17, 0xFF	; 255
     770:	ce 01       	movw	r24, r28
     772:	89 5b       	subi	r24, 0xB9	; 185
     774:	9f 4f       	sbci	r25, 0xFF	; 255
     776:	26 e6       	ldi	r18, 0x66	; 102
     778:	36 e6       	ldi	r19, 0x66	; 102
     77a:	46 e6       	ldi	r20, 0x66	; 102
     77c:	55 e4       	ldi	r21, 0x45	; 69
     77e:	fc 01       	movw	r30, r24
     780:	60 81       	ld	r22, Z
     782:	71 81       	ldd	r23, Z+1	; 0x01
     784:	82 81       	ldd	r24, Z+2	; 0x02
     786:	93 81       	ldd	r25, Z+3	; 0x03
     788:	0e 94 ce 2c 	call	0x599c	; 0x599c <__mulsf3>
     78c:	dc 01       	movw	r26, r24
     78e:	cb 01       	movw	r24, r22
     790:	f8 01       	movw	r30, r16
     792:	80 83       	st	Z, r24
     794:	91 83       	std	Z+1, r25	; 0x01
     796:	a2 83       	std	Z+2, r26	; 0x02
     798:	b3 83       	std	Z+3, r27	; 0x03
     79a:	ce 01       	movw	r24, r28
     79c:	85 5b       	subi	r24, 0xB5	; 181
     79e:	9f 4f       	sbci	r25, 0xFF	; 255
     7a0:	20 e0       	ldi	r18, 0x00	; 0
     7a2:	30 e0       	ldi	r19, 0x00	; 0
     7a4:	40 e8       	ldi	r20, 0x80	; 128
     7a6:	5f e3       	ldi	r21, 0x3F	; 63
     7a8:	fc 01       	movw	r30, r24
     7aa:	60 81       	ld	r22, Z
     7ac:	71 81       	ldd	r23, Z+1	; 0x01
     7ae:	82 81       	ldd	r24, Z+2	; 0x02
     7b0:	93 81       	ldd	r25, Z+3	; 0x03
     7b2:	0e 94 80 2b 	call	0x5700	; 0x5700 <__cmpsf2>
     7b6:	88 23       	and	r24, r24
     7b8:	4c f4       	brge	.+18     	; 0x7cc <lcd_set_4bit+0x672>
     7ba:	ce 01       	movw	r24, r28
     7bc:	81 5b       	subi	r24, 0xB1	; 177
     7be:	9f 4f       	sbci	r25, 0xFF	; 255
     7c0:	21 e0       	ldi	r18, 0x01	; 1
     7c2:	30 e0       	ldi	r19, 0x00	; 0
     7c4:	fc 01       	movw	r30, r24
     7c6:	31 83       	std	Z+1, r19	; 0x01
     7c8:	20 83       	st	Z, r18
     7ca:	6d c0       	rjmp	.+218    	; 0x8a6 <lcd_set_4bit+0x74c>
     7cc:	ce 01       	movw	r24, r28
     7ce:	85 5b       	subi	r24, 0xB5	; 181
     7d0:	9f 4f       	sbci	r25, 0xFF	; 255
     7d2:	20 e0       	ldi	r18, 0x00	; 0
     7d4:	3f ef       	ldi	r19, 0xFF	; 255
     7d6:	4f e7       	ldi	r20, 0x7F	; 127
     7d8:	57 e4       	ldi	r21, 0x47	; 71
     7da:	fc 01       	movw	r30, r24
     7dc:	60 81       	ld	r22, Z
     7de:	71 81       	ldd	r23, Z+1	; 0x01
     7e0:	82 81       	ldd	r24, Z+2	; 0x02
     7e2:	93 81       	ldd	r25, Z+3	; 0x03
     7e4:	0e 94 ca 2c 	call	0x5994	; 0x5994 <__gesf2>
     7e8:	18 16       	cp	r1, r24
     7ea:	0c f0       	brlt	.+2      	; 0x7ee <lcd_set_4bit+0x694>
     7ec:	4a c0       	rjmp	.+148    	; 0x882 <lcd_set_4bit+0x728>
     7ee:	ce 01       	movw	r24, r28
     7f0:	89 5b       	subi	r24, 0xB9	; 185
     7f2:	9f 4f       	sbci	r25, 0xFF	; 255
     7f4:	20 e0       	ldi	r18, 0x00	; 0
     7f6:	30 e0       	ldi	r19, 0x00	; 0
     7f8:	40 e2       	ldi	r20, 0x20	; 32
     7fa:	51 e4       	ldi	r21, 0x41	; 65
     7fc:	fc 01       	movw	r30, r24
     7fe:	60 81       	ld	r22, Z
     800:	71 81       	ldd	r23, Z+1	; 0x01
     802:	82 81       	ldd	r24, Z+2	; 0x02
     804:	93 81       	ldd	r25, Z+3	; 0x03
     806:	0e 94 ce 2c 	call	0x599c	; 0x599c <__mulsf3>
     80a:	dc 01       	movw	r26, r24
     80c:	cb 01       	movw	r24, r22
     80e:	8e 01       	movw	r16, r28
     810:	01 5b       	subi	r16, 0xB1	; 177
     812:	1f 4f       	sbci	r17, 0xFF	; 255
     814:	bc 01       	movw	r22, r24
     816:	cd 01       	movw	r24, r26
     818:	0e 94 ec 2b 	call	0x57d8	; 0x57d8 <__fixunssfsi>
     81c:	dc 01       	movw	r26, r24
     81e:	cb 01       	movw	r24, r22
     820:	f8 01       	movw	r30, r16
     822:	91 83       	std	Z+1, r25	; 0x01
     824:	80 83       	st	Z, r24
     826:	24 c0       	rjmp	.+72     	; 0x870 <lcd_set_4bit+0x716>
     828:	ce 01       	movw	r24, r28
     82a:	8f 5a       	subi	r24, 0xAF	; 175
     82c:	9f 4f       	sbci	r25, 0xFF	; 255
     82e:	20 e7       	ldi	r18, 0x70	; 112
     830:	31 e0       	ldi	r19, 0x01	; 1
     832:	fc 01       	movw	r30, r24
     834:	31 83       	std	Z+1, r19	; 0x01
     836:	20 83       	st	Z, r18
     838:	ce 01       	movw	r24, r28
     83a:	8f 5a       	subi	r24, 0xAF	; 175
     83c:	9f 4f       	sbci	r25, 0xFF	; 255
     83e:	fc 01       	movw	r30, r24
     840:	80 81       	ld	r24, Z
     842:	91 81       	ldd	r25, Z+1	; 0x01
     844:	01 97       	sbiw	r24, 0x01	; 1
     846:	f1 f7       	brne	.-4      	; 0x844 <lcd_set_4bit+0x6ea>
     848:	9e 01       	movw	r18, r28
     84a:	2f 5a       	subi	r18, 0xAF	; 175
     84c:	3f 4f       	sbci	r19, 0xFF	; 255
     84e:	f9 01       	movw	r30, r18
     850:	91 83       	std	Z+1, r25	; 0x01
     852:	80 83       	st	Z, r24
     854:	ce 01       	movw	r24, r28
     856:	81 5b       	subi	r24, 0xB1	; 177
     858:	9f 4f       	sbci	r25, 0xFF	; 255
     85a:	9e 01       	movw	r18, r28
     85c:	21 5b       	subi	r18, 0xB1	; 177
     85e:	3f 4f       	sbci	r19, 0xFF	; 255
     860:	f9 01       	movw	r30, r18
     862:	20 81       	ld	r18, Z
     864:	31 81       	ldd	r19, Z+1	; 0x01
     866:	21 50       	subi	r18, 0x01	; 1
     868:	31 09       	sbc	r19, r1
     86a:	fc 01       	movw	r30, r24
     86c:	31 83       	std	Z+1, r19	; 0x01
     86e:	20 83       	st	Z, r18
     870:	ce 01       	movw	r24, r28
     872:	81 5b       	subi	r24, 0xB1	; 177
     874:	9f 4f       	sbci	r25, 0xFF	; 255
     876:	fc 01       	movw	r30, r24
     878:	80 81       	ld	r24, Z
     87a:	91 81       	ldd	r25, Z+1	; 0x01
     87c:	00 97       	sbiw	r24, 0x00	; 0
     87e:	a1 f6       	brne	.-88     	; 0x828 <lcd_set_4bit+0x6ce>
     880:	2c c0       	rjmp	.+88     	; 0x8da <lcd_set_4bit+0x780>
     882:	8e 01       	movw	r16, r28
     884:	01 5b       	subi	r16, 0xB1	; 177
     886:	1f 4f       	sbci	r17, 0xFF	; 255
     888:	ce 01       	movw	r24, r28
     88a:	85 5b       	subi	r24, 0xB5	; 181
     88c:	9f 4f       	sbci	r25, 0xFF	; 255
     88e:	fc 01       	movw	r30, r24
     890:	60 81       	ld	r22, Z
     892:	71 81       	ldd	r23, Z+1	; 0x01
     894:	82 81       	ldd	r24, Z+2	; 0x02
     896:	93 81       	ldd	r25, Z+3	; 0x03
     898:	0e 94 ec 2b 	call	0x57d8	; 0x57d8 <__fixunssfsi>
     89c:	dc 01       	movw	r26, r24
     89e:	cb 01       	movw	r24, r22
     8a0:	f8 01       	movw	r30, r16
     8a2:	91 83       	std	Z+1, r25	; 0x01
     8a4:	80 83       	st	Z, r24
     8a6:	ce 01       	movw	r24, r28
     8a8:	8d 5a       	subi	r24, 0xAD	; 173
     8aa:	9f 4f       	sbci	r25, 0xFF	; 255
     8ac:	9e 01       	movw	r18, r28
     8ae:	21 5b       	subi	r18, 0xB1	; 177
     8b0:	3f 4f       	sbci	r19, 0xFF	; 255
     8b2:	f9 01       	movw	r30, r18
     8b4:	20 81       	ld	r18, Z
     8b6:	31 81       	ldd	r19, Z+1	; 0x01
     8b8:	fc 01       	movw	r30, r24
     8ba:	31 83       	std	Z+1, r19	; 0x01
     8bc:	20 83       	st	Z, r18
     8be:	ce 01       	movw	r24, r28
     8c0:	8d 5a       	subi	r24, 0xAD	; 173
     8c2:	9f 4f       	sbci	r25, 0xFF	; 255
     8c4:	fc 01       	movw	r30, r24
     8c6:	80 81       	ld	r24, Z
     8c8:	91 81       	ldd	r25, Z+1	; 0x01
     8ca:	01 97       	sbiw	r24, 0x01	; 1
     8cc:	f1 f7       	brne	.-4      	; 0x8ca <lcd_set_4bit+0x770>
     8ce:	9e 01       	movw	r18, r28
     8d0:	2d 5a       	subi	r18, 0xAD	; 173
     8d2:	3f 4f       	sbci	r19, 0xFF	; 255
     8d4:	f9 01       	movw	r30, r18
     8d6:	91 83       	std	Z+1, r25	; 0x01
     8d8:	80 83       	st	Z, r24
     8da:	88 e2       	ldi	r24, 0x28	; 40
     8dc:	90 e0       	ldi	r25, 0x00	; 0
     8de:	28 e2       	ldi	r18, 0x28	; 40
     8e0:	30 e0       	ldi	r19, 0x00	; 0
     8e2:	f9 01       	movw	r30, r18
     8e4:	20 81       	ld	r18, Z
     8e6:	2b 7f       	andi	r18, 0xFB	; 251
     8e8:	fc 01       	movw	r30, r24
     8ea:	20 83       	st	Z, r18
     8ec:	9e 01       	movw	r18, r28
     8ee:	2b 5a       	subi	r18, 0xAB	; 171
     8f0:	3f 4f       	sbci	r19, 0xFF	; 255
     8f2:	80 e0       	ldi	r24, 0x00	; 0
     8f4:	90 e0       	ldi	r25, 0x00	; 0
     8f6:	a0 e8       	ldi	r26, 0x80	; 128
     8f8:	bf e3       	ldi	r27, 0x3F	; 63
     8fa:	f9 01       	movw	r30, r18
     8fc:	80 83       	st	Z, r24
     8fe:	91 83       	std	Z+1, r25	; 0x01
     900:	a2 83       	std	Z+2, r26	; 0x02
     902:	b3 83       	std	Z+3, r27	; 0x03
     904:	8e 01       	movw	r16, r28
     906:	07 5a       	subi	r16, 0xA7	; 167
     908:	1f 4f       	sbci	r17, 0xFF	; 255
     90a:	ce 01       	movw	r24, r28
     90c:	8b 5a       	subi	r24, 0xAB	; 171
     90e:	9f 4f       	sbci	r25, 0xFF	; 255
     910:	26 e6       	ldi	r18, 0x66	; 102
     912:	36 e6       	ldi	r19, 0x66	; 102
     914:	46 e6       	ldi	r20, 0x66	; 102
     916:	55 e4       	ldi	r21, 0x45	; 69
     918:	fc 01       	movw	r30, r24
     91a:	60 81       	ld	r22, Z
     91c:	71 81       	ldd	r23, Z+1	; 0x01
     91e:	82 81       	ldd	r24, Z+2	; 0x02
     920:	93 81       	ldd	r25, Z+3	; 0x03
     922:	0e 94 ce 2c 	call	0x599c	; 0x599c <__mulsf3>
     926:	dc 01       	movw	r26, r24
     928:	cb 01       	movw	r24, r22
     92a:	f8 01       	movw	r30, r16
     92c:	80 83       	st	Z, r24
     92e:	91 83       	std	Z+1, r25	; 0x01
     930:	a2 83       	std	Z+2, r26	; 0x02
     932:	b3 83       	std	Z+3, r27	; 0x03
     934:	ce 01       	movw	r24, r28
     936:	87 5a       	subi	r24, 0xA7	; 167
     938:	9f 4f       	sbci	r25, 0xFF	; 255
     93a:	20 e0       	ldi	r18, 0x00	; 0
     93c:	30 e0       	ldi	r19, 0x00	; 0
     93e:	40 e8       	ldi	r20, 0x80	; 128
     940:	5f e3       	ldi	r21, 0x3F	; 63
     942:	fc 01       	movw	r30, r24
     944:	60 81       	ld	r22, Z
     946:	71 81       	ldd	r23, Z+1	; 0x01
     948:	82 81       	ldd	r24, Z+2	; 0x02
     94a:	93 81       	ldd	r25, Z+3	; 0x03
     94c:	0e 94 80 2b 	call	0x5700	; 0x5700 <__cmpsf2>
     950:	88 23       	and	r24, r24
     952:	4c f4       	brge	.+18     	; 0x966 <lcd_set_4bit+0x80c>
     954:	ce 01       	movw	r24, r28
     956:	83 5a       	subi	r24, 0xA3	; 163
     958:	9f 4f       	sbci	r25, 0xFF	; 255
     95a:	21 e0       	ldi	r18, 0x01	; 1
     95c:	30 e0       	ldi	r19, 0x00	; 0
     95e:	fc 01       	movw	r30, r24
     960:	31 83       	std	Z+1, r19	; 0x01
     962:	20 83       	st	Z, r18
     964:	6d c0       	rjmp	.+218    	; 0xa40 <lcd_set_4bit+0x8e6>
     966:	ce 01       	movw	r24, r28
     968:	87 5a       	subi	r24, 0xA7	; 167
     96a:	9f 4f       	sbci	r25, 0xFF	; 255
     96c:	20 e0       	ldi	r18, 0x00	; 0
     96e:	3f ef       	ldi	r19, 0xFF	; 255
     970:	4f e7       	ldi	r20, 0x7F	; 127
     972:	57 e4       	ldi	r21, 0x47	; 71
     974:	fc 01       	movw	r30, r24
     976:	60 81       	ld	r22, Z
     978:	71 81       	ldd	r23, Z+1	; 0x01
     97a:	82 81       	ldd	r24, Z+2	; 0x02
     97c:	93 81       	ldd	r25, Z+3	; 0x03
     97e:	0e 94 ca 2c 	call	0x5994	; 0x5994 <__gesf2>
     982:	18 16       	cp	r1, r24
     984:	0c f0       	brlt	.+2      	; 0x988 <lcd_set_4bit+0x82e>
     986:	4a c0       	rjmp	.+148    	; 0xa1c <lcd_set_4bit+0x8c2>
     988:	ce 01       	movw	r24, r28
     98a:	8b 5a       	subi	r24, 0xAB	; 171
     98c:	9f 4f       	sbci	r25, 0xFF	; 255
     98e:	20 e0       	ldi	r18, 0x00	; 0
     990:	30 e0       	ldi	r19, 0x00	; 0
     992:	40 e2       	ldi	r20, 0x20	; 32
     994:	51 e4       	ldi	r21, 0x41	; 65
     996:	fc 01       	movw	r30, r24
     998:	60 81       	ld	r22, Z
     99a:	71 81       	ldd	r23, Z+1	; 0x01
     99c:	82 81       	ldd	r24, Z+2	; 0x02
     99e:	93 81       	ldd	r25, Z+3	; 0x03
     9a0:	0e 94 ce 2c 	call	0x599c	; 0x599c <__mulsf3>
     9a4:	dc 01       	movw	r26, r24
     9a6:	cb 01       	movw	r24, r22
     9a8:	8e 01       	movw	r16, r28
     9aa:	03 5a       	subi	r16, 0xA3	; 163
     9ac:	1f 4f       	sbci	r17, 0xFF	; 255
     9ae:	bc 01       	movw	r22, r24
     9b0:	cd 01       	movw	r24, r26
     9b2:	0e 94 ec 2b 	call	0x57d8	; 0x57d8 <__fixunssfsi>
     9b6:	dc 01       	movw	r26, r24
     9b8:	cb 01       	movw	r24, r22
     9ba:	f8 01       	movw	r30, r16
     9bc:	91 83       	std	Z+1, r25	; 0x01
     9be:	80 83       	st	Z, r24
     9c0:	24 c0       	rjmp	.+72     	; 0xa0a <lcd_set_4bit+0x8b0>
     9c2:	ce 01       	movw	r24, r28
     9c4:	81 5a       	subi	r24, 0xA1	; 161
     9c6:	9f 4f       	sbci	r25, 0xFF	; 255
     9c8:	20 e7       	ldi	r18, 0x70	; 112
     9ca:	31 e0       	ldi	r19, 0x01	; 1
     9cc:	fc 01       	movw	r30, r24
     9ce:	31 83       	std	Z+1, r19	; 0x01
     9d0:	20 83       	st	Z, r18
     9d2:	ce 01       	movw	r24, r28
     9d4:	81 5a       	subi	r24, 0xA1	; 161
     9d6:	9f 4f       	sbci	r25, 0xFF	; 255
     9d8:	fc 01       	movw	r30, r24
     9da:	80 81       	ld	r24, Z
     9dc:	91 81       	ldd	r25, Z+1	; 0x01
     9de:	01 97       	sbiw	r24, 0x01	; 1
     9e0:	f1 f7       	brne	.-4      	; 0x9de <lcd_set_4bit+0x884>
     9e2:	9e 01       	movw	r18, r28
     9e4:	21 5a       	subi	r18, 0xA1	; 161
     9e6:	3f 4f       	sbci	r19, 0xFF	; 255
     9e8:	f9 01       	movw	r30, r18
     9ea:	91 83       	std	Z+1, r25	; 0x01
     9ec:	80 83       	st	Z, r24
     9ee:	ce 01       	movw	r24, r28
     9f0:	83 5a       	subi	r24, 0xA3	; 163
     9f2:	9f 4f       	sbci	r25, 0xFF	; 255
     9f4:	9e 01       	movw	r18, r28
     9f6:	23 5a       	subi	r18, 0xA3	; 163
     9f8:	3f 4f       	sbci	r19, 0xFF	; 255
     9fa:	f9 01       	movw	r30, r18
     9fc:	20 81       	ld	r18, Z
     9fe:	31 81       	ldd	r19, Z+1	; 0x01
     a00:	21 50       	subi	r18, 0x01	; 1
     a02:	31 09       	sbc	r19, r1
     a04:	fc 01       	movw	r30, r24
     a06:	31 83       	std	Z+1, r19	; 0x01
     a08:	20 83       	st	Z, r18
     a0a:	ce 01       	movw	r24, r28
     a0c:	83 5a       	subi	r24, 0xA3	; 163
     a0e:	9f 4f       	sbci	r25, 0xFF	; 255
     a10:	fc 01       	movw	r30, r24
     a12:	80 81       	ld	r24, Z
     a14:	91 81       	ldd	r25, Z+1	; 0x01
     a16:	00 97       	sbiw	r24, 0x00	; 0
     a18:	a1 f6       	brne	.-88     	; 0x9c2 <lcd_set_4bit+0x868>
     a1a:	2c c0       	rjmp	.+88     	; 0xa74 <lcd_set_4bit+0x91a>
     a1c:	8e 01       	movw	r16, r28
     a1e:	03 5a       	subi	r16, 0xA3	; 163
     a20:	1f 4f       	sbci	r17, 0xFF	; 255
     a22:	ce 01       	movw	r24, r28
     a24:	87 5a       	subi	r24, 0xA7	; 167
     a26:	9f 4f       	sbci	r25, 0xFF	; 255
     a28:	fc 01       	movw	r30, r24
     a2a:	60 81       	ld	r22, Z
     a2c:	71 81       	ldd	r23, Z+1	; 0x01
     a2e:	82 81       	ldd	r24, Z+2	; 0x02
     a30:	93 81       	ldd	r25, Z+3	; 0x03
     a32:	0e 94 ec 2b 	call	0x57d8	; 0x57d8 <__fixunssfsi>
     a36:	dc 01       	movw	r26, r24
     a38:	cb 01       	movw	r24, r22
     a3a:	f8 01       	movw	r30, r16
     a3c:	91 83       	std	Z+1, r25	; 0x01
     a3e:	80 83       	st	Z, r24
     a40:	ce 01       	movw	r24, r28
     a42:	8f 59       	subi	r24, 0x9F	; 159
     a44:	9f 4f       	sbci	r25, 0xFF	; 255
     a46:	9e 01       	movw	r18, r28
     a48:	23 5a       	subi	r18, 0xA3	; 163
     a4a:	3f 4f       	sbci	r19, 0xFF	; 255
     a4c:	f9 01       	movw	r30, r18
     a4e:	20 81       	ld	r18, Z
     a50:	31 81       	ldd	r19, Z+1	; 0x01
     a52:	fc 01       	movw	r30, r24
     a54:	31 83       	std	Z+1, r19	; 0x01
     a56:	20 83       	st	Z, r18
     a58:	ce 01       	movw	r24, r28
     a5a:	8f 59       	subi	r24, 0x9F	; 159
     a5c:	9f 4f       	sbci	r25, 0xFF	; 255
     a5e:	fc 01       	movw	r30, r24
     a60:	80 81       	ld	r24, Z
     a62:	91 81       	ldd	r25, Z+1	; 0x01
     a64:	01 97       	sbiw	r24, 0x01	; 1
     a66:	f1 f7       	brne	.-4      	; 0xa64 <lcd_set_4bit+0x90a>
     a68:	9e 01       	movw	r18, r28
     a6a:	2f 59       	subi	r18, 0x9F	; 159
     a6c:	3f 4f       	sbci	r19, 0xFF	; 255
     a6e:	f9 01       	movw	r30, r18
     a70:	91 83       	std	Z+1, r25	; 0x01
     a72:	80 83       	st	Z, r24
     a74:	88 e2       	ldi	r24, 0x28	; 40
     a76:	90 e0       	ldi	r25, 0x00	; 0
     a78:	28 e2       	ldi	r18, 0x28	; 40
     a7a:	30 e0       	ldi	r19, 0x00	; 0
     a7c:	f9 01       	movw	r30, r18
     a7e:	20 81       	ld	r18, Z
     a80:	2e 7f       	andi	r18, 0xFE	; 254
     a82:	fc 01       	movw	r30, r24
     a84:	20 83       	st	Z, r18
     a86:	88 e2       	ldi	r24, 0x28	; 40
     a88:	90 e0       	ldi	r25, 0x00	; 0
     a8a:	28 e2       	ldi	r18, 0x28	; 40
     a8c:	30 e0       	ldi	r19, 0x00	; 0
     a8e:	f9 01       	movw	r30, r18
     a90:	20 81       	ld	r18, Z
     a92:	2d 7f       	andi	r18, 0xFD	; 253
     a94:	fc 01       	movw	r30, r24
     a96:	20 83       	st	Z, r18
     a98:	88 e2       	ldi	r24, 0x28	; 40
     a9a:	90 e0       	ldi	r25, 0x00	; 0
     a9c:	20 e2       	ldi	r18, 0x20	; 32
     a9e:	fc 01       	movw	r30, r24
     aa0:	20 83       	st	Z, r18
     aa2:	88 e2       	ldi	r24, 0x28	; 40
     aa4:	90 e0       	ldi	r25, 0x00	; 0
     aa6:	28 e2       	ldi	r18, 0x28	; 40
     aa8:	30 e0       	ldi	r19, 0x00	; 0
     aaa:	f9 01       	movw	r30, r18
     aac:	20 81       	ld	r18, Z
     aae:	24 60       	ori	r18, 0x04	; 4
     ab0:	fc 01       	movw	r30, r24
     ab2:	20 83       	st	Z, r18
     ab4:	9e 01       	movw	r18, r28
     ab6:	2d 59       	subi	r18, 0x9D	; 157
     ab8:	3f 4f       	sbci	r19, 0xFF	; 255
     aba:	80 e0       	ldi	r24, 0x00	; 0
     abc:	90 e0       	ldi	r25, 0x00	; 0
     abe:	a0 ea       	ldi	r26, 0xA0	; 160
     ac0:	b0 e4       	ldi	r27, 0x40	; 64
     ac2:	f9 01       	movw	r30, r18
     ac4:	80 83       	st	Z, r24
     ac6:	91 83       	std	Z+1, r25	; 0x01
     ac8:	a2 83       	std	Z+2, r26	; 0x02
     aca:	b3 83       	std	Z+3, r27	; 0x03
     acc:	8e 01       	movw	r16, r28
     ace:	09 59       	subi	r16, 0x99	; 153
     ad0:	1f 4f       	sbci	r17, 0xFF	; 255
     ad2:	ce 01       	movw	r24, r28
     ad4:	8d 59       	subi	r24, 0x9D	; 157
     ad6:	9f 4f       	sbci	r25, 0xFF	; 255
     ad8:	26 e6       	ldi	r18, 0x66	; 102
     ada:	36 e6       	ldi	r19, 0x66	; 102
     adc:	46 e6       	ldi	r20, 0x66	; 102
     ade:	55 e4       	ldi	r21, 0x45	; 69
     ae0:	fc 01       	movw	r30, r24
     ae2:	60 81       	ld	r22, Z
     ae4:	71 81       	ldd	r23, Z+1	; 0x01
     ae6:	82 81       	ldd	r24, Z+2	; 0x02
     ae8:	93 81       	ldd	r25, Z+3	; 0x03
     aea:	0e 94 ce 2c 	call	0x599c	; 0x599c <__mulsf3>
     aee:	dc 01       	movw	r26, r24
     af0:	cb 01       	movw	r24, r22
     af2:	f8 01       	movw	r30, r16
     af4:	80 83       	st	Z, r24
     af6:	91 83       	std	Z+1, r25	; 0x01
     af8:	a2 83       	std	Z+2, r26	; 0x02
     afa:	b3 83       	std	Z+3, r27	; 0x03
     afc:	ce 01       	movw	r24, r28
     afe:	89 59       	subi	r24, 0x99	; 153
     b00:	9f 4f       	sbci	r25, 0xFF	; 255
     b02:	20 e0       	ldi	r18, 0x00	; 0
     b04:	30 e0       	ldi	r19, 0x00	; 0
     b06:	40 e8       	ldi	r20, 0x80	; 128
     b08:	5f e3       	ldi	r21, 0x3F	; 63
     b0a:	fc 01       	movw	r30, r24
     b0c:	60 81       	ld	r22, Z
     b0e:	71 81       	ldd	r23, Z+1	; 0x01
     b10:	82 81       	ldd	r24, Z+2	; 0x02
     b12:	93 81       	ldd	r25, Z+3	; 0x03
     b14:	0e 94 80 2b 	call	0x5700	; 0x5700 <__cmpsf2>
     b18:	88 23       	and	r24, r24
     b1a:	4c f4       	brge	.+18     	; 0xb2e <lcd_set_4bit+0x9d4>
     b1c:	ce 01       	movw	r24, r28
     b1e:	85 59       	subi	r24, 0x95	; 149
     b20:	9f 4f       	sbci	r25, 0xFF	; 255
     b22:	21 e0       	ldi	r18, 0x01	; 1
     b24:	30 e0       	ldi	r19, 0x00	; 0
     b26:	fc 01       	movw	r30, r24
     b28:	31 83       	std	Z+1, r19	; 0x01
     b2a:	20 83       	st	Z, r18
     b2c:	6d c0       	rjmp	.+218    	; 0xc08 <lcd_set_4bit+0xaae>
     b2e:	ce 01       	movw	r24, r28
     b30:	89 59       	subi	r24, 0x99	; 153
     b32:	9f 4f       	sbci	r25, 0xFF	; 255
     b34:	20 e0       	ldi	r18, 0x00	; 0
     b36:	3f ef       	ldi	r19, 0xFF	; 255
     b38:	4f e7       	ldi	r20, 0x7F	; 127
     b3a:	57 e4       	ldi	r21, 0x47	; 71
     b3c:	fc 01       	movw	r30, r24
     b3e:	60 81       	ld	r22, Z
     b40:	71 81       	ldd	r23, Z+1	; 0x01
     b42:	82 81       	ldd	r24, Z+2	; 0x02
     b44:	93 81       	ldd	r25, Z+3	; 0x03
     b46:	0e 94 ca 2c 	call	0x5994	; 0x5994 <__gesf2>
     b4a:	18 16       	cp	r1, r24
     b4c:	0c f0       	brlt	.+2      	; 0xb50 <lcd_set_4bit+0x9f6>
     b4e:	4a c0       	rjmp	.+148    	; 0xbe4 <lcd_set_4bit+0xa8a>
     b50:	ce 01       	movw	r24, r28
     b52:	8d 59       	subi	r24, 0x9D	; 157
     b54:	9f 4f       	sbci	r25, 0xFF	; 255
     b56:	20 e0       	ldi	r18, 0x00	; 0
     b58:	30 e0       	ldi	r19, 0x00	; 0
     b5a:	40 e2       	ldi	r20, 0x20	; 32
     b5c:	51 e4       	ldi	r21, 0x41	; 65
     b5e:	fc 01       	movw	r30, r24
     b60:	60 81       	ld	r22, Z
     b62:	71 81       	ldd	r23, Z+1	; 0x01
     b64:	82 81       	ldd	r24, Z+2	; 0x02
     b66:	93 81       	ldd	r25, Z+3	; 0x03
     b68:	0e 94 ce 2c 	call	0x599c	; 0x599c <__mulsf3>
     b6c:	dc 01       	movw	r26, r24
     b6e:	cb 01       	movw	r24, r22
     b70:	8e 01       	movw	r16, r28
     b72:	05 59       	subi	r16, 0x95	; 149
     b74:	1f 4f       	sbci	r17, 0xFF	; 255
     b76:	bc 01       	movw	r22, r24
     b78:	cd 01       	movw	r24, r26
     b7a:	0e 94 ec 2b 	call	0x57d8	; 0x57d8 <__fixunssfsi>
     b7e:	dc 01       	movw	r26, r24
     b80:	cb 01       	movw	r24, r22
     b82:	f8 01       	movw	r30, r16
     b84:	91 83       	std	Z+1, r25	; 0x01
     b86:	80 83       	st	Z, r24
     b88:	24 c0       	rjmp	.+72     	; 0xbd2 <lcd_set_4bit+0xa78>
     b8a:	ce 01       	movw	r24, r28
     b8c:	83 59       	subi	r24, 0x93	; 147
     b8e:	9f 4f       	sbci	r25, 0xFF	; 255
     b90:	20 e7       	ldi	r18, 0x70	; 112
     b92:	31 e0       	ldi	r19, 0x01	; 1
     b94:	fc 01       	movw	r30, r24
     b96:	31 83       	std	Z+1, r19	; 0x01
     b98:	20 83       	st	Z, r18
     b9a:	ce 01       	movw	r24, r28
     b9c:	83 59       	subi	r24, 0x93	; 147
     b9e:	9f 4f       	sbci	r25, 0xFF	; 255
     ba0:	fc 01       	movw	r30, r24
     ba2:	80 81       	ld	r24, Z
     ba4:	91 81       	ldd	r25, Z+1	; 0x01
     ba6:	01 97       	sbiw	r24, 0x01	; 1
     ba8:	f1 f7       	brne	.-4      	; 0xba6 <lcd_set_4bit+0xa4c>
     baa:	9e 01       	movw	r18, r28
     bac:	23 59       	subi	r18, 0x93	; 147
     bae:	3f 4f       	sbci	r19, 0xFF	; 255
     bb0:	f9 01       	movw	r30, r18
     bb2:	91 83       	std	Z+1, r25	; 0x01
     bb4:	80 83       	st	Z, r24
     bb6:	ce 01       	movw	r24, r28
     bb8:	85 59       	subi	r24, 0x95	; 149
     bba:	9f 4f       	sbci	r25, 0xFF	; 255
     bbc:	9e 01       	movw	r18, r28
     bbe:	25 59       	subi	r18, 0x95	; 149
     bc0:	3f 4f       	sbci	r19, 0xFF	; 255
     bc2:	f9 01       	movw	r30, r18
     bc4:	20 81       	ld	r18, Z
     bc6:	31 81       	ldd	r19, Z+1	; 0x01
     bc8:	21 50       	subi	r18, 0x01	; 1
     bca:	31 09       	sbc	r19, r1
     bcc:	fc 01       	movw	r30, r24
     bce:	31 83       	std	Z+1, r19	; 0x01
     bd0:	20 83       	st	Z, r18
     bd2:	ce 01       	movw	r24, r28
     bd4:	85 59       	subi	r24, 0x95	; 149
     bd6:	9f 4f       	sbci	r25, 0xFF	; 255
     bd8:	fc 01       	movw	r30, r24
     bda:	80 81       	ld	r24, Z
     bdc:	91 81       	ldd	r25, Z+1	; 0x01
     bde:	00 97       	sbiw	r24, 0x00	; 0
     be0:	a1 f6       	brne	.-88     	; 0xb8a <lcd_set_4bit+0xa30>
     be2:	2c c0       	rjmp	.+88     	; 0xc3c <lcd_set_4bit+0xae2>
     be4:	8e 01       	movw	r16, r28
     be6:	05 59       	subi	r16, 0x95	; 149
     be8:	1f 4f       	sbci	r17, 0xFF	; 255
     bea:	ce 01       	movw	r24, r28
     bec:	89 59       	subi	r24, 0x99	; 153
     bee:	9f 4f       	sbci	r25, 0xFF	; 255
     bf0:	fc 01       	movw	r30, r24
     bf2:	60 81       	ld	r22, Z
     bf4:	71 81       	ldd	r23, Z+1	; 0x01
     bf6:	82 81       	ldd	r24, Z+2	; 0x02
     bf8:	93 81       	ldd	r25, Z+3	; 0x03
     bfa:	0e 94 ec 2b 	call	0x57d8	; 0x57d8 <__fixunssfsi>
     bfe:	dc 01       	movw	r26, r24
     c00:	cb 01       	movw	r24, r22
     c02:	f8 01       	movw	r30, r16
     c04:	91 83       	std	Z+1, r25	; 0x01
     c06:	80 83       	st	Z, r24
     c08:	ce 01       	movw	r24, r28
     c0a:	81 59       	subi	r24, 0x91	; 145
     c0c:	9f 4f       	sbci	r25, 0xFF	; 255
     c0e:	9e 01       	movw	r18, r28
     c10:	25 59       	subi	r18, 0x95	; 149
     c12:	3f 4f       	sbci	r19, 0xFF	; 255
     c14:	f9 01       	movw	r30, r18
     c16:	20 81       	ld	r18, Z
     c18:	31 81       	ldd	r19, Z+1	; 0x01
     c1a:	fc 01       	movw	r30, r24
     c1c:	31 83       	std	Z+1, r19	; 0x01
     c1e:	20 83       	st	Z, r18
     c20:	ce 01       	movw	r24, r28
     c22:	81 59       	subi	r24, 0x91	; 145
     c24:	9f 4f       	sbci	r25, 0xFF	; 255
     c26:	fc 01       	movw	r30, r24
     c28:	80 81       	ld	r24, Z
     c2a:	91 81       	ldd	r25, Z+1	; 0x01
     c2c:	01 97       	sbiw	r24, 0x01	; 1
     c2e:	f1 f7       	brne	.-4      	; 0xc2c <lcd_set_4bit+0xad2>
     c30:	9e 01       	movw	r18, r28
     c32:	21 59       	subi	r18, 0x91	; 145
     c34:	3f 4f       	sbci	r19, 0xFF	; 255
     c36:	f9 01       	movw	r30, r18
     c38:	91 83       	std	Z+1, r25	; 0x01
     c3a:	80 83       	st	Z, r24
     c3c:	88 e2       	ldi	r24, 0x28	; 40
     c3e:	90 e0       	ldi	r25, 0x00	; 0
     c40:	28 e2       	ldi	r18, 0x28	; 40
     c42:	30 e0       	ldi	r19, 0x00	; 0
     c44:	f9 01       	movw	r30, r18
     c46:	20 81       	ld	r18, Z
     c48:	2b 7f       	andi	r18, 0xFB	; 251
     c4a:	fc 01       	movw	r30, r24
     c4c:	20 83       	st	Z, r18
     c4e:	c0 59       	subi	r28, 0x90	; 144
     c50:	df 4f       	sbci	r29, 0xFF	; 255
     c52:	0f b6       	in	r0, 0x3f	; 63
     c54:	f8 94       	cli
     c56:	de bf       	out	0x3e, r29	; 62
     c58:	0f be       	out	0x3f, r0	; 63
     c5a:	cd bf       	out	0x3d, r28	; 61
     c5c:	df 91       	pop	r29
     c5e:	cf 91       	pop	r28
     c60:	1f 91       	pop	r17
     c62:	0f 91       	pop	r16
     c64:	08 95       	ret

00000c66 <lcd_init>:
     c66:	cf 93       	push	r28
     c68:	df 93       	push	r29
     c6a:	cd b7       	in	r28, 0x3d	; 61
     c6c:	de b7       	in	r29, 0x3e	; 62
     c6e:	2e 97       	sbiw	r28, 0x0e	; 14
     c70:	0f b6       	in	r0, 0x3f	; 63
     c72:	f8 94       	cli
     c74:	de bf       	out	0x3e, r29	; 62
     c76:	0f be       	out	0x3f, r0	; 63
     c78:	cd bf       	out	0x3d, r28	; 61
     c7a:	6f da       	rcall	.-2850   	; 0x15a <lcd_set_4bit>
     c7c:	80 e0       	ldi	r24, 0x00	; 0
     c7e:	90 e0       	ldi	r25, 0x00	; 0
     c80:	a0 e8       	ldi	r26, 0x80	; 128
     c82:	bf e3       	ldi	r27, 0x3F	; 63
     c84:	89 83       	std	Y+1, r24	; 0x01
     c86:	9a 83       	std	Y+2, r25	; 0x02
     c88:	ab 83       	std	Y+3, r26	; 0x03
     c8a:	bc 83       	std	Y+4, r27	; 0x04
     c8c:	26 e6       	ldi	r18, 0x66	; 102
     c8e:	36 e6       	ldi	r19, 0x66	; 102
     c90:	46 e6       	ldi	r20, 0x66	; 102
     c92:	55 e4       	ldi	r21, 0x45	; 69
     c94:	69 81       	ldd	r22, Y+1	; 0x01
     c96:	7a 81       	ldd	r23, Y+2	; 0x02
     c98:	8b 81       	ldd	r24, Y+3	; 0x03
     c9a:	9c 81       	ldd	r25, Y+4	; 0x04
     c9c:	0e 94 ce 2c 	call	0x599c	; 0x599c <__mulsf3>
     ca0:	dc 01       	movw	r26, r24
     ca2:	cb 01       	movw	r24, r22
     ca4:	8d 83       	std	Y+5, r24	; 0x05
     ca6:	9e 83       	std	Y+6, r25	; 0x06
     ca8:	af 83       	std	Y+7, r26	; 0x07
     caa:	b8 87       	std	Y+8, r27	; 0x08
     cac:	20 e0       	ldi	r18, 0x00	; 0
     cae:	30 e0       	ldi	r19, 0x00	; 0
     cb0:	40 e8       	ldi	r20, 0x80	; 128
     cb2:	5f e3       	ldi	r21, 0x3F	; 63
     cb4:	6d 81       	ldd	r22, Y+5	; 0x05
     cb6:	7e 81       	ldd	r23, Y+6	; 0x06
     cb8:	8f 81       	ldd	r24, Y+7	; 0x07
     cba:	98 85       	ldd	r25, Y+8	; 0x08
     cbc:	0e 94 80 2b 	call	0x5700	; 0x5700 <__cmpsf2>
     cc0:	88 23       	and	r24, r24
     cc2:	2c f4       	brge	.+10     	; 0xcce <lcd_init+0x68>
     cc4:	81 e0       	ldi	r24, 0x01	; 1
     cc6:	90 e0       	ldi	r25, 0x00	; 0
     cc8:	9a 87       	std	Y+10, r25	; 0x0a
     cca:	89 87       	std	Y+9, r24	; 0x09
     ccc:	3f c0       	rjmp	.+126    	; 0xd4c <lcd_init+0xe6>
     cce:	20 e0       	ldi	r18, 0x00	; 0
     cd0:	3f ef       	ldi	r19, 0xFF	; 255
     cd2:	4f e7       	ldi	r20, 0x7F	; 127
     cd4:	57 e4       	ldi	r21, 0x47	; 71
     cd6:	6d 81       	ldd	r22, Y+5	; 0x05
     cd8:	7e 81       	ldd	r23, Y+6	; 0x06
     cda:	8f 81       	ldd	r24, Y+7	; 0x07
     cdc:	98 85       	ldd	r25, Y+8	; 0x08
     cde:	0e 94 ca 2c 	call	0x5994	; 0x5994 <__gesf2>
     ce2:	18 16       	cp	r1, r24
     ce4:	4c f5       	brge	.+82     	; 0xd38 <lcd_init+0xd2>
     ce6:	20 e0       	ldi	r18, 0x00	; 0
     ce8:	30 e0       	ldi	r19, 0x00	; 0
     cea:	40 e2       	ldi	r20, 0x20	; 32
     cec:	51 e4       	ldi	r21, 0x41	; 65
     cee:	69 81       	ldd	r22, Y+1	; 0x01
     cf0:	7a 81       	ldd	r23, Y+2	; 0x02
     cf2:	8b 81       	ldd	r24, Y+3	; 0x03
     cf4:	9c 81       	ldd	r25, Y+4	; 0x04
     cf6:	0e 94 ce 2c 	call	0x599c	; 0x599c <__mulsf3>
     cfa:	dc 01       	movw	r26, r24
     cfc:	cb 01       	movw	r24, r22
     cfe:	bc 01       	movw	r22, r24
     d00:	cd 01       	movw	r24, r26
     d02:	0e 94 ec 2b 	call	0x57d8	; 0x57d8 <__fixunssfsi>
     d06:	dc 01       	movw	r26, r24
     d08:	cb 01       	movw	r24, r22
     d0a:	9a 87       	std	Y+10, r25	; 0x0a
     d0c:	89 87       	std	Y+9, r24	; 0x09
     d0e:	0f c0       	rjmp	.+30     	; 0xd2e <lcd_init+0xc8>
     d10:	80 e7       	ldi	r24, 0x70	; 112
     d12:	91 e0       	ldi	r25, 0x01	; 1
     d14:	9c 87       	std	Y+12, r25	; 0x0c
     d16:	8b 87       	std	Y+11, r24	; 0x0b
     d18:	8b 85       	ldd	r24, Y+11	; 0x0b
     d1a:	9c 85       	ldd	r25, Y+12	; 0x0c
     d1c:	01 97       	sbiw	r24, 0x01	; 1
     d1e:	f1 f7       	brne	.-4      	; 0xd1c <lcd_init+0xb6>
     d20:	9c 87       	std	Y+12, r25	; 0x0c
     d22:	8b 87       	std	Y+11, r24	; 0x0b
     d24:	89 85       	ldd	r24, Y+9	; 0x09
     d26:	9a 85       	ldd	r25, Y+10	; 0x0a
     d28:	01 97       	sbiw	r24, 0x01	; 1
     d2a:	9a 87       	std	Y+10, r25	; 0x0a
     d2c:	89 87       	std	Y+9, r24	; 0x09
     d2e:	89 85       	ldd	r24, Y+9	; 0x09
     d30:	9a 85       	ldd	r25, Y+10	; 0x0a
     d32:	00 97       	sbiw	r24, 0x00	; 0
     d34:	69 f7       	brne	.-38     	; 0xd10 <lcd_init+0xaa>
     d36:	14 c0       	rjmp	.+40     	; 0xd60 <lcd_init+0xfa>
     d38:	6d 81       	ldd	r22, Y+5	; 0x05
     d3a:	7e 81       	ldd	r23, Y+6	; 0x06
     d3c:	8f 81       	ldd	r24, Y+7	; 0x07
     d3e:	98 85       	ldd	r25, Y+8	; 0x08
     d40:	0e 94 ec 2b 	call	0x57d8	; 0x57d8 <__fixunssfsi>
     d44:	dc 01       	movw	r26, r24
     d46:	cb 01       	movw	r24, r22
     d48:	9a 87       	std	Y+10, r25	; 0x0a
     d4a:	89 87       	std	Y+9, r24	; 0x09
     d4c:	89 85       	ldd	r24, Y+9	; 0x09
     d4e:	9a 85       	ldd	r25, Y+10	; 0x0a
     d50:	9e 87       	std	Y+14, r25	; 0x0e
     d52:	8d 87       	std	Y+13, r24	; 0x0d
     d54:	8d 85       	ldd	r24, Y+13	; 0x0d
     d56:	9e 85       	ldd	r25, Y+14	; 0x0e
     d58:	01 97       	sbiw	r24, 0x01	; 1
     d5a:	f1 f7       	brne	.-4      	; 0xd58 <lcd_init+0xf2>
     d5c:	9e 87       	std	Y+14, r25	; 0x0e
     d5e:	8d 87       	std	Y+13, r24	; 0x0d
     d60:	88 e2       	ldi	r24, 0x28	; 40
     d62:	11 d0       	rcall	.+34     	; 0xd86 <lcd_wr_command>
     d64:	81 e0       	ldi	r24, 0x01	; 1
     d66:	0f d0       	rcall	.+30     	; 0xd86 <lcd_wr_command>
     d68:	86 e0       	ldi	r24, 0x06	; 6
     d6a:	0d d0       	rcall	.+26     	; 0xd86 <lcd_wr_command>
     d6c:	8e e0       	ldi	r24, 0x0E	; 14
     d6e:	0b d0       	rcall	.+22     	; 0xd86 <lcd_wr_command>
     d70:	80 e8       	ldi	r24, 0x80	; 128
     d72:	09 d0       	rcall	.+18     	; 0xd86 <lcd_wr_command>
     d74:	2e 96       	adiw	r28, 0x0e	; 14
     d76:	0f b6       	in	r0, 0x3f	; 63
     d78:	f8 94       	cli
     d7a:	de bf       	out	0x3e, r29	; 62
     d7c:	0f be       	out	0x3f, r0	; 63
     d7e:	cd bf       	out	0x3d, r28	; 61
     d80:	df 91       	pop	r29
     d82:	cf 91       	pop	r28
     d84:	08 95       	ret

00000d86 <lcd_wr_command>:
     d86:	cf 93       	push	r28
     d88:	df 93       	push	r29
     d8a:	cd b7       	in	r28, 0x3d	; 61
     d8c:	de b7       	in	r29, 0x3e	; 62
     d8e:	6e 97       	sbiw	r28, 0x1e	; 30
     d90:	0f b6       	in	r0, 0x3f	; 63
     d92:	f8 94       	cli
     d94:	de bf       	out	0x3e, r29	; 62
     d96:	0f be       	out	0x3f, r0	; 63
     d98:	cd bf       	out	0x3d, r28	; 61
     d9a:	8e 8f       	std	Y+30, r24	; 0x1e
     d9c:	8e 8d       	ldd	r24, Y+30	; 0x1e
     d9e:	89 83       	std	Y+1, r24	; 0x01
     da0:	89 81       	ldd	r24, Y+1	; 0x01
     da2:	80 7f       	andi	r24, 0xF0	; 240
     da4:	89 83       	std	Y+1, r24	; 0x01
     da6:	88 e2       	ldi	r24, 0x28	; 40
     da8:	90 e0       	ldi	r25, 0x00	; 0
     daa:	28 e2       	ldi	r18, 0x28	; 40
     dac:	30 e0       	ldi	r19, 0x00	; 0
     dae:	f9 01       	movw	r30, r18
     db0:	20 81       	ld	r18, Z
     db2:	2f 70       	andi	r18, 0x0F	; 15
     db4:	fc 01       	movw	r30, r24
     db6:	20 83       	st	Z, r18
     db8:	88 e2       	ldi	r24, 0x28	; 40
     dba:	90 e0       	ldi	r25, 0x00	; 0
     dbc:	28 e2       	ldi	r18, 0x28	; 40
     dbe:	30 e0       	ldi	r19, 0x00	; 0
     dc0:	f9 01       	movw	r30, r18
     dc2:	30 81       	ld	r19, Z
     dc4:	29 81       	ldd	r18, Y+1	; 0x01
     dc6:	23 2b       	or	r18, r19
     dc8:	fc 01       	movw	r30, r24
     dca:	20 83       	st	Z, r18
     dcc:	88 e2       	ldi	r24, 0x28	; 40
     dce:	90 e0       	ldi	r25, 0x00	; 0
     dd0:	28 e2       	ldi	r18, 0x28	; 40
     dd2:	30 e0       	ldi	r19, 0x00	; 0
     dd4:	f9 01       	movw	r30, r18
     dd6:	20 81       	ld	r18, Z
     dd8:	2e 7f       	andi	r18, 0xFE	; 254
     dda:	fc 01       	movw	r30, r24
     ddc:	20 83       	st	Z, r18
     dde:	88 e2       	ldi	r24, 0x28	; 40
     de0:	90 e0       	ldi	r25, 0x00	; 0
     de2:	28 e2       	ldi	r18, 0x28	; 40
     de4:	30 e0       	ldi	r19, 0x00	; 0
     de6:	f9 01       	movw	r30, r18
     de8:	20 81       	ld	r18, Z
     dea:	2d 7f       	andi	r18, 0xFD	; 253
     dec:	fc 01       	movw	r30, r24
     dee:	20 83       	st	Z, r18
     df0:	88 e2       	ldi	r24, 0x28	; 40
     df2:	90 e0       	ldi	r25, 0x00	; 0
     df4:	28 e2       	ldi	r18, 0x28	; 40
     df6:	30 e0       	ldi	r19, 0x00	; 0
     df8:	f9 01       	movw	r30, r18
     dfa:	20 81       	ld	r18, Z
     dfc:	24 60       	ori	r18, 0x04	; 4
     dfe:	fc 01       	movw	r30, r24
     e00:	20 83       	st	Z, r18
     e02:	80 e0       	ldi	r24, 0x00	; 0
     e04:	90 e0       	ldi	r25, 0x00	; 0
     e06:	a0 ea       	ldi	r26, 0xA0	; 160
     e08:	b0 e4       	ldi	r27, 0x40	; 64
     e0a:	8a 83       	std	Y+2, r24	; 0x02
     e0c:	9b 83       	std	Y+3, r25	; 0x03
     e0e:	ac 83       	std	Y+4, r26	; 0x04
     e10:	bd 83       	std	Y+5, r27	; 0x05
     e12:	26 e6       	ldi	r18, 0x66	; 102
     e14:	36 e6       	ldi	r19, 0x66	; 102
     e16:	46 e6       	ldi	r20, 0x66	; 102
     e18:	55 e4       	ldi	r21, 0x45	; 69
     e1a:	6a 81       	ldd	r22, Y+2	; 0x02
     e1c:	7b 81       	ldd	r23, Y+3	; 0x03
     e1e:	8c 81       	ldd	r24, Y+4	; 0x04
     e20:	9d 81       	ldd	r25, Y+5	; 0x05
     e22:	0e 94 ce 2c 	call	0x599c	; 0x599c <__mulsf3>
     e26:	dc 01       	movw	r26, r24
     e28:	cb 01       	movw	r24, r22
     e2a:	8e 83       	std	Y+6, r24	; 0x06
     e2c:	9f 83       	std	Y+7, r25	; 0x07
     e2e:	a8 87       	std	Y+8, r26	; 0x08
     e30:	b9 87       	std	Y+9, r27	; 0x09
     e32:	20 e0       	ldi	r18, 0x00	; 0
     e34:	30 e0       	ldi	r19, 0x00	; 0
     e36:	40 e8       	ldi	r20, 0x80	; 128
     e38:	5f e3       	ldi	r21, 0x3F	; 63
     e3a:	6e 81       	ldd	r22, Y+6	; 0x06
     e3c:	7f 81       	ldd	r23, Y+7	; 0x07
     e3e:	88 85       	ldd	r24, Y+8	; 0x08
     e40:	99 85       	ldd	r25, Y+9	; 0x09
     e42:	0e 94 80 2b 	call	0x5700	; 0x5700 <__cmpsf2>
     e46:	88 23       	and	r24, r24
     e48:	2c f4       	brge	.+10     	; 0xe54 <lcd_wr_command+0xce>
     e4a:	81 e0       	ldi	r24, 0x01	; 1
     e4c:	90 e0       	ldi	r25, 0x00	; 0
     e4e:	9b 87       	std	Y+11, r25	; 0x0b
     e50:	8a 87       	std	Y+10, r24	; 0x0a
     e52:	3f c0       	rjmp	.+126    	; 0xed2 <lcd_wr_command+0x14c>
     e54:	20 e0       	ldi	r18, 0x00	; 0
     e56:	3f ef       	ldi	r19, 0xFF	; 255
     e58:	4f e7       	ldi	r20, 0x7F	; 127
     e5a:	57 e4       	ldi	r21, 0x47	; 71
     e5c:	6e 81       	ldd	r22, Y+6	; 0x06
     e5e:	7f 81       	ldd	r23, Y+7	; 0x07
     e60:	88 85       	ldd	r24, Y+8	; 0x08
     e62:	99 85       	ldd	r25, Y+9	; 0x09
     e64:	0e 94 ca 2c 	call	0x5994	; 0x5994 <__gesf2>
     e68:	18 16       	cp	r1, r24
     e6a:	4c f5       	brge	.+82     	; 0xebe <lcd_wr_command+0x138>
     e6c:	20 e0       	ldi	r18, 0x00	; 0
     e6e:	30 e0       	ldi	r19, 0x00	; 0
     e70:	40 e2       	ldi	r20, 0x20	; 32
     e72:	51 e4       	ldi	r21, 0x41	; 65
     e74:	6a 81       	ldd	r22, Y+2	; 0x02
     e76:	7b 81       	ldd	r23, Y+3	; 0x03
     e78:	8c 81       	ldd	r24, Y+4	; 0x04
     e7a:	9d 81       	ldd	r25, Y+5	; 0x05
     e7c:	0e 94 ce 2c 	call	0x599c	; 0x599c <__mulsf3>
     e80:	dc 01       	movw	r26, r24
     e82:	cb 01       	movw	r24, r22
     e84:	bc 01       	movw	r22, r24
     e86:	cd 01       	movw	r24, r26
     e88:	0e 94 ec 2b 	call	0x57d8	; 0x57d8 <__fixunssfsi>
     e8c:	dc 01       	movw	r26, r24
     e8e:	cb 01       	movw	r24, r22
     e90:	9b 87       	std	Y+11, r25	; 0x0b
     e92:	8a 87       	std	Y+10, r24	; 0x0a
     e94:	0f c0       	rjmp	.+30     	; 0xeb4 <lcd_wr_command+0x12e>
     e96:	80 e7       	ldi	r24, 0x70	; 112
     e98:	91 e0       	ldi	r25, 0x01	; 1
     e9a:	9d 87       	std	Y+13, r25	; 0x0d
     e9c:	8c 87       	std	Y+12, r24	; 0x0c
     e9e:	8c 85       	ldd	r24, Y+12	; 0x0c
     ea0:	9d 85       	ldd	r25, Y+13	; 0x0d
     ea2:	01 97       	sbiw	r24, 0x01	; 1
     ea4:	f1 f7       	brne	.-4      	; 0xea2 <lcd_wr_command+0x11c>
     ea6:	9d 87       	std	Y+13, r25	; 0x0d
     ea8:	8c 87       	std	Y+12, r24	; 0x0c
     eaa:	8a 85       	ldd	r24, Y+10	; 0x0a
     eac:	9b 85       	ldd	r25, Y+11	; 0x0b
     eae:	01 97       	sbiw	r24, 0x01	; 1
     eb0:	9b 87       	std	Y+11, r25	; 0x0b
     eb2:	8a 87       	std	Y+10, r24	; 0x0a
     eb4:	8a 85       	ldd	r24, Y+10	; 0x0a
     eb6:	9b 85       	ldd	r25, Y+11	; 0x0b
     eb8:	00 97       	sbiw	r24, 0x00	; 0
     eba:	69 f7       	brne	.-38     	; 0xe96 <lcd_wr_command+0x110>
     ebc:	14 c0       	rjmp	.+40     	; 0xee6 <lcd_wr_command+0x160>
     ebe:	6e 81       	ldd	r22, Y+6	; 0x06
     ec0:	7f 81       	ldd	r23, Y+7	; 0x07
     ec2:	88 85       	ldd	r24, Y+8	; 0x08
     ec4:	99 85       	ldd	r25, Y+9	; 0x09
     ec6:	0e 94 ec 2b 	call	0x57d8	; 0x57d8 <__fixunssfsi>
     eca:	dc 01       	movw	r26, r24
     ecc:	cb 01       	movw	r24, r22
     ece:	9b 87       	std	Y+11, r25	; 0x0b
     ed0:	8a 87       	std	Y+10, r24	; 0x0a
     ed2:	8a 85       	ldd	r24, Y+10	; 0x0a
     ed4:	9b 85       	ldd	r25, Y+11	; 0x0b
     ed6:	9f 87       	std	Y+15, r25	; 0x0f
     ed8:	8e 87       	std	Y+14, r24	; 0x0e
     eda:	8e 85       	ldd	r24, Y+14	; 0x0e
     edc:	9f 85       	ldd	r25, Y+15	; 0x0f
     ede:	01 97       	sbiw	r24, 0x01	; 1
     ee0:	f1 f7       	brne	.-4      	; 0xede <lcd_wr_command+0x158>
     ee2:	9f 87       	std	Y+15, r25	; 0x0f
     ee4:	8e 87       	std	Y+14, r24	; 0x0e
     ee6:	88 e2       	ldi	r24, 0x28	; 40
     ee8:	90 e0       	ldi	r25, 0x00	; 0
     eea:	28 e2       	ldi	r18, 0x28	; 40
     eec:	30 e0       	ldi	r19, 0x00	; 0
     eee:	f9 01       	movw	r30, r18
     ef0:	20 81       	ld	r18, Z
     ef2:	2b 7f       	andi	r18, 0xFB	; 251
     ef4:	fc 01       	movw	r30, r24
     ef6:	20 83       	st	Z, r18
     ef8:	8e 8d       	ldd	r24, Y+30	; 0x1e
     efa:	8f 70       	andi	r24, 0x0F	; 15
     efc:	8e 8f       	std	Y+30, r24	; 0x1e
     efe:	8e 8d       	ldd	r24, Y+30	; 0x1e
     f00:	82 95       	swap	r24
     f02:	80 7f       	andi	r24, 0xF0	; 240
     f04:	8e 8f       	std	Y+30, r24	; 0x1e
     f06:	88 e2       	ldi	r24, 0x28	; 40
     f08:	90 e0       	ldi	r25, 0x00	; 0
     f0a:	28 e2       	ldi	r18, 0x28	; 40
     f0c:	30 e0       	ldi	r19, 0x00	; 0
     f0e:	f9 01       	movw	r30, r18
     f10:	20 81       	ld	r18, Z
     f12:	2f 70       	andi	r18, 0x0F	; 15
     f14:	fc 01       	movw	r30, r24
     f16:	20 83       	st	Z, r18
     f18:	88 e2       	ldi	r24, 0x28	; 40
     f1a:	90 e0       	ldi	r25, 0x00	; 0
     f1c:	28 e2       	ldi	r18, 0x28	; 40
     f1e:	30 e0       	ldi	r19, 0x00	; 0
     f20:	f9 01       	movw	r30, r18
     f22:	30 81       	ld	r19, Z
     f24:	2e 8d       	ldd	r18, Y+30	; 0x1e
     f26:	23 2b       	or	r18, r19
     f28:	fc 01       	movw	r30, r24
     f2a:	20 83       	st	Z, r18
     f2c:	88 e2       	ldi	r24, 0x28	; 40
     f2e:	90 e0       	ldi	r25, 0x00	; 0
     f30:	28 e2       	ldi	r18, 0x28	; 40
     f32:	30 e0       	ldi	r19, 0x00	; 0
     f34:	f9 01       	movw	r30, r18
     f36:	20 81       	ld	r18, Z
     f38:	2e 7f       	andi	r18, 0xFE	; 254
     f3a:	fc 01       	movw	r30, r24
     f3c:	20 83       	st	Z, r18
     f3e:	88 e2       	ldi	r24, 0x28	; 40
     f40:	90 e0       	ldi	r25, 0x00	; 0
     f42:	28 e2       	ldi	r18, 0x28	; 40
     f44:	30 e0       	ldi	r19, 0x00	; 0
     f46:	f9 01       	movw	r30, r18
     f48:	20 81       	ld	r18, Z
     f4a:	2d 7f       	andi	r18, 0xFD	; 253
     f4c:	fc 01       	movw	r30, r24
     f4e:	20 83       	st	Z, r18
     f50:	88 e2       	ldi	r24, 0x28	; 40
     f52:	90 e0       	ldi	r25, 0x00	; 0
     f54:	28 e2       	ldi	r18, 0x28	; 40
     f56:	30 e0       	ldi	r19, 0x00	; 0
     f58:	f9 01       	movw	r30, r18
     f5a:	20 81       	ld	r18, Z
     f5c:	24 60       	ori	r18, 0x04	; 4
     f5e:	fc 01       	movw	r30, r24
     f60:	20 83       	st	Z, r18
     f62:	80 e0       	ldi	r24, 0x00	; 0
     f64:	90 e0       	ldi	r25, 0x00	; 0
     f66:	a0 ea       	ldi	r26, 0xA0	; 160
     f68:	b0 e4       	ldi	r27, 0x40	; 64
     f6a:	88 8b       	std	Y+16, r24	; 0x10
     f6c:	99 8b       	std	Y+17, r25	; 0x11
     f6e:	aa 8b       	std	Y+18, r26	; 0x12
     f70:	bb 8b       	std	Y+19, r27	; 0x13
     f72:	26 e6       	ldi	r18, 0x66	; 102
     f74:	36 e6       	ldi	r19, 0x66	; 102
     f76:	46 e6       	ldi	r20, 0x66	; 102
     f78:	55 e4       	ldi	r21, 0x45	; 69
     f7a:	68 89       	ldd	r22, Y+16	; 0x10
     f7c:	79 89       	ldd	r23, Y+17	; 0x11
     f7e:	8a 89       	ldd	r24, Y+18	; 0x12
     f80:	9b 89       	ldd	r25, Y+19	; 0x13
     f82:	0e 94 ce 2c 	call	0x599c	; 0x599c <__mulsf3>
     f86:	dc 01       	movw	r26, r24
     f88:	cb 01       	movw	r24, r22
     f8a:	8c 8b       	std	Y+20, r24	; 0x14
     f8c:	9d 8b       	std	Y+21, r25	; 0x15
     f8e:	ae 8b       	std	Y+22, r26	; 0x16
     f90:	bf 8b       	std	Y+23, r27	; 0x17
     f92:	20 e0       	ldi	r18, 0x00	; 0
     f94:	30 e0       	ldi	r19, 0x00	; 0
     f96:	40 e8       	ldi	r20, 0x80	; 128
     f98:	5f e3       	ldi	r21, 0x3F	; 63
     f9a:	6c 89       	ldd	r22, Y+20	; 0x14
     f9c:	7d 89       	ldd	r23, Y+21	; 0x15
     f9e:	8e 89       	ldd	r24, Y+22	; 0x16
     fa0:	9f 89       	ldd	r25, Y+23	; 0x17
     fa2:	0e 94 80 2b 	call	0x5700	; 0x5700 <__cmpsf2>
     fa6:	88 23       	and	r24, r24
     fa8:	2c f4       	brge	.+10     	; 0xfb4 <lcd_wr_command+0x22e>
     faa:	81 e0       	ldi	r24, 0x01	; 1
     fac:	90 e0       	ldi	r25, 0x00	; 0
     fae:	99 8f       	std	Y+25, r25	; 0x19
     fb0:	88 8f       	std	Y+24, r24	; 0x18
     fb2:	3f c0       	rjmp	.+126    	; 0x1032 <lcd_wr_command+0x2ac>
     fb4:	20 e0       	ldi	r18, 0x00	; 0
     fb6:	3f ef       	ldi	r19, 0xFF	; 255
     fb8:	4f e7       	ldi	r20, 0x7F	; 127
     fba:	57 e4       	ldi	r21, 0x47	; 71
     fbc:	6c 89       	ldd	r22, Y+20	; 0x14
     fbe:	7d 89       	ldd	r23, Y+21	; 0x15
     fc0:	8e 89       	ldd	r24, Y+22	; 0x16
     fc2:	9f 89       	ldd	r25, Y+23	; 0x17
     fc4:	0e 94 ca 2c 	call	0x5994	; 0x5994 <__gesf2>
     fc8:	18 16       	cp	r1, r24
     fca:	4c f5       	brge	.+82     	; 0x101e <lcd_wr_command+0x298>
     fcc:	20 e0       	ldi	r18, 0x00	; 0
     fce:	30 e0       	ldi	r19, 0x00	; 0
     fd0:	40 e2       	ldi	r20, 0x20	; 32
     fd2:	51 e4       	ldi	r21, 0x41	; 65
     fd4:	68 89       	ldd	r22, Y+16	; 0x10
     fd6:	79 89       	ldd	r23, Y+17	; 0x11
     fd8:	8a 89       	ldd	r24, Y+18	; 0x12
     fda:	9b 89       	ldd	r25, Y+19	; 0x13
     fdc:	0e 94 ce 2c 	call	0x599c	; 0x599c <__mulsf3>
     fe0:	dc 01       	movw	r26, r24
     fe2:	cb 01       	movw	r24, r22
     fe4:	bc 01       	movw	r22, r24
     fe6:	cd 01       	movw	r24, r26
     fe8:	0e 94 ec 2b 	call	0x57d8	; 0x57d8 <__fixunssfsi>
     fec:	dc 01       	movw	r26, r24
     fee:	cb 01       	movw	r24, r22
     ff0:	99 8f       	std	Y+25, r25	; 0x19
     ff2:	88 8f       	std	Y+24, r24	; 0x18
     ff4:	0f c0       	rjmp	.+30     	; 0x1014 <lcd_wr_command+0x28e>
     ff6:	80 e7       	ldi	r24, 0x70	; 112
     ff8:	91 e0       	ldi	r25, 0x01	; 1
     ffa:	9b 8f       	std	Y+27, r25	; 0x1b
     ffc:	8a 8f       	std	Y+26, r24	; 0x1a
     ffe:	8a 8d       	ldd	r24, Y+26	; 0x1a
    1000:	9b 8d       	ldd	r25, Y+27	; 0x1b
    1002:	01 97       	sbiw	r24, 0x01	; 1
    1004:	f1 f7       	brne	.-4      	; 0x1002 <lcd_wr_command+0x27c>
    1006:	9b 8f       	std	Y+27, r25	; 0x1b
    1008:	8a 8f       	std	Y+26, r24	; 0x1a
    100a:	88 8d       	ldd	r24, Y+24	; 0x18
    100c:	99 8d       	ldd	r25, Y+25	; 0x19
    100e:	01 97       	sbiw	r24, 0x01	; 1
    1010:	99 8f       	std	Y+25, r25	; 0x19
    1012:	88 8f       	std	Y+24, r24	; 0x18
    1014:	88 8d       	ldd	r24, Y+24	; 0x18
    1016:	99 8d       	ldd	r25, Y+25	; 0x19
    1018:	00 97       	sbiw	r24, 0x00	; 0
    101a:	69 f7       	brne	.-38     	; 0xff6 <lcd_wr_command+0x270>
    101c:	14 c0       	rjmp	.+40     	; 0x1046 <lcd_wr_command+0x2c0>
    101e:	6c 89       	ldd	r22, Y+20	; 0x14
    1020:	7d 89       	ldd	r23, Y+21	; 0x15
    1022:	8e 89       	ldd	r24, Y+22	; 0x16
    1024:	9f 89       	ldd	r25, Y+23	; 0x17
    1026:	0e 94 ec 2b 	call	0x57d8	; 0x57d8 <__fixunssfsi>
    102a:	dc 01       	movw	r26, r24
    102c:	cb 01       	movw	r24, r22
    102e:	99 8f       	std	Y+25, r25	; 0x19
    1030:	88 8f       	std	Y+24, r24	; 0x18
    1032:	88 8d       	ldd	r24, Y+24	; 0x18
    1034:	99 8d       	ldd	r25, Y+25	; 0x19
    1036:	9d 8f       	std	Y+29, r25	; 0x1d
    1038:	8c 8f       	std	Y+28, r24	; 0x1c
    103a:	8c 8d       	ldd	r24, Y+28	; 0x1c
    103c:	9d 8d       	ldd	r25, Y+29	; 0x1d
    103e:	01 97       	sbiw	r24, 0x01	; 1
    1040:	f1 f7       	brne	.-4      	; 0x103e <lcd_wr_command+0x2b8>
    1042:	9d 8f       	std	Y+29, r25	; 0x1d
    1044:	8c 8f       	std	Y+28, r24	; 0x1c
    1046:	88 e2       	ldi	r24, 0x28	; 40
    1048:	90 e0       	ldi	r25, 0x00	; 0
    104a:	28 e2       	ldi	r18, 0x28	; 40
    104c:	30 e0       	ldi	r19, 0x00	; 0
    104e:	f9 01       	movw	r30, r18
    1050:	20 81       	ld	r18, Z
    1052:	2b 7f       	andi	r18, 0xFB	; 251
    1054:	fc 01       	movw	r30, r24
    1056:	20 83       	st	Z, r18
    1058:	6e 96       	adiw	r28, 0x1e	; 30
    105a:	0f b6       	in	r0, 0x3f	; 63
    105c:	f8 94       	cli
    105e:	de bf       	out	0x3e, r29	; 62
    1060:	0f be       	out	0x3f, r0	; 63
    1062:	cd bf       	out	0x3d, r28	; 61
    1064:	df 91       	pop	r29
    1066:	cf 91       	pop	r28
    1068:	08 95       	ret

0000106a <lcd_wr_char>:
    106a:	cf 93       	push	r28
    106c:	df 93       	push	r29
    106e:	cd b7       	in	r28, 0x3d	; 61
    1070:	de b7       	in	r29, 0x3e	; 62
    1072:	6e 97       	sbiw	r28, 0x1e	; 30
    1074:	0f b6       	in	r0, 0x3f	; 63
    1076:	f8 94       	cli
    1078:	de bf       	out	0x3e, r29	; 62
    107a:	0f be       	out	0x3f, r0	; 63
    107c:	cd bf       	out	0x3d, r28	; 61
    107e:	8e 8f       	std	Y+30, r24	; 0x1e
    1080:	8e 8d       	ldd	r24, Y+30	; 0x1e
    1082:	89 83       	std	Y+1, r24	; 0x01
    1084:	89 81       	ldd	r24, Y+1	; 0x01
    1086:	80 7f       	andi	r24, 0xF0	; 240
    1088:	89 83       	std	Y+1, r24	; 0x01
    108a:	88 e2       	ldi	r24, 0x28	; 40
    108c:	90 e0       	ldi	r25, 0x00	; 0
    108e:	28 e2       	ldi	r18, 0x28	; 40
    1090:	30 e0       	ldi	r19, 0x00	; 0
    1092:	f9 01       	movw	r30, r18
    1094:	20 81       	ld	r18, Z
    1096:	2f 70       	andi	r18, 0x0F	; 15
    1098:	fc 01       	movw	r30, r24
    109a:	20 83       	st	Z, r18
    109c:	88 e2       	ldi	r24, 0x28	; 40
    109e:	90 e0       	ldi	r25, 0x00	; 0
    10a0:	28 e2       	ldi	r18, 0x28	; 40
    10a2:	30 e0       	ldi	r19, 0x00	; 0
    10a4:	f9 01       	movw	r30, r18
    10a6:	30 81       	ld	r19, Z
    10a8:	29 81       	ldd	r18, Y+1	; 0x01
    10aa:	23 2b       	or	r18, r19
    10ac:	fc 01       	movw	r30, r24
    10ae:	20 83       	st	Z, r18
    10b0:	88 e2       	ldi	r24, 0x28	; 40
    10b2:	90 e0       	ldi	r25, 0x00	; 0
    10b4:	28 e2       	ldi	r18, 0x28	; 40
    10b6:	30 e0       	ldi	r19, 0x00	; 0
    10b8:	f9 01       	movw	r30, r18
    10ba:	20 81       	ld	r18, Z
    10bc:	21 60       	ori	r18, 0x01	; 1
    10be:	fc 01       	movw	r30, r24
    10c0:	20 83       	st	Z, r18
    10c2:	88 e2       	ldi	r24, 0x28	; 40
    10c4:	90 e0       	ldi	r25, 0x00	; 0
    10c6:	28 e2       	ldi	r18, 0x28	; 40
    10c8:	30 e0       	ldi	r19, 0x00	; 0
    10ca:	f9 01       	movw	r30, r18
    10cc:	20 81       	ld	r18, Z
    10ce:	2d 7f       	andi	r18, 0xFD	; 253
    10d0:	fc 01       	movw	r30, r24
    10d2:	20 83       	st	Z, r18
    10d4:	88 e2       	ldi	r24, 0x28	; 40
    10d6:	90 e0       	ldi	r25, 0x00	; 0
    10d8:	28 e2       	ldi	r18, 0x28	; 40
    10da:	30 e0       	ldi	r19, 0x00	; 0
    10dc:	f9 01       	movw	r30, r18
    10de:	20 81       	ld	r18, Z
    10e0:	24 60       	ori	r18, 0x04	; 4
    10e2:	fc 01       	movw	r30, r24
    10e4:	20 83       	st	Z, r18
    10e6:	80 e0       	ldi	r24, 0x00	; 0
    10e8:	90 e0       	ldi	r25, 0x00	; 0
    10ea:	a0 ea       	ldi	r26, 0xA0	; 160
    10ec:	b0 e4       	ldi	r27, 0x40	; 64
    10ee:	8a 83       	std	Y+2, r24	; 0x02
    10f0:	9b 83       	std	Y+3, r25	; 0x03
    10f2:	ac 83       	std	Y+4, r26	; 0x04
    10f4:	bd 83       	std	Y+5, r27	; 0x05
    10f6:	26 e6       	ldi	r18, 0x66	; 102
    10f8:	36 e6       	ldi	r19, 0x66	; 102
    10fa:	46 e6       	ldi	r20, 0x66	; 102
    10fc:	55 e4       	ldi	r21, 0x45	; 69
    10fe:	6a 81       	ldd	r22, Y+2	; 0x02
    1100:	7b 81       	ldd	r23, Y+3	; 0x03
    1102:	8c 81       	ldd	r24, Y+4	; 0x04
    1104:	9d 81       	ldd	r25, Y+5	; 0x05
    1106:	0e 94 ce 2c 	call	0x599c	; 0x599c <__mulsf3>
    110a:	dc 01       	movw	r26, r24
    110c:	cb 01       	movw	r24, r22
    110e:	8e 83       	std	Y+6, r24	; 0x06
    1110:	9f 83       	std	Y+7, r25	; 0x07
    1112:	a8 87       	std	Y+8, r26	; 0x08
    1114:	b9 87       	std	Y+9, r27	; 0x09
    1116:	20 e0       	ldi	r18, 0x00	; 0
    1118:	30 e0       	ldi	r19, 0x00	; 0
    111a:	40 e8       	ldi	r20, 0x80	; 128
    111c:	5f e3       	ldi	r21, 0x3F	; 63
    111e:	6e 81       	ldd	r22, Y+6	; 0x06
    1120:	7f 81       	ldd	r23, Y+7	; 0x07
    1122:	88 85       	ldd	r24, Y+8	; 0x08
    1124:	99 85       	ldd	r25, Y+9	; 0x09
    1126:	0e 94 80 2b 	call	0x5700	; 0x5700 <__cmpsf2>
    112a:	88 23       	and	r24, r24
    112c:	2c f4       	brge	.+10     	; 0x1138 <lcd_wr_char+0xce>
    112e:	81 e0       	ldi	r24, 0x01	; 1
    1130:	90 e0       	ldi	r25, 0x00	; 0
    1132:	9b 87       	std	Y+11, r25	; 0x0b
    1134:	8a 87       	std	Y+10, r24	; 0x0a
    1136:	3f c0       	rjmp	.+126    	; 0x11b6 <lcd_wr_char+0x14c>
    1138:	20 e0       	ldi	r18, 0x00	; 0
    113a:	3f ef       	ldi	r19, 0xFF	; 255
    113c:	4f e7       	ldi	r20, 0x7F	; 127
    113e:	57 e4       	ldi	r21, 0x47	; 71
    1140:	6e 81       	ldd	r22, Y+6	; 0x06
    1142:	7f 81       	ldd	r23, Y+7	; 0x07
    1144:	88 85       	ldd	r24, Y+8	; 0x08
    1146:	99 85       	ldd	r25, Y+9	; 0x09
    1148:	0e 94 ca 2c 	call	0x5994	; 0x5994 <__gesf2>
    114c:	18 16       	cp	r1, r24
    114e:	4c f5       	brge	.+82     	; 0x11a2 <lcd_wr_char+0x138>
    1150:	20 e0       	ldi	r18, 0x00	; 0
    1152:	30 e0       	ldi	r19, 0x00	; 0
    1154:	40 e2       	ldi	r20, 0x20	; 32
    1156:	51 e4       	ldi	r21, 0x41	; 65
    1158:	6a 81       	ldd	r22, Y+2	; 0x02
    115a:	7b 81       	ldd	r23, Y+3	; 0x03
    115c:	8c 81       	ldd	r24, Y+4	; 0x04
    115e:	9d 81       	ldd	r25, Y+5	; 0x05
    1160:	0e 94 ce 2c 	call	0x599c	; 0x599c <__mulsf3>
    1164:	dc 01       	movw	r26, r24
    1166:	cb 01       	movw	r24, r22
    1168:	bc 01       	movw	r22, r24
    116a:	cd 01       	movw	r24, r26
    116c:	0e 94 ec 2b 	call	0x57d8	; 0x57d8 <__fixunssfsi>
    1170:	dc 01       	movw	r26, r24
    1172:	cb 01       	movw	r24, r22
    1174:	9b 87       	std	Y+11, r25	; 0x0b
    1176:	8a 87       	std	Y+10, r24	; 0x0a
    1178:	0f c0       	rjmp	.+30     	; 0x1198 <lcd_wr_char+0x12e>
    117a:	80 e7       	ldi	r24, 0x70	; 112
    117c:	91 e0       	ldi	r25, 0x01	; 1
    117e:	9d 87       	std	Y+13, r25	; 0x0d
    1180:	8c 87       	std	Y+12, r24	; 0x0c
    1182:	8c 85       	ldd	r24, Y+12	; 0x0c
    1184:	9d 85       	ldd	r25, Y+13	; 0x0d
    1186:	01 97       	sbiw	r24, 0x01	; 1
    1188:	f1 f7       	brne	.-4      	; 0x1186 <lcd_wr_char+0x11c>
    118a:	9d 87       	std	Y+13, r25	; 0x0d
    118c:	8c 87       	std	Y+12, r24	; 0x0c
    118e:	8a 85       	ldd	r24, Y+10	; 0x0a
    1190:	9b 85       	ldd	r25, Y+11	; 0x0b
    1192:	01 97       	sbiw	r24, 0x01	; 1
    1194:	9b 87       	std	Y+11, r25	; 0x0b
    1196:	8a 87       	std	Y+10, r24	; 0x0a
    1198:	8a 85       	ldd	r24, Y+10	; 0x0a
    119a:	9b 85       	ldd	r25, Y+11	; 0x0b
    119c:	00 97       	sbiw	r24, 0x00	; 0
    119e:	69 f7       	brne	.-38     	; 0x117a <lcd_wr_char+0x110>
    11a0:	14 c0       	rjmp	.+40     	; 0x11ca <lcd_wr_char+0x160>
    11a2:	6e 81       	ldd	r22, Y+6	; 0x06
    11a4:	7f 81       	ldd	r23, Y+7	; 0x07
    11a6:	88 85       	ldd	r24, Y+8	; 0x08
    11a8:	99 85       	ldd	r25, Y+9	; 0x09
    11aa:	0e 94 ec 2b 	call	0x57d8	; 0x57d8 <__fixunssfsi>
    11ae:	dc 01       	movw	r26, r24
    11b0:	cb 01       	movw	r24, r22
    11b2:	9b 87       	std	Y+11, r25	; 0x0b
    11b4:	8a 87       	std	Y+10, r24	; 0x0a
    11b6:	8a 85       	ldd	r24, Y+10	; 0x0a
    11b8:	9b 85       	ldd	r25, Y+11	; 0x0b
    11ba:	9f 87       	std	Y+15, r25	; 0x0f
    11bc:	8e 87       	std	Y+14, r24	; 0x0e
    11be:	8e 85       	ldd	r24, Y+14	; 0x0e
    11c0:	9f 85       	ldd	r25, Y+15	; 0x0f
    11c2:	01 97       	sbiw	r24, 0x01	; 1
    11c4:	f1 f7       	brne	.-4      	; 0x11c2 <lcd_wr_char+0x158>
    11c6:	9f 87       	std	Y+15, r25	; 0x0f
    11c8:	8e 87       	std	Y+14, r24	; 0x0e
    11ca:	88 e2       	ldi	r24, 0x28	; 40
    11cc:	90 e0       	ldi	r25, 0x00	; 0
    11ce:	28 e2       	ldi	r18, 0x28	; 40
    11d0:	30 e0       	ldi	r19, 0x00	; 0
    11d2:	f9 01       	movw	r30, r18
    11d4:	20 81       	ld	r18, Z
    11d6:	2b 7f       	andi	r18, 0xFB	; 251
    11d8:	fc 01       	movw	r30, r24
    11da:	20 83       	st	Z, r18
    11dc:	8e 8d       	ldd	r24, Y+30	; 0x1e
    11de:	8f 70       	andi	r24, 0x0F	; 15
    11e0:	8e 8f       	std	Y+30, r24	; 0x1e
    11e2:	8e 8d       	ldd	r24, Y+30	; 0x1e
    11e4:	82 95       	swap	r24
    11e6:	80 7f       	andi	r24, 0xF0	; 240
    11e8:	8e 8f       	std	Y+30, r24	; 0x1e
    11ea:	88 e2       	ldi	r24, 0x28	; 40
    11ec:	90 e0       	ldi	r25, 0x00	; 0
    11ee:	28 e2       	ldi	r18, 0x28	; 40
    11f0:	30 e0       	ldi	r19, 0x00	; 0
    11f2:	f9 01       	movw	r30, r18
    11f4:	20 81       	ld	r18, Z
    11f6:	2f 70       	andi	r18, 0x0F	; 15
    11f8:	fc 01       	movw	r30, r24
    11fa:	20 83       	st	Z, r18
    11fc:	88 e2       	ldi	r24, 0x28	; 40
    11fe:	90 e0       	ldi	r25, 0x00	; 0
    1200:	28 e2       	ldi	r18, 0x28	; 40
    1202:	30 e0       	ldi	r19, 0x00	; 0
    1204:	f9 01       	movw	r30, r18
    1206:	30 81       	ld	r19, Z
    1208:	2e 8d       	ldd	r18, Y+30	; 0x1e
    120a:	23 2b       	or	r18, r19
    120c:	fc 01       	movw	r30, r24
    120e:	20 83       	st	Z, r18
    1210:	88 e2       	ldi	r24, 0x28	; 40
    1212:	90 e0       	ldi	r25, 0x00	; 0
    1214:	28 e2       	ldi	r18, 0x28	; 40
    1216:	30 e0       	ldi	r19, 0x00	; 0
    1218:	f9 01       	movw	r30, r18
    121a:	20 81       	ld	r18, Z
    121c:	21 60       	ori	r18, 0x01	; 1
    121e:	fc 01       	movw	r30, r24
    1220:	20 83       	st	Z, r18
    1222:	88 e2       	ldi	r24, 0x28	; 40
    1224:	90 e0       	ldi	r25, 0x00	; 0
    1226:	28 e2       	ldi	r18, 0x28	; 40
    1228:	30 e0       	ldi	r19, 0x00	; 0
    122a:	f9 01       	movw	r30, r18
    122c:	20 81       	ld	r18, Z
    122e:	2d 7f       	andi	r18, 0xFD	; 253
    1230:	fc 01       	movw	r30, r24
    1232:	20 83       	st	Z, r18
    1234:	88 e2       	ldi	r24, 0x28	; 40
    1236:	90 e0       	ldi	r25, 0x00	; 0
    1238:	28 e2       	ldi	r18, 0x28	; 40
    123a:	30 e0       	ldi	r19, 0x00	; 0
    123c:	f9 01       	movw	r30, r18
    123e:	20 81       	ld	r18, Z
    1240:	24 60       	ori	r18, 0x04	; 4
    1242:	fc 01       	movw	r30, r24
    1244:	20 83       	st	Z, r18
    1246:	80 e0       	ldi	r24, 0x00	; 0
    1248:	90 e0       	ldi	r25, 0x00	; 0
    124a:	a0 ea       	ldi	r26, 0xA0	; 160
    124c:	b0 e4       	ldi	r27, 0x40	; 64
    124e:	88 8b       	std	Y+16, r24	; 0x10
    1250:	99 8b       	std	Y+17, r25	; 0x11
    1252:	aa 8b       	std	Y+18, r26	; 0x12
    1254:	bb 8b       	std	Y+19, r27	; 0x13
    1256:	26 e6       	ldi	r18, 0x66	; 102
    1258:	36 e6       	ldi	r19, 0x66	; 102
    125a:	46 e6       	ldi	r20, 0x66	; 102
    125c:	55 e4       	ldi	r21, 0x45	; 69
    125e:	68 89       	ldd	r22, Y+16	; 0x10
    1260:	79 89       	ldd	r23, Y+17	; 0x11
    1262:	8a 89       	ldd	r24, Y+18	; 0x12
    1264:	9b 89       	ldd	r25, Y+19	; 0x13
    1266:	0e 94 ce 2c 	call	0x599c	; 0x599c <__mulsf3>
    126a:	dc 01       	movw	r26, r24
    126c:	cb 01       	movw	r24, r22
    126e:	8c 8b       	std	Y+20, r24	; 0x14
    1270:	9d 8b       	std	Y+21, r25	; 0x15
    1272:	ae 8b       	std	Y+22, r26	; 0x16
    1274:	bf 8b       	std	Y+23, r27	; 0x17
    1276:	20 e0       	ldi	r18, 0x00	; 0
    1278:	30 e0       	ldi	r19, 0x00	; 0
    127a:	40 e8       	ldi	r20, 0x80	; 128
    127c:	5f e3       	ldi	r21, 0x3F	; 63
    127e:	6c 89       	ldd	r22, Y+20	; 0x14
    1280:	7d 89       	ldd	r23, Y+21	; 0x15
    1282:	8e 89       	ldd	r24, Y+22	; 0x16
    1284:	9f 89       	ldd	r25, Y+23	; 0x17
    1286:	0e 94 80 2b 	call	0x5700	; 0x5700 <__cmpsf2>
    128a:	88 23       	and	r24, r24
    128c:	2c f4       	brge	.+10     	; 0x1298 <lcd_wr_char+0x22e>
    128e:	81 e0       	ldi	r24, 0x01	; 1
    1290:	90 e0       	ldi	r25, 0x00	; 0
    1292:	99 8f       	std	Y+25, r25	; 0x19
    1294:	88 8f       	std	Y+24, r24	; 0x18
    1296:	3f c0       	rjmp	.+126    	; 0x1316 <lcd_wr_char+0x2ac>
    1298:	20 e0       	ldi	r18, 0x00	; 0
    129a:	3f ef       	ldi	r19, 0xFF	; 255
    129c:	4f e7       	ldi	r20, 0x7F	; 127
    129e:	57 e4       	ldi	r21, 0x47	; 71
    12a0:	6c 89       	ldd	r22, Y+20	; 0x14
    12a2:	7d 89       	ldd	r23, Y+21	; 0x15
    12a4:	8e 89       	ldd	r24, Y+22	; 0x16
    12a6:	9f 89       	ldd	r25, Y+23	; 0x17
    12a8:	0e 94 ca 2c 	call	0x5994	; 0x5994 <__gesf2>
    12ac:	18 16       	cp	r1, r24
    12ae:	4c f5       	brge	.+82     	; 0x1302 <lcd_wr_char+0x298>
    12b0:	20 e0       	ldi	r18, 0x00	; 0
    12b2:	30 e0       	ldi	r19, 0x00	; 0
    12b4:	40 e2       	ldi	r20, 0x20	; 32
    12b6:	51 e4       	ldi	r21, 0x41	; 65
    12b8:	68 89       	ldd	r22, Y+16	; 0x10
    12ba:	79 89       	ldd	r23, Y+17	; 0x11
    12bc:	8a 89       	ldd	r24, Y+18	; 0x12
    12be:	9b 89       	ldd	r25, Y+19	; 0x13
    12c0:	0e 94 ce 2c 	call	0x599c	; 0x599c <__mulsf3>
    12c4:	dc 01       	movw	r26, r24
    12c6:	cb 01       	movw	r24, r22
    12c8:	bc 01       	movw	r22, r24
    12ca:	cd 01       	movw	r24, r26
    12cc:	0e 94 ec 2b 	call	0x57d8	; 0x57d8 <__fixunssfsi>
    12d0:	dc 01       	movw	r26, r24
    12d2:	cb 01       	movw	r24, r22
    12d4:	99 8f       	std	Y+25, r25	; 0x19
    12d6:	88 8f       	std	Y+24, r24	; 0x18
    12d8:	0f c0       	rjmp	.+30     	; 0x12f8 <lcd_wr_char+0x28e>
    12da:	80 e7       	ldi	r24, 0x70	; 112
    12dc:	91 e0       	ldi	r25, 0x01	; 1
    12de:	9b 8f       	std	Y+27, r25	; 0x1b
    12e0:	8a 8f       	std	Y+26, r24	; 0x1a
    12e2:	8a 8d       	ldd	r24, Y+26	; 0x1a
    12e4:	9b 8d       	ldd	r25, Y+27	; 0x1b
    12e6:	01 97       	sbiw	r24, 0x01	; 1
    12e8:	f1 f7       	brne	.-4      	; 0x12e6 <lcd_wr_char+0x27c>
    12ea:	9b 8f       	std	Y+27, r25	; 0x1b
    12ec:	8a 8f       	std	Y+26, r24	; 0x1a
    12ee:	88 8d       	ldd	r24, Y+24	; 0x18
    12f0:	99 8d       	ldd	r25, Y+25	; 0x19
    12f2:	01 97       	sbiw	r24, 0x01	; 1
    12f4:	99 8f       	std	Y+25, r25	; 0x19
    12f6:	88 8f       	std	Y+24, r24	; 0x18
    12f8:	88 8d       	ldd	r24, Y+24	; 0x18
    12fa:	99 8d       	ldd	r25, Y+25	; 0x19
    12fc:	00 97       	sbiw	r24, 0x00	; 0
    12fe:	69 f7       	brne	.-38     	; 0x12da <lcd_wr_char+0x270>
    1300:	14 c0       	rjmp	.+40     	; 0x132a <lcd_wr_char+0x2c0>
    1302:	6c 89       	ldd	r22, Y+20	; 0x14
    1304:	7d 89       	ldd	r23, Y+21	; 0x15
    1306:	8e 89       	ldd	r24, Y+22	; 0x16
    1308:	9f 89       	ldd	r25, Y+23	; 0x17
    130a:	0e 94 ec 2b 	call	0x57d8	; 0x57d8 <__fixunssfsi>
    130e:	dc 01       	movw	r26, r24
    1310:	cb 01       	movw	r24, r22
    1312:	99 8f       	std	Y+25, r25	; 0x19
    1314:	88 8f       	std	Y+24, r24	; 0x18
    1316:	88 8d       	ldd	r24, Y+24	; 0x18
    1318:	99 8d       	ldd	r25, Y+25	; 0x19
    131a:	9d 8f       	std	Y+29, r25	; 0x1d
    131c:	8c 8f       	std	Y+28, r24	; 0x1c
    131e:	8c 8d       	ldd	r24, Y+28	; 0x1c
    1320:	9d 8d       	ldd	r25, Y+29	; 0x1d
    1322:	01 97       	sbiw	r24, 0x01	; 1
    1324:	f1 f7       	brne	.-4      	; 0x1322 <lcd_wr_char+0x2b8>
    1326:	9d 8f       	std	Y+29, r25	; 0x1d
    1328:	8c 8f       	std	Y+28, r24	; 0x1c
    132a:	88 e2       	ldi	r24, 0x28	; 40
    132c:	90 e0       	ldi	r25, 0x00	; 0
    132e:	28 e2       	ldi	r18, 0x28	; 40
    1330:	30 e0       	ldi	r19, 0x00	; 0
    1332:	f9 01       	movw	r30, r18
    1334:	20 81       	ld	r18, Z
    1336:	2b 7f       	andi	r18, 0xFB	; 251
    1338:	fc 01       	movw	r30, r24
    133a:	20 83       	st	Z, r18
    133c:	6e 96       	adiw	r28, 0x1e	; 30
    133e:	0f b6       	in	r0, 0x3f	; 63
    1340:	f8 94       	cli
    1342:	de bf       	out	0x3e, r29	; 62
    1344:	0f be       	out	0x3f, r0	; 63
    1346:	cd bf       	out	0x3d, r28	; 61
    1348:	df 91       	pop	r29
    134a:	cf 91       	pop	r28
    134c:	08 95       	ret

0000134e <lcd_home>:
    134e:	cf 93       	push	r28
    1350:	df 93       	push	r29
    1352:	cd b7       	in	r28, 0x3d	; 61
    1354:	de b7       	in	r29, 0x3e	; 62
    1356:	80 e8       	ldi	r24, 0x80	; 128
    1358:	16 dd       	rcall	.-1492   	; 0xd86 <lcd_wr_command>
    135a:	df 91       	pop	r29
    135c:	cf 91       	pop	r28
    135e:	08 95       	ret

00001360 <lcd_string>:
    1360:	cf 93       	push	r28
    1362:	df 93       	push	r29
    1364:	1f 92       	push	r1
    1366:	1f 92       	push	r1
    1368:	cd b7       	in	r28, 0x3d	; 61
    136a:	de b7       	in	r29, 0x3e	; 62
    136c:	9a 83       	std	Y+2, r25	; 0x02
    136e:	89 83       	std	Y+1, r24	; 0x01
    1370:	0a c0       	rjmp	.+20     	; 0x1386 <lcd_string+0x26>
    1372:	89 81       	ldd	r24, Y+1	; 0x01
    1374:	9a 81       	ldd	r25, Y+2	; 0x02
    1376:	fc 01       	movw	r30, r24
    1378:	80 81       	ld	r24, Z
    137a:	77 de       	rcall	.-786    	; 0x106a <lcd_wr_char>
    137c:	89 81       	ldd	r24, Y+1	; 0x01
    137e:	9a 81       	ldd	r25, Y+2	; 0x02
    1380:	01 96       	adiw	r24, 0x01	; 1
    1382:	9a 83       	std	Y+2, r25	; 0x02
    1384:	89 83       	std	Y+1, r24	; 0x01
    1386:	89 81       	ldd	r24, Y+1	; 0x01
    1388:	9a 81       	ldd	r25, Y+2	; 0x02
    138a:	fc 01       	movw	r30, r24
    138c:	80 81       	ld	r24, Z
    138e:	88 23       	and	r24, r24
    1390:	81 f7       	brne	.-32     	; 0x1372 <lcd_string+0x12>
    1392:	0f 90       	pop	r0
    1394:	0f 90       	pop	r0
    1396:	df 91       	pop	r29
    1398:	cf 91       	pop	r28
    139a:	08 95       	ret

0000139c <lcd_cursor>:
    139c:	cf 93       	push	r28
    139e:	df 93       	push	r29
    13a0:	1f 92       	push	r1
    13a2:	1f 92       	push	r1
    13a4:	cd b7       	in	r28, 0x3d	; 61
    13a6:	de b7       	in	r29, 0x3e	; 62
    13a8:	89 83       	std	Y+1, r24	; 0x01
    13aa:	6a 83       	std	Y+2, r22	; 0x02
    13ac:	89 81       	ldd	r24, Y+1	; 0x01
    13ae:	88 2f       	mov	r24, r24
    13b0:	90 e0       	ldi	r25, 0x00	; 0
    13b2:	82 30       	cpi	r24, 0x02	; 2
    13b4:	91 05       	cpc	r25, r1
    13b6:	91 f0       	breq	.+36     	; 0x13dc <lcd_cursor+0x40>
    13b8:	83 30       	cpi	r24, 0x03	; 3
    13ba:	91 05       	cpc	r25, r1
    13bc:	24 f4       	brge	.+8      	; 0x13c6 <lcd_cursor+0x2a>
    13be:	81 30       	cpi	r24, 0x01	; 1
    13c0:	91 05       	cpc	r25, r1
    13c2:	41 f0       	breq	.+16     	; 0x13d4 <lcd_cursor+0x38>
    13c4:	17 c0       	rjmp	.+46     	; 0x13f4 <lcd_cursor+0x58>
    13c6:	83 30       	cpi	r24, 0x03	; 3
    13c8:	91 05       	cpc	r25, r1
    13ca:	61 f0       	breq	.+24     	; 0x13e4 <lcd_cursor+0x48>
    13cc:	84 30       	cpi	r24, 0x04	; 4
    13ce:	91 05       	cpc	r25, r1
    13d0:	69 f0       	breq	.+26     	; 0x13ec <lcd_cursor+0x50>
    13d2:	10 c0       	rjmp	.+32     	; 0x13f4 <lcd_cursor+0x58>
    13d4:	8a 81       	ldd	r24, Y+2	; 0x02
    13d6:	81 58       	subi	r24, 0x81	; 129
    13d8:	d6 dc       	rcall	.-1620   	; 0xd86 <lcd_wr_command>
    13da:	0c c0       	rjmp	.+24     	; 0x13f4 <lcd_cursor+0x58>
    13dc:	8a 81       	ldd	r24, Y+2	; 0x02
    13de:	81 54       	subi	r24, 0x41	; 65
    13e0:	d2 dc       	rcall	.-1628   	; 0xd86 <lcd_wr_command>
    13e2:	08 c0       	rjmp	.+16     	; 0x13f4 <lcd_cursor+0x58>
    13e4:	8a 81       	ldd	r24, Y+2	; 0x02
    13e6:	8d 56       	subi	r24, 0x6D	; 109
    13e8:	ce dc       	rcall	.-1636   	; 0xd86 <lcd_wr_command>
    13ea:	04 c0       	rjmp	.+8      	; 0x13f4 <lcd_cursor+0x58>
    13ec:	8a 81       	ldd	r24, Y+2	; 0x02
    13ee:	8d 52       	subi	r24, 0x2D	; 45
    13f0:	ca dc       	rcall	.-1644   	; 0xd86 <lcd_wr_command>
    13f2:	00 00       	nop
    13f4:	0f 90       	pop	r0
    13f6:	0f 90       	pop	r0
    13f8:	df 91       	pop	r29
    13fa:	cf 91       	pop	r28
    13fc:	08 95       	ret

000013fe <lcd_print>:
    13fe:	cf 93       	push	r28
    1400:	df 93       	push	r29
    1402:	cd b7       	in	r28, 0x3d	; 61
    1404:	de b7       	in	r29, 0x3e	; 62
    1406:	27 97       	sbiw	r28, 0x07	; 7
    1408:	0f b6       	in	r0, 0x3f	; 63
    140a:	f8 94       	cli
    140c:	de bf       	out	0x3e, r29	; 62
    140e:	0f be       	out	0x3f, r0	; 63
    1410:	cd bf       	out	0x3d, r28	; 61
    1412:	8a 83       	std	Y+2, r24	; 0x02
    1414:	6b 83       	std	Y+3, r22	; 0x03
    1416:	5d 83       	std	Y+5, r21	; 0x05
    1418:	4c 83       	std	Y+4, r20	; 0x04
    141a:	3f 83       	std	Y+7, r19	; 0x07
    141c:	2e 83       	std	Y+6, r18	; 0x06
    141e:	19 82       	std	Y+1, r1	; 0x01
    1420:	8a 81       	ldd	r24, Y+2	; 0x02
    1422:	88 23       	and	r24, r24
    1424:	19 f0       	breq	.+6      	; 0x142c <lcd_print+0x2e>
    1426:	8b 81       	ldd	r24, Y+3	; 0x03
    1428:	88 23       	and	r24, r24
    142a:	11 f4       	brne	.+4      	; 0x1430 <lcd_print+0x32>
    142c:	90 df       	rcall	.-224    	; 0x134e <lcd_home>
    142e:	03 c0       	rjmp	.+6      	; 0x1436 <lcd_print+0x38>
    1430:	6b 81       	ldd	r22, Y+3	; 0x03
    1432:	8a 81       	ldd	r24, Y+2	; 0x02
    1434:	b3 df       	rcall	.-154    	; 0x139c <lcd_cursor>
    1436:	8e 81       	ldd	r24, Y+6	; 0x06
    1438:	9f 81       	ldd	r25, Y+7	; 0x07
    143a:	85 30       	cpi	r24, 0x05	; 5
    143c:	91 05       	cpc	r25, r1
    143e:	19 f0       	breq	.+6      	; 0x1446 <lcd_print+0x48>
    1440:	89 81       	ldd	r24, Y+1	; 0x01
    1442:	81 30       	cpi	r24, 0x01	; 1
    1444:	f9 f4       	brne	.+62     	; 0x1484 <lcd_print+0x86>
    1446:	8c 81       	ldd	r24, Y+4	; 0x04
    1448:	9d 81       	ldd	r25, Y+5	; 0x05
    144a:	92 95       	swap	r25
    144c:	82 95       	swap	r24
    144e:	8f 70       	andi	r24, 0x0F	; 15
    1450:	89 27       	eor	r24, r25
    1452:	9f 70       	andi	r25, 0x0F	; 15
    1454:	89 27       	eor	r24, r25
    1456:	9c 01       	movw	r18, r24
    1458:	a7 e4       	ldi	r26, 0x47	; 71
    145a:	b3 e0       	ldi	r27, 0x03	; 3
    145c:	0e 94 31 2d 	call	0x5a62	; 0x5a62 <__umulhisi3>
    1460:	96 95       	lsr	r25
    1462:	87 95       	ror	r24
    1464:	96 95       	lsr	r25
    1466:	87 95       	ror	r24
    1468:	96 95       	lsr	r25
    146a:	87 95       	ror	r24
    146c:	c0 96       	adiw	r24, 0x30	; 48
    146e:	90 93 67 02 	sts	0x0267, r25
    1472:	80 93 66 02 	sts	0x0266, r24
    1476:	80 91 66 02 	lds	r24, 0x0266
    147a:	90 91 67 02 	lds	r25, 0x0267
    147e:	f5 dd       	rcall	.-1046   	; 0x106a <lcd_wr_char>
    1480:	81 e0       	ldi	r24, 0x01	; 1
    1482:	89 83       	std	Y+1, r24	; 0x01
    1484:	8e 81       	ldd	r24, Y+6	; 0x06
    1486:	9f 81       	ldd	r25, Y+7	; 0x07
    1488:	84 30       	cpi	r24, 0x04	; 4
    148a:	91 05       	cpc	r25, r1
    148c:	21 f0       	breq	.+8      	; 0x1496 <lcd_print+0x98>
    148e:	89 81       	ldd	r24, Y+1	; 0x01
    1490:	81 30       	cpi	r24, 0x01	; 1
    1492:	09 f0       	breq	.+2      	; 0x1496 <lcd_print+0x98>
    1494:	3f c0       	rjmp	.+126    	; 0x1514 <lcd_print+0x116>
    1496:	8c 81       	ldd	r24, Y+4	; 0x04
    1498:	9d 81       	ldd	r25, Y+5	; 0x05
    149a:	96 95       	lsr	r25
    149c:	87 95       	ror	r24
    149e:	96 95       	lsr	r25
    14a0:	87 95       	ror	r24
    14a2:	96 95       	lsr	r25
    14a4:	87 95       	ror	r24
    14a6:	9c 01       	movw	r18, r24
    14a8:	a5 ec       	ldi	r26, 0xC5	; 197
    14aa:	b0 e2       	ldi	r27, 0x20	; 32
    14ac:	0e 94 31 2d 	call	0x5a62	; 0x5a62 <__umulhisi3>
    14b0:	92 95       	swap	r25
    14b2:	82 95       	swap	r24
    14b4:	8f 70       	andi	r24, 0x0F	; 15
    14b6:	89 27       	eor	r24, r25
    14b8:	9f 70       	andi	r25, 0x0F	; 15
    14ba:	89 27       	eor	r24, r25
    14bc:	90 93 6b 02 	sts	0x026B, r25
    14c0:	80 93 6a 02 	sts	0x026A, r24
    14c4:	40 91 6a 02 	lds	r20, 0x026A
    14c8:	50 91 6b 02 	lds	r21, 0x026B
    14cc:	9a 01       	movw	r18, r20
    14ce:	ad ec       	ldi	r26, 0xCD	; 205
    14d0:	bc ec       	ldi	r27, 0xCC	; 204
    14d2:	0e 94 31 2d 	call	0x5a62	; 0x5a62 <__umulhisi3>
    14d6:	96 95       	lsr	r25
    14d8:	87 95       	ror	r24
    14da:	96 95       	lsr	r25
    14dc:	87 95       	ror	r24
    14de:	96 95       	lsr	r25
    14e0:	87 95       	ror	r24
    14e2:	88 0f       	add	r24, r24
    14e4:	99 1f       	adc	r25, r25
    14e6:	9c 01       	movw	r18, r24
    14e8:	22 0f       	add	r18, r18
    14ea:	33 1f       	adc	r19, r19
    14ec:	22 0f       	add	r18, r18
    14ee:	33 1f       	adc	r19, r19
    14f0:	82 0f       	add	r24, r18
    14f2:	93 1f       	adc	r25, r19
    14f4:	9a 01       	movw	r18, r20
    14f6:	28 1b       	sub	r18, r24
    14f8:	39 0b       	sbc	r19, r25
    14fa:	c9 01       	movw	r24, r18
    14fc:	c0 96       	adiw	r24, 0x30	; 48
    14fe:	90 93 79 02 	sts	0x0279, r25
    1502:	80 93 78 02 	sts	0x0278, r24
    1506:	80 91 78 02 	lds	r24, 0x0278
    150a:	90 91 79 02 	lds	r25, 0x0279
    150e:	ad dd       	rcall	.-1190   	; 0x106a <lcd_wr_char>
    1510:	81 e0       	ldi	r24, 0x01	; 1
    1512:	89 83       	std	Y+1, r24	; 0x01
    1514:	8e 81       	ldd	r24, Y+6	; 0x06
    1516:	9f 81       	ldd	r25, Y+7	; 0x07
    1518:	83 30       	cpi	r24, 0x03	; 3
    151a:	91 05       	cpc	r25, r1
    151c:	19 f0       	breq	.+6      	; 0x1524 <lcd_print+0x126>
    151e:	89 81       	ldd	r24, Y+1	; 0x01
    1520:	81 30       	cpi	r24, 0x01	; 1
    1522:	c9 f5       	brne	.+114    	; 0x1596 <lcd_print+0x198>
    1524:	8c 81       	ldd	r24, Y+4	; 0x04
    1526:	9d 81       	ldd	r25, Y+5	; 0x05
    1528:	96 95       	lsr	r25
    152a:	87 95       	ror	r24
    152c:	96 95       	lsr	r25
    152e:	87 95       	ror	r24
    1530:	9c 01       	movw	r18, r24
    1532:	ab e7       	ldi	r26, 0x7B	; 123
    1534:	b4 e1       	ldi	r27, 0x14	; 20
    1536:	0e 94 31 2d 	call	0x5a62	; 0x5a62 <__umulhisi3>
    153a:	96 95       	lsr	r25
    153c:	87 95       	ror	r24
    153e:	90 93 6b 02 	sts	0x026B, r25
    1542:	80 93 6a 02 	sts	0x026A, r24
    1546:	40 91 6a 02 	lds	r20, 0x026A
    154a:	50 91 6b 02 	lds	r21, 0x026B
    154e:	9a 01       	movw	r18, r20
    1550:	ad ec       	ldi	r26, 0xCD	; 205
    1552:	bc ec       	ldi	r27, 0xCC	; 204
    1554:	0e 94 31 2d 	call	0x5a62	; 0x5a62 <__umulhisi3>
    1558:	96 95       	lsr	r25
    155a:	87 95       	ror	r24
    155c:	96 95       	lsr	r25
    155e:	87 95       	ror	r24
    1560:	96 95       	lsr	r25
    1562:	87 95       	ror	r24
    1564:	88 0f       	add	r24, r24
    1566:	99 1f       	adc	r25, r25
    1568:	9c 01       	movw	r18, r24
    156a:	22 0f       	add	r18, r18
    156c:	33 1f       	adc	r19, r19
    156e:	22 0f       	add	r18, r18
    1570:	33 1f       	adc	r19, r19
    1572:	82 0f       	add	r24, r18
    1574:	93 1f       	adc	r25, r19
    1576:	9a 01       	movw	r18, r20
    1578:	28 1b       	sub	r18, r24
    157a:	39 0b       	sbc	r19, r25
    157c:	c9 01       	movw	r24, r18
    157e:	c0 96       	adiw	r24, 0x30	; 48
    1580:	90 93 72 02 	sts	0x0272, r25
    1584:	80 93 71 02 	sts	0x0271, r24
    1588:	80 91 71 02 	lds	r24, 0x0271
    158c:	90 91 72 02 	lds	r25, 0x0272
    1590:	6c dd       	rcall	.-1320   	; 0x106a <lcd_wr_char>
    1592:	81 e0       	ldi	r24, 0x01	; 1
    1594:	89 83       	std	Y+1, r24	; 0x01
    1596:	8e 81       	ldd	r24, Y+6	; 0x06
    1598:	9f 81       	ldd	r25, Y+7	; 0x07
    159a:	82 30       	cpi	r24, 0x02	; 2
    159c:	91 05       	cpc	r25, r1
    159e:	19 f0       	breq	.+6      	; 0x15a6 <lcd_print+0x1a8>
    15a0:	89 81       	ldd	r24, Y+1	; 0x01
    15a2:	81 30       	cpi	r24, 0x01	; 1
    15a4:	c9 f5       	brne	.+114    	; 0x1618 <lcd_print+0x21a>
    15a6:	8c 81       	ldd	r24, Y+4	; 0x04
    15a8:	9d 81       	ldd	r25, Y+5	; 0x05
    15aa:	9c 01       	movw	r18, r24
    15ac:	ad ec       	ldi	r26, 0xCD	; 205
    15ae:	bc ec       	ldi	r27, 0xCC	; 204
    15b0:	0e 94 31 2d 	call	0x5a62	; 0x5a62 <__umulhisi3>
    15b4:	96 95       	lsr	r25
    15b6:	87 95       	ror	r24
    15b8:	96 95       	lsr	r25
    15ba:	87 95       	ror	r24
    15bc:	96 95       	lsr	r25
    15be:	87 95       	ror	r24
    15c0:	90 93 6b 02 	sts	0x026B, r25
    15c4:	80 93 6a 02 	sts	0x026A, r24
    15c8:	40 91 6a 02 	lds	r20, 0x026A
    15cc:	50 91 6b 02 	lds	r21, 0x026B
    15d0:	9a 01       	movw	r18, r20
    15d2:	ad ec       	ldi	r26, 0xCD	; 205
    15d4:	bc ec       	ldi	r27, 0xCC	; 204
    15d6:	0e 94 31 2d 	call	0x5a62	; 0x5a62 <__umulhisi3>
    15da:	96 95       	lsr	r25
    15dc:	87 95       	ror	r24
    15de:	96 95       	lsr	r25
    15e0:	87 95       	ror	r24
    15e2:	96 95       	lsr	r25
    15e4:	87 95       	ror	r24
    15e6:	88 0f       	add	r24, r24
    15e8:	99 1f       	adc	r25, r25
    15ea:	9c 01       	movw	r18, r24
    15ec:	22 0f       	add	r18, r18
    15ee:	33 1f       	adc	r19, r19
    15f0:	22 0f       	add	r18, r18
    15f2:	33 1f       	adc	r19, r19
    15f4:	82 0f       	add	r24, r18
    15f6:	93 1f       	adc	r25, r19
    15f8:	9a 01       	movw	r18, r20
    15fa:	28 1b       	sub	r18, r24
    15fc:	39 0b       	sbc	r19, r25
    15fe:	c9 01       	movw	r24, r18
    1600:	c0 96       	adiw	r24, 0x30	; 48
    1602:	90 93 70 02 	sts	0x0270, r25
    1606:	80 93 6f 02 	sts	0x026F, r24
    160a:	80 91 6f 02 	lds	r24, 0x026F
    160e:	90 91 70 02 	lds	r25, 0x0270
    1612:	2b dd       	rcall	.-1450   	; 0x106a <lcd_wr_char>
    1614:	81 e0       	ldi	r24, 0x01	; 1
    1616:	89 83       	std	Y+1, r24	; 0x01
    1618:	8e 81       	ldd	r24, Y+6	; 0x06
    161a:	9f 81       	ldd	r25, Y+7	; 0x07
    161c:	81 30       	cpi	r24, 0x01	; 1
    161e:	91 05       	cpc	r25, r1
    1620:	19 f0       	breq	.+6      	; 0x1628 <lcd_print+0x22a>
    1622:	89 81       	ldd	r24, Y+1	; 0x01
    1624:	81 30       	cpi	r24, 0x01	; 1
    1626:	21 f5       	brne	.+72     	; 0x1670 <lcd_print+0x272>
    1628:	4c 81       	ldd	r20, Y+4	; 0x04
    162a:	5d 81       	ldd	r21, Y+5	; 0x05
    162c:	9a 01       	movw	r18, r20
    162e:	ad ec       	ldi	r26, 0xCD	; 205
    1630:	bc ec       	ldi	r27, 0xCC	; 204
    1632:	0e 94 31 2d 	call	0x5a62	; 0x5a62 <__umulhisi3>
    1636:	96 95       	lsr	r25
    1638:	87 95       	ror	r24
    163a:	96 95       	lsr	r25
    163c:	87 95       	ror	r24
    163e:	96 95       	lsr	r25
    1640:	87 95       	ror	r24
    1642:	88 0f       	add	r24, r24
    1644:	99 1f       	adc	r25, r25
    1646:	9c 01       	movw	r18, r24
    1648:	22 0f       	add	r18, r18
    164a:	33 1f       	adc	r19, r19
    164c:	22 0f       	add	r18, r18
    164e:	33 1f       	adc	r19, r19
    1650:	82 0f       	add	r24, r18
    1652:	93 1f       	adc	r25, r19
    1654:	9a 01       	movw	r18, r20
    1656:	28 1b       	sub	r18, r24
    1658:	39 0b       	sbc	r19, r25
    165a:	c9 01       	movw	r24, r18
    165c:	c0 96       	adiw	r24, 0x30	; 48
    165e:	90 93 77 02 	sts	0x0277, r25
    1662:	80 93 76 02 	sts	0x0276, r24
    1666:	80 91 76 02 	lds	r24, 0x0276
    166a:	90 91 77 02 	lds	r25, 0x0277
    166e:	fd dc       	rcall	.-1542   	; 0x106a <lcd_wr_char>
    1670:	8e 81       	ldd	r24, Y+6	; 0x06
    1672:	9f 81       	ldd	r25, Y+7	; 0x07
    1674:	86 30       	cpi	r24, 0x06	; 6
    1676:	91 05       	cpc	r25, r1
    1678:	14 f0       	brlt	.+4      	; 0x167e <lcd_print+0x280>
    167a:	85 e4       	ldi	r24, 0x45	; 69
    167c:	f6 dc       	rcall	.-1556   	; 0x106a <lcd_wr_char>
    167e:	27 96       	adiw	r28, 0x07	; 7
    1680:	0f b6       	in	r0, 0x3f	; 63
    1682:	f8 94       	cli
    1684:	de bf       	out	0x3e, r29	; 62
    1686:	0f be       	out	0x3f, r0	; 63
    1688:	cd bf       	out	0x3d, r28	; 61
    168a:	df 91       	pop	r29
    168c:	cf 91       	pop	r28
    168e:	08 95       	ret

00001690 <timer1_init>:
    1690:	cf 93       	push	r28
    1692:	df 93       	push	r29
    1694:	cd b7       	in	r28, 0x3d	; 61
    1696:	de b7       	in	r29, 0x3e	; 62
    1698:	81 e8       	ldi	r24, 0x81	; 129
    169a:	90 e0       	ldi	r25, 0x00	; 0
    169c:	fc 01       	movw	r30, r24
    169e:	10 82       	st	Z, r1
    16a0:	85 e8       	ldi	r24, 0x85	; 133
    16a2:	90 e0       	ldi	r25, 0x00	; 0
    16a4:	2c ef       	ldi	r18, 0xFC	; 252
    16a6:	fc 01       	movw	r30, r24
    16a8:	20 83       	st	Z, r18
    16aa:	84 e8       	ldi	r24, 0x84	; 132
    16ac:	90 e0       	ldi	r25, 0x00	; 0
    16ae:	21 e0       	ldi	r18, 0x01	; 1
    16b0:	fc 01       	movw	r30, r24
    16b2:	20 83       	st	Z, r18
    16b4:	89 e8       	ldi	r24, 0x89	; 137
    16b6:	90 e0       	ldi	r25, 0x00	; 0
    16b8:	23 e0       	ldi	r18, 0x03	; 3
    16ba:	fc 01       	movw	r30, r24
    16bc:	20 83       	st	Z, r18
    16be:	88 e8       	ldi	r24, 0x88	; 136
    16c0:	90 e0       	ldi	r25, 0x00	; 0
    16c2:	2f ef       	ldi	r18, 0xFF	; 255
    16c4:	fc 01       	movw	r30, r24
    16c6:	20 83       	st	Z, r18
    16c8:	8b e8       	ldi	r24, 0x8B	; 139
    16ca:	90 e0       	ldi	r25, 0x00	; 0
    16cc:	23 e0       	ldi	r18, 0x03	; 3
    16ce:	fc 01       	movw	r30, r24
    16d0:	20 83       	st	Z, r18
    16d2:	8a e8       	ldi	r24, 0x8A	; 138
    16d4:	90 e0       	ldi	r25, 0x00	; 0
    16d6:	2f ef       	ldi	r18, 0xFF	; 255
    16d8:	fc 01       	movw	r30, r24
    16da:	20 83       	st	Z, r18
    16dc:	8d e8       	ldi	r24, 0x8D	; 141
    16de:	90 e0       	ldi	r25, 0x00	; 0
    16e0:	23 e0       	ldi	r18, 0x03	; 3
    16e2:	fc 01       	movw	r30, r24
    16e4:	20 83       	st	Z, r18
    16e6:	8c e8       	ldi	r24, 0x8C	; 140
    16e8:	90 e0       	ldi	r25, 0x00	; 0
    16ea:	2f ef       	ldi	r18, 0xFF	; 255
    16ec:	fc 01       	movw	r30, r24
    16ee:	20 83       	st	Z, r18
    16f0:	87 e8       	ldi	r24, 0x87	; 135
    16f2:	90 e0       	ldi	r25, 0x00	; 0
    16f4:	23 e0       	ldi	r18, 0x03	; 3
    16f6:	fc 01       	movw	r30, r24
    16f8:	20 83       	st	Z, r18
    16fa:	86 e8       	ldi	r24, 0x86	; 134
    16fc:	90 e0       	ldi	r25, 0x00	; 0
    16fe:	2f ef       	ldi	r18, 0xFF	; 255
    1700:	fc 01       	movw	r30, r24
    1702:	20 83       	st	Z, r18
    1704:	80 e8       	ldi	r24, 0x80	; 128
    1706:	90 e0       	ldi	r25, 0x00	; 0
    1708:	2b ea       	ldi	r18, 0xAB	; 171
    170a:	fc 01       	movw	r30, r24
    170c:	20 83       	st	Z, r18
    170e:	82 e8       	ldi	r24, 0x82	; 130
    1710:	90 e0       	ldi	r25, 0x00	; 0
    1712:	fc 01       	movw	r30, r24
    1714:	10 82       	st	Z, r1
    1716:	81 e8       	ldi	r24, 0x81	; 129
    1718:	90 e0       	ldi	r25, 0x00	; 0
    171a:	2c e0       	ldi	r18, 0x0C	; 12
    171c:	fc 01       	movw	r30, r24
    171e:	20 83       	st	Z, r18
    1720:	df 91       	pop	r29
    1722:	cf 91       	pop	r28
    1724:	08 95       	ret

00001726 <timer5_init>:
    1726:	cf 93       	push	r28
    1728:	df 93       	push	r29
    172a:	cd b7       	in	r28, 0x3d	; 61
    172c:	de b7       	in	r29, 0x3e	; 62
    172e:	81 e2       	ldi	r24, 0x21	; 33
    1730:	91 e0       	ldi	r25, 0x01	; 1
    1732:	fc 01       	movw	r30, r24
    1734:	10 82       	st	Z, r1
    1736:	85 e2       	ldi	r24, 0x25	; 37
    1738:	91 e0       	ldi	r25, 0x01	; 1
    173a:	2f ef       	ldi	r18, 0xFF	; 255
    173c:	fc 01       	movw	r30, r24
    173e:	20 83       	st	Z, r18
    1740:	84 e2       	ldi	r24, 0x24	; 36
    1742:	91 e0       	ldi	r25, 0x01	; 1
    1744:	21 e0       	ldi	r18, 0x01	; 1
    1746:	fc 01       	movw	r30, r24
    1748:	20 83       	st	Z, r18
    174a:	89 e2       	ldi	r24, 0x29	; 41
    174c:	91 e0       	ldi	r25, 0x01	; 1
    174e:	fc 01       	movw	r30, r24
    1750:	10 82       	st	Z, r1
    1752:	88 e2       	ldi	r24, 0x28	; 40
    1754:	91 e0       	ldi	r25, 0x01	; 1
    1756:	2f ef       	ldi	r18, 0xFF	; 255
    1758:	fc 01       	movw	r30, r24
    175a:	20 83       	st	Z, r18
    175c:	8b e2       	ldi	r24, 0x2B	; 43
    175e:	91 e0       	ldi	r25, 0x01	; 1
    1760:	fc 01       	movw	r30, r24
    1762:	10 82       	st	Z, r1
    1764:	8a e2       	ldi	r24, 0x2A	; 42
    1766:	91 e0       	ldi	r25, 0x01	; 1
    1768:	2f ef       	ldi	r18, 0xFF	; 255
    176a:	fc 01       	movw	r30, r24
    176c:	20 83       	st	Z, r18
    176e:	8d e2       	ldi	r24, 0x2D	; 45
    1770:	91 e0       	ldi	r25, 0x01	; 1
    1772:	fc 01       	movw	r30, r24
    1774:	10 82       	st	Z, r1
    1776:	8c e2       	ldi	r24, 0x2C	; 44
    1778:	91 e0       	ldi	r25, 0x01	; 1
    177a:	2f ef       	ldi	r18, 0xFF	; 255
    177c:	fc 01       	movw	r30, r24
    177e:	20 83       	st	Z, r18
    1780:	80 e2       	ldi	r24, 0x20	; 32
    1782:	91 e0       	ldi	r25, 0x01	; 1
    1784:	29 ea       	ldi	r18, 0xA9	; 169
    1786:	fc 01       	movw	r30, r24
    1788:	20 83       	st	Z, r18
    178a:	81 e2       	ldi	r24, 0x21	; 33
    178c:	91 e0       	ldi	r25, 0x01	; 1
    178e:	2b e0       	ldi	r18, 0x0B	; 11
    1790:	fc 01       	movw	r30, r24
    1792:	20 83       	st	Z, r18
    1794:	df 91       	pop	r29
    1796:	cf 91       	pop	r28
    1798:	08 95       	ret

0000179a <buzzer_pin_config>:
    179a:	cf 93       	push	r28
    179c:	df 93       	push	r29
    179e:	cd b7       	in	r28, 0x3d	; 61
    17a0:	de b7       	in	r29, 0x3e	; 62
    17a2:	83 e3       	ldi	r24, 0x33	; 51
    17a4:	90 e0       	ldi	r25, 0x00	; 0
    17a6:	23 e3       	ldi	r18, 0x33	; 51
    17a8:	30 e0       	ldi	r19, 0x00	; 0
    17aa:	f9 01       	movw	r30, r18
    17ac:	20 81       	ld	r18, Z
    17ae:	28 60       	ori	r18, 0x08	; 8
    17b0:	fc 01       	movw	r30, r24
    17b2:	20 83       	st	Z, r18
    17b4:	84 e3       	ldi	r24, 0x34	; 52
    17b6:	90 e0       	ldi	r25, 0x00	; 0
    17b8:	24 e3       	ldi	r18, 0x34	; 52
    17ba:	30 e0       	ldi	r19, 0x00	; 0
    17bc:	f9 01       	movw	r30, r18
    17be:	20 81       	ld	r18, Z
    17c0:	27 7f       	andi	r18, 0xF7	; 247
    17c2:	fc 01       	movw	r30, r24
    17c4:	20 83       	st	Z, r18
    17c6:	df 91       	pop	r29
    17c8:	cf 91       	pop	r28
    17ca:	08 95       	ret

000017cc <motion_pin_config>:
    17cc:	cf 93       	push	r28
    17ce:	df 93       	push	r29
    17d0:	cd b7       	in	r28, 0x3d	; 61
    17d2:	de b7       	in	r29, 0x3e	; 62
    17d4:	81 e2       	ldi	r24, 0x21	; 33
    17d6:	90 e0       	ldi	r25, 0x00	; 0
    17d8:	21 e2       	ldi	r18, 0x21	; 33
    17da:	30 e0       	ldi	r19, 0x00	; 0
    17dc:	f9 01       	movw	r30, r18
    17de:	20 81       	ld	r18, Z
    17e0:	2f 60       	ori	r18, 0x0F	; 15
    17e2:	fc 01       	movw	r30, r24
    17e4:	20 83       	st	Z, r18
    17e6:	82 e2       	ldi	r24, 0x22	; 34
    17e8:	90 e0       	ldi	r25, 0x00	; 0
    17ea:	22 e2       	ldi	r18, 0x22	; 34
    17ec:	30 e0       	ldi	r19, 0x00	; 0
    17ee:	f9 01       	movw	r30, r18
    17f0:	20 81       	ld	r18, Z
    17f2:	20 7f       	andi	r18, 0xF0	; 240
    17f4:	fc 01       	movw	r30, r24
    17f6:	20 83       	st	Z, r18
    17f8:	8a e0       	ldi	r24, 0x0A	; 10
    17fa:	91 e0       	ldi	r25, 0x01	; 1
    17fc:	2a e0       	ldi	r18, 0x0A	; 10
    17fe:	31 e0       	ldi	r19, 0x01	; 1
    1800:	f9 01       	movw	r30, r18
    1802:	20 81       	ld	r18, Z
    1804:	28 61       	ori	r18, 0x18	; 24
    1806:	fc 01       	movw	r30, r24
    1808:	20 83       	st	Z, r18
    180a:	8b e0       	ldi	r24, 0x0B	; 11
    180c:	91 e0       	ldi	r25, 0x01	; 1
    180e:	2b e0       	ldi	r18, 0x0B	; 11
    1810:	31 e0       	ldi	r19, 0x01	; 1
    1812:	f9 01       	movw	r30, r18
    1814:	20 81       	ld	r18, Z
    1816:	28 61       	ori	r18, 0x18	; 24
    1818:	fc 01       	movw	r30, r24
    181a:	20 83       	st	Z, r18
    181c:	df 91       	pop	r29
    181e:	cf 91       	pop	r28
    1820:	08 95       	ret

00001822 <left_encoder_pin_config>:
    1822:	cf 93       	push	r28
    1824:	df 93       	push	r29
    1826:	cd b7       	in	r28, 0x3d	; 61
    1828:	de b7       	in	r29, 0x3e	; 62
    182a:	8d e2       	ldi	r24, 0x2D	; 45
    182c:	90 e0       	ldi	r25, 0x00	; 0
    182e:	2d e2       	ldi	r18, 0x2D	; 45
    1830:	30 e0       	ldi	r19, 0x00	; 0
    1832:	f9 01       	movw	r30, r18
    1834:	20 81       	ld	r18, Z
    1836:	2f 7e       	andi	r18, 0xEF	; 239
    1838:	fc 01       	movw	r30, r24
    183a:	20 83       	st	Z, r18
    183c:	8e e2       	ldi	r24, 0x2E	; 46
    183e:	90 e0       	ldi	r25, 0x00	; 0
    1840:	2e e2       	ldi	r18, 0x2E	; 46
    1842:	30 e0       	ldi	r19, 0x00	; 0
    1844:	f9 01       	movw	r30, r18
    1846:	20 81       	ld	r18, Z
    1848:	20 61       	ori	r18, 0x10	; 16
    184a:	fc 01       	movw	r30, r24
    184c:	20 83       	st	Z, r18
    184e:	df 91       	pop	r29
    1850:	cf 91       	pop	r28
    1852:	08 95       	ret

00001854 <right_encoder_pin_config>:
    1854:	cf 93       	push	r28
    1856:	df 93       	push	r29
    1858:	cd b7       	in	r28, 0x3d	; 61
    185a:	de b7       	in	r29, 0x3e	; 62
    185c:	8d e2       	ldi	r24, 0x2D	; 45
    185e:	90 e0       	ldi	r25, 0x00	; 0
    1860:	2d e2       	ldi	r18, 0x2D	; 45
    1862:	30 e0       	ldi	r19, 0x00	; 0
    1864:	f9 01       	movw	r30, r18
    1866:	20 81       	ld	r18, Z
    1868:	2f 7d       	andi	r18, 0xDF	; 223
    186a:	fc 01       	movw	r30, r24
    186c:	20 83       	st	Z, r18
    186e:	8e e2       	ldi	r24, 0x2E	; 46
    1870:	90 e0       	ldi	r25, 0x00	; 0
    1872:	2e e2       	ldi	r18, 0x2E	; 46
    1874:	30 e0       	ldi	r19, 0x00	; 0
    1876:	f9 01       	movw	r30, r18
    1878:	20 81       	ld	r18, Z
    187a:	20 62       	ori	r18, 0x20	; 32
    187c:	fc 01       	movw	r30, r24
    187e:	20 83       	st	Z, r18
    1880:	df 91       	pop	r29
    1882:	cf 91       	pop	r28
    1884:	08 95       	ret

00001886 <left_position_encoder_interrupt_config>:
    1886:	cf 93       	push	r28
    1888:	df 93       	push	r29
    188a:	cd b7       	in	r28, 0x3d	; 61
    188c:	de b7       	in	r29, 0x3e	; 62
    188e:	f8 94       	cli
    1890:	8a e6       	ldi	r24, 0x6A	; 106
    1892:	90 e0       	ldi	r25, 0x00	; 0
    1894:	2a e6       	ldi	r18, 0x6A	; 106
    1896:	30 e0       	ldi	r19, 0x00	; 0
    1898:	f9 01       	movw	r30, r18
    189a:	20 81       	ld	r18, Z
    189c:	22 60       	ori	r18, 0x02	; 2
    189e:	fc 01       	movw	r30, r24
    18a0:	20 83       	st	Z, r18
    18a2:	8d e3       	ldi	r24, 0x3D	; 61
    18a4:	90 e0       	ldi	r25, 0x00	; 0
    18a6:	2d e3       	ldi	r18, 0x3D	; 61
    18a8:	30 e0       	ldi	r19, 0x00	; 0
    18aa:	f9 01       	movw	r30, r18
    18ac:	20 81       	ld	r18, Z
    18ae:	20 61       	ori	r18, 0x10	; 16
    18b0:	fc 01       	movw	r30, r24
    18b2:	20 83       	st	Z, r18
    18b4:	78 94       	sei
    18b6:	df 91       	pop	r29
    18b8:	cf 91       	pop	r28
    18ba:	08 95       	ret

000018bc <right_position_encoder_interrupt_config>:
    18bc:	cf 93       	push	r28
    18be:	df 93       	push	r29
    18c0:	cd b7       	in	r28, 0x3d	; 61
    18c2:	de b7       	in	r29, 0x3e	; 62
    18c4:	f8 94       	cli
    18c6:	8a e6       	ldi	r24, 0x6A	; 106
    18c8:	90 e0       	ldi	r25, 0x00	; 0
    18ca:	2a e6       	ldi	r18, 0x6A	; 106
    18cc:	30 e0       	ldi	r19, 0x00	; 0
    18ce:	f9 01       	movw	r30, r18
    18d0:	20 81       	ld	r18, Z
    18d2:	28 60       	ori	r18, 0x08	; 8
    18d4:	fc 01       	movw	r30, r24
    18d6:	20 83       	st	Z, r18
    18d8:	8d e3       	ldi	r24, 0x3D	; 61
    18da:	90 e0       	ldi	r25, 0x00	; 0
    18dc:	2d e3       	ldi	r18, 0x3D	; 61
    18de:	30 e0       	ldi	r19, 0x00	; 0
    18e0:	f9 01       	movw	r30, r18
    18e2:	20 81       	ld	r18, Z
    18e4:	20 62       	ori	r18, 0x20	; 32
    18e6:	fc 01       	movw	r30, r24
    18e8:	20 83       	st	Z, r18
    18ea:	78 94       	sei
    18ec:	df 91       	pop	r29
    18ee:	cf 91       	pop	r28
    18f0:	08 95       	ret

000018f2 <servo1_pin_config>:
    18f2:	cf 93       	push	r28
    18f4:	df 93       	push	r29
    18f6:	cd b7       	in	r28, 0x3d	; 61
    18f8:	de b7       	in	r29, 0x3e	; 62
    18fa:	84 e2       	ldi	r24, 0x24	; 36
    18fc:	90 e0       	ldi	r25, 0x00	; 0
    18fe:	24 e2       	ldi	r18, 0x24	; 36
    1900:	30 e0       	ldi	r19, 0x00	; 0
    1902:	f9 01       	movw	r30, r18
    1904:	20 81       	ld	r18, Z
    1906:	20 62       	ori	r18, 0x20	; 32
    1908:	fc 01       	movw	r30, r24
    190a:	20 83       	st	Z, r18
    190c:	85 e2       	ldi	r24, 0x25	; 37
    190e:	90 e0       	ldi	r25, 0x00	; 0
    1910:	25 e2       	ldi	r18, 0x25	; 37
    1912:	30 e0       	ldi	r19, 0x00	; 0
    1914:	f9 01       	movw	r30, r18
    1916:	20 81       	ld	r18, Z
    1918:	20 62       	ori	r18, 0x20	; 32
    191a:	fc 01       	movw	r30, r24
    191c:	20 83       	st	Z, r18
    191e:	df 91       	pop	r29
    1920:	cf 91       	pop	r28
    1922:	08 95       	ret

00001924 <servo2_pin_config>:
    1924:	cf 93       	push	r28
    1926:	df 93       	push	r29
    1928:	cd b7       	in	r28, 0x3d	; 61
    192a:	de b7       	in	r29, 0x3e	; 62
    192c:	84 e2       	ldi	r24, 0x24	; 36
    192e:	90 e0       	ldi	r25, 0x00	; 0
    1930:	24 e2       	ldi	r18, 0x24	; 36
    1932:	30 e0       	ldi	r19, 0x00	; 0
    1934:	f9 01       	movw	r30, r18
    1936:	20 81       	ld	r18, Z
    1938:	20 64       	ori	r18, 0x40	; 64
    193a:	fc 01       	movw	r30, r24
    193c:	20 83       	st	Z, r18
    193e:	85 e2       	ldi	r24, 0x25	; 37
    1940:	90 e0       	ldi	r25, 0x00	; 0
    1942:	25 e2       	ldi	r18, 0x25	; 37
    1944:	30 e0       	ldi	r19, 0x00	; 0
    1946:	f9 01       	movw	r30, r18
    1948:	20 81       	ld	r18, Z
    194a:	20 64       	ori	r18, 0x40	; 64
    194c:	fc 01       	movw	r30, r24
    194e:	20 83       	st	Z, r18
    1950:	df 91       	pop	r29
    1952:	cf 91       	pop	r28
    1954:	08 95       	ret

00001956 <servo3_pin_config>:
    1956:	cf 93       	push	r28
    1958:	df 93       	push	r29
    195a:	cd b7       	in	r28, 0x3d	; 61
    195c:	de b7       	in	r29, 0x3e	; 62
    195e:	84 e2       	ldi	r24, 0x24	; 36
    1960:	90 e0       	ldi	r25, 0x00	; 0
    1962:	24 e2       	ldi	r18, 0x24	; 36
    1964:	30 e0       	ldi	r19, 0x00	; 0
    1966:	f9 01       	movw	r30, r18
    1968:	20 81       	ld	r18, Z
    196a:	20 68       	ori	r18, 0x80	; 128
    196c:	fc 01       	movw	r30, r24
    196e:	20 83       	st	Z, r18
    1970:	85 e2       	ldi	r24, 0x25	; 37
    1972:	90 e0       	ldi	r25, 0x00	; 0
    1974:	25 e2       	ldi	r18, 0x25	; 37
    1976:	30 e0       	ldi	r19, 0x00	; 0
    1978:	f9 01       	movw	r30, r18
    197a:	20 81       	ld	r18, Z
    197c:	20 68       	ori	r18, 0x80	; 128
    197e:	fc 01       	movw	r30, r24
    1980:	20 83       	st	Z, r18
    1982:	df 91       	pop	r29
    1984:	cf 91       	pop	r28
    1986:	08 95       	ret

00001988 <demux_pin_config>:
    1988:	cf 93       	push	r28
    198a:	df 93       	push	r29
    198c:	cd b7       	in	r28, 0x3d	; 61
    198e:	de b7       	in	r29, 0x3e	; 62
    1990:	81 e0       	ldi	r24, 0x01	; 1
    1992:	91 e0       	ldi	r25, 0x01	; 1
    1994:	fc 01       	movw	r30, r24
    1996:	80 81       	ld	r24, Z
    1998:	81 e0       	ldi	r24, 0x01	; 1
    199a:	91 e0       	ldi	r25, 0x01	; 1
    199c:	2f ef       	ldi	r18, 0xFF	; 255
    199e:	fc 01       	movw	r30, r24
    19a0:	20 83       	st	Z, r18
    19a2:	82 e0       	ldi	r24, 0x02	; 2
    19a4:	91 e0       	ldi	r25, 0x01	; 1
    19a6:	22 e0       	ldi	r18, 0x02	; 2
    19a8:	31 e0       	ldi	r19, 0x01	; 1
    19aa:	f9 01       	movw	r30, r18
    19ac:	20 81       	ld	r18, Z
    19ae:	2e 7f       	andi	r18, 0xFE	; 254
    19b0:	fc 01       	movw	r30, r24
    19b2:	20 83       	st	Z, r18
    19b4:	df 91       	pop	r29
    19b6:	cf 91       	pop	r28
    19b8:	08 95       	ret

000019ba <adc_pin_config>:
    19ba:	cf 93       	push	r28
    19bc:	df 93       	push	r29
    19be:	cd b7       	in	r28, 0x3d	; 61
    19c0:	de b7       	in	r29, 0x3e	; 62
    19c2:	80 e3       	ldi	r24, 0x30	; 48
    19c4:	90 e0       	ldi	r25, 0x00	; 0
    19c6:	fc 01       	movw	r30, r24
    19c8:	10 82       	st	Z, r1
    19ca:	81 e3       	ldi	r24, 0x31	; 49
    19cc:	90 e0       	ldi	r25, 0x00	; 0
    19ce:	fc 01       	movw	r30, r24
    19d0:	10 82       	st	Z, r1
    19d2:	87 e0       	ldi	r24, 0x07	; 7
    19d4:	91 e0       	ldi	r25, 0x01	; 1
    19d6:	fc 01       	movw	r30, r24
    19d8:	10 82       	st	Z, r1
    19da:	88 e0       	ldi	r24, 0x08	; 8
    19dc:	91 e0       	ldi	r25, 0x01	; 1
    19de:	fc 01       	movw	r30, r24
    19e0:	10 82       	st	Z, r1
    19e2:	df 91       	pop	r29
    19e4:	cf 91       	pop	r28
    19e6:	08 95       	ret

000019e8 <port_init>:
    19e8:	cf 93       	push	r28
    19ea:	df 93       	push	r29
    19ec:	cd b7       	in	r28, 0x3d	; 61
    19ee:	de b7       	in	r29, 0x3e	; 62
    19f0:	d4 de       	rcall	.-600    	; 0x179a <buzzer_pin_config>
    19f2:	ec de       	rcall	.-552    	; 0x17cc <motion_pin_config>
    19f4:	16 df       	rcall	.-468    	; 0x1822 <left_encoder_pin_config>
    19f6:	2e df       	rcall	.-420    	; 0x1854 <right_encoder_pin_config>
    19f8:	46 df       	rcall	.-372    	; 0x1886 <left_position_encoder_interrupt_config>
    19fa:	60 df       	rcall	.-320    	; 0x18bc <right_position_encoder_interrupt_config>
    19fc:	7a df       	rcall	.-268    	; 0x18f2 <servo1_pin_config>
    19fe:	92 df       	rcall	.-220    	; 0x1924 <servo2_pin_config>
    1a00:	aa df       	rcall	.-172    	; 0x1956 <servo3_pin_config>
    1a02:	c2 df       	rcall	.-124    	; 0x1988 <demux_pin_config>
    1a04:	0e 94 94 00 	call	0x128	; 0x128 <lcd_port_config>
    1a08:	d8 df       	rcall	.-80     	; 0x19ba <adc_pin_config>
    1a0a:	df 91       	pop	r29
    1a0c:	cf 91       	pop	r28
    1a0e:	08 95       	ret

00001a10 <__vector_6>:
    1a10:	1f 92       	push	r1
    1a12:	0f 92       	push	r0
    1a14:	00 90 5f 00 	lds	r0, 0x005F
    1a18:	0f 92       	push	r0
    1a1a:	11 24       	eor	r1, r1
    1a1c:	8f 93       	push	r24
    1a1e:	9f 93       	push	r25
    1a20:	af 93       	push	r26
    1a22:	bf 93       	push	r27
    1a24:	cf 93       	push	r28
    1a26:	df 93       	push	r29
    1a28:	cd b7       	in	r28, 0x3d	; 61
    1a2a:	de b7       	in	r29, 0x3e	; 62
    1a2c:	80 91 60 02 	lds	r24, 0x0260
    1a30:	90 91 61 02 	lds	r25, 0x0261
    1a34:	a0 91 62 02 	lds	r26, 0x0262
    1a38:	b0 91 63 02 	lds	r27, 0x0263
    1a3c:	01 96       	adiw	r24, 0x01	; 1
    1a3e:	a1 1d       	adc	r26, r1
    1a40:	b1 1d       	adc	r27, r1
    1a42:	80 93 60 02 	sts	0x0260, r24
    1a46:	90 93 61 02 	sts	0x0261, r25
    1a4a:	a0 93 62 02 	sts	0x0262, r26
    1a4e:	b0 93 63 02 	sts	0x0263, r27
    1a52:	df 91       	pop	r29
    1a54:	cf 91       	pop	r28
    1a56:	bf 91       	pop	r27
    1a58:	af 91       	pop	r26
    1a5a:	9f 91       	pop	r25
    1a5c:	8f 91       	pop	r24
    1a5e:	0f 90       	pop	r0
    1a60:	00 92 5f 00 	sts	0x005F, r0
    1a64:	0f 90       	pop	r0
    1a66:	1f 90       	pop	r1
    1a68:	18 95       	reti

00001a6a <__vector_5>:
    1a6a:	1f 92       	push	r1
    1a6c:	0f 92       	push	r0
    1a6e:	00 90 5f 00 	lds	r0, 0x005F
    1a72:	0f 92       	push	r0
    1a74:	11 24       	eor	r1, r1
    1a76:	8f 93       	push	r24
    1a78:	9f 93       	push	r25
    1a7a:	af 93       	push	r26
    1a7c:	bf 93       	push	r27
    1a7e:	cf 93       	push	r28
    1a80:	df 93       	push	r29
    1a82:	cd b7       	in	r28, 0x3d	; 61
    1a84:	de b7       	in	r29, 0x3e	; 62
    1a86:	80 91 5c 02 	lds	r24, 0x025C
    1a8a:	90 91 5d 02 	lds	r25, 0x025D
    1a8e:	a0 91 5e 02 	lds	r26, 0x025E
    1a92:	b0 91 5f 02 	lds	r27, 0x025F
    1a96:	01 96       	adiw	r24, 0x01	; 1
    1a98:	a1 1d       	adc	r26, r1
    1a9a:	b1 1d       	adc	r27, r1
    1a9c:	80 93 5c 02 	sts	0x025C, r24
    1aa0:	90 93 5d 02 	sts	0x025D, r25
    1aa4:	a0 93 5e 02 	sts	0x025E, r26
    1aa8:	b0 93 5f 02 	sts	0x025F, r27
    1aac:	df 91       	pop	r29
    1aae:	cf 91       	pop	r28
    1ab0:	bf 91       	pop	r27
    1ab2:	af 91       	pop	r26
    1ab4:	9f 91       	pop	r25
    1ab6:	8f 91       	pop	r24
    1ab8:	0f 90       	pop	r0
    1aba:	00 92 5f 00 	sts	0x005F, r0
    1abe:	0f 90       	pop	r0
    1ac0:	1f 90       	pop	r1
    1ac2:	18 95       	reti

00001ac4 <motion_set>:
    1ac4:	cf 93       	push	r28
    1ac6:	df 93       	push	r29
    1ac8:	1f 92       	push	r1
    1aca:	1f 92       	push	r1
    1acc:	cd b7       	in	r28, 0x3d	; 61
    1ace:	de b7       	in	r29, 0x3e	; 62
    1ad0:	8a 83       	std	Y+2, r24	; 0x02
    1ad2:	19 82       	std	Y+1, r1	; 0x01
    1ad4:	8a 81       	ldd	r24, Y+2	; 0x02
    1ad6:	8f 70       	andi	r24, 0x0F	; 15
    1ad8:	8a 83       	std	Y+2, r24	; 0x02
    1ada:	82 e2       	ldi	r24, 0x22	; 34
    1adc:	90 e0       	ldi	r25, 0x00	; 0
    1ade:	fc 01       	movw	r30, r24
    1ae0:	80 81       	ld	r24, Z
    1ae2:	89 83       	std	Y+1, r24	; 0x01
    1ae4:	89 81       	ldd	r24, Y+1	; 0x01
    1ae6:	80 7f       	andi	r24, 0xF0	; 240
    1ae8:	89 83       	std	Y+1, r24	; 0x01
    1aea:	99 81       	ldd	r25, Y+1	; 0x01
    1aec:	8a 81       	ldd	r24, Y+2	; 0x02
    1aee:	89 2b       	or	r24, r25
    1af0:	89 83       	std	Y+1, r24	; 0x01
    1af2:	82 e2       	ldi	r24, 0x22	; 34
    1af4:	90 e0       	ldi	r25, 0x00	; 0
    1af6:	29 81       	ldd	r18, Y+1	; 0x01
    1af8:	fc 01       	movw	r30, r24
    1afa:	20 83       	st	Z, r18
    1afc:	0f 90       	pop	r0
    1afe:	0f 90       	pop	r0
    1b00:	df 91       	pop	r29
    1b02:	cf 91       	pop	r28
    1b04:	08 95       	ret

00001b06 <back>:
    1b06:	cf 93       	push	r28
    1b08:	df 93       	push	r29
    1b0a:	cd b7       	in	r28, 0x3d	; 61
    1b0c:	de b7       	in	r29, 0x3e	; 62
    1b0e:	86 e0       	ldi	r24, 0x06	; 6
    1b10:	d9 df       	rcall	.-78     	; 0x1ac4 <motion_set>
    1b12:	df 91       	pop	r29
    1b14:	cf 91       	pop	r28
    1b16:	08 95       	ret

00001b18 <forward>:
    1b18:	cf 93       	push	r28
    1b1a:	df 93       	push	r29
    1b1c:	cd b7       	in	r28, 0x3d	; 61
    1b1e:	de b7       	in	r29, 0x3e	; 62
    1b20:	89 e0       	ldi	r24, 0x09	; 9
    1b22:	d0 df       	rcall	.-96     	; 0x1ac4 <motion_set>
    1b24:	df 91       	pop	r29
    1b26:	cf 91       	pop	r28
    1b28:	08 95       	ret

00001b2a <right>:
    1b2a:	cf 93       	push	r28
    1b2c:	df 93       	push	r29
    1b2e:	cd b7       	in	r28, 0x3d	; 61
    1b30:	de b7       	in	r29, 0x3e	; 62
    1b32:	85 e0       	ldi	r24, 0x05	; 5
    1b34:	c7 df       	rcall	.-114    	; 0x1ac4 <motion_set>
    1b36:	df 91       	pop	r29
    1b38:	cf 91       	pop	r28
    1b3a:	08 95       	ret

00001b3c <left>:
    1b3c:	cf 93       	push	r28
    1b3e:	df 93       	push	r29
    1b40:	cd b7       	in	r28, 0x3d	; 61
    1b42:	de b7       	in	r29, 0x3e	; 62
    1b44:	8a e0       	ldi	r24, 0x0A	; 10
    1b46:	be df       	rcall	.-132    	; 0x1ac4 <motion_set>
    1b48:	df 91       	pop	r29
    1b4a:	cf 91       	pop	r28
    1b4c:	08 95       	ret

00001b4e <soft_right>:
    1b4e:	cf 93       	push	r28
    1b50:	df 93       	push	r29
    1b52:	cd b7       	in	r28, 0x3d	; 61
    1b54:	de b7       	in	r29, 0x3e	; 62
    1b56:	84 e0       	ldi	r24, 0x04	; 4
    1b58:	b5 df       	rcall	.-150    	; 0x1ac4 <motion_set>
    1b5a:	df 91       	pop	r29
    1b5c:	cf 91       	pop	r28
    1b5e:	08 95       	ret

00001b60 <soft_left>:
    1b60:	cf 93       	push	r28
    1b62:	df 93       	push	r29
    1b64:	cd b7       	in	r28, 0x3d	; 61
    1b66:	de b7       	in	r29, 0x3e	; 62
    1b68:	82 e0       	ldi	r24, 0x02	; 2
    1b6a:	ac df       	rcall	.-168    	; 0x1ac4 <motion_set>
    1b6c:	df 91       	pop	r29
    1b6e:	cf 91       	pop	r28
    1b70:	08 95       	ret

00001b72 <stop>:
    1b72:	cf 93       	push	r28
    1b74:	df 93       	push	r29
    1b76:	cd b7       	in	r28, 0x3d	; 61
    1b78:	de b7       	in	r29, 0x3e	; 62
    1b7a:	80 e0       	ldi	r24, 0x00	; 0
    1b7c:	a3 df       	rcall	.-186    	; 0x1ac4 <motion_set>
    1b7e:	df 91       	pop	r29
    1b80:	cf 91       	pop	r28
    1b82:	08 95       	ret

00001b84 <velocity>:
    1b84:	cf 93       	push	r28
    1b86:	df 93       	push	r29
    1b88:	1f 92       	push	r1
    1b8a:	1f 92       	push	r1
    1b8c:	cd b7       	in	r28, 0x3d	; 61
    1b8e:	de b7       	in	r29, 0x3e	; 62
    1b90:	89 83       	std	Y+1, r24	; 0x01
    1b92:	6a 83       	std	Y+2, r22	; 0x02
    1b94:	88 e2       	ldi	r24, 0x28	; 40
    1b96:	91 e0       	ldi	r25, 0x01	; 1
    1b98:	29 81       	ldd	r18, Y+1	; 0x01
    1b9a:	fc 01       	movw	r30, r24
    1b9c:	20 83       	st	Z, r18
    1b9e:	8a e2       	ldi	r24, 0x2A	; 42
    1ba0:	91 e0       	ldi	r25, 0x01	; 1
    1ba2:	2a 81       	ldd	r18, Y+2	; 0x02
    1ba4:	fc 01       	movw	r30, r24
    1ba6:	20 83       	st	Z, r18
    1ba8:	0f 90       	pop	r0
    1baa:	0f 90       	pop	r0
    1bac:	df 91       	pop	r29
    1bae:	cf 91       	pop	r28
    1bb0:	08 95       	ret

00001bb2 <servo_1>:
    1bb2:	0f 93       	push	r16
    1bb4:	1f 93       	push	r17
    1bb6:	cf 93       	push	r28
    1bb8:	df 93       	push	r29
    1bba:	00 d0       	rcall	.+0      	; 0x1bbc <servo_1+0xa>
    1bbc:	1f 92       	push	r1
    1bbe:	1f 92       	push	r1
    1bc0:	cd b7       	in	r28, 0x3d	; 61
    1bc2:	de b7       	in	r29, 0x3e	; 62
    1bc4:	8d 83       	std	Y+5, r24	; 0x05
    1bc6:	19 82       	std	Y+1, r1	; 0x01
    1bc8:	1a 82       	std	Y+2, r1	; 0x02
    1bca:	1b 82       	std	Y+3, r1	; 0x03
    1bcc:	1c 82       	std	Y+4, r1	; 0x04
    1bce:	8d 81       	ldd	r24, Y+5	; 0x05
    1bd0:	88 2f       	mov	r24, r24
    1bd2:	90 e0       	ldi	r25, 0x00	; 0
    1bd4:	a0 e0       	ldi	r26, 0x00	; 0
    1bd6:	b0 e0       	ldi	r27, 0x00	; 0
    1bd8:	bc 01       	movw	r22, r24
    1bda:	cd 01       	movw	r24, r26
    1bdc:	0e 94 18 2c 	call	0x5830	; 0x5830 <__floatunsisf>
    1be0:	dc 01       	movw	r26, r24
    1be2:	cb 01       	movw	r24, r22
    1be4:	2b e7       	ldi	r18, 0x7B	; 123
    1be6:	34 e1       	ldi	r19, 0x14	; 20
    1be8:	4e ee       	ldi	r20, 0xEE	; 238
    1bea:	5f e3       	ldi	r21, 0x3F	; 63
    1bec:	bc 01       	movw	r22, r24
    1bee:	cd 01       	movw	r24, r26
    1bf0:	0e 94 84 2b 	call	0x5708	; 0x5708 <__divsf3>
    1bf4:	dc 01       	movw	r26, r24
    1bf6:	cb 01       	movw	r24, r22
    1bf8:	20 e0       	ldi	r18, 0x00	; 0
    1bfa:	30 e0       	ldi	r19, 0x00	; 0
    1bfc:	4c e0       	ldi	r20, 0x0C	; 12
    1bfe:	52 e4       	ldi	r21, 0x42	; 66
    1c00:	bc 01       	movw	r22, r24
    1c02:	cd 01       	movw	r24, r26
    1c04:	0e 94 1c 2b 	call	0x5638	; 0x5638 <__addsf3>
    1c08:	dc 01       	movw	r26, r24
    1c0a:	cb 01       	movw	r24, r22
    1c0c:	89 83       	std	Y+1, r24	; 0x01
    1c0e:	9a 83       	std	Y+2, r25	; 0x02
    1c10:	ab 83       	std	Y+3, r26	; 0x03
    1c12:	bc 83       	std	Y+4, r27	; 0x04
    1c14:	89 e8       	ldi	r24, 0x89	; 137
    1c16:	90 e0       	ldi	r25, 0x00	; 0
    1c18:	fc 01       	movw	r30, r24
    1c1a:	10 82       	st	Z, r1
    1c1c:	08 e8       	ldi	r16, 0x88	; 136
    1c1e:	10 e0       	ldi	r17, 0x00	; 0
    1c20:	69 81       	ldd	r22, Y+1	; 0x01
    1c22:	7a 81       	ldd	r23, Y+2	; 0x02
    1c24:	8b 81       	ldd	r24, Y+3	; 0x03
    1c26:	9c 81       	ldd	r25, Y+4	; 0x04
    1c28:	0e 94 ec 2b 	call	0x57d8	; 0x57d8 <__fixunssfsi>
    1c2c:	dc 01       	movw	r26, r24
    1c2e:	cb 01       	movw	r24, r22
    1c30:	f8 01       	movw	r30, r16
    1c32:	80 83       	st	Z, r24
    1c34:	0f 90       	pop	r0
    1c36:	0f 90       	pop	r0
    1c38:	0f 90       	pop	r0
    1c3a:	0f 90       	pop	r0
    1c3c:	0f 90       	pop	r0
    1c3e:	df 91       	pop	r29
    1c40:	cf 91       	pop	r28
    1c42:	1f 91       	pop	r17
    1c44:	0f 91       	pop	r16
    1c46:	08 95       	ret

00001c48 <servo_2>:
    1c48:	0f 93       	push	r16
    1c4a:	1f 93       	push	r17
    1c4c:	cf 93       	push	r28
    1c4e:	df 93       	push	r29
    1c50:	00 d0       	rcall	.+0      	; 0x1c52 <servo_2+0xa>
    1c52:	1f 92       	push	r1
    1c54:	1f 92       	push	r1
    1c56:	cd b7       	in	r28, 0x3d	; 61
    1c58:	de b7       	in	r29, 0x3e	; 62
    1c5a:	8d 83       	std	Y+5, r24	; 0x05
    1c5c:	19 82       	std	Y+1, r1	; 0x01
    1c5e:	1a 82       	std	Y+2, r1	; 0x02
    1c60:	1b 82       	std	Y+3, r1	; 0x03
    1c62:	1c 82       	std	Y+4, r1	; 0x04
    1c64:	8d 81       	ldd	r24, Y+5	; 0x05
    1c66:	88 2f       	mov	r24, r24
    1c68:	90 e0       	ldi	r25, 0x00	; 0
    1c6a:	a0 e0       	ldi	r26, 0x00	; 0
    1c6c:	b0 e0       	ldi	r27, 0x00	; 0
    1c6e:	bc 01       	movw	r22, r24
    1c70:	cd 01       	movw	r24, r26
    1c72:	0e 94 18 2c 	call	0x5830	; 0x5830 <__floatunsisf>
    1c76:	dc 01       	movw	r26, r24
    1c78:	cb 01       	movw	r24, r22
    1c7a:	2b e7       	ldi	r18, 0x7B	; 123
    1c7c:	34 e1       	ldi	r19, 0x14	; 20
    1c7e:	4e ee       	ldi	r20, 0xEE	; 238
    1c80:	5f e3       	ldi	r21, 0x3F	; 63
    1c82:	bc 01       	movw	r22, r24
    1c84:	cd 01       	movw	r24, r26
    1c86:	0e 94 84 2b 	call	0x5708	; 0x5708 <__divsf3>
    1c8a:	dc 01       	movw	r26, r24
    1c8c:	cb 01       	movw	r24, r22
    1c8e:	20 e0       	ldi	r18, 0x00	; 0
    1c90:	30 e0       	ldi	r19, 0x00	; 0
    1c92:	4c e0       	ldi	r20, 0x0C	; 12
    1c94:	52 e4       	ldi	r21, 0x42	; 66
    1c96:	bc 01       	movw	r22, r24
    1c98:	cd 01       	movw	r24, r26
    1c9a:	0e 94 1c 2b 	call	0x5638	; 0x5638 <__addsf3>
    1c9e:	dc 01       	movw	r26, r24
    1ca0:	cb 01       	movw	r24, r22
    1ca2:	89 83       	std	Y+1, r24	; 0x01
    1ca4:	9a 83       	std	Y+2, r25	; 0x02
    1ca6:	ab 83       	std	Y+3, r26	; 0x03
    1ca8:	bc 83       	std	Y+4, r27	; 0x04
    1caa:	8b e8       	ldi	r24, 0x8B	; 139
    1cac:	90 e0       	ldi	r25, 0x00	; 0
    1cae:	fc 01       	movw	r30, r24
    1cb0:	10 82       	st	Z, r1
    1cb2:	0a e8       	ldi	r16, 0x8A	; 138
    1cb4:	10 e0       	ldi	r17, 0x00	; 0
    1cb6:	69 81       	ldd	r22, Y+1	; 0x01
    1cb8:	7a 81       	ldd	r23, Y+2	; 0x02
    1cba:	8b 81       	ldd	r24, Y+3	; 0x03
    1cbc:	9c 81       	ldd	r25, Y+4	; 0x04
    1cbe:	0e 94 ec 2b 	call	0x57d8	; 0x57d8 <__fixunssfsi>
    1cc2:	dc 01       	movw	r26, r24
    1cc4:	cb 01       	movw	r24, r22
    1cc6:	f8 01       	movw	r30, r16
    1cc8:	80 83       	st	Z, r24
    1cca:	0f 90       	pop	r0
    1ccc:	0f 90       	pop	r0
    1cce:	0f 90       	pop	r0
    1cd0:	0f 90       	pop	r0
    1cd2:	0f 90       	pop	r0
    1cd4:	df 91       	pop	r29
    1cd6:	cf 91       	pop	r28
    1cd8:	1f 91       	pop	r17
    1cda:	0f 91       	pop	r16
    1cdc:	08 95       	ret

00001cde <servo_3>:
    1cde:	0f 93       	push	r16
    1ce0:	1f 93       	push	r17
    1ce2:	cf 93       	push	r28
    1ce4:	df 93       	push	r29
    1ce6:	cd b7       	in	r28, 0x3d	; 61
    1ce8:	de b7       	in	r29, 0x3e	; 62
    1cea:	63 97       	sbiw	r28, 0x13	; 19
    1cec:	0f b6       	in	r0, 0x3f	; 63
    1cee:	f8 94       	cli
    1cf0:	de bf       	out	0x3e, r29	; 62
    1cf2:	0f be       	out	0x3f, r0	; 63
    1cf4:	cd bf       	out	0x3d, r28	; 61
    1cf6:	8b 8b       	std	Y+19, r24	; 0x13
    1cf8:	82 e0       	ldi	r24, 0x02	; 2
    1cfa:	91 e0       	ldi	r25, 0x01	; 1
    1cfc:	22 e0       	ldi	r18, 0x02	; 2
    1cfe:	31 e0       	ldi	r19, 0x01	; 1
    1d00:	f9 01       	movw	r30, r18
    1d02:	20 81       	ld	r18, Z
    1d04:	21 60       	ori	r18, 0x01	; 1
    1d06:	fc 01       	movw	r30, r24
    1d08:	20 83       	st	Z, r18
    1d0a:	80 e0       	ldi	r24, 0x00	; 0
    1d0c:	90 e0       	ldi	r25, 0x00	; 0
    1d0e:	a0 ea       	ldi	r26, 0xA0	; 160
    1d10:	b1 e4       	ldi	r27, 0x41	; 65
    1d12:	8d 83       	std	Y+5, r24	; 0x05
    1d14:	9e 83       	std	Y+6, r25	; 0x06
    1d16:	af 83       	std	Y+7, r26	; 0x07
    1d18:	b8 87       	std	Y+8, r27	; 0x08
    1d1a:	26 e6       	ldi	r18, 0x66	; 102
    1d1c:	36 e6       	ldi	r19, 0x66	; 102
    1d1e:	46 e6       	ldi	r20, 0x66	; 102
    1d20:	55 e4       	ldi	r21, 0x45	; 69
    1d22:	6d 81       	ldd	r22, Y+5	; 0x05
    1d24:	7e 81       	ldd	r23, Y+6	; 0x06
    1d26:	8f 81       	ldd	r24, Y+7	; 0x07
    1d28:	98 85       	ldd	r25, Y+8	; 0x08
    1d2a:	0e 94 ce 2c 	call	0x599c	; 0x599c <__mulsf3>
    1d2e:	dc 01       	movw	r26, r24
    1d30:	cb 01       	movw	r24, r22
    1d32:	89 87       	std	Y+9, r24	; 0x09
    1d34:	9a 87       	std	Y+10, r25	; 0x0a
    1d36:	ab 87       	std	Y+11, r26	; 0x0b
    1d38:	bc 87       	std	Y+12, r27	; 0x0c
    1d3a:	20 e0       	ldi	r18, 0x00	; 0
    1d3c:	30 e0       	ldi	r19, 0x00	; 0
    1d3e:	40 e8       	ldi	r20, 0x80	; 128
    1d40:	5f e3       	ldi	r21, 0x3F	; 63
    1d42:	69 85       	ldd	r22, Y+9	; 0x09
    1d44:	7a 85       	ldd	r23, Y+10	; 0x0a
    1d46:	8b 85       	ldd	r24, Y+11	; 0x0b
    1d48:	9c 85       	ldd	r25, Y+12	; 0x0c
    1d4a:	0e 94 80 2b 	call	0x5700	; 0x5700 <__cmpsf2>
    1d4e:	88 23       	and	r24, r24
    1d50:	2c f4       	brge	.+10     	; 0x1d5c <servo_3+0x7e>
    1d52:	81 e0       	ldi	r24, 0x01	; 1
    1d54:	90 e0       	ldi	r25, 0x00	; 0
    1d56:	9e 87       	std	Y+14, r25	; 0x0e
    1d58:	8d 87       	std	Y+13, r24	; 0x0d
    1d5a:	3f c0       	rjmp	.+126    	; 0x1dda <servo_3+0xfc>
    1d5c:	20 e0       	ldi	r18, 0x00	; 0
    1d5e:	3f ef       	ldi	r19, 0xFF	; 255
    1d60:	4f e7       	ldi	r20, 0x7F	; 127
    1d62:	57 e4       	ldi	r21, 0x47	; 71
    1d64:	69 85       	ldd	r22, Y+9	; 0x09
    1d66:	7a 85       	ldd	r23, Y+10	; 0x0a
    1d68:	8b 85       	ldd	r24, Y+11	; 0x0b
    1d6a:	9c 85       	ldd	r25, Y+12	; 0x0c
    1d6c:	0e 94 ca 2c 	call	0x5994	; 0x5994 <__gesf2>
    1d70:	18 16       	cp	r1, r24
    1d72:	4c f5       	brge	.+82     	; 0x1dc6 <servo_3+0xe8>
    1d74:	20 e0       	ldi	r18, 0x00	; 0
    1d76:	30 e0       	ldi	r19, 0x00	; 0
    1d78:	40 e2       	ldi	r20, 0x20	; 32
    1d7a:	51 e4       	ldi	r21, 0x41	; 65
    1d7c:	6d 81       	ldd	r22, Y+5	; 0x05
    1d7e:	7e 81       	ldd	r23, Y+6	; 0x06
    1d80:	8f 81       	ldd	r24, Y+7	; 0x07
    1d82:	98 85       	ldd	r25, Y+8	; 0x08
    1d84:	0e 94 ce 2c 	call	0x599c	; 0x599c <__mulsf3>
    1d88:	dc 01       	movw	r26, r24
    1d8a:	cb 01       	movw	r24, r22
    1d8c:	bc 01       	movw	r22, r24
    1d8e:	cd 01       	movw	r24, r26
    1d90:	0e 94 ec 2b 	call	0x57d8	; 0x57d8 <__fixunssfsi>
    1d94:	dc 01       	movw	r26, r24
    1d96:	cb 01       	movw	r24, r22
    1d98:	9e 87       	std	Y+14, r25	; 0x0e
    1d9a:	8d 87       	std	Y+13, r24	; 0x0d
    1d9c:	0f c0       	rjmp	.+30     	; 0x1dbc <servo_3+0xde>
    1d9e:	80 e7       	ldi	r24, 0x70	; 112
    1da0:	91 e0       	ldi	r25, 0x01	; 1
    1da2:	98 8b       	std	Y+16, r25	; 0x10
    1da4:	8f 87       	std	Y+15, r24	; 0x0f
    1da6:	8f 85       	ldd	r24, Y+15	; 0x0f
    1da8:	98 89       	ldd	r25, Y+16	; 0x10
    1daa:	01 97       	sbiw	r24, 0x01	; 1
    1dac:	f1 f7       	brne	.-4      	; 0x1daa <servo_3+0xcc>
    1dae:	98 8b       	std	Y+16, r25	; 0x10
    1db0:	8f 87       	std	Y+15, r24	; 0x0f
    1db2:	8d 85       	ldd	r24, Y+13	; 0x0d
    1db4:	9e 85       	ldd	r25, Y+14	; 0x0e
    1db6:	01 97       	sbiw	r24, 0x01	; 1
    1db8:	9e 87       	std	Y+14, r25	; 0x0e
    1dba:	8d 87       	std	Y+13, r24	; 0x0d
    1dbc:	8d 85       	ldd	r24, Y+13	; 0x0d
    1dbe:	9e 85       	ldd	r25, Y+14	; 0x0e
    1dc0:	00 97       	sbiw	r24, 0x00	; 0
    1dc2:	69 f7       	brne	.-38     	; 0x1d9e <servo_3+0xc0>
    1dc4:	14 c0       	rjmp	.+40     	; 0x1dee <servo_3+0x110>
    1dc6:	69 85       	ldd	r22, Y+9	; 0x09
    1dc8:	7a 85       	ldd	r23, Y+10	; 0x0a
    1dca:	8b 85       	ldd	r24, Y+11	; 0x0b
    1dcc:	9c 85       	ldd	r25, Y+12	; 0x0c
    1dce:	0e 94 ec 2b 	call	0x57d8	; 0x57d8 <__fixunssfsi>
    1dd2:	dc 01       	movw	r26, r24
    1dd4:	cb 01       	movw	r24, r22
    1dd6:	9e 87       	std	Y+14, r25	; 0x0e
    1dd8:	8d 87       	std	Y+13, r24	; 0x0d
    1dda:	8d 85       	ldd	r24, Y+13	; 0x0d
    1ddc:	9e 85       	ldd	r25, Y+14	; 0x0e
    1dde:	9a 8b       	std	Y+18, r25	; 0x12
    1de0:	89 8b       	std	Y+17, r24	; 0x11
    1de2:	89 89       	ldd	r24, Y+17	; 0x11
    1de4:	9a 89       	ldd	r25, Y+18	; 0x12
    1de6:	01 97       	sbiw	r24, 0x01	; 1
    1de8:	f1 f7       	brne	.-4      	; 0x1de6 <servo_3+0x108>
    1dea:	9a 8b       	std	Y+18, r25	; 0x12
    1dec:	89 8b       	std	Y+17, r24	; 0x11
    1dee:	19 82       	std	Y+1, r1	; 0x01
    1df0:	1a 82       	std	Y+2, r1	; 0x02
    1df2:	1b 82       	std	Y+3, r1	; 0x03
    1df4:	1c 82       	std	Y+4, r1	; 0x04
    1df6:	8b 89       	ldd	r24, Y+19	; 0x13
    1df8:	88 2f       	mov	r24, r24
    1dfa:	90 e0       	ldi	r25, 0x00	; 0
    1dfc:	a0 e0       	ldi	r26, 0x00	; 0
    1dfe:	b0 e0       	ldi	r27, 0x00	; 0
    1e00:	bc 01       	movw	r22, r24
    1e02:	cd 01       	movw	r24, r26
    1e04:	0e 94 18 2c 	call	0x5830	; 0x5830 <__floatunsisf>
    1e08:	dc 01       	movw	r26, r24
    1e0a:	cb 01       	movw	r24, r22
    1e0c:	2b e7       	ldi	r18, 0x7B	; 123
    1e0e:	34 e1       	ldi	r19, 0x14	; 20
    1e10:	4e ee       	ldi	r20, 0xEE	; 238
    1e12:	5f e3       	ldi	r21, 0x3F	; 63
    1e14:	bc 01       	movw	r22, r24
    1e16:	cd 01       	movw	r24, r26
    1e18:	0e 94 84 2b 	call	0x5708	; 0x5708 <__divsf3>
    1e1c:	dc 01       	movw	r26, r24
    1e1e:	cb 01       	movw	r24, r22
    1e20:	20 e0       	ldi	r18, 0x00	; 0
    1e22:	30 e0       	ldi	r19, 0x00	; 0
    1e24:	4c e0       	ldi	r20, 0x0C	; 12
    1e26:	52 e4       	ldi	r21, 0x42	; 66
    1e28:	bc 01       	movw	r22, r24
    1e2a:	cd 01       	movw	r24, r26
    1e2c:	0e 94 1c 2b 	call	0x5638	; 0x5638 <__addsf3>
    1e30:	dc 01       	movw	r26, r24
    1e32:	cb 01       	movw	r24, r22
    1e34:	89 83       	std	Y+1, r24	; 0x01
    1e36:	9a 83       	std	Y+2, r25	; 0x02
    1e38:	ab 83       	std	Y+3, r26	; 0x03
    1e3a:	bc 83       	std	Y+4, r27	; 0x04
    1e3c:	8d e8       	ldi	r24, 0x8D	; 141
    1e3e:	90 e0       	ldi	r25, 0x00	; 0
    1e40:	fc 01       	movw	r30, r24
    1e42:	10 82       	st	Z, r1
    1e44:	0c e8       	ldi	r16, 0x8C	; 140
    1e46:	10 e0       	ldi	r17, 0x00	; 0
    1e48:	69 81       	ldd	r22, Y+1	; 0x01
    1e4a:	7a 81       	ldd	r23, Y+2	; 0x02
    1e4c:	8b 81       	ldd	r24, Y+3	; 0x03
    1e4e:	9c 81       	ldd	r25, Y+4	; 0x04
    1e50:	0e 94 ec 2b 	call	0x57d8	; 0x57d8 <__fixunssfsi>
    1e54:	dc 01       	movw	r26, r24
    1e56:	cb 01       	movw	r24, r22
    1e58:	f8 01       	movw	r30, r16
    1e5a:	80 83       	st	Z, r24
    1e5c:	63 96       	adiw	r28, 0x13	; 19
    1e5e:	0f b6       	in	r0, 0x3f	; 63
    1e60:	f8 94       	cli
    1e62:	de bf       	out	0x3e, r29	; 62
    1e64:	0f be       	out	0x3f, r0	; 63
    1e66:	cd bf       	out	0x3d, r28	; 61
    1e68:	df 91       	pop	r29
    1e6a:	cf 91       	pop	r28
    1e6c:	1f 91       	pop	r17
    1e6e:	0f 91       	pop	r16
    1e70:	08 95       	ret

00001e72 <servo_4>:
    1e72:	0f 93       	push	r16
    1e74:	1f 93       	push	r17
    1e76:	cf 93       	push	r28
    1e78:	df 93       	push	r29
    1e7a:	cd b7       	in	r28, 0x3d	; 61
    1e7c:	de b7       	in	r29, 0x3e	; 62
    1e7e:	63 97       	sbiw	r28, 0x13	; 19
    1e80:	0f b6       	in	r0, 0x3f	; 63
    1e82:	f8 94       	cli
    1e84:	de bf       	out	0x3e, r29	; 62
    1e86:	0f be       	out	0x3f, r0	; 63
    1e88:	cd bf       	out	0x3d, r28	; 61
    1e8a:	8b 8b       	std	Y+19, r24	; 0x13
    1e8c:	82 e0       	ldi	r24, 0x02	; 2
    1e8e:	91 e0       	ldi	r25, 0x01	; 1
    1e90:	22 e0       	ldi	r18, 0x02	; 2
    1e92:	31 e0       	ldi	r19, 0x01	; 1
    1e94:	f9 01       	movw	r30, r18
    1e96:	20 81       	ld	r18, Z
    1e98:	2e 7f       	andi	r18, 0xFE	; 254
    1e9a:	fc 01       	movw	r30, r24
    1e9c:	20 83       	st	Z, r18
    1e9e:	80 e0       	ldi	r24, 0x00	; 0
    1ea0:	90 e0       	ldi	r25, 0x00	; 0
    1ea2:	a0 ea       	ldi	r26, 0xA0	; 160
    1ea4:	b1 e4       	ldi	r27, 0x41	; 65
    1ea6:	8d 83       	std	Y+5, r24	; 0x05
    1ea8:	9e 83       	std	Y+6, r25	; 0x06
    1eaa:	af 83       	std	Y+7, r26	; 0x07
    1eac:	b8 87       	std	Y+8, r27	; 0x08
    1eae:	26 e6       	ldi	r18, 0x66	; 102
    1eb0:	36 e6       	ldi	r19, 0x66	; 102
    1eb2:	46 e6       	ldi	r20, 0x66	; 102
    1eb4:	55 e4       	ldi	r21, 0x45	; 69
    1eb6:	6d 81       	ldd	r22, Y+5	; 0x05
    1eb8:	7e 81       	ldd	r23, Y+6	; 0x06
    1eba:	8f 81       	ldd	r24, Y+7	; 0x07
    1ebc:	98 85       	ldd	r25, Y+8	; 0x08
    1ebe:	0e 94 ce 2c 	call	0x599c	; 0x599c <__mulsf3>
    1ec2:	dc 01       	movw	r26, r24
    1ec4:	cb 01       	movw	r24, r22
    1ec6:	89 87       	std	Y+9, r24	; 0x09
    1ec8:	9a 87       	std	Y+10, r25	; 0x0a
    1eca:	ab 87       	std	Y+11, r26	; 0x0b
    1ecc:	bc 87       	std	Y+12, r27	; 0x0c
    1ece:	20 e0       	ldi	r18, 0x00	; 0
    1ed0:	30 e0       	ldi	r19, 0x00	; 0
    1ed2:	40 e8       	ldi	r20, 0x80	; 128
    1ed4:	5f e3       	ldi	r21, 0x3F	; 63
    1ed6:	69 85       	ldd	r22, Y+9	; 0x09
    1ed8:	7a 85       	ldd	r23, Y+10	; 0x0a
    1eda:	8b 85       	ldd	r24, Y+11	; 0x0b
    1edc:	9c 85       	ldd	r25, Y+12	; 0x0c
    1ede:	0e 94 80 2b 	call	0x5700	; 0x5700 <__cmpsf2>
    1ee2:	88 23       	and	r24, r24
    1ee4:	2c f4       	brge	.+10     	; 0x1ef0 <servo_4+0x7e>
    1ee6:	81 e0       	ldi	r24, 0x01	; 1
    1ee8:	90 e0       	ldi	r25, 0x00	; 0
    1eea:	9e 87       	std	Y+14, r25	; 0x0e
    1eec:	8d 87       	std	Y+13, r24	; 0x0d
    1eee:	3f c0       	rjmp	.+126    	; 0x1f6e <servo_4+0xfc>
    1ef0:	20 e0       	ldi	r18, 0x00	; 0
    1ef2:	3f ef       	ldi	r19, 0xFF	; 255
    1ef4:	4f e7       	ldi	r20, 0x7F	; 127
    1ef6:	57 e4       	ldi	r21, 0x47	; 71
    1ef8:	69 85       	ldd	r22, Y+9	; 0x09
    1efa:	7a 85       	ldd	r23, Y+10	; 0x0a
    1efc:	8b 85       	ldd	r24, Y+11	; 0x0b
    1efe:	9c 85       	ldd	r25, Y+12	; 0x0c
    1f00:	0e 94 ca 2c 	call	0x5994	; 0x5994 <__gesf2>
    1f04:	18 16       	cp	r1, r24
    1f06:	4c f5       	brge	.+82     	; 0x1f5a <servo_4+0xe8>
    1f08:	20 e0       	ldi	r18, 0x00	; 0
    1f0a:	30 e0       	ldi	r19, 0x00	; 0
    1f0c:	40 e2       	ldi	r20, 0x20	; 32
    1f0e:	51 e4       	ldi	r21, 0x41	; 65
    1f10:	6d 81       	ldd	r22, Y+5	; 0x05
    1f12:	7e 81       	ldd	r23, Y+6	; 0x06
    1f14:	8f 81       	ldd	r24, Y+7	; 0x07
    1f16:	98 85       	ldd	r25, Y+8	; 0x08
    1f18:	0e 94 ce 2c 	call	0x599c	; 0x599c <__mulsf3>
    1f1c:	dc 01       	movw	r26, r24
    1f1e:	cb 01       	movw	r24, r22
    1f20:	bc 01       	movw	r22, r24
    1f22:	cd 01       	movw	r24, r26
    1f24:	0e 94 ec 2b 	call	0x57d8	; 0x57d8 <__fixunssfsi>
    1f28:	dc 01       	movw	r26, r24
    1f2a:	cb 01       	movw	r24, r22
    1f2c:	9e 87       	std	Y+14, r25	; 0x0e
    1f2e:	8d 87       	std	Y+13, r24	; 0x0d
    1f30:	0f c0       	rjmp	.+30     	; 0x1f50 <servo_4+0xde>
    1f32:	80 e7       	ldi	r24, 0x70	; 112
    1f34:	91 e0       	ldi	r25, 0x01	; 1
    1f36:	98 8b       	std	Y+16, r25	; 0x10
    1f38:	8f 87       	std	Y+15, r24	; 0x0f
    1f3a:	8f 85       	ldd	r24, Y+15	; 0x0f
    1f3c:	98 89       	ldd	r25, Y+16	; 0x10
    1f3e:	01 97       	sbiw	r24, 0x01	; 1
    1f40:	f1 f7       	brne	.-4      	; 0x1f3e <servo_4+0xcc>
    1f42:	98 8b       	std	Y+16, r25	; 0x10
    1f44:	8f 87       	std	Y+15, r24	; 0x0f
    1f46:	8d 85       	ldd	r24, Y+13	; 0x0d
    1f48:	9e 85       	ldd	r25, Y+14	; 0x0e
    1f4a:	01 97       	sbiw	r24, 0x01	; 1
    1f4c:	9e 87       	std	Y+14, r25	; 0x0e
    1f4e:	8d 87       	std	Y+13, r24	; 0x0d
    1f50:	8d 85       	ldd	r24, Y+13	; 0x0d
    1f52:	9e 85       	ldd	r25, Y+14	; 0x0e
    1f54:	00 97       	sbiw	r24, 0x00	; 0
    1f56:	69 f7       	brne	.-38     	; 0x1f32 <servo_4+0xc0>
    1f58:	14 c0       	rjmp	.+40     	; 0x1f82 <servo_4+0x110>
    1f5a:	69 85       	ldd	r22, Y+9	; 0x09
    1f5c:	7a 85       	ldd	r23, Y+10	; 0x0a
    1f5e:	8b 85       	ldd	r24, Y+11	; 0x0b
    1f60:	9c 85       	ldd	r25, Y+12	; 0x0c
    1f62:	0e 94 ec 2b 	call	0x57d8	; 0x57d8 <__fixunssfsi>
    1f66:	dc 01       	movw	r26, r24
    1f68:	cb 01       	movw	r24, r22
    1f6a:	9e 87       	std	Y+14, r25	; 0x0e
    1f6c:	8d 87       	std	Y+13, r24	; 0x0d
    1f6e:	8d 85       	ldd	r24, Y+13	; 0x0d
    1f70:	9e 85       	ldd	r25, Y+14	; 0x0e
    1f72:	9a 8b       	std	Y+18, r25	; 0x12
    1f74:	89 8b       	std	Y+17, r24	; 0x11
    1f76:	89 89       	ldd	r24, Y+17	; 0x11
    1f78:	9a 89       	ldd	r25, Y+18	; 0x12
    1f7a:	01 97       	sbiw	r24, 0x01	; 1
    1f7c:	f1 f7       	brne	.-4      	; 0x1f7a <servo_4+0x108>
    1f7e:	9a 8b       	std	Y+18, r25	; 0x12
    1f80:	89 8b       	std	Y+17, r24	; 0x11
    1f82:	19 82       	std	Y+1, r1	; 0x01
    1f84:	1a 82       	std	Y+2, r1	; 0x02
    1f86:	1b 82       	std	Y+3, r1	; 0x03
    1f88:	1c 82       	std	Y+4, r1	; 0x04
    1f8a:	8b 89       	ldd	r24, Y+19	; 0x13
    1f8c:	88 2f       	mov	r24, r24
    1f8e:	90 e0       	ldi	r25, 0x00	; 0
    1f90:	a0 e0       	ldi	r26, 0x00	; 0
    1f92:	b0 e0       	ldi	r27, 0x00	; 0
    1f94:	bc 01       	movw	r22, r24
    1f96:	cd 01       	movw	r24, r26
    1f98:	0e 94 18 2c 	call	0x5830	; 0x5830 <__floatunsisf>
    1f9c:	dc 01       	movw	r26, r24
    1f9e:	cb 01       	movw	r24, r22
    1fa0:	2b e7       	ldi	r18, 0x7B	; 123
    1fa2:	34 e1       	ldi	r19, 0x14	; 20
    1fa4:	4e ee       	ldi	r20, 0xEE	; 238
    1fa6:	5f e3       	ldi	r21, 0x3F	; 63
    1fa8:	bc 01       	movw	r22, r24
    1faa:	cd 01       	movw	r24, r26
    1fac:	0e 94 84 2b 	call	0x5708	; 0x5708 <__divsf3>
    1fb0:	dc 01       	movw	r26, r24
    1fb2:	cb 01       	movw	r24, r22
    1fb4:	20 e0       	ldi	r18, 0x00	; 0
    1fb6:	30 e0       	ldi	r19, 0x00	; 0
    1fb8:	4c e0       	ldi	r20, 0x0C	; 12
    1fba:	52 e4       	ldi	r21, 0x42	; 66
    1fbc:	bc 01       	movw	r22, r24
    1fbe:	cd 01       	movw	r24, r26
    1fc0:	0e 94 1c 2b 	call	0x5638	; 0x5638 <__addsf3>
    1fc4:	dc 01       	movw	r26, r24
    1fc6:	cb 01       	movw	r24, r22
    1fc8:	89 83       	std	Y+1, r24	; 0x01
    1fca:	9a 83       	std	Y+2, r25	; 0x02
    1fcc:	ab 83       	std	Y+3, r26	; 0x03
    1fce:	bc 83       	std	Y+4, r27	; 0x04
    1fd0:	8d e8       	ldi	r24, 0x8D	; 141
    1fd2:	90 e0       	ldi	r25, 0x00	; 0
    1fd4:	fc 01       	movw	r30, r24
    1fd6:	10 82       	st	Z, r1
    1fd8:	0c e8       	ldi	r16, 0x8C	; 140
    1fda:	10 e0       	ldi	r17, 0x00	; 0
    1fdc:	69 81       	ldd	r22, Y+1	; 0x01
    1fde:	7a 81       	ldd	r23, Y+2	; 0x02
    1fe0:	8b 81       	ldd	r24, Y+3	; 0x03
    1fe2:	9c 81       	ldd	r25, Y+4	; 0x04
    1fe4:	0e 94 ec 2b 	call	0x57d8	; 0x57d8 <__fixunssfsi>
    1fe8:	dc 01       	movw	r26, r24
    1fea:	cb 01       	movw	r24, r22
    1fec:	f8 01       	movw	r30, r16
    1fee:	80 83       	st	Z, r24
    1ff0:	63 96       	adiw	r28, 0x13	; 19
    1ff2:	0f b6       	in	r0, 0x3f	; 63
    1ff4:	f8 94       	cli
    1ff6:	de bf       	out	0x3e, r29	; 62
    1ff8:	0f be       	out	0x3f, r0	; 63
    1ffa:	cd bf       	out	0x3d, r28	; 61
    1ffc:	df 91       	pop	r29
    1ffe:	cf 91       	pop	r28
    2000:	1f 91       	pop	r17
    2002:	0f 91       	pop	r16
    2004:	08 95       	ret

00002006 <servo_1_free>:
    2006:	cf 93       	push	r28
    2008:	df 93       	push	r29
    200a:	cd b7       	in	r28, 0x3d	; 61
    200c:	de b7       	in	r29, 0x3e	; 62
    200e:	89 e8       	ldi	r24, 0x89	; 137
    2010:	90 e0       	ldi	r25, 0x00	; 0
    2012:	23 e0       	ldi	r18, 0x03	; 3
    2014:	fc 01       	movw	r30, r24
    2016:	20 83       	st	Z, r18
    2018:	88 e8       	ldi	r24, 0x88	; 136
    201a:	90 e0       	ldi	r25, 0x00	; 0
    201c:	2f ef       	ldi	r18, 0xFF	; 255
    201e:	fc 01       	movw	r30, r24
    2020:	20 83       	st	Z, r18
    2022:	df 91       	pop	r29
    2024:	cf 91       	pop	r28
    2026:	08 95       	ret

00002028 <servo_2_free>:
    2028:	cf 93       	push	r28
    202a:	df 93       	push	r29
    202c:	cd b7       	in	r28, 0x3d	; 61
    202e:	de b7       	in	r29, 0x3e	; 62
    2030:	8b e8       	ldi	r24, 0x8B	; 139
    2032:	90 e0       	ldi	r25, 0x00	; 0
    2034:	23 e0       	ldi	r18, 0x03	; 3
    2036:	fc 01       	movw	r30, r24
    2038:	20 83       	st	Z, r18
    203a:	8a e8       	ldi	r24, 0x8A	; 138
    203c:	90 e0       	ldi	r25, 0x00	; 0
    203e:	2f ef       	ldi	r18, 0xFF	; 255
    2040:	fc 01       	movw	r30, r24
    2042:	20 83       	st	Z, r18
    2044:	df 91       	pop	r29
    2046:	cf 91       	pop	r28
    2048:	08 95       	ret

0000204a <servo_3_free>:
    204a:	cf 93       	push	r28
    204c:	df 93       	push	r29
    204e:	cd b7       	in	r28, 0x3d	; 61
    2050:	de b7       	in	r29, 0x3e	; 62
    2052:	8d e8       	ldi	r24, 0x8D	; 141
    2054:	90 e0       	ldi	r25, 0x00	; 0
    2056:	23 e0       	ldi	r18, 0x03	; 3
    2058:	fc 01       	movw	r30, r24
    205a:	20 83       	st	Z, r18
    205c:	8c e8       	ldi	r24, 0x8C	; 140
    205e:	90 e0       	ldi	r25, 0x00	; 0
    2060:	2f ef       	ldi	r18, 0xFF	; 255
    2062:	fc 01       	movw	r30, r24
    2064:	20 83       	st	Z, r18
    2066:	df 91       	pop	r29
    2068:	cf 91       	pop	r28
    206a:	08 95       	ret

0000206c <servo_4_free>:
    206c:	cf 93       	push	r28
    206e:	df 93       	push	r29
    2070:	cd b7       	in	r28, 0x3d	; 61
    2072:	de b7       	in	r29, 0x3e	; 62
    2074:	8d e8       	ldi	r24, 0x8D	; 141
    2076:	90 e0       	ldi	r25, 0x00	; 0
    2078:	23 e0       	ldi	r18, 0x03	; 3
    207a:	fc 01       	movw	r30, r24
    207c:	20 83       	st	Z, r18
    207e:	8c e8       	ldi	r24, 0x8C	; 140
    2080:	90 e0       	ldi	r25, 0x00	; 0
    2082:	2f ef       	ldi	r18, 0xFF	; 255
    2084:	fc 01       	movw	r30, r24
    2086:	20 83       	st	Z, r18
    2088:	df 91       	pop	r29
    208a:	cf 91       	pop	r28
    208c:	08 95       	ret

0000208e <ADC_Conversion>:
    208e:	cf 93       	push	r28
    2090:	df 93       	push	r29
    2092:	1f 92       	push	r1
    2094:	1f 92       	push	r1
    2096:	cd b7       	in	r28, 0x3d	; 61
    2098:	de b7       	in	r29, 0x3e	; 62
    209a:	8a 83       	std	Y+2, r24	; 0x02
    209c:	8a 81       	ldd	r24, Y+2	; 0x02
    209e:	88 30       	cpi	r24, 0x08	; 8
    20a0:	28 f0       	brcs	.+10     	; 0x20ac <ADC_Conversion+0x1e>
    20a2:	8b e7       	ldi	r24, 0x7B	; 123
    20a4:	90 e0       	ldi	r25, 0x00	; 0
    20a6:	28 e0       	ldi	r18, 0x08	; 8
    20a8:	fc 01       	movw	r30, r24
    20aa:	20 83       	st	Z, r18
    20ac:	8a 81       	ldd	r24, Y+2	; 0x02
    20ae:	87 70       	andi	r24, 0x07	; 7
    20b0:	8a 83       	std	Y+2, r24	; 0x02
    20b2:	8c e7       	ldi	r24, 0x7C	; 124
    20b4:	90 e0       	ldi	r25, 0x00	; 0
    20b6:	2a 81       	ldd	r18, Y+2	; 0x02
    20b8:	20 62       	ori	r18, 0x20	; 32
    20ba:	fc 01       	movw	r30, r24
    20bc:	20 83       	st	Z, r18
    20be:	8a e7       	ldi	r24, 0x7A	; 122
    20c0:	90 e0       	ldi	r25, 0x00	; 0
    20c2:	2a e7       	ldi	r18, 0x7A	; 122
    20c4:	30 e0       	ldi	r19, 0x00	; 0
    20c6:	f9 01       	movw	r30, r18
    20c8:	20 81       	ld	r18, Z
    20ca:	20 64       	ori	r18, 0x40	; 64
    20cc:	fc 01       	movw	r30, r24
    20ce:	20 83       	st	Z, r18
    20d0:	00 00       	nop
    20d2:	8a e7       	ldi	r24, 0x7A	; 122
    20d4:	90 e0       	ldi	r25, 0x00	; 0
    20d6:	fc 01       	movw	r30, r24
    20d8:	80 81       	ld	r24, Z
    20da:	88 2f       	mov	r24, r24
    20dc:	90 e0       	ldi	r25, 0x00	; 0
    20de:	80 71       	andi	r24, 0x10	; 16
    20e0:	99 27       	eor	r25, r25
    20e2:	00 97       	sbiw	r24, 0x00	; 0
    20e4:	b1 f3       	breq	.-20     	; 0x20d2 <ADC_Conversion+0x44>
    20e6:	89 e7       	ldi	r24, 0x79	; 121
    20e8:	90 e0       	ldi	r25, 0x00	; 0
    20ea:	fc 01       	movw	r30, r24
    20ec:	80 81       	ld	r24, Z
    20ee:	89 83       	std	Y+1, r24	; 0x01
    20f0:	8a e7       	ldi	r24, 0x7A	; 122
    20f2:	90 e0       	ldi	r25, 0x00	; 0
    20f4:	2a e7       	ldi	r18, 0x7A	; 122
    20f6:	30 e0       	ldi	r19, 0x00	; 0
    20f8:	f9 01       	movw	r30, r18
    20fa:	20 81       	ld	r18, Z
    20fc:	20 61       	ori	r18, 0x10	; 16
    20fe:	fc 01       	movw	r30, r24
    2100:	20 83       	st	Z, r18
    2102:	8b e7       	ldi	r24, 0x7B	; 123
    2104:	90 e0       	ldi	r25, 0x00	; 0
    2106:	fc 01       	movw	r30, r24
    2108:	10 82       	st	Z, r1
    210a:	89 81       	ldd	r24, Y+1	; 0x01
    210c:	0f 90       	pop	r0
    210e:	0f 90       	pop	r0
    2110:	df 91       	pop	r29
    2112:	cf 91       	pop	r28
    2114:	08 95       	ret

00002116 <LCD_Function>:
    2116:	cf 93       	push	r28
    2118:	df 93       	push	r29
    211a:	1f 92       	push	r1
    211c:	1f 92       	push	r1
    211e:	cd b7       	in	r28, 0x3d	; 61
    2120:	de b7       	in	r29, 0x3e	; 62
    2122:	9a 83       	std	Y+2, r25	; 0x02
    2124:	89 83       	std	Y+1, r24	; 0x01
    2126:	0e 94 33 06 	call	0xc66	; 0xc66 <lcd_init>
    212a:	89 81       	ldd	r24, Y+1	; 0x01
    212c:	9a 81       	ldd	r25, Y+2	; 0x02
    212e:	83 30       	cpi	r24, 0x03	; 3
    2130:	91 05       	cpc	r25, r1
    2132:	09 f4       	brne	.+2      	; 0x2136 <LCD_Function+0x20>
    2134:	42 c0       	rjmp	.+132    	; 0x21ba <LCD_Function+0xa4>
    2136:	84 30       	cpi	r24, 0x04	; 4
    2138:	91 05       	cpc	r25, r1
    213a:	34 f4       	brge	.+12     	; 0x2148 <LCD_Function+0x32>
    213c:	00 97       	sbiw	r24, 0x00	; 0
    213e:	71 f0       	breq	.+28     	; 0x215c <LCD_Function+0x46>
    2140:	81 30       	cpi	r24, 0x01	; 1
    2142:	91 05       	cpc	r25, r1
    2144:	91 f0       	breq	.+36     	; 0x216a <LCD_Function+0x54>
    2146:	40 c0       	rjmp	.+128    	; 0x21c8 <LCD_Function+0xb2>
    2148:	85 30       	cpi	r24, 0x05	; 5
    214a:	91 05       	cpc	r25, r1
    214c:	a9 f0       	breq	.+42     	; 0x2178 <LCD_Function+0x62>
    214e:	85 30       	cpi	r24, 0x05	; 5
    2150:	91 05       	cpc	r25, r1
    2152:	34 f1       	brlt	.+76     	; 0x21a0 <LCD_Function+0x8a>
    2154:	86 30       	cpi	r24, 0x06	; 6
    2156:	91 05       	cpc	r25, r1
    2158:	b1 f0       	breq	.+44     	; 0x2186 <LCD_Function+0x70>
    215a:	36 c0       	rjmp	.+108    	; 0x21c8 <LCD_Function+0xb2>
    215c:	63 e0       	ldi	r22, 0x03	; 3
    215e:	81 e0       	ldi	r24, 0x01	; 1
    2160:	1d d9       	rcall	.-3526   	; 0x139c <lcd_cursor>
    2162:	83 e0       	ldi	r24, 0x03	; 3
    2164:	92 e0       	ldi	r25, 0x02	; 2
    2166:	fc d8       	rcall	.-3592   	; 0x1360 <lcd_string>
    2168:	2f c0       	rjmp	.+94     	; 0x21c8 <LCD_Function+0xb2>
    216a:	63 e0       	ldi	r22, 0x03	; 3
    216c:	81 e0       	ldi	r24, 0x01	; 1
    216e:	16 d9       	rcall	.-3540   	; 0x139c <lcd_cursor>
    2170:	81 e1       	ldi	r24, 0x11	; 17
    2172:	92 e0       	ldi	r25, 0x02	; 2
    2174:	f5 d8       	rcall	.-3606   	; 0x1360 <lcd_string>
    2176:	28 c0       	rjmp	.+80     	; 0x21c8 <LCD_Function+0xb2>
    2178:	63 e0       	ldi	r22, 0x03	; 3
    217a:	81 e0       	ldi	r24, 0x01	; 1
    217c:	0f d9       	rcall	.-3554   	; 0x139c <lcd_cursor>
    217e:	8f e1       	ldi	r24, 0x1F	; 31
    2180:	92 e0       	ldi	r25, 0x02	; 2
    2182:	ee d8       	rcall	.-3620   	; 0x1360 <lcd_string>
    2184:	21 c0       	rjmp	.+66     	; 0x21c8 <LCD_Function+0xb2>
    2186:	66 e0       	ldi	r22, 0x06	; 6
    2188:	81 e0       	ldi	r24, 0x01	; 1
    218a:	08 d9       	rcall	.-3568   	; 0x139c <lcd_cursor>
    218c:	87 e2       	ldi	r24, 0x27	; 39
    218e:	92 e0       	ldi	r25, 0x02	; 2
    2190:	e7 d8       	rcall	.-3634   	; 0x1360 <lcd_string>
    2192:	61 e0       	ldi	r22, 0x01	; 1
    2194:	82 e0       	ldi	r24, 0x02	; 2
    2196:	02 d9       	rcall	.-3580   	; 0x139c <lcd_cursor>
    2198:	8d e2       	ldi	r24, 0x2D	; 45
    219a:	92 e0       	ldi	r25, 0x02	; 2
    219c:	e1 d8       	rcall	.-3646   	; 0x1360 <lcd_string>
    219e:	14 c0       	rjmp	.+40     	; 0x21c8 <LCD_Function+0xb2>
    21a0:	66 e0       	ldi	r22, 0x06	; 6
    21a2:	81 e0       	ldi	r24, 0x01	; 1
    21a4:	fb d8       	rcall	.-3594   	; 0x139c <lcd_cursor>
    21a6:	8c e3       	ldi	r24, 0x3C	; 60
    21a8:	92 e0       	ldi	r25, 0x02	; 2
    21aa:	da d8       	rcall	.-3660   	; 0x1360 <lcd_string>
    21ac:	63 e0       	ldi	r22, 0x03	; 3
    21ae:	82 e0       	ldi	r24, 0x02	; 2
    21b0:	f5 d8       	rcall	.-3606   	; 0x139c <lcd_cursor>
    21b2:	83 e4       	ldi	r24, 0x43	; 67
    21b4:	92 e0       	ldi	r25, 0x02	; 2
    21b6:	d4 d8       	rcall	.-3672   	; 0x1360 <lcd_string>
    21b8:	07 c0       	rjmp	.+14     	; 0x21c8 <LCD_Function+0xb2>
    21ba:	63 e0       	ldi	r22, 0x03	; 3
    21bc:	81 e0       	ldi	r24, 0x01	; 1
    21be:	ee d8       	rcall	.-3620   	; 0x139c <lcd_cursor>
    21c0:	81 e5       	ldi	r24, 0x51	; 81
    21c2:	92 e0       	ldi	r25, 0x02	; 2
    21c4:	cd d8       	rcall	.-3686   	; 0x1360 <lcd_string>
    21c6:	00 00       	nop
    21c8:	0f 90       	pop	r0
    21ca:	0f 90       	pop	r0
    21cc:	df 91       	pop	r29
    21ce:	cf 91       	pop	r28
    21d0:	08 95       	ret

000021d2 <m_pick>:
    21d2:	0f 93       	push	r16
    21d4:	1f 93       	push	r17
    21d6:	cf 93       	push	r28
    21d8:	df 93       	push	r29
    21da:	cd b7       	in	r28, 0x3d	; 61
    21dc:	de b7       	in	r29, 0x3e	; 62
    21de:	c6 54       	subi	r28, 0x46	; 70
    21e0:	d1 09       	sbc	r29, r1
    21e2:	0f b6       	in	r0, 0x3f	; 63
    21e4:	f8 94       	cli
    21e6:	de bf       	out	0x3e, r29	; 62
    21e8:	0f be       	out	0x3f, r0	; 63
    21ea:	cd bf       	out	0x3d, r28	; 61
    21ec:	8a e5       	ldi	r24, 0x5A	; 90
    21ee:	e1 dc       	rcall	.-1598   	; 0x1bb2 <servo_1>
    21f0:	80 e0       	ldi	r24, 0x00	; 0
    21f2:	90 e8       	ldi	r25, 0x80	; 128
    21f4:	ab e3       	ldi	r26, 0x3B	; 59
    21f6:	b4 e4       	ldi	r27, 0x44	; 68
    21f8:	89 83       	std	Y+1, r24	; 0x01
    21fa:	9a 83       	std	Y+2, r25	; 0x02
    21fc:	ab 83       	std	Y+3, r26	; 0x03
    21fe:	bc 83       	std	Y+4, r27	; 0x04
    2200:	26 e6       	ldi	r18, 0x66	; 102
    2202:	36 e6       	ldi	r19, 0x66	; 102
    2204:	46 e6       	ldi	r20, 0x66	; 102
    2206:	55 e4       	ldi	r21, 0x45	; 69
    2208:	69 81       	ldd	r22, Y+1	; 0x01
    220a:	7a 81       	ldd	r23, Y+2	; 0x02
    220c:	8b 81       	ldd	r24, Y+3	; 0x03
    220e:	9c 81       	ldd	r25, Y+4	; 0x04
    2210:	0e 94 ce 2c 	call	0x599c	; 0x599c <__mulsf3>
    2214:	dc 01       	movw	r26, r24
    2216:	cb 01       	movw	r24, r22
    2218:	8d 83       	std	Y+5, r24	; 0x05
    221a:	9e 83       	std	Y+6, r25	; 0x06
    221c:	af 83       	std	Y+7, r26	; 0x07
    221e:	b8 87       	std	Y+8, r27	; 0x08
    2220:	20 e0       	ldi	r18, 0x00	; 0
    2222:	30 e0       	ldi	r19, 0x00	; 0
    2224:	40 e8       	ldi	r20, 0x80	; 128
    2226:	5f e3       	ldi	r21, 0x3F	; 63
    2228:	6d 81       	ldd	r22, Y+5	; 0x05
    222a:	7e 81       	ldd	r23, Y+6	; 0x06
    222c:	8f 81       	ldd	r24, Y+7	; 0x07
    222e:	98 85       	ldd	r25, Y+8	; 0x08
    2230:	0e 94 80 2b 	call	0x5700	; 0x5700 <__cmpsf2>
    2234:	88 23       	and	r24, r24
    2236:	2c f4       	brge	.+10     	; 0x2242 <__stack+0x43>
    2238:	81 e0       	ldi	r24, 0x01	; 1
    223a:	90 e0       	ldi	r25, 0x00	; 0
    223c:	9a 87       	std	Y+10, r25	; 0x0a
    223e:	89 87       	std	Y+9, r24	; 0x09
    2240:	3f c0       	rjmp	.+126    	; 0x22c0 <__stack+0xc1>
    2242:	20 e0       	ldi	r18, 0x00	; 0
    2244:	3f ef       	ldi	r19, 0xFF	; 255
    2246:	4f e7       	ldi	r20, 0x7F	; 127
    2248:	57 e4       	ldi	r21, 0x47	; 71
    224a:	6d 81       	ldd	r22, Y+5	; 0x05
    224c:	7e 81       	ldd	r23, Y+6	; 0x06
    224e:	8f 81       	ldd	r24, Y+7	; 0x07
    2250:	98 85       	ldd	r25, Y+8	; 0x08
    2252:	0e 94 ca 2c 	call	0x5994	; 0x5994 <__gesf2>
    2256:	18 16       	cp	r1, r24
    2258:	4c f5       	brge	.+82     	; 0x22ac <__stack+0xad>
    225a:	20 e0       	ldi	r18, 0x00	; 0
    225c:	30 e0       	ldi	r19, 0x00	; 0
    225e:	40 e2       	ldi	r20, 0x20	; 32
    2260:	51 e4       	ldi	r21, 0x41	; 65
    2262:	69 81       	ldd	r22, Y+1	; 0x01
    2264:	7a 81       	ldd	r23, Y+2	; 0x02
    2266:	8b 81       	ldd	r24, Y+3	; 0x03
    2268:	9c 81       	ldd	r25, Y+4	; 0x04
    226a:	0e 94 ce 2c 	call	0x599c	; 0x599c <__mulsf3>
    226e:	dc 01       	movw	r26, r24
    2270:	cb 01       	movw	r24, r22
    2272:	bc 01       	movw	r22, r24
    2274:	cd 01       	movw	r24, r26
    2276:	0e 94 ec 2b 	call	0x57d8	; 0x57d8 <__fixunssfsi>
    227a:	dc 01       	movw	r26, r24
    227c:	cb 01       	movw	r24, r22
    227e:	9a 87       	std	Y+10, r25	; 0x0a
    2280:	89 87       	std	Y+9, r24	; 0x09
    2282:	0f c0       	rjmp	.+30     	; 0x22a2 <__stack+0xa3>
    2284:	80 e7       	ldi	r24, 0x70	; 112
    2286:	91 e0       	ldi	r25, 0x01	; 1
    2288:	9c 87       	std	Y+12, r25	; 0x0c
    228a:	8b 87       	std	Y+11, r24	; 0x0b
    228c:	8b 85       	ldd	r24, Y+11	; 0x0b
    228e:	9c 85       	ldd	r25, Y+12	; 0x0c
    2290:	01 97       	sbiw	r24, 0x01	; 1
    2292:	f1 f7       	brne	.-4      	; 0x2290 <__stack+0x91>
    2294:	9c 87       	std	Y+12, r25	; 0x0c
    2296:	8b 87       	std	Y+11, r24	; 0x0b
    2298:	89 85       	ldd	r24, Y+9	; 0x09
    229a:	9a 85       	ldd	r25, Y+10	; 0x0a
    229c:	01 97       	sbiw	r24, 0x01	; 1
    229e:	9a 87       	std	Y+10, r25	; 0x0a
    22a0:	89 87       	std	Y+9, r24	; 0x09
    22a2:	89 85       	ldd	r24, Y+9	; 0x09
    22a4:	9a 85       	ldd	r25, Y+10	; 0x0a
    22a6:	00 97       	sbiw	r24, 0x00	; 0
    22a8:	69 f7       	brne	.-38     	; 0x2284 <__stack+0x85>
    22aa:	14 c0       	rjmp	.+40     	; 0x22d4 <__stack+0xd5>
    22ac:	6d 81       	ldd	r22, Y+5	; 0x05
    22ae:	7e 81       	ldd	r23, Y+6	; 0x06
    22b0:	8f 81       	ldd	r24, Y+7	; 0x07
    22b2:	98 85       	ldd	r25, Y+8	; 0x08
    22b4:	0e 94 ec 2b 	call	0x57d8	; 0x57d8 <__fixunssfsi>
    22b8:	dc 01       	movw	r26, r24
    22ba:	cb 01       	movw	r24, r22
    22bc:	9a 87       	std	Y+10, r25	; 0x0a
    22be:	89 87       	std	Y+9, r24	; 0x09
    22c0:	89 85       	ldd	r24, Y+9	; 0x09
    22c2:	9a 85       	ldd	r25, Y+10	; 0x0a
    22c4:	9e 87       	std	Y+14, r25	; 0x0e
    22c6:	8d 87       	std	Y+13, r24	; 0x0d
    22c8:	8d 85       	ldd	r24, Y+13	; 0x0d
    22ca:	9e 85       	ldd	r25, Y+14	; 0x0e
    22cc:	01 97       	sbiw	r24, 0x01	; 1
    22ce:	f1 f7       	brne	.-4      	; 0x22cc <__stack+0xcd>
    22d0:	9e 87       	std	Y+14, r25	; 0x0e
    22d2:	8d 87       	std	Y+13, r24	; 0x0d
    22d4:	98 de       	rcall	.-720    	; 0x2006 <servo_1_free>
    22d6:	88 e7       	ldi	r24, 0x78	; 120
    22d8:	02 dd       	rcall	.-1532   	; 0x1cde <servo_3>
    22da:	80 e0       	ldi	r24, 0x00	; 0
    22dc:	90 e8       	ldi	r25, 0x80	; 128
    22de:	ab e3       	ldi	r26, 0x3B	; 59
    22e0:	b4 e4       	ldi	r27, 0x44	; 68
    22e2:	8f 87       	std	Y+15, r24	; 0x0f
    22e4:	98 8b       	std	Y+16, r25	; 0x10
    22e6:	a9 8b       	std	Y+17, r26	; 0x11
    22e8:	ba 8b       	std	Y+18, r27	; 0x12
    22ea:	26 e6       	ldi	r18, 0x66	; 102
    22ec:	36 e6       	ldi	r19, 0x66	; 102
    22ee:	46 e6       	ldi	r20, 0x66	; 102
    22f0:	55 e4       	ldi	r21, 0x45	; 69
    22f2:	6f 85       	ldd	r22, Y+15	; 0x0f
    22f4:	78 89       	ldd	r23, Y+16	; 0x10
    22f6:	89 89       	ldd	r24, Y+17	; 0x11
    22f8:	9a 89       	ldd	r25, Y+18	; 0x12
    22fa:	0e 94 ce 2c 	call	0x599c	; 0x599c <__mulsf3>
    22fe:	dc 01       	movw	r26, r24
    2300:	cb 01       	movw	r24, r22
    2302:	8b 8b       	std	Y+19, r24	; 0x13
    2304:	9c 8b       	std	Y+20, r25	; 0x14
    2306:	ad 8b       	std	Y+21, r26	; 0x15
    2308:	be 8b       	std	Y+22, r27	; 0x16
    230a:	20 e0       	ldi	r18, 0x00	; 0
    230c:	30 e0       	ldi	r19, 0x00	; 0
    230e:	40 e8       	ldi	r20, 0x80	; 128
    2310:	5f e3       	ldi	r21, 0x3F	; 63
    2312:	6b 89       	ldd	r22, Y+19	; 0x13
    2314:	7c 89       	ldd	r23, Y+20	; 0x14
    2316:	8d 89       	ldd	r24, Y+21	; 0x15
    2318:	9e 89       	ldd	r25, Y+22	; 0x16
    231a:	0e 94 80 2b 	call	0x5700	; 0x5700 <__cmpsf2>
    231e:	88 23       	and	r24, r24
    2320:	2c f4       	brge	.+10     	; 0x232c <__stack+0x12d>
    2322:	81 e0       	ldi	r24, 0x01	; 1
    2324:	90 e0       	ldi	r25, 0x00	; 0
    2326:	98 8f       	std	Y+24, r25	; 0x18
    2328:	8f 8b       	std	Y+23, r24	; 0x17
    232a:	3f c0       	rjmp	.+126    	; 0x23aa <__stack+0x1ab>
    232c:	20 e0       	ldi	r18, 0x00	; 0
    232e:	3f ef       	ldi	r19, 0xFF	; 255
    2330:	4f e7       	ldi	r20, 0x7F	; 127
    2332:	57 e4       	ldi	r21, 0x47	; 71
    2334:	6b 89       	ldd	r22, Y+19	; 0x13
    2336:	7c 89       	ldd	r23, Y+20	; 0x14
    2338:	8d 89       	ldd	r24, Y+21	; 0x15
    233a:	9e 89       	ldd	r25, Y+22	; 0x16
    233c:	0e 94 ca 2c 	call	0x5994	; 0x5994 <__gesf2>
    2340:	18 16       	cp	r1, r24
    2342:	4c f5       	brge	.+82     	; 0x2396 <__stack+0x197>
    2344:	20 e0       	ldi	r18, 0x00	; 0
    2346:	30 e0       	ldi	r19, 0x00	; 0
    2348:	40 e2       	ldi	r20, 0x20	; 32
    234a:	51 e4       	ldi	r21, 0x41	; 65
    234c:	6f 85       	ldd	r22, Y+15	; 0x0f
    234e:	78 89       	ldd	r23, Y+16	; 0x10
    2350:	89 89       	ldd	r24, Y+17	; 0x11
    2352:	9a 89       	ldd	r25, Y+18	; 0x12
    2354:	0e 94 ce 2c 	call	0x599c	; 0x599c <__mulsf3>
    2358:	dc 01       	movw	r26, r24
    235a:	cb 01       	movw	r24, r22
    235c:	bc 01       	movw	r22, r24
    235e:	cd 01       	movw	r24, r26
    2360:	0e 94 ec 2b 	call	0x57d8	; 0x57d8 <__fixunssfsi>
    2364:	dc 01       	movw	r26, r24
    2366:	cb 01       	movw	r24, r22
    2368:	98 8f       	std	Y+24, r25	; 0x18
    236a:	8f 8b       	std	Y+23, r24	; 0x17
    236c:	0f c0       	rjmp	.+30     	; 0x238c <__stack+0x18d>
    236e:	80 e7       	ldi	r24, 0x70	; 112
    2370:	91 e0       	ldi	r25, 0x01	; 1
    2372:	9a 8f       	std	Y+26, r25	; 0x1a
    2374:	89 8f       	std	Y+25, r24	; 0x19
    2376:	89 8d       	ldd	r24, Y+25	; 0x19
    2378:	9a 8d       	ldd	r25, Y+26	; 0x1a
    237a:	01 97       	sbiw	r24, 0x01	; 1
    237c:	f1 f7       	brne	.-4      	; 0x237a <__stack+0x17b>
    237e:	9a 8f       	std	Y+26, r25	; 0x1a
    2380:	89 8f       	std	Y+25, r24	; 0x19
    2382:	8f 89       	ldd	r24, Y+23	; 0x17
    2384:	98 8d       	ldd	r25, Y+24	; 0x18
    2386:	01 97       	sbiw	r24, 0x01	; 1
    2388:	98 8f       	std	Y+24, r25	; 0x18
    238a:	8f 8b       	std	Y+23, r24	; 0x17
    238c:	8f 89       	ldd	r24, Y+23	; 0x17
    238e:	98 8d       	ldd	r25, Y+24	; 0x18
    2390:	00 97       	sbiw	r24, 0x00	; 0
    2392:	69 f7       	brne	.-38     	; 0x236e <__stack+0x16f>
    2394:	14 c0       	rjmp	.+40     	; 0x23be <__stack+0x1bf>
    2396:	6b 89       	ldd	r22, Y+19	; 0x13
    2398:	7c 89       	ldd	r23, Y+20	; 0x14
    239a:	8d 89       	ldd	r24, Y+21	; 0x15
    239c:	9e 89       	ldd	r25, Y+22	; 0x16
    239e:	0e 94 ec 2b 	call	0x57d8	; 0x57d8 <__fixunssfsi>
    23a2:	dc 01       	movw	r26, r24
    23a4:	cb 01       	movw	r24, r22
    23a6:	98 8f       	std	Y+24, r25	; 0x18
    23a8:	8f 8b       	std	Y+23, r24	; 0x17
    23aa:	8f 89       	ldd	r24, Y+23	; 0x17
    23ac:	98 8d       	ldd	r25, Y+24	; 0x18
    23ae:	9c 8f       	std	Y+28, r25	; 0x1c
    23b0:	8b 8f       	std	Y+27, r24	; 0x1b
    23b2:	8b 8d       	ldd	r24, Y+27	; 0x1b
    23b4:	9c 8d       	ldd	r25, Y+28	; 0x1c
    23b6:	01 97       	sbiw	r24, 0x01	; 1
    23b8:	f1 f7       	brne	.-4      	; 0x23b6 <__stack+0x1b7>
    23ba:	9c 8f       	std	Y+28, r25	; 0x1c
    23bc:	8b 8f       	std	Y+27, r24	; 0x1b
    23be:	45 de       	rcall	.-886    	; 0x204a <servo_3_free>
    23c0:	86 e6       	ldi	r24, 0x66	; 102
    23c2:	42 dc       	rcall	.-1916   	; 0x1c48 <servo_2>
    23c4:	80 e0       	ldi	r24, 0x00	; 0
    23c6:	90 e0       	ldi	r25, 0x00	; 0
    23c8:	aa e7       	ldi	r26, 0x7A	; 122
    23ca:	b4 e4       	ldi	r27, 0x44	; 68
    23cc:	8d 8f       	std	Y+29, r24	; 0x1d
    23ce:	9e 8f       	std	Y+30, r25	; 0x1e
    23d0:	af 8f       	std	Y+31, r26	; 0x1f
    23d2:	b8 a3       	std	Y+32, r27	; 0x20
    23d4:	26 e6       	ldi	r18, 0x66	; 102
    23d6:	36 e6       	ldi	r19, 0x66	; 102
    23d8:	46 e6       	ldi	r20, 0x66	; 102
    23da:	55 e4       	ldi	r21, 0x45	; 69
    23dc:	6d 8d       	ldd	r22, Y+29	; 0x1d
    23de:	7e 8d       	ldd	r23, Y+30	; 0x1e
    23e0:	8f 8d       	ldd	r24, Y+31	; 0x1f
    23e2:	98 a1       	ldd	r25, Y+32	; 0x20
    23e4:	0e 94 ce 2c 	call	0x599c	; 0x599c <__mulsf3>
    23e8:	dc 01       	movw	r26, r24
    23ea:	cb 01       	movw	r24, r22
    23ec:	89 a3       	std	Y+33, r24	; 0x21
    23ee:	9a a3       	std	Y+34, r25	; 0x22
    23f0:	ab a3       	std	Y+35, r26	; 0x23
    23f2:	bc a3       	std	Y+36, r27	; 0x24
    23f4:	20 e0       	ldi	r18, 0x00	; 0
    23f6:	30 e0       	ldi	r19, 0x00	; 0
    23f8:	40 e8       	ldi	r20, 0x80	; 128
    23fa:	5f e3       	ldi	r21, 0x3F	; 63
    23fc:	69 a1       	ldd	r22, Y+33	; 0x21
    23fe:	7a a1       	ldd	r23, Y+34	; 0x22
    2400:	8b a1       	ldd	r24, Y+35	; 0x23
    2402:	9c a1       	ldd	r25, Y+36	; 0x24
    2404:	0e 94 80 2b 	call	0x5700	; 0x5700 <__cmpsf2>
    2408:	88 23       	and	r24, r24
    240a:	2c f4       	brge	.+10     	; 0x2416 <__stack+0x217>
    240c:	81 e0       	ldi	r24, 0x01	; 1
    240e:	90 e0       	ldi	r25, 0x00	; 0
    2410:	9e a3       	std	Y+38, r25	; 0x26
    2412:	8d a3       	std	Y+37, r24	; 0x25
    2414:	3f c0       	rjmp	.+126    	; 0x2494 <__stack+0x295>
    2416:	20 e0       	ldi	r18, 0x00	; 0
    2418:	3f ef       	ldi	r19, 0xFF	; 255
    241a:	4f e7       	ldi	r20, 0x7F	; 127
    241c:	57 e4       	ldi	r21, 0x47	; 71
    241e:	69 a1       	ldd	r22, Y+33	; 0x21
    2420:	7a a1       	ldd	r23, Y+34	; 0x22
    2422:	8b a1       	ldd	r24, Y+35	; 0x23
    2424:	9c a1       	ldd	r25, Y+36	; 0x24
    2426:	0e 94 ca 2c 	call	0x5994	; 0x5994 <__gesf2>
    242a:	18 16       	cp	r1, r24
    242c:	4c f5       	brge	.+82     	; 0x2480 <__stack+0x281>
    242e:	20 e0       	ldi	r18, 0x00	; 0
    2430:	30 e0       	ldi	r19, 0x00	; 0
    2432:	40 e2       	ldi	r20, 0x20	; 32
    2434:	51 e4       	ldi	r21, 0x41	; 65
    2436:	6d 8d       	ldd	r22, Y+29	; 0x1d
    2438:	7e 8d       	ldd	r23, Y+30	; 0x1e
    243a:	8f 8d       	ldd	r24, Y+31	; 0x1f
    243c:	98 a1       	ldd	r25, Y+32	; 0x20
    243e:	0e 94 ce 2c 	call	0x599c	; 0x599c <__mulsf3>
    2442:	dc 01       	movw	r26, r24
    2444:	cb 01       	movw	r24, r22
    2446:	bc 01       	movw	r22, r24
    2448:	cd 01       	movw	r24, r26
    244a:	0e 94 ec 2b 	call	0x57d8	; 0x57d8 <__fixunssfsi>
    244e:	dc 01       	movw	r26, r24
    2450:	cb 01       	movw	r24, r22
    2452:	9e a3       	std	Y+38, r25	; 0x26
    2454:	8d a3       	std	Y+37, r24	; 0x25
    2456:	0f c0       	rjmp	.+30     	; 0x2476 <__stack+0x277>
    2458:	80 e7       	ldi	r24, 0x70	; 112
    245a:	91 e0       	ldi	r25, 0x01	; 1
    245c:	98 a7       	std	Y+40, r25	; 0x28
    245e:	8f a3       	std	Y+39, r24	; 0x27
    2460:	8f a1       	ldd	r24, Y+39	; 0x27
    2462:	98 a5       	ldd	r25, Y+40	; 0x28
    2464:	01 97       	sbiw	r24, 0x01	; 1
    2466:	f1 f7       	brne	.-4      	; 0x2464 <__stack+0x265>
    2468:	98 a7       	std	Y+40, r25	; 0x28
    246a:	8f a3       	std	Y+39, r24	; 0x27
    246c:	8d a1       	ldd	r24, Y+37	; 0x25
    246e:	9e a1       	ldd	r25, Y+38	; 0x26
    2470:	01 97       	sbiw	r24, 0x01	; 1
    2472:	9e a3       	std	Y+38, r25	; 0x26
    2474:	8d a3       	std	Y+37, r24	; 0x25
    2476:	8d a1       	ldd	r24, Y+37	; 0x25
    2478:	9e a1       	ldd	r25, Y+38	; 0x26
    247a:	00 97       	sbiw	r24, 0x00	; 0
    247c:	69 f7       	brne	.-38     	; 0x2458 <__stack+0x259>
    247e:	14 c0       	rjmp	.+40     	; 0x24a8 <__stack+0x2a9>
    2480:	69 a1       	ldd	r22, Y+33	; 0x21
    2482:	7a a1       	ldd	r23, Y+34	; 0x22
    2484:	8b a1       	ldd	r24, Y+35	; 0x23
    2486:	9c a1       	ldd	r25, Y+36	; 0x24
    2488:	0e 94 ec 2b 	call	0x57d8	; 0x57d8 <__fixunssfsi>
    248c:	dc 01       	movw	r26, r24
    248e:	cb 01       	movw	r24, r22
    2490:	9e a3       	std	Y+38, r25	; 0x26
    2492:	8d a3       	std	Y+37, r24	; 0x25
    2494:	8d a1       	ldd	r24, Y+37	; 0x25
    2496:	9e a1       	ldd	r25, Y+38	; 0x26
    2498:	9a a7       	std	Y+42, r25	; 0x2a
    249a:	89 a7       	std	Y+41, r24	; 0x29
    249c:	89 a5       	ldd	r24, Y+41	; 0x29
    249e:	9a a5       	ldd	r25, Y+42	; 0x2a
    24a0:	01 97       	sbiw	r24, 0x01	; 1
    24a2:	f1 f7       	brne	.-4      	; 0x24a0 <__stack+0x2a1>
    24a4:	9a a7       	std	Y+42, r25	; 0x2a
    24a6:	89 a7       	std	Y+41, r24	; 0x29
    24a8:	84 e1       	ldi	r24, 0x14	; 20
    24aa:	19 dc       	rcall	.-1998   	; 0x1cde <servo_3>
    24ac:	80 e0       	ldi	r24, 0x00	; 0
    24ae:	90 e8       	ldi	r25, 0x80	; 128
    24b0:	ab e3       	ldi	r26, 0x3B	; 59
    24b2:	b4 e4       	ldi	r27, 0x44	; 68
    24b4:	8b a7       	std	Y+43, r24	; 0x2b
    24b6:	9c a7       	std	Y+44, r25	; 0x2c
    24b8:	ad a7       	std	Y+45, r26	; 0x2d
    24ba:	be a7       	std	Y+46, r27	; 0x2e
    24bc:	26 e6       	ldi	r18, 0x66	; 102
    24be:	36 e6       	ldi	r19, 0x66	; 102
    24c0:	46 e6       	ldi	r20, 0x66	; 102
    24c2:	55 e4       	ldi	r21, 0x45	; 69
    24c4:	6b a5       	ldd	r22, Y+43	; 0x2b
    24c6:	7c a5       	ldd	r23, Y+44	; 0x2c
    24c8:	8d a5       	ldd	r24, Y+45	; 0x2d
    24ca:	9e a5       	ldd	r25, Y+46	; 0x2e
    24cc:	0e 94 ce 2c 	call	0x599c	; 0x599c <__mulsf3>
    24d0:	dc 01       	movw	r26, r24
    24d2:	cb 01       	movw	r24, r22
    24d4:	8f a7       	std	Y+47, r24	; 0x2f
    24d6:	98 ab       	std	Y+48, r25	; 0x30
    24d8:	a9 ab       	std	Y+49, r26	; 0x31
    24da:	ba ab       	std	Y+50, r27	; 0x32
    24dc:	20 e0       	ldi	r18, 0x00	; 0
    24de:	30 e0       	ldi	r19, 0x00	; 0
    24e0:	40 e8       	ldi	r20, 0x80	; 128
    24e2:	5f e3       	ldi	r21, 0x3F	; 63
    24e4:	6f a5       	ldd	r22, Y+47	; 0x2f
    24e6:	78 a9       	ldd	r23, Y+48	; 0x30
    24e8:	89 a9       	ldd	r24, Y+49	; 0x31
    24ea:	9a a9       	ldd	r25, Y+50	; 0x32
    24ec:	0e 94 80 2b 	call	0x5700	; 0x5700 <__cmpsf2>
    24f0:	88 23       	and	r24, r24
    24f2:	2c f4       	brge	.+10     	; 0x24fe <__stack+0x2ff>
    24f4:	81 e0       	ldi	r24, 0x01	; 1
    24f6:	90 e0       	ldi	r25, 0x00	; 0
    24f8:	9c ab       	std	Y+52, r25	; 0x34
    24fa:	8b ab       	std	Y+51, r24	; 0x33
    24fc:	3f c0       	rjmp	.+126    	; 0x257c <__stack+0x37d>
    24fe:	20 e0       	ldi	r18, 0x00	; 0
    2500:	3f ef       	ldi	r19, 0xFF	; 255
    2502:	4f e7       	ldi	r20, 0x7F	; 127
    2504:	57 e4       	ldi	r21, 0x47	; 71
    2506:	6f a5       	ldd	r22, Y+47	; 0x2f
    2508:	78 a9       	ldd	r23, Y+48	; 0x30
    250a:	89 a9       	ldd	r24, Y+49	; 0x31
    250c:	9a a9       	ldd	r25, Y+50	; 0x32
    250e:	0e 94 ca 2c 	call	0x5994	; 0x5994 <__gesf2>
    2512:	18 16       	cp	r1, r24
    2514:	4c f5       	brge	.+82     	; 0x2568 <__stack+0x369>
    2516:	20 e0       	ldi	r18, 0x00	; 0
    2518:	30 e0       	ldi	r19, 0x00	; 0
    251a:	40 e2       	ldi	r20, 0x20	; 32
    251c:	51 e4       	ldi	r21, 0x41	; 65
    251e:	6b a5       	ldd	r22, Y+43	; 0x2b
    2520:	7c a5       	ldd	r23, Y+44	; 0x2c
    2522:	8d a5       	ldd	r24, Y+45	; 0x2d
    2524:	9e a5       	ldd	r25, Y+46	; 0x2e
    2526:	0e 94 ce 2c 	call	0x599c	; 0x599c <__mulsf3>
    252a:	dc 01       	movw	r26, r24
    252c:	cb 01       	movw	r24, r22
    252e:	bc 01       	movw	r22, r24
    2530:	cd 01       	movw	r24, r26
    2532:	0e 94 ec 2b 	call	0x57d8	; 0x57d8 <__fixunssfsi>
    2536:	dc 01       	movw	r26, r24
    2538:	cb 01       	movw	r24, r22
    253a:	9c ab       	std	Y+52, r25	; 0x34
    253c:	8b ab       	std	Y+51, r24	; 0x33
    253e:	0f c0       	rjmp	.+30     	; 0x255e <__stack+0x35f>
    2540:	80 e7       	ldi	r24, 0x70	; 112
    2542:	91 e0       	ldi	r25, 0x01	; 1
    2544:	9e ab       	std	Y+54, r25	; 0x36
    2546:	8d ab       	std	Y+53, r24	; 0x35
    2548:	8d a9       	ldd	r24, Y+53	; 0x35
    254a:	9e a9       	ldd	r25, Y+54	; 0x36
    254c:	01 97       	sbiw	r24, 0x01	; 1
    254e:	f1 f7       	brne	.-4      	; 0x254c <__stack+0x34d>
    2550:	9e ab       	std	Y+54, r25	; 0x36
    2552:	8d ab       	std	Y+53, r24	; 0x35
    2554:	8b a9       	ldd	r24, Y+51	; 0x33
    2556:	9c a9       	ldd	r25, Y+52	; 0x34
    2558:	01 97       	sbiw	r24, 0x01	; 1
    255a:	9c ab       	std	Y+52, r25	; 0x34
    255c:	8b ab       	std	Y+51, r24	; 0x33
    255e:	8b a9       	ldd	r24, Y+51	; 0x33
    2560:	9c a9       	ldd	r25, Y+52	; 0x34
    2562:	00 97       	sbiw	r24, 0x00	; 0
    2564:	69 f7       	brne	.-38     	; 0x2540 <__stack+0x341>
    2566:	14 c0       	rjmp	.+40     	; 0x2590 <__stack+0x391>
    2568:	6f a5       	ldd	r22, Y+47	; 0x2f
    256a:	78 a9       	ldd	r23, Y+48	; 0x30
    256c:	89 a9       	ldd	r24, Y+49	; 0x31
    256e:	9a a9       	ldd	r25, Y+50	; 0x32
    2570:	0e 94 ec 2b 	call	0x57d8	; 0x57d8 <__fixunssfsi>
    2574:	dc 01       	movw	r26, r24
    2576:	cb 01       	movw	r24, r22
    2578:	9c ab       	std	Y+52, r25	; 0x34
    257a:	8b ab       	std	Y+51, r24	; 0x33
    257c:	8b a9       	ldd	r24, Y+51	; 0x33
    257e:	9c a9       	ldd	r25, Y+52	; 0x34
    2580:	98 af       	std	Y+56, r25	; 0x38
    2582:	8f ab       	std	Y+55, r24	; 0x37
    2584:	8f a9       	ldd	r24, Y+55	; 0x37
    2586:	98 ad       	ldd	r25, Y+56	; 0x38
    2588:	01 97       	sbiw	r24, 0x01	; 1
    258a:	f1 f7       	brne	.-4      	; 0x2588 <__stack+0x389>
    258c:	98 af       	std	Y+56, r25	; 0x38
    258e:	8f ab       	std	Y+55, r24	; 0x37
    2590:	80 e0       	ldi	r24, 0x00	; 0
    2592:	5a db       	rcall	.-2380   	; 0x1c48 <servo_2>
    2594:	80 e0       	ldi	r24, 0x00	; 0
    2596:	90 e0       	ldi	r25, 0x00	; 0
    2598:	aa e7       	ldi	r26, 0x7A	; 122
    259a:	b4 e4       	ldi	r27, 0x44	; 68
    259c:	89 af       	std	Y+57, r24	; 0x39
    259e:	9a af       	std	Y+58, r25	; 0x3a
    25a0:	ab af       	std	Y+59, r26	; 0x3b
    25a2:	bc af       	std	Y+60, r27	; 0x3c
    25a4:	26 e6       	ldi	r18, 0x66	; 102
    25a6:	36 e6       	ldi	r19, 0x66	; 102
    25a8:	46 e6       	ldi	r20, 0x66	; 102
    25aa:	55 e4       	ldi	r21, 0x45	; 69
    25ac:	69 ad       	ldd	r22, Y+57	; 0x39
    25ae:	7a ad       	ldd	r23, Y+58	; 0x3a
    25b0:	8b ad       	ldd	r24, Y+59	; 0x3b
    25b2:	9c ad       	ldd	r25, Y+60	; 0x3c
    25b4:	0e 94 ce 2c 	call	0x599c	; 0x599c <__mulsf3>
    25b8:	dc 01       	movw	r26, r24
    25ba:	cb 01       	movw	r24, r22
    25bc:	9e 01       	movw	r18, r28
    25be:	23 5c       	subi	r18, 0xC3	; 195
    25c0:	3f 4f       	sbci	r19, 0xFF	; 255
    25c2:	f9 01       	movw	r30, r18
    25c4:	80 83       	st	Z, r24
    25c6:	91 83       	std	Z+1, r25	; 0x01
    25c8:	a2 83       	std	Z+2, r26	; 0x02
    25ca:	b3 83       	std	Z+3, r27	; 0x03
    25cc:	20 e0       	ldi	r18, 0x00	; 0
    25ce:	30 e0       	ldi	r19, 0x00	; 0
    25d0:	40 e8       	ldi	r20, 0x80	; 128
    25d2:	5f e3       	ldi	r21, 0x3F	; 63
    25d4:	ce 01       	movw	r24, r28
    25d6:	cd 96       	adiw	r24, 0x3d	; 61
    25d8:	fc 01       	movw	r30, r24
    25da:	60 81       	ld	r22, Z
    25dc:	71 81       	ldd	r23, Z+1	; 0x01
    25de:	82 81       	ldd	r24, Z+2	; 0x02
    25e0:	93 81       	ldd	r25, Z+3	; 0x03
    25e2:	0e 94 80 2b 	call	0x5700	; 0x5700 <__cmpsf2>
    25e6:	88 23       	and	r24, r24
    25e8:	4c f4       	brge	.+18     	; 0x25fc <__stack+0x3fd>
    25ea:	ce 01       	movw	r24, r28
    25ec:	8f 5b       	subi	r24, 0xBF	; 191
    25ee:	9f 4f       	sbci	r25, 0xFF	; 255
    25f0:	21 e0       	ldi	r18, 0x01	; 1
    25f2:	30 e0       	ldi	r19, 0x00	; 0
    25f4:	fc 01       	movw	r30, r24
    25f6:	31 83       	std	Z+1, r19	; 0x01
    25f8:	20 83       	st	Z, r18
    25fa:	67 c0       	rjmp	.+206    	; 0x26ca <__stack+0x4cb>
    25fc:	20 e0       	ldi	r18, 0x00	; 0
    25fe:	3f ef       	ldi	r19, 0xFF	; 255
    2600:	4f e7       	ldi	r20, 0x7F	; 127
    2602:	57 e4       	ldi	r21, 0x47	; 71
    2604:	ce 01       	movw	r24, r28
    2606:	cd 96       	adiw	r24, 0x3d	; 61
    2608:	fc 01       	movw	r30, r24
    260a:	60 81       	ld	r22, Z
    260c:	71 81       	ldd	r23, Z+1	; 0x01
    260e:	82 81       	ldd	r24, Z+2	; 0x02
    2610:	93 81       	ldd	r25, Z+3	; 0x03
    2612:	0e 94 ca 2c 	call	0x5994	; 0x5994 <__gesf2>
    2616:	18 16       	cp	r1, r24
    2618:	0c f0       	brlt	.+2      	; 0x261c <__stack+0x41d>
    261a:	46 c0       	rjmp	.+140    	; 0x26a8 <__stack+0x4a9>
    261c:	20 e0       	ldi	r18, 0x00	; 0
    261e:	30 e0       	ldi	r19, 0x00	; 0
    2620:	40 e2       	ldi	r20, 0x20	; 32
    2622:	51 e4       	ldi	r21, 0x41	; 65
    2624:	69 ad       	ldd	r22, Y+57	; 0x39
    2626:	7a ad       	ldd	r23, Y+58	; 0x3a
    2628:	8b ad       	ldd	r24, Y+59	; 0x3b
    262a:	9c ad       	ldd	r25, Y+60	; 0x3c
    262c:	0e 94 ce 2c 	call	0x599c	; 0x599c <__mulsf3>
    2630:	dc 01       	movw	r26, r24
    2632:	cb 01       	movw	r24, r22
    2634:	8e 01       	movw	r16, r28
    2636:	0f 5b       	subi	r16, 0xBF	; 191
    2638:	1f 4f       	sbci	r17, 0xFF	; 255
    263a:	bc 01       	movw	r22, r24
    263c:	cd 01       	movw	r24, r26
    263e:	0e 94 ec 2b 	call	0x57d8	; 0x57d8 <__fixunssfsi>
    2642:	dc 01       	movw	r26, r24
    2644:	cb 01       	movw	r24, r22
    2646:	f8 01       	movw	r30, r16
    2648:	91 83       	std	Z+1, r25	; 0x01
    264a:	80 83       	st	Z, r24
    264c:	24 c0       	rjmp	.+72     	; 0x2696 <__stack+0x497>
    264e:	ce 01       	movw	r24, r28
    2650:	8d 5b       	subi	r24, 0xBD	; 189
    2652:	9f 4f       	sbci	r25, 0xFF	; 255
    2654:	20 e7       	ldi	r18, 0x70	; 112
    2656:	31 e0       	ldi	r19, 0x01	; 1
    2658:	fc 01       	movw	r30, r24
    265a:	31 83       	std	Z+1, r19	; 0x01
    265c:	20 83       	st	Z, r18
    265e:	ce 01       	movw	r24, r28
    2660:	8d 5b       	subi	r24, 0xBD	; 189
    2662:	9f 4f       	sbci	r25, 0xFF	; 255
    2664:	fc 01       	movw	r30, r24
    2666:	80 81       	ld	r24, Z
    2668:	91 81       	ldd	r25, Z+1	; 0x01
    266a:	01 97       	sbiw	r24, 0x01	; 1
    266c:	f1 f7       	brne	.-4      	; 0x266a <__stack+0x46b>
    266e:	9e 01       	movw	r18, r28
    2670:	2d 5b       	subi	r18, 0xBD	; 189
    2672:	3f 4f       	sbci	r19, 0xFF	; 255
    2674:	f9 01       	movw	r30, r18
    2676:	91 83       	std	Z+1, r25	; 0x01
    2678:	80 83       	st	Z, r24
    267a:	ce 01       	movw	r24, r28
    267c:	8f 5b       	subi	r24, 0xBF	; 191
    267e:	9f 4f       	sbci	r25, 0xFF	; 255
    2680:	9e 01       	movw	r18, r28
    2682:	2f 5b       	subi	r18, 0xBF	; 191
    2684:	3f 4f       	sbci	r19, 0xFF	; 255
    2686:	f9 01       	movw	r30, r18
    2688:	20 81       	ld	r18, Z
    268a:	31 81       	ldd	r19, Z+1	; 0x01
    268c:	21 50       	subi	r18, 0x01	; 1
    268e:	31 09       	sbc	r19, r1
    2690:	fc 01       	movw	r30, r24
    2692:	31 83       	std	Z+1, r19	; 0x01
    2694:	20 83       	st	Z, r18
    2696:	ce 01       	movw	r24, r28
    2698:	8f 5b       	subi	r24, 0xBF	; 191
    269a:	9f 4f       	sbci	r25, 0xFF	; 255
    269c:	fc 01       	movw	r30, r24
    269e:	80 81       	ld	r24, Z
    26a0:	91 81       	ldd	r25, Z+1	; 0x01
    26a2:	00 97       	sbiw	r24, 0x00	; 0
    26a4:	a1 f6       	brne	.-88     	; 0x264e <__stack+0x44f>
    26a6:	2b c0       	rjmp	.+86     	; 0x26fe <__stack+0x4ff>
    26a8:	8e 01       	movw	r16, r28
    26aa:	0f 5b       	subi	r16, 0xBF	; 191
    26ac:	1f 4f       	sbci	r17, 0xFF	; 255
    26ae:	ce 01       	movw	r24, r28
    26b0:	cd 96       	adiw	r24, 0x3d	; 61
    26b2:	fc 01       	movw	r30, r24
    26b4:	60 81       	ld	r22, Z
    26b6:	71 81       	ldd	r23, Z+1	; 0x01
    26b8:	82 81       	ldd	r24, Z+2	; 0x02
    26ba:	93 81       	ldd	r25, Z+3	; 0x03
    26bc:	0e 94 ec 2b 	call	0x57d8	; 0x57d8 <__fixunssfsi>
    26c0:	dc 01       	movw	r26, r24
    26c2:	cb 01       	movw	r24, r22
    26c4:	f8 01       	movw	r30, r16
    26c6:	91 83       	std	Z+1, r25	; 0x01
    26c8:	80 83       	st	Z, r24
    26ca:	ce 01       	movw	r24, r28
    26cc:	8b 5b       	subi	r24, 0xBB	; 187
    26ce:	9f 4f       	sbci	r25, 0xFF	; 255
    26d0:	9e 01       	movw	r18, r28
    26d2:	2f 5b       	subi	r18, 0xBF	; 191
    26d4:	3f 4f       	sbci	r19, 0xFF	; 255
    26d6:	f9 01       	movw	r30, r18
    26d8:	20 81       	ld	r18, Z
    26da:	31 81       	ldd	r19, Z+1	; 0x01
    26dc:	fc 01       	movw	r30, r24
    26de:	31 83       	std	Z+1, r19	; 0x01
    26e0:	20 83       	st	Z, r18
    26e2:	ce 01       	movw	r24, r28
    26e4:	8b 5b       	subi	r24, 0xBB	; 187
    26e6:	9f 4f       	sbci	r25, 0xFF	; 255
    26e8:	fc 01       	movw	r30, r24
    26ea:	80 81       	ld	r24, Z
    26ec:	91 81       	ldd	r25, Z+1	; 0x01
    26ee:	01 97       	sbiw	r24, 0x01	; 1
    26f0:	f1 f7       	brne	.-4      	; 0x26ee <__stack+0x4ef>
    26f2:	9e 01       	movw	r18, r28
    26f4:	2b 5b       	subi	r18, 0xBB	; 187
    26f6:	3f 4f       	sbci	r19, 0xFF	; 255
    26f8:	f9 01       	movw	r30, r18
    26fa:	91 83       	std	Z+1, r25	; 0x01
    26fc:	80 83       	st	Z, r24
    26fe:	ca 5b       	subi	r28, 0xBA	; 186
    2700:	df 4f       	sbci	r29, 0xFF	; 255
    2702:	0f b6       	in	r0, 0x3f	; 63
    2704:	f8 94       	cli
    2706:	de bf       	out	0x3e, r29	; 62
    2708:	0f be       	out	0x3f, r0	; 63
    270a:	cd bf       	out	0x3d, r28	; 61
    270c:	df 91       	pop	r29
    270e:	cf 91       	pop	r28
    2710:	1f 91       	pop	r17
    2712:	0f 91       	pop	r16
    2714:	08 95       	ret

00002716 <s_pick>:
    2716:	0f 93       	push	r16
    2718:	1f 93       	push	r17
    271a:	cf 93       	push	r28
    271c:	df 93       	push	r29
    271e:	cd b7       	in	r28, 0x3d	; 61
    2720:	de b7       	in	r29, 0x3e	; 62
    2722:	c4 55       	subi	r28, 0x54	; 84
    2724:	d1 09       	sbc	r29, r1
    2726:	0f b6       	in	r0, 0x3f	; 63
    2728:	f8 94       	cli
    272a:	de bf       	out	0x3e, r29	; 62
    272c:	0f be       	out	0x3f, r0	; 63
    272e:	cd bf       	out	0x3d, r28	; 61
    2730:	83 e4       	ldi	r24, 0x43	; 67
    2732:	3f da       	rcall	.-2946   	; 0x1bb2 <servo_1>
    2734:	80 e0       	ldi	r24, 0x00	; 0
    2736:	90 e8       	ldi	r25, 0x80	; 128
    2738:	ab e3       	ldi	r26, 0x3B	; 59
    273a:	b4 e4       	ldi	r27, 0x44	; 68
    273c:	89 83       	std	Y+1, r24	; 0x01
    273e:	9a 83       	std	Y+2, r25	; 0x02
    2740:	ab 83       	std	Y+3, r26	; 0x03
    2742:	bc 83       	std	Y+4, r27	; 0x04
    2744:	26 e6       	ldi	r18, 0x66	; 102
    2746:	36 e6       	ldi	r19, 0x66	; 102
    2748:	46 e6       	ldi	r20, 0x66	; 102
    274a:	55 e4       	ldi	r21, 0x45	; 69
    274c:	69 81       	ldd	r22, Y+1	; 0x01
    274e:	7a 81       	ldd	r23, Y+2	; 0x02
    2750:	8b 81       	ldd	r24, Y+3	; 0x03
    2752:	9c 81       	ldd	r25, Y+4	; 0x04
    2754:	0e 94 ce 2c 	call	0x599c	; 0x599c <__mulsf3>
    2758:	dc 01       	movw	r26, r24
    275a:	cb 01       	movw	r24, r22
    275c:	8d 83       	std	Y+5, r24	; 0x05
    275e:	9e 83       	std	Y+6, r25	; 0x06
    2760:	af 83       	std	Y+7, r26	; 0x07
    2762:	b8 87       	std	Y+8, r27	; 0x08
    2764:	20 e0       	ldi	r18, 0x00	; 0
    2766:	30 e0       	ldi	r19, 0x00	; 0
    2768:	40 e8       	ldi	r20, 0x80	; 128
    276a:	5f e3       	ldi	r21, 0x3F	; 63
    276c:	6d 81       	ldd	r22, Y+5	; 0x05
    276e:	7e 81       	ldd	r23, Y+6	; 0x06
    2770:	8f 81       	ldd	r24, Y+7	; 0x07
    2772:	98 85       	ldd	r25, Y+8	; 0x08
    2774:	0e 94 80 2b 	call	0x5700	; 0x5700 <__cmpsf2>
    2778:	88 23       	and	r24, r24
    277a:	2c f4       	brge	.+10     	; 0x2786 <s_pick+0x70>
    277c:	81 e0       	ldi	r24, 0x01	; 1
    277e:	90 e0       	ldi	r25, 0x00	; 0
    2780:	9a 87       	std	Y+10, r25	; 0x0a
    2782:	89 87       	std	Y+9, r24	; 0x09
    2784:	3f c0       	rjmp	.+126    	; 0x2804 <s_pick+0xee>
    2786:	20 e0       	ldi	r18, 0x00	; 0
    2788:	3f ef       	ldi	r19, 0xFF	; 255
    278a:	4f e7       	ldi	r20, 0x7F	; 127
    278c:	57 e4       	ldi	r21, 0x47	; 71
    278e:	6d 81       	ldd	r22, Y+5	; 0x05
    2790:	7e 81       	ldd	r23, Y+6	; 0x06
    2792:	8f 81       	ldd	r24, Y+7	; 0x07
    2794:	98 85       	ldd	r25, Y+8	; 0x08
    2796:	0e 94 ca 2c 	call	0x5994	; 0x5994 <__gesf2>
    279a:	18 16       	cp	r1, r24
    279c:	4c f5       	brge	.+82     	; 0x27f0 <s_pick+0xda>
    279e:	20 e0       	ldi	r18, 0x00	; 0
    27a0:	30 e0       	ldi	r19, 0x00	; 0
    27a2:	40 e2       	ldi	r20, 0x20	; 32
    27a4:	51 e4       	ldi	r21, 0x41	; 65
    27a6:	69 81       	ldd	r22, Y+1	; 0x01
    27a8:	7a 81       	ldd	r23, Y+2	; 0x02
    27aa:	8b 81       	ldd	r24, Y+3	; 0x03
    27ac:	9c 81       	ldd	r25, Y+4	; 0x04
    27ae:	0e 94 ce 2c 	call	0x599c	; 0x599c <__mulsf3>
    27b2:	dc 01       	movw	r26, r24
    27b4:	cb 01       	movw	r24, r22
    27b6:	bc 01       	movw	r22, r24
    27b8:	cd 01       	movw	r24, r26
    27ba:	0e 94 ec 2b 	call	0x57d8	; 0x57d8 <__fixunssfsi>
    27be:	dc 01       	movw	r26, r24
    27c0:	cb 01       	movw	r24, r22
    27c2:	9a 87       	std	Y+10, r25	; 0x0a
    27c4:	89 87       	std	Y+9, r24	; 0x09
    27c6:	0f c0       	rjmp	.+30     	; 0x27e6 <s_pick+0xd0>
    27c8:	80 e7       	ldi	r24, 0x70	; 112
    27ca:	91 e0       	ldi	r25, 0x01	; 1
    27cc:	9c 87       	std	Y+12, r25	; 0x0c
    27ce:	8b 87       	std	Y+11, r24	; 0x0b
    27d0:	8b 85       	ldd	r24, Y+11	; 0x0b
    27d2:	9c 85       	ldd	r25, Y+12	; 0x0c
    27d4:	01 97       	sbiw	r24, 0x01	; 1
    27d6:	f1 f7       	brne	.-4      	; 0x27d4 <s_pick+0xbe>
    27d8:	9c 87       	std	Y+12, r25	; 0x0c
    27da:	8b 87       	std	Y+11, r24	; 0x0b
    27dc:	89 85       	ldd	r24, Y+9	; 0x09
    27de:	9a 85       	ldd	r25, Y+10	; 0x0a
    27e0:	01 97       	sbiw	r24, 0x01	; 1
    27e2:	9a 87       	std	Y+10, r25	; 0x0a
    27e4:	89 87       	std	Y+9, r24	; 0x09
    27e6:	89 85       	ldd	r24, Y+9	; 0x09
    27e8:	9a 85       	ldd	r25, Y+10	; 0x0a
    27ea:	00 97       	sbiw	r24, 0x00	; 0
    27ec:	69 f7       	brne	.-38     	; 0x27c8 <s_pick+0xb2>
    27ee:	14 c0       	rjmp	.+40     	; 0x2818 <s_pick+0x102>
    27f0:	6d 81       	ldd	r22, Y+5	; 0x05
    27f2:	7e 81       	ldd	r23, Y+6	; 0x06
    27f4:	8f 81       	ldd	r24, Y+7	; 0x07
    27f6:	98 85       	ldd	r25, Y+8	; 0x08
    27f8:	0e 94 ec 2b 	call	0x57d8	; 0x57d8 <__fixunssfsi>
    27fc:	dc 01       	movw	r26, r24
    27fe:	cb 01       	movw	r24, r22
    2800:	9a 87       	std	Y+10, r25	; 0x0a
    2802:	89 87       	std	Y+9, r24	; 0x09
    2804:	89 85       	ldd	r24, Y+9	; 0x09
    2806:	9a 85       	ldd	r25, Y+10	; 0x0a
    2808:	9e 87       	std	Y+14, r25	; 0x0e
    280a:	8d 87       	std	Y+13, r24	; 0x0d
    280c:	8d 85       	ldd	r24, Y+13	; 0x0d
    280e:	9e 85       	ldd	r25, Y+14	; 0x0e
    2810:	01 97       	sbiw	r24, 0x01	; 1
    2812:	f1 f7       	brne	.-4      	; 0x2810 <s_pick+0xfa>
    2814:	9e 87       	std	Y+14, r25	; 0x0e
    2816:	8d 87       	std	Y+13, r24	; 0x0d
    2818:	f6 db       	rcall	.-2068   	; 0x2006 <servo_1_free>
    281a:	88 e2       	ldi	r24, 0x28	; 40
    281c:	2a db       	rcall	.-2476   	; 0x1e72 <servo_4>
    281e:	80 e0       	ldi	r24, 0x00	; 0
    2820:	90 e0       	ldi	r25, 0x00	; 0
    2822:	aa e7       	ldi	r26, 0x7A	; 122
    2824:	b4 e4       	ldi	r27, 0x44	; 68
    2826:	8f 87       	std	Y+15, r24	; 0x0f
    2828:	98 8b       	std	Y+16, r25	; 0x10
    282a:	a9 8b       	std	Y+17, r26	; 0x11
    282c:	ba 8b       	std	Y+18, r27	; 0x12
    282e:	26 e6       	ldi	r18, 0x66	; 102
    2830:	36 e6       	ldi	r19, 0x66	; 102
    2832:	46 e6       	ldi	r20, 0x66	; 102
    2834:	55 e4       	ldi	r21, 0x45	; 69
    2836:	6f 85       	ldd	r22, Y+15	; 0x0f
    2838:	78 89       	ldd	r23, Y+16	; 0x10
    283a:	89 89       	ldd	r24, Y+17	; 0x11
    283c:	9a 89       	ldd	r25, Y+18	; 0x12
    283e:	0e 94 ce 2c 	call	0x599c	; 0x599c <__mulsf3>
    2842:	dc 01       	movw	r26, r24
    2844:	cb 01       	movw	r24, r22
    2846:	8b 8b       	std	Y+19, r24	; 0x13
    2848:	9c 8b       	std	Y+20, r25	; 0x14
    284a:	ad 8b       	std	Y+21, r26	; 0x15
    284c:	be 8b       	std	Y+22, r27	; 0x16
    284e:	20 e0       	ldi	r18, 0x00	; 0
    2850:	30 e0       	ldi	r19, 0x00	; 0
    2852:	40 e8       	ldi	r20, 0x80	; 128
    2854:	5f e3       	ldi	r21, 0x3F	; 63
    2856:	6b 89       	ldd	r22, Y+19	; 0x13
    2858:	7c 89       	ldd	r23, Y+20	; 0x14
    285a:	8d 89       	ldd	r24, Y+21	; 0x15
    285c:	9e 89       	ldd	r25, Y+22	; 0x16
    285e:	0e 94 80 2b 	call	0x5700	; 0x5700 <__cmpsf2>
    2862:	88 23       	and	r24, r24
    2864:	2c f4       	brge	.+10     	; 0x2870 <s_pick+0x15a>
    2866:	81 e0       	ldi	r24, 0x01	; 1
    2868:	90 e0       	ldi	r25, 0x00	; 0
    286a:	98 8f       	std	Y+24, r25	; 0x18
    286c:	8f 8b       	std	Y+23, r24	; 0x17
    286e:	3f c0       	rjmp	.+126    	; 0x28ee <s_pick+0x1d8>
    2870:	20 e0       	ldi	r18, 0x00	; 0
    2872:	3f ef       	ldi	r19, 0xFF	; 255
    2874:	4f e7       	ldi	r20, 0x7F	; 127
    2876:	57 e4       	ldi	r21, 0x47	; 71
    2878:	6b 89       	ldd	r22, Y+19	; 0x13
    287a:	7c 89       	ldd	r23, Y+20	; 0x14
    287c:	8d 89       	ldd	r24, Y+21	; 0x15
    287e:	9e 89       	ldd	r25, Y+22	; 0x16
    2880:	0e 94 ca 2c 	call	0x5994	; 0x5994 <__gesf2>
    2884:	18 16       	cp	r1, r24
    2886:	4c f5       	brge	.+82     	; 0x28da <s_pick+0x1c4>
    2888:	20 e0       	ldi	r18, 0x00	; 0
    288a:	30 e0       	ldi	r19, 0x00	; 0
    288c:	40 e2       	ldi	r20, 0x20	; 32
    288e:	51 e4       	ldi	r21, 0x41	; 65
    2890:	6f 85       	ldd	r22, Y+15	; 0x0f
    2892:	78 89       	ldd	r23, Y+16	; 0x10
    2894:	89 89       	ldd	r24, Y+17	; 0x11
    2896:	9a 89       	ldd	r25, Y+18	; 0x12
    2898:	0e 94 ce 2c 	call	0x599c	; 0x599c <__mulsf3>
    289c:	dc 01       	movw	r26, r24
    289e:	cb 01       	movw	r24, r22
    28a0:	bc 01       	movw	r22, r24
    28a2:	cd 01       	movw	r24, r26
    28a4:	0e 94 ec 2b 	call	0x57d8	; 0x57d8 <__fixunssfsi>
    28a8:	dc 01       	movw	r26, r24
    28aa:	cb 01       	movw	r24, r22
    28ac:	98 8f       	std	Y+24, r25	; 0x18
    28ae:	8f 8b       	std	Y+23, r24	; 0x17
    28b0:	0f c0       	rjmp	.+30     	; 0x28d0 <s_pick+0x1ba>
    28b2:	80 e7       	ldi	r24, 0x70	; 112
    28b4:	91 e0       	ldi	r25, 0x01	; 1
    28b6:	9a 8f       	std	Y+26, r25	; 0x1a
    28b8:	89 8f       	std	Y+25, r24	; 0x19
    28ba:	89 8d       	ldd	r24, Y+25	; 0x19
    28bc:	9a 8d       	ldd	r25, Y+26	; 0x1a
    28be:	01 97       	sbiw	r24, 0x01	; 1
    28c0:	f1 f7       	brne	.-4      	; 0x28be <s_pick+0x1a8>
    28c2:	9a 8f       	std	Y+26, r25	; 0x1a
    28c4:	89 8f       	std	Y+25, r24	; 0x19
    28c6:	8f 89       	ldd	r24, Y+23	; 0x17
    28c8:	98 8d       	ldd	r25, Y+24	; 0x18
    28ca:	01 97       	sbiw	r24, 0x01	; 1
    28cc:	98 8f       	std	Y+24, r25	; 0x18
    28ce:	8f 8b       	std	Y+23, r24	; 0x17
    28d0:	8f 89       	ldd	r24, Y+23	; 0x17
    28d2:	98 8d       	ldd	r25, Y+24	; 0x18
    28d4:	00 97       	sbiw	r24, 0x00	; 0
    28d6:	69 f7       	brne	.-38     	; 0x28b2 <s_pick+0x19c>
    28d8:	14 c0       	rjmp	.+40     	; 0x2902 <s_pick+0x1ec>
    28da:	6b 89       	ldd	r22, Y+19	; 0x13
    28dc:	7c 89       	ldd	r23, Y+20	; 0x14
    28de:	8d 89       	ldd	r24, Y+21	; 0x15
    28e0:	9e 89       	ldd	r25, Y+22	; 0x16
    28e2:	0e 94 ec 2b 	call	0x57d8	; 0x57d8 <__fixunssfsi>
    28e6:	dc 01       	movw	r26, r24
    28e8:	cb 01       	movw	r24, r22
    28ea:	98 8f       	std	Y+24, r25	; 0x18
    28ec:	8f 8b       	std	Y+23, r24	; 0x17
    28ee:	8f 89       	ldd	r24, Y+23	; 0x17
    28f0:	98 8d       	ldd	r25, Y+24	; 0x18
    28f2:	9c 8f       	std	Y+28, r25	; 0x1c
    28f4:	8b 8f       	std	Y+27, r24	; 0x1b
    28f6:	8b 8d       	ldd	r24, Y+27	; 0x1b
    28f8:	9c 8d       	ldd	r25, Y+28	; 0x1c
    28fa:	01 97       	sbiw	r24, 0x01	; 1
    28fc:	f1 f7       	brne	.-4      	; 0x28fa <s_pick+0x1e4>
    28fe:	9c 8f       	std	Y+28, r25	; 0x1c
    2900:	8b 8f       	std	Y+27, r24	; 0x1b
    2902:	b4 db       	rcall	.-2200   	; 0x206c <servo_4_free>
    2904:	84 e6       	ldi	r24, 0x64	; 100
    2906:	a0 d9       	rcall	.-3264   	; 0x1c48 <servo_2>
    2908:	80 e0       	ldi	r24, 0x00	; 0
    290a:	90 e8       	ldi	r25, 0x80	; 128
    290c:	ab eb       	ldi	r26, 0xBB	; 187
    290e:	b4 e4       	ldi	r27, 0x44	; 68
    2910:	8d 8f       	std	Y+29, r24	; 0x1d
    2912:	9e 8f       	std	Y+30, r25	; 0x1e
    2914:	af 8f       	std	Y+31, r26	; 0x1f
    2916:	b8 a3       	std	Y+32, r27	; 0x20
    2918:	26 e6       	ldi	r18, 0x66	; 102
    291a:	36 e6       	ldi	r19, 0x66	; 102
    291c:	46 e6       	ldi	r20, 0x66	; 102
    291e:	55 e4       	ldi	r21, 0x45	; 69
    2920:	6d 8d       	ldd	r22, Y+29	; 0x1d
    2922:	7e 8d       	ldd	r23, Y+30	; 0x1e
    2924:	8f 8d       	ldd	r24, Y+31	; 0x1f
    2926:	98 a1       	ldd	r25, Y+32	; 0x20
    2928:	0e 94 ce 2c 	call	0x599c	; 0x599c <__mulsf3>
    292c:	dc 01       	movw	r26, r24
    292e:	cb 01       	movw	r24, r22
    2930:	89 a3       	std	Y+33, r24	; 0x21
    2932:	9a a3       	std	Y+34, r25	; 0x22
    2934:	ab a3       	std	Y+35, r26	; 0x23
    2936:	bc a3       	std	Y+36, r27	; 0x24
    2938:	20 e0       	ldi	r18, 0x00	; 0
    293a:	30 e0       	ldi	r19, 0x00	; 0
    293c:	40 e8       	ldi	r20, 0x80	; 128
    293e:	5f e3       	ldi	r21, 0x3F	; 63
    2940:	69 a1       	ldd	r22, Y+33	; 0x21
    2942:	7a a1       	ldd	r23, Y+34	; 0x22
    2944:	8b a1       	ldd	r24, Y+35	; 0x23
    2946:	9c a1       	ldd	r25, Y+36	; 0x24
    2948:	0e 94 80 2b 	call	0x5700	; 0x5700 <__cmpsf2>
    294c:	88 23       	and	r24, r24
    294e:	2c f4       	brge	.+10     	; 0x295a <s_pick+0x244>
    2950:	81 e0       	ldi	r24, 0x01	; 1
    2952:	90 e0       	ldi	r25, 0x00	; 0
    2954:	9e a3       	std	Y+38, r25	; 0x26
    2956:	8d a3       	std	Y+37, r24	; 0x25
    2958:	3f c0       	rjmp	.+126    	; 0x29d8 <s_pick+0x2c2>
    295a:	20 e0       	ldi	r18, 0x00	; 0
    295c:	3f ef       	ldi	r19, 0xFF	; 255
    295e:	4f e7       	ldi	r20, 0x7F	; 127
    2960:	57 e4       	ldi	r21, 0x47	; 71
    2962:	69 a1       	ldd	r22, Y+33	; 0x21
    2964:	7a a1       	ldd	r23, Y+34	; 0x22
    2966:	8b a1       	ldd	r24, Y+35	; 0x23
    2968:	9c a1       	ldd	r25, Y+36	; 0x24
    296a:	0e 94 ca 2c 	call	0x5994	; 0x5994 <__gesf2>
    296e:	18 16       	cp	r1, r24
    2970:	4c f5       	brge	.+82     	; 0x29c4 <s_pick+0x2ae>
    2972:	20 e0       	ldi	r18, 0x00	; 0
    2974:	30 e0       	ldi	r19, 0x00	; 0
    2976:	40 e2       	ldi	r20, 0x20	; 32
    2978:	51 e4       	ldi	r21, 0x41	; 65
    297a:	6d 8d       	ldd	r22, Y+29	; 0x1d
    297c:	7e 8d       	ldd	r23, Y+30	; 0x1e
    297e:	8f 8d       	ldd	r24, Y+31	; 0x1f
    2980:	98 a1       	ldd	r25, Y+32	; 0x20
    2982:	0e 94 ce 2c 	call	0x599c	; 0x599c <__mulsf3>
    2986:	dc 01       	movw	r26, r24
    2988:	cb 01       	movw	r24, r22
    298a:	bc 01       	movw	r22, r24
    298c:	cd 01       	movw	r24, r26
    298e:	0e 94 ec 2b 	call	0x57d8	; 0x57d8 <__fixunssfsi>
    2992:	dc 01       	movw	r26, r24
    2994:	cb 01       	movw	r24, r22
    2996:	9e a3       	std	Y+38, r25	; 0x26
    2998:	8d a3       	std	Y+37, r24	; 0x25
    299a:	0f c0       	rjmp	.+30     	; 0x29ba <s_pick+0x2a4>
    299c:	80 e7       	ldi	r24, 0x70	; 112
    299e:	91 e0       	ldi	r25, 0x01	; 1
    29a0:	98 a7       	std	Y+40, r25	; 0x28
    29a2:	8f a3       	std	Y+39, r24	; 0x27
    29a4:	8f a1       	ldd	r24, Y+39	; 0x27
    29a6:	98 a5       	ldd	r25, Y+40	; 0x28
    29a8:	01 97       	sbiw	r24, 0x01	; 1
    29aa:	f1 f7       	brne	.-4      	; 0x29a8 <s_pick+0x292>
    29ac:	98 a7       	std	Y+40, r25	; 0x28
    29ae:	8f a3       	std	Y+39, r24	; 0x27
    29b0:	8d a1       	ldd	r24, Y+37	; 0x25
    29b2:	9e a1       	ldd	r25, Y+38	; 0x26
    29b4:	01 97       	sbiw	r24, 0x01	; 1
    29b6:	9e a3       	std	Y+38, r25	; 0x26
    29b8:	8d a3       	std	Y+37, r24	; 0x25
    29ba:	8d a1       	ldd	r24, Y+37	; 0x25
    29bc:	9e a1       	ldd	r25, Y+38	; 0x26
    29be:	00 97       	sbiw	r24, 0x00	; 0
    29c0:	69 f7       	brne	.-38     	; 0x299c <s_pick+0x286>
    29c2:	14 c0       	rjmp	.+40     	; 0x29ec <s_pick+0x2d6>
    29c4:	69 a1       	ldd	r22, Y+33	; 0x21
    29c6:	7a a1       	ldd	r23, Y+34	; 0x22
    29c8:	8b a1       	ldd	r24, Y+35	; 0x23
    29ca:	9c a1       	ldd	r25, Y+36	; 0x24
    29cc:	0e 94 ec 2b 	call	0x57d8	; 0x57d8 <__fixunssfsi>
    29d0:	dc 01       	movw	r26, r24
    29d2:	cb 01       	movw	r24, r22
    29d4:	9e a3       	std	Y+38, r25	; 0x26
    29d6:	8d a3       	std	Y+37, r24	; 0x25
    29d8:	8d a1       	ldd	r24, Y+37	; 0x25
    29da:	9e a1       	ldd	r25, Y+38	; 0x26
    29dc:	9a a7       	std	Y+42, r25	; 0x2a
    29de:	89 a7       	std	Y+41, r24	; 0x29
    29e0:	89 a5       	ldd	r24, Y+41	; 0x29
    29e2:	9a a5       	ldd	r25, Y+42	; 0x2a
    29e4:	01 97       	sbiw	r24, 0x01	; 1
    29e6:	f1 f7       	brne	.-4      	; 0x29e4 <s_pick+0x2ce>
    29e8:	9a a7       	std	Y+42, r25	; 0x2a
    29ea:	89 a7       	std	Y+41, r24	; 0x29
    29ec:	80 ea       	ldi	r24, 0xA0	; 160
    29ee:	41 da       	rcall	.-2942   	; 0x1e72 <servo_4>
    29f0:	80 e0       	ldi	r24, 0x00	; 0
    29f2:	90 e8       	ldi	r25, 0x80	; 128
    29f4:	ab e3       	ldi	r26, 0x3B	; 59
    29f6:	b4 e4       	ldi	r27, 0x44	; 68
    29f8:	8b a7       	std	Y+43, r24	; 0x2b
    29fa:	9c a7       	std	Y+44, r25	; 0x2c
    29fc:	ad a7       	std	Y+45, r26	; 0x2d
    29fe:	be a7       	std	Y+46, r27	; 0x2e
    2a00:	26 e6       	ldi	r18, 0x66	; 102
    2a02:	36 e6       	ldi	r19, 0x66	; 102
    2a04:	46 e6       	ldi	r20, 0x66	; 102
    2a06:	55 e4       	ldi	r21, 0x45	; 69
    2a08:	6b a5       	ldd	r22, Y+43	; 0x2b
    2a0a:	7c a5       	ldd	r23, Y+44	; 0x2c
    2a0c:	8d a5       	ldd	r24, Y+45	; 0x2d
    2a0e:	9e a5       	ldd	r25, Y+46	; 0x2e
    2a10:	0e 94 ce 2c 	call	0x599c	; 0x599c <__mulsf3>
    2a14:	dc 01       	movw	r26, r24
    2a16:	cb 01       	movw	r24, r22
    2a18:	8f a7       	std	Y+47, r24	; 0x2f
    2a1a:	98 ab       	std	Y+48, r25	; 0x30
    2a1c:	a9 ab       	std	Y+49, r26	; 0x31
    2a1e:	ba ab       	std	Y+50, r27	; 0x32
    2a20:	20 e0       	ldi	r18, 0x00	; 0
    2a22:	30 e0       	ldi	r19, 0x00	; 0
    2a24:	40 e8       	ldi	r20, 0x80	; 128
    2a26:	5f e3       	ldi	r21, 0x3F	; 63
    2a28:	6f a5       	ldd	r22, Y+47	; 0x2f
    2a2a:	78 a9       	ldd	r23, Y+48	; 0x30
    2a2c:	89 a9       	ldd	r24, Y+49	; 0x31
    2a2e:	9a a9       	ldd	r25, Y+50	; 0x32
    2a30:	0e 94 80 2b 	call	0x5700	; 0x5700 <__cmpsf2>
    2a34:	88 23       	and	r24, r24
    2a36:	2c f4       	brge	.+10     	; 0x2a42 <s_pick+0x32c>
    2a38:	81 e0       	ldi	r24, 0x01	; 1
    2a3a:	90 e0       	ldi	r25, 0x00	; 0
    2a3c:	9c ab       	std	Y+52, r25	; 0x34
    2a3e:	8b ab       	std	Y+51, r24	; 0x33
    2a40:	3f c0       	rjmp	.+126    	; 0x2ac0 <s_pick+0x3aa>
    2a42:	20 e0       	ldi	r18, 0x00	; 0
    2a44:	3f ef       	ldi	r19, 0xFF	; 255
    2a46:	4f e7       	ldi	r20, 0x7F	; 127
    2a48:	57 e4       	ldi	r21, 0x47	; 71
    2a4a:	6f a5       	ldd	r22, Y+47	; 0x2f
    2a4c:	78 a9       	ldd	r23, Y+48	; 0x30
    2a4e:	89 a9       	ldd	r24, Y+49	; 0x31
    2a50:	9a a9       	ldd	r25, Y+50	; 0x32
    2a52:	0e 94 ca 2c 	call	0x5994	; 0x5994 <__gesf2>
    2a56:	18 16       	cp	r1, r24
    2a58:	4c f5       	brge	.+82     	; 0x2aac <s_pick+0x396>
    2a5a:	20 e0       	ldi	r18, 0x00	; 0
    2a5c:	30 e0       	ldi	r19, 0x00	; 0
    2a5e:	40 e2       	ldi	r20, 0x20	; 32
    2a60:	51 e4       	ldi	r21, 0x41	; 65
    2a62:	6b a5       	ldd	r22, Y+43	; 0x2b
    2a64:	7c a5       	ldd	r23, Y+44	; 0x2c
    2a66:	8d a5       	ldd	r24, Y+45	; 0x2d
    2a68:	9e a5       	ldd	r25, Y+46	; 0x2e
    2a6a:	0e 94 ce 2c 	call	0x599c	; 0x599c <__mulsf3>
    2a6e:	dc 01       	movw	r26, r24
    2a70:	cb 01       	movw	r24, r22
    2a72:	bc 01       	movw	r22, r24
    2a74:	cd 01       	movw	r24, r26
    2a76:	0e 94 ec 2b 	call	0x57d8	; 0x57d8 <__fixunssfsi>
    2a7a:	dc 01       	movw	r26, r24
    2a7c:	cb 01       	movw	r24, r22
    2a7e:	9c ab       	std	Y+52, r25	; 0x34
    2a80:	8b ab       	std	Y+51, r24	; 0x33
    2a82:	0f c0       	rjmp	.+30     	; 0x2aa2 <s_pick+0x38c>
    2a84:	80 e7       	ldi	r24, 0x70	; 112
    2a86:	91 e0       	ldi	r25, 0x01	; 1
    2a88:	9e ab       	std	Y+54, r25	; 0x36
    2a8a:	8d ab       	std	Y+53, r24	; 0x35
    2a8c:	8d a9       	ldd	r24, Y+53	; 0x35
    2a8e:	9e a9       	ldd	r25, Y+54	; 0x36
    2a90:	01 97       	sbiw	r24, 0x01	; 1
    2a92:	f1 f7       	brne	.-4      	; 0x2a90 <s_pick+0x37a>
    2a94:	9e ab       	std	Y+54, r25	; 0x36
    2a96:	8d ab       	std	Y+53, r24	; 0x35
    2a98:	8b a9       	ldd	r24, Y+51	; 0x33
    2a9a:	9c a9       	ldd	r25, Y+52	; 0x34
    2a9c:	01 97       	sbiw	r24, 0x01	; 1
    2a9e:	9c ab       	std	Y+52, r25	; 0x34
    2aa0:	8b ab       	std	Y+51, r24	; 0x33
    2aa2:	8b a9       	ldd	r24, Y+51	; 0x33
    2aa4:	9c a9       	ldd	r25, Y+52	; 0x34
    2aa6:	00 97       	sbiw	r24, 0x00	; 0
    2aa8:	69 f7       	brne	.-38     	; 0x2a84 <s_pick+0x36e>
    2aaa:	14 c0       	rjmp	.+40     	; 0x2ad4 <s_pick+0x3be>
    2aac:	6f a5       	ldd	r22, Y+47	; 0x2f
    2aae:	78 a9       	ldd	r23, Y+48	; 0x30
    2ab0:	89 a9       	ldd	r24, Y+49	; 0x31
    2ab2:	9a a9       	ldd	r25, Y+50	; 0x32
    2ab4:	0e 94 ec 2b 	call	0x57d8	; 0x57d8 <__fixunssfsi>
    2ab8:	dc 01       	movw	r26, r24
    2aba:	cb 01       	movw	r24, r22
    2abc:	9c ab       	std	Y+52, r25	; 0x34
    2abe:	8b ab       	std	Y+51, r24	; 0x33
    2ac0:	8b a9       	ldd	r24, Y+51	; 0x33
    2ac2:	9c a9       	ldd	r25, Y+52	; 0x34
    2ac4:	98 af       	std	Y+56, r25	; 0x38
    2ac6:	8f ab       	std	Y+55, r24	; 0x37
    2ac8:	8f a9       	ldd	r24, Y+55	; 0x37
    2aca:	98 ad       	ldd	r25, Y+56	; 0x38
    2acc:	01 97       	sbiw	r24, 0x01	; 1
    2ace:	f1 f7       	brne	.-4      	; 0x2acc <s_pick+0x3b6>
    2ad0:	98 af       	std	Y+56, r25	; 0x38
    2ad2:	8f ab       	std	Y+55, r24	; 0x37
    2ad4:	80 e0       	ldi	r24, 0x00	; 0
    2ad6:	b8 d8       	rcall	.-3728   	; 0x1c48 <servo_2>
    2ad8:	80 e0       	ldi	r24, 0x00	; 0
    2ada:	90 e0       	ldi	r25, 0x00	; 0
    2adc:	aa e7       	ldi	r26, 0x7A	; 122
    2ade:	b4 e4       	ldi	r27, 0x44	; 68
    2ae0:	89 af       	std	Y+57, r24	; 0x39
    2ae2:	9a af       	std	Y+58, r25	; 0x3a
    2ae4:	ab af       	std	Y+59, r26	; 0x3b
    2ae6:	bc af       	std	Y+60, r27	; 0x3c
    2ae8:	26 e6       	ldi	r18, 0x66	; 102
    2aea:	36 e6       	ldi	r19, 0x66	; 102
    2aec:	46 e6       	ldi	r20, 0x66	; 102
    2aee:	55 e4       	ldi	r21, 0x45	; 69
    2af0:	69 ad       	ldd	r22, Y+57	; 0x39
    2af2:	7a ad       	ldd	r23, Y+58	; 0x3a
    2af4:	8b ad       	ldd	r24, Y+59	; 0x3b
    2af6:	9c ad       	ldd	r25, Y+60	; 0x3c
    2af8:	0e 94 ce 2c 	call	0x599c	; 0x599c <__mulsf3>
    2afc:	dc 01       	movw	r26, r24
    2afe:	cb 01       	movw	r24, r22
    2b00:	9e 01       	movw	r18, r28
    2b02:	23 5c       	subi	r18, 0xC3	; 195
    2b04:	3f 4f       	sbci	r19, 0xFF	; 255
    2b06:	f9 01       	movw	r30, r18
    2b08:	80 83       	st	Z, r24
    2b0a:	91 83       	std	Z+1, r25	; 0x01
    2b0c:	a2 83       	std	Z+2, r26	; 0x02
    2b0e:	b3 83       	std	Z+3, r27	; 0x03
    2b10:	20 e0       	ldi	r18, 0x00	; 0
    2b12:	30 e0       	ldi	r19, 0x00	; 0
    2b14:	40 e8       	ldi	r20, 0x80	; 128
    2b16:	5f e3       	ldi	r21, 0x3F	; 63
    2b18:	ce 01       	movw	r24, r28
    2b1a:	cd 96       	adiw	r24, 0x3d	; 61
    2b1c:	fc 01       	movw	r30, r24
    2b1e:	60 81       	ld	r22, Z
    2b20:	71 81       	ldd	r23, Z+1	; 0x01
    2b22:	82 81       	ldd	r24, Z+2	; 0x02
    2b24:	93 81       	ldd	r25, Z+3	; 0x03
    2b26:	0e 94 80 2b 	call	0x5700	; 0x5700 <__cmpsf2>
    2b2a:	88 23       	and	r24, r24
    2b2c:	4c f4       	brge	.+18     	; 0x2b40 <s_pick+0x42a>
    2b2e:	ce 01       	movw	r24, r28
    2b30:	8f 5b       	subi	r24, 0xBF	; 191
    2b32:	9f 4f       	sbci	r25, 0xFF	; 255
    2b34:	21 e0       	ldi	r18, 0x01	; 1
    2b36:	30 e0       	ldi	r19, 0x00	; 0
    2b38:	fc 01       	movw	r30, r24
    2b3a:	31 83       	std	Z+1, r19	; 0x01
    2b3c:	20 83       	st	Z, r18
    2b3e:	67 c0       	rjmp	.+206    	; 0x2c0e <s_pick+0x4f8>
    2b40:	20 e0       	ldi	r18, 0x00	; 0
    2b42:	3f ef       	ldi	r19, 0xFF	; 255
    2b44:	4f e7       	ldi	r20, 0x7F	; 127
    2b46:	57 e4       	ldi	r21, 0x47	; 71
    2b48:	ce 01       	movw	r24, r28
    2b4a:	cd 96       	adiw	r24, 0x3d	; 61
    2b4c:	fc 01       	movw	r30, r24
    2b4e:	60 81       	ld	r22, Z
    2b50:	71 81       	ldd	r23, Z+1	; 0x01
    2b52:	82 81       	ldd	r24, Z+2	; 0x02
    2b54:	93 81       	ldd	r25, Z+3	; 0x03
    2b56:	0e 94 ca 2c 	call	0x5994	; 0x5994 <__gesf2>
    2b5a:	18 16       	cp	r1, r24
    2b5c:	0c f0       	brlt	.+2      	; 0x2b60 <s_pick+0x44a>
    2b5e:	46 c0       	rjmp	.+140    	; 0x2bec <s_pick+0x4d6>
    2b60:	20 e0       	ldi	r18, 0x00	; 0
    2b62:	30 e0       	ldi	r19, 0x00	; 0
    2b64:	40 e2       	ldi	r20, 0x20	; 32
    2b66:	51 e4       	ldi	r21, 0x41	; 65
    2b68:	69 ad       	ldd	r22, Y+57	; 0x39
    2b6a:	7a ad       	ldd	r23, Y+58	; 0x3a
    2b6c:	8b ad       	ldd	r24, Y+59	; 0x3b
    2b6e:	9c ad       	ldd	r25, Y+60	; 0x3c
    2b70:	0e 94 ce 2c 	call	0x599c	; 0x599c <__mulsf3>
    2b74:	dc 01       	movw	r26, r24
    2b76:	cb 01       	movw	r24, r22
    2b78:	8e 01       	movw	r16, r28
    2b7a:	0f 5b       	subi	r16, 0xBF	; 191
    2b7c:	1f 4f       	sbci	r17, 0xFF	; 255
    2b7e:	bc 01       	movw	r22, r24
    2b80:	cd 01       	movw	r24, r26
    2b82:	0e 94 ec 2b 	call	0x57d8	; 0x57d8 <__fixunssfsi>
    2b86:	dc 01       	movw	r26, r24
    2b88:	cb 01       	movw	r24, r22
    2b8a:	f8 01       	movw	r30, r16
    2b8c:	91 83       	std	Z+1, r25	; 0x01
    2b8e:	80 83       	st	Z, r24
    2b90:	24 c0       	rjmp	.+72     	; 0x2bda <s_pick+0x4c4>
    2b92:	ce 01       	movw	r24, r28
    2b94:	8d 5b       	subi	r24, 0xBD	; 189
    2b96:	9f 4f       	sbci	r25, 0xFF	; 255
    2b98:	20 e7       	ldi	r18, 0x70	; 112
    2b9a:	31 e0       	ldi	r19, 0x01	; 1
    2b9c:	fc 01       	movw	r30, r24
    2b9e:	31 83       	std	Z+1, r19	; 0x01
    2ba0:	20 83       	st	Z, r18
    2ba2:	ce 01       	movw	r24, r28
    2ba4:	8d 5b       	subi	r24, 0xBD	; 189
    2ba6:	9f 4f       	sbci	r25, 0xFF	; 255
    2ba8:	fc 01       	movw	r30, r24
    2baa:	80 81       	ld	r24, Z
    2bac:	91 81       	ldd	r25, Z+1	; 0x01
    2bae:	01 97       	sbiw	r24, 0x01	; 1
    2bb0:	f1 f7       	brne	.-4      	; 0x2bae <s_pick+0x498>
    2bb2:	9e 01       	movw	r18, r28
    2bb4:	2d 5b       	subi	r18, 0xBD	; 189
    2bb6:	3f 4f       	sbci	r19, 0xFF	; 255
    2bb8:	f9 01       	movw	r30, r18
    2bba:	91 83       	std	Z+1, r25	; 0x01
    2bbc:	80 83       	st	Z, r24
    2bbe:	ce 01       	movw	r24, r28
    2bc0:	8f 5b       	subi	r24, 0xBF	; 191
    2bc2:	9f 4f       	sbci	r25, 0xFF	; 255
    2bc4:	9e 01       	movw	r18, r28
    2bc6:	2f 5b       	subi	r18, 0xBF	; 191
    2bc8:	3f 4f       	sbci	r19, 0xFF	; 255
    2bca:	f9 01       	movw	r30, r18
    2bcc:	20 81       	ld	r18, Z
    2bce:	31 81       	ldd	r19, Z+1	; 0x01
    2bd0:	21 50       	subi	r18, 0x01	; 1
    2bd2:	31 09       	sbc	r19, r1
    2bd4:	fc 01       	movw	r30, r24
    2bd6:	31 83       	std	Z+1, r19	; 0x01
    2bd8:	20 83       	st	Z, r18
    2bda:	ce 01       	movw	r24, r28
    2bdc:	8f 5b       	subi	r24, 0xBF	; 191
    2bde:	9f 4f       	sbci	r25, 0xFF	; 255
    2be0:	fc 01       	movw	r30, r24
    2be2:	80 81       	ld	r24, Z
    2be4:	91 81       	ldd	r25, Z+1	; 0x01
    2be6:	00 97       	sbiw	r24, 0x00	; 0
    2be8:	a1 f6       	brne	.-88     	; 0x2b92 <s_pick+0x47c>
    2bea:	2b c0       	rjmp	.+86     	; 0x2c42 <s_pick+0x52c>
    2bec:	8e 01       	movw	r16, r28
    2bee:	0f 5b       	subi	r16, 0xBF	; 191
    2bf0:	1f 4f       	sbci	r17, 0xFF	; 255
    2bf2:	ce 01       	movw	r24, r28
    2bf4:	cd 96       	adiw	r24, 0x3d	; 61
    2bf6:	fc 01       	movw	r30, r24
    2bf8:	60 81       	ld	r22, Z
    2bfa:	71 81       	ldd	r23, Z+1	; 0x01
    2bfc:	82 81       	ldd	r24, Z+2	; 0x02
    2bfe:	93 81       	ldd	r25, Z+3	; 0x03
    2c00:	0e 94 ec 2b 	call	0x57d8	; 0x57d8 <__fixunssfsi>
    2c04:	dc 01       	movw	r26, r24
    2c06:	cb 01       	movw	r24, r22
    2c08:	f8 01       	movw	r30, r16
    2c0a:	91 83       	std	Z+1, r25	; 0x01
    2c0c:	80 83       	st	Z, r24
    2c0e:	ce 01       	movw	r24, r28
    2c10:	8b 5b       	subi	r24, 0xBB	; 187
    2c12:	9f 4f       	sbci	r25, 0xFF	; 255
    2c14:	9e 01       	movw	r18, r28
    2c16:	2f 5b       	subi	r18, 0xBF	; 191
    2c18:	3f 4f       	sbci	r19, 0xFF	; 255
    2c1a:	f9 01       	movw	r30, r18
    2c1c:	20 81       	ld	r18, Z
    2c1e:	31 81       	ldd	r19, Z+1	; 0x01
    2c20:	fc 01       	movw	r30, r24
    2c22:	31 83       	std	Z+1, r19	; 0x01
    2c24:	20 83       	st	Z, r18
    2c26:	ce 01       	movw	r24, r28
    2c28:	8b 5b       	subi	r24, 0xBB	; 187
    2c2a:	9f 4f       	sbci	r25, 0xFF	; 255
    2c2c:	fc 01       	movw	r30, r24
    2c2e:	80 81       	ld	r24, Z
    2c30:	91 81       	ldd	r25, Z+1	; 0x01
    2c32:	01 97       	sbiw	r24, 0x01	; 1
    2c34:	f1 f7       	brne	.-4      	; 0x2c32 <s_pick+0x51c>
    2c36:	9e 01       	movw	r18, r28
    2c38:	2b 5b       	subi	r18, 0xBB	; 187
    2c3a:	3f 4f       	sbci	r19, 0xFF	; 255
    2c3c:	f9 01       	movw	r30, r18
    2c3e:	91 83       	std	Z+1, r25	; 0x01
    2c40:	80 83       	st	Z, r24
    2c42:	f2 d9       	rcall	.-3100   	; 0x2028 <servo_2_free>
    2c44:	8a e5       	ldi	r24, 0x5A	; 90
    2c46:	0e 94 d9 0d 	call	0x1bb2	; 0x1bb2 <servo_1>
    2c4a:	9e 01       	movw	r18, r28
    2c4c:	29 5b       	subi	r18, 0xB9	; 185
    2c4e:	3f 4f       	sbci	r19, 0xFF	; 255
    2c50:	80 e0       	ldi	r24, 0x00	; 0
    2c52:	90 e8       	ldi	r25, 0x80	; 128
    2c54:	ab e3       	ldi	r26, 0x3B	; 59
    2c56:	b4 e4       	ldi	r27, 0x44	; 68
    2c58:	f9 01       	movw	r30, r18
    2c5a:	80 83       	st	Z, r24
    2c5c:	91 83       	std	Z+1, r25	; 0x01
    2c5e:	a2 83       	std	Z+2, r26	; 0x02
    2c60:	b3 83       	std	Z+3, r27	; 0x03
    2c62:	8e 01       	movw	r16, r28
    2c64:	05 5b       	subi	r16, 0xB5	; 181
    2c66:	1f 4f       	sbci	r17, 0xFF	; 255
    2c68:	ce 01       	movw	r24, r28
    2c6a:	89 5b       	subi	r24, 0xB9	; 185
    2c6c:	9f 4f       	sbci	r25, 0xFF	; 255
    2c6e:	26 e6       	ldi	r18, 0x66	; 102
    2c70:	36 e6       	ldi	r19, 0x66	; 102
    2c72:	46 e6       	ldi	r20, 0x66	; 102
    2c74:	55 e4       	ldi	r21, 0x45	; 69
    2c76:	fc 01       	movw	r30, r24
    2c78:	60 81       	ld	r22, Z
    2c7a:	71 81       	ldd	r23, Z+1	; 0x01
    2c7c:	82 81       	ldd	r24, Z+2	; 0x02
    2c7e:	93 81       	ldd	r25, Z+3	; 0x03
    2c80:	0e 94 ce 2c 	call	0x599c	; 0x599c <__mulsf3>
    2c84:	dc 01       	movw	r26, r24
    2c86:	cb 01       	movw	r24, r22
    2c88:	f8 01       	movw	r30, r16
    2c8a:	80 83       	st	Z, r24
    2c8c:	91 83       	std	Z+1, r25	; 0x01
    2c8e:	a2 83       	std	Z+2, r26	; 0x02
    2c90:	b3 83       	std	Z+3, r27	; 0x03
    2c92:	ce 01       	movw	r24, r28
    2c94:	85 5b       	subi	r24, 0xB5	; 181
    2c96:	9f 4f       	sbci	r25, 0xFF	; 255
    2c98:	20 e0       	ldi	r18, 0x00	; 0
    2c9a:	30 e0       	ldi	r19, 0x00	; 0
    2c9c:	40 e8       	ldi	r20, 0x80	; 128
    2c9e:	5f e3       	ldi	r21, 0x3F	; 63
    2ca0:	fc 01       	movw	r30, r24
    2ca2:	60 81       	ld	r22, Z
    2ca4:	71 81       	ldd	r23, Z+1	; 0x01
    2ca6:	82 81       	ldd	r24, Z+2	; 0x02
    2ca8:	93 81       	ldd	r25, Z+3	; 0x03
    2caa:	0e 94 80 2b 	call	0x5700	; 0x5700 <__cmpsf2>
    2cae:	88 23       	and	r24, r24
    2cb0:	4c f4       	brge	.+18     	; 0x2cc4 <s_pick+0x5ae>
    2cb2:	ce 01       	movw	r24, r28
    2cb4:	81 5b       	subi	r24, 0xB1	; 177
    2cb6:	9f 4f       	sbci	r25, 0xFF	; 255
    2cb8:	21 e0       	ldi	r18, 0x01	; 1
    2cba:	30 e0       	ldi	r19, 0x00	; 0
    2cbc:	fc 01       	movw	r30, r24
    2cbe:	31 83       	std	Z+1, r19	; 0x01
    2cc0:	20 83       	st	Z, r18
    2cc2:	6d c0       	rjmp	.+218    	; 0x2d9e <s_pick+0x688>
    2cc4:	ce 01       	movw	r24, r28
    2cc6:	85 5b       	subi	r24, 0xB5	; 181
    2cc8:	9f 4f       	sbci	r25, 0xFF	; 255
    2cca:	20 e0       	ldi	r18, 0x00	; 0
    2ccc:	3f ef       	ldi	r19, 0xFF	; 255
    2cce:	4f e7       	ldi	r20, 0x7F	; 127
    2cd0:	57 e4       	ldi	r21, 0x47	; 71
    2cd2:	fc 01       	movw	r30, r24
    2cd4:	60 81       	ld	r22, Z
    2cd6:	71 81       	ldd	r23, Z+1	; 0x01
    2cd8:	82 81       	ldd	r24, Z+2	; 0x02
    2cda:	93 81       	ldd	r25, Z+3	; 0x03
    2cdc:	0e 94 ca 2c 	call	0x5994	; 0x5994 <__gesf2>
    2ce0:	18 16       	cp	r1, r24
    2ce2:	0c f0       	brlt	.+2      	; 0x2ce6 <s_pick+0x5d0>
    2ce4:	4a c0       	rjmp	.+148    	; 0x2d7a <s_pick+0x664>
    2ce6:	ce 01       	movw	r24, r28
    2ce8:	89 5b       	subi	r24, 0xB9	; 185
    2cea:	9f 4f       	sbci	r25, 0xFF	; 255
    2cec:	20 e0       	ldi	r18, 0x00	; 0
    2cee:	30 e0       	ldi	r19, 0x00	; 0
    2cf0:	40 e2       	ldi	r20, 0x20	; 32
    2cf2:	51 e4       	ldi	r21, 0x41	; 65
    2cf4:	fc 01       	movw	r30, r24
    2cf6:	60 81       	ld	r22, Z
    2cf8:	71 81       	ldd	r23, Z+1	; 0x01
    2cfa:	82 81       	ldd	r24, Z+2	; 0x02
    2cfc:	93 81       	ldd	r25, Z+3	; 0x03
    2cfe:	0e 94 ce 2c 	call	0x599c	; 0x599c <__mulsf3>
    2d02:	dc 01       	movw	r26, r24
    2d04:	cb 01       	movw	r24, r22
    2d06:	8e 01       	movw	r16, r28
    2d08:	01 5b       	subi	r16, 0xB1	; 177
    2d0a:	1f 4f       	sbci	r17, 0xFF	; 255
    2d0c:	bc 01       	movw	r22, r24
    2d0e:	cd 01       	movw	r24, r26
    2d10:	0e 94 ec 2b 	call	0x57d8	; 0x57d8 <__fixunssfsi>
    2d14:	dc 01       	movw	r26, r24
    2d16:	cb 01       	movw	r24, r22
    2d18:	f8 01       	movw	r30, r16
    2d1a:	91 83       	std	Z+1, r25	; 0x01
    2d1c:	80 83       	st	Z, r24
    2d1e:	24 c0       	rjmp	.+72     	; 0x2d68 <s_pick+0x652>
    2d20:	ce 01       	movw	r24, r28
    2d22:	8f 5a       	subi	r24, 0xAF	; 175
    2d24:	9f 4f       	sbci	r25, 0xFF	; 255
    2d26:	20 e7       	ldi	r18, 0x70	; 112
    2d28:	31 e0       	ldi	r19, 0x01	; 1
    2d2a:	fc 01       	movw	r30, r24
    2d2c:	31 83       	std	Z+1, r19	; 0x01
    2d2e:	20 83       	st	Z, r18
    2d30:	ce 01       	movw	r24, r28
    2d32:	8f 5a       	subi	r24, 0xAF	; 175
    2d34:	9f 4f       	sbci	r25, 0xFF	; 255
    2d36:	fc 01       	movw	r30, r24
    2d38:	80 81       	ld	r24, Z
    2d3a:	91 81       	ldd	r25, Z+1	; 0x01
    2d3c:	01 97       	sbiw	r24, 0x01	; 1
    2d3e:	f1 f7       	brne	.-4      	; 0x2d3c <s_pick+0x626>
    2d40:	9e 01       	movw	r18, r28
    2d42:	2f 5a       	subi	r18, 0xAF	; 175
    2d44:	3f 4f       	sbci	r19, 0xFF	; 255
    2d46:	f9 01       	movw	r30, r18
    2d48:	91 83       	std	Z+1, r25	; 0x01
    2d4a:	80 83       	st	Z, r24
    2d4c:	ce 01       	movw	r24, r28
    2d4e:	81 5b       	subi	r24, 0xB1	; 177
    2d50:	9f 4f       	sbci	r25, 0xFF	; 255
    2d52:	9e 01       	movw	r18, r28
    2d54:	21 5b       	subi	r18, 0xB1	; 177
    2d56:	3f 4f       	sbci	r19, 0xFF	; 255
    2d58:	f9 01       	movw	r30, r18
    2d5a:	20 81       	ld	r18, Z
    2d5c:	31 81       	ldd	r19, Z+1	; 0x01
    2d5e:	21 50       	subi	r18, 0x01	; 1
    2d60:	31 09       	sbc	r19, r1
    2d62:	fc 01       	movw	r30, r24
    2d64:	31 83       	std	Z+1, r19	; 0x01
    2d66:	20 83       	st	Z, r18
    2d68:	ce 01       	movw	r24, r28
    2d6a:	81 5b       	subi	r24, 0xB1	; 177
    2d6c:	9f 4f       	sbci	r25, 0xFF	; 255
    2d6e:	fc 01       	movw	r30, r24
    2d70:	80 81       	ld	r24, Z
    2d72:	91 81       	ldd	r25, Z+1	; 0x01
    2d74:	00 97       	sbiw	r24, 0x00	; 0
    2d76:	a1 f6       	brne	.-88     	; 0x2d20 <s_pick+0x60a>
    2d78:	2c c0       	rjmp	.+88     	; 0x2dd2 <s_pick+0x6bc>
    2d7a:	8e 01       	movw	r16, r28
    2d7c:	01 5b       	subi	r16, 0xB1	; 177
    2d7e:	1f 4f       	sbci	r17, 0xFF	; 255
    2d80:	ce 01       	movw	r24, r28
    2d82:	85 5b       	subi	r24, 0xB5	; 181
    2d84:	9f 4f       	sbci	r25, 0xFF	; 255
    2d86:	fc 01       	movw	r30, r24
    2d88:	60 81       	ld	r22, Z
    2d8a:	71 81       	ldd	r23, Z+1	; 0x01
    2d8c:	82 81       	ldd	r24, Z+2	; 0x02
    2d8e:	93 81       	ldd	r25, Z+3	; 0x03
    2d90:	0e 94 ec 2b 	call	0x57d8	; 0x57d8 <__fixunssfsi>
    2d94:	dc 01       	movw	r26, r24
    2d96:	cb 01       	movw	r24, r22
    2d98:	f8 01       	movw	r30, r16
    2d9a:	91 83       	std	Z+1, r25	; 0x01
    2d9c:	80 83       	st	Z, r24
    2d9e:	ce 01       	movw	r24, r28
    2da0:	8d 5a       	subi	r24, 0xAD	; 173
    2da2:	9f 4f       	sbci	r25, 0xFF	; 255
    2da4:	9e 01       	movw	r18, r28
    2da6:	21 5b       	subi	r18, 0xB1	; 177
    2da8:	3f 4f       	sbci	r19, 0xFF	; 255
    2daa:	f9 01       	movw	r30, r18
    2dac:	20 81       	ld	r18, Z
    2dae:	31 81       	ldd	r19, Z+1	; 0x01
    2db0:	fc 01       	movw	r30, r24
    2db2:	31 83       	std	Z+1, r19	; 0x01
    2db4:	20 83       	st	Z, r18
    2db6:	ce 01       	movw	r24, r28
    2db8:	8d 5a       	subi	r24, 0xAD	; 173
    2dba:	9f 4f       	sbci	r25, 0xFF	; 255
    2dbc:	fc 01       	movw	r30, r24
    2dbe:	80 81       	ld	r24, Z
    2dc0:	91 81       	ldd	r25, Z+1	; 0x01
    2dc2:	01 97       	sbiw	r24, 0x01	; 1
    2dc4:	f1 f7       	brne	.-4      	; 0x2dc2 <s_pick+0x6ac>
    2dc6:	9e 01       	movw	r18, r28
    2dc8:	2d 5a       	subi	r18, 0xAD	; 173
    2dca:	3f 4f       	sbci	r19, 0xFF	; 255
    2dcc:	f9 01       	movw	r30, r18
    2dce:	91 83       	std	Z+1, r25	; 0x01
    2dd0:	80 83       	st	Z, r24
    2dd2:	19 d9       	rcall	.-3534   	; 0x2006 <servo_1_free>
    2dd4:	cc 5a       	subi	r28, 0xAC	; 172
    2dd6:	df 4f       	sbci	r29, 0xFF	; 255
    2dd8:	0f b6       	in	r0, 0x3f	; 63
    2dda:	f8 94       	cli
    2ddc:	de bf       	out	0x3e, r29	; 62
    2dde:	0f be       	out	0x3f, r0	; 63
    2de0:	cd bf       	out	0x3d, r28	; 61
    2de2:	df 91       	pop	r29
    2de4:	cf 91       	pop	r28
    2de6:	1f 91       	pop	r17
    2de8:	0f 91       	pop	r16
    2dea:	08 95       	ret

00002dec <inv_place>:
    2dec:	0f 93       	push	r16
    2dee:	1f 93       	push	r17
    2df0:	cf 93       	push	r28
    2df2:	df 93       	push	r29
    2df4:	cd b7       	in	r28, 0x3d	; 61
    2df6:	de b7       	in	r29, 0x3e	; 62
    2df8:	c2 56       	subi	r28, 0x62	; 98
    2dfa:	d1 09       	sbc	r29, r1
    2dfc:	0f b6       	in	r0, 0x3f	; 63
    2dfe:	f8 94       	cli
    2e00:	de bf       	out	0x3e, r29	; 62
    2e02:	0f be       	out	0x3f, r0	; 63
    2e04:	cd bf       	out	0x3d, r28	; 61
    2e06:	80 e0       	ldi	r24, 0x00	; 0
    2e08:	90 e0       	ldi	r25, 0x00	; 0
    2e0a:	aa ef       	ldi	r26, 0xFA	; 250
    2e0c:	b3 e4       	ldi	r27, 0x43	; 67
    2e0e:	89 83       	std	Y+1, r24	; 0x01
    2e10:	9a 83       	std	Y+2, r25	; 0x02
    2e12:	ab 83       	std	Y+3, r26	; 0x03
    2e14:	bc 83       	std	Y+4, r27	; 0x04
    2e16:	26 e6       	ldi	r18, 0x66	; 102
    2e18:	36 e6       	ldi	r19, 0x66	; 102
    2e1a:	46 e6       	ldi	r20, 0x66	; 102
    2e1c:	55 e4       	ldi	r21, 0x45	; 69
    2e1e:	69 81       	ldd	r22, Y+1	; 0x01
    2e20:	7a 81       	ldd	r23, Y+2	; 0x02
    2e22:	8b 81       	ldd	r24, Y+3	; 0x03
    2e24:	9c 81       	ldd	r25, Y+4	; 0x04
    2e26:	0e 94 ce 2c 	call	0x599c	; 0x599c <__mulsf3>
    2e2a:	dc 01       	movw	r26, r24
    2e2c:	cb 01       	movw	r24, r22
    2e2e:	8d 83       	std	Y+5, r24	; 0x05
    2e30:	9e 83       	std	Y+6, r25	; 0x06
    2e32:	af 83       	std	Y+7, r26	; 0x07
    2e34:	b8 87       	std	Y+8, r27	; 0x08
    2e36:	20 e0       	ldi	r18, 0x00	; 0
    2e38:	30 e0       	ldi	r19, 0x00	; 0
    2e3a:	40 e8       	ldi	r20, 0x80	; 128
    2e3c:	5f e3       	ldi	r21, 0x3F	; 63
    2e3e:	6d 81       	ldd	r22, Y+5	; 0x05
    2e40:	7e 81       	ldd	r23, Y+6	; 0x06
    2e42:	8f 81       	ldd	r24, Y+7	; 0x07
    2e44:	98 85       	ldd	r25, Y+8	; 0x08
    2e46:	0e 94 80 2b 	call	0x5700	; 0x5700 <__cmpsf2>
    2e4a:	88 23       	and	r24, r24
    2e4c:	2c f4       	brge	.+10     	; 0x2e58 <inv_place+0x6c>
    2e4e:	81 e0       	ldi	r24, 0x01	; 1
    2e50:	90 e0       	ldi	r25, 0x00	; 0
    2e52:	9a 87       	std	Y+10, r25	; 0x0a
    2e54:	89 87       	std	Y+9, r24	; 0x09
    2e56:	3f c0       	rjmp	.+126    	; 0x2ed6 <inv_place+0xea>
    2e58:	20 e0       	ldi	r18, 0x00	; 0
    2e5a:	3f ef       	ldi	r19, 0xFF	; 255
    2e5c:	4f e7       	ldi	r20, 0x7F	; 127
    2e5e:	57 e4       	ldi	r21, 0x47	; 71
    2e60:	6d 81       	ldd	r22, Y+5	; 0x05
    2e62:	7e 81       	ldd	r23, Y+6	; 0x06
    2e64:	8f 81       	ldd	r24, Y+7	; 0x07
    2e66:	98 85       	ldd	r25, Y+8	; 0x08
    2e68:	0e 94 ca 2c 	call	0x5994	; 0x5994 <__gesf2>
    2e6c:	18 16       	cp	r1, r24
    2e6e:	4c f5       	brge	.+82     	; 0x2ec2 <inv_place+0xd6>
    2e70:	20 e0       	ldi	r18, 0x00	; 0
    2e72:	30 e0       	ldi	r19, 0x00	; 0
    2e74:	40 e2       	ldi	r20, 0x20	; 32
    2e76:	51 e4       	ldi	r21, 0x41	; 65
    2e78:	69 81       	ldd	r22, Y+1	; 0x01
    2e7a:	7a 81       	ldd	r23, Y+2	; 0x02
    2e7c:	8b 81       	ldd	r24, Y+3	; 0x03
    2e7e:	9c 81       	ldd	r25, Y+4	; 0x04
    2e80:	0e 94 ce 2c 	call	0x599c	; 0x599c <__mulsf3>
    2e84:	dc 01       	movw	r26, r24
    2e86:	cb 01       	movw	r24, r22
    2e88:	bc 01       	movw	r22, r24
    2e8a:	cd 01       	movw	r24, r26
    2e8c:	0e 94 ec 2b 	call	0x57d8	; 0x57d8 <__fixunssfsi>
    2e90:	dc 01       	movw	r26, r24
    2e92:	cb 01       	movw	r24, r22
    2e94:	9a 87       	std	Y+10, r25	; 0x0a
    2e96:	89 87       	std	Y+9, r24	; 0x09
    2e98:	0f c0       	rjmp	.+30     	; 0x2eb8 <inv_place+0xcc>
    2e9a:	80 e7       	ldi	r24, 0x70	; 112
    2e9c:	91 e0       	ldi	r25, 0x01	; 1
    2e9e:	9c 87       	std	Y+12, r25	; 0x0c
    2ea0:	8b 87       	std	Y+11, r24	; 0x0b
    2ea2:	8b 85       	ldd	r24, Y+11	; 0x0b
    2ea4:	9c 85       	ldd	r25, Y+12	; 0x0c
    2ea6:	01 97       	sbiw	r24, 0x01	; 1
    2ea8:	f1 f7       	brne	.-4      	; 0x2ea6 <inv_place+0xba>
    2eaa:	9c 87       	std	Y+12, r25	; 0x0c
    2eac:	8b 87       	std	Y+11, r24	; 0x0b
    2eae:	89 85       	ldd	r24, Y+9	; 0x09
    2eb0:	9a 85       	ldd	r25, Y+10	; 0x0a
    2eb2:	01 97       	sbiw	r24, 0x01	; 1
    2eb4:	9a 87       	std	Y+10, r25	; 0x0a
    2eb6:	89 87       	std	Y+9, r24	; 0x09
    2eb8:	89 85       	ldd	r24, Y+9	; 0x09
    2eba:	9a 85       	ldd	r25, Y+10	; 0x0a
    2ebc:	00 97       	sbiw	r24, 0x00	; 0
    2ebe:	69 f7       	brne	.-38     	; 0x2e9a <inv_place+0xae>
    2ec0:	14 c0       	rjmp	.+40     	; 0x2eea <inv_place+0xfe>
    2ec2:	6d 81       	ldd	r22, Y+5	; 0x05
    2ec4:	7e 81       	ldd	r23, Y+6	; 0x06
    2ec6:	8f 81       	ldd	r24, Y+7	; 0x07
    2ec8:	98 85       	ldd	r25, Y+8	; 0x08
    2eca:	0e 94 ec 2b 	call	0x57d8	; 0x57d8 <__fixunssfsi>
    2ece:	dc 01       	movw	r26, r24
    2ed0:	cb 01       	movw	r24, r22
    2ed2:	9a 87       	std	Y+10, r25	; 0x0a
    2ed4:	89 87       	std	Y+9, r24	; 0x09
    2ed6:	89 85       	ldd	r24, Y+9	; 0x09
    2ed8:	9a 85       	ldd	r25, Y+10	; 0x0a
    2eda:	9e 87       	std	Y+14, r25	; 0x0e
    2edc:	8d 87       	std	Y+13, r24	; 0x0d
    2ede:	8d 85       	ldd	r24, Y+13	; 0x0d
    2ee0:	9e 85       	ldd	r25, Y+14	; 0x0e
    2ee2:	01 97       	sbiw	r24, 0x01	; 1
    2ee4:	f1 f7       	brne	.-4      	; 0x2ee2 <inv_place+0xf6>
    2ee6:	9e 87       	std	Y+14, r25	; 0x0e
    2ee8:	8d 87       	std	Y+13, r24	; 0x0d
    2eea:	80 e0       	ldi	r24, 0x00	; 0
    2eec:	0e 94 d9 0d 	call	0x1bb2	; 0x1bb2 <servo_1>
    2ef0:	80 e0       	ldi	r24, 0x00	; 0
    2ef2:	90 e0       	ldi	r25, 0x00	; 0
    2ef4:	aa e7       	ldi	r26, 0x7A	; 122
    2ef6:	b4 e4       	ldi	r27, 0x44	; 68
    2ef8:	8f 87       	std	Y+15, r24	; 0x0f
    2efa:	98 8b       	std	Y+16, r25	; 0x10
    2efc:	a9 8b       	std	Y+17, r26	; 0x11
    2efe:	ba 8b       	std	Y+18, r27	; 0x12
    2f00:	26 e6       	ldi	r18, 0x66	; 102
    2f02:	36 e6       	ldi	r19, 0x66	; 102
    2f04:	46 e6       	ldi	r20, 0x66	; 102
    2f06:	55 e4       	ldi	r21, 0x45	; 69
    2f08:	6f 85       	ldd	r22, Y+15	; 0x0f
    2f0a:	78 89       	ldd	r23, Y+16	; 0x10
    2f0c:	89 89       	ldd	r24, Y+17	; 0x11
    2f0e:	9a 89       	ldd	r25, Y+18	; 0x12
    2f10:	0e 94 ce 2c 	call	0x599c	; 0x599c <__mulsf3>
    2f14:	dc 01       	movw	r26, r24
    2f16:	cb 01       	movw	r24, r22
    2f18:	8b 8b       	std	Y+19, r24	; 0x13
    2f1a:	9c 8b       	std	Y+20, r25	; 0x14
    2f1c:	ad 8b       	std	Y+21, r26	; 0x15
    2f1e:	be 8b       	std	Y+22, r27	; 0x16
    2f20:	20 e0       	ldi	r18, 0x00	; 0
    2f22:	30 e0       	ldi	r19, 0x00	; 0
    2f24:	40 e8       	ldi	r20, 0x80	; 128
    2f26:	5f e3       	ldi	r21, 0x3F	; 63
    2f28:	6b 89       	ldd	r22, Y+19	; 0x13
    2f2a:	7c 89       	ldd	r23, Y+20	; 0x14
    2f2c:	8d 89       	ldd	r24, Y+21	; 0x15
    2f2e:	9e 89       	ldd	r25, Y+22	; 0x16
    2f30:	0e 94 80 2b 	call	0x5700	; 0x5700 <__cmpsf2>
    2f34:	88 23       	and	r24, r24
    2f36:	2c f4       	brge	.+10     	; 0x2f42 <inv_place+0x156>
    2f38:	81 e0       	ldi	r24, 0x01	; 1
    2f3a:	90 e0       	ldi	r25, 0x00	; 0
    2f3c:	98 8f       	std	Y+24, r25	; 0x18
    2f3e:	8f 8b       	std	Y+23, r24	; 0x17
    2f40:	3f c0       	rjmp	.+126    	; 0x2fc0 <inv_place+0x1d4>
    2f42:	20 e0       	ldi	r18, 0x00	; 0
    2f44:	3f ef       	ldi	r19, 0xFF	; 255
    2f46:	4f e7       	ldi	r20, 0x7F	; 127
    2f48:	57 e4       	ldi	r21, 0x47	; 71
    2f4a:	6b 89       	ldd	r22, Y+19	; 0x13
    2f4c:	7c 89       	ldd	r23, Y+20	; 0x14
    2f4e:	8d 89       	ldd	r24, Y+21	; 0x15
    2f50:	9e 89       	ldd	r25, Y+22	; 0x16
    2f52:	0e 94 ca 2c 	call	0x5994	; 0x5994 <__gesf2>
    2f56:	18 16       	cp	r1, r24
    2f58:	4c f5       	brge	.+82     	; 0x2fac <inv_place+0x1c0>
    2f5a:	20 e0       	ldi	r18, 0x00	; 0
    2f5c:	30 e0       	ldi	r19, 0x00	; 0
    2f5e:	40 e2       	ldi	r20, 0x20	; 32
    2f60:	51 e4       	ldi	r21, 0x41	; 65
    2f62:	6f 85       	ldd	r22, Y+15	; 0x0f
    2f64:	78 89       	ldd	r23, Y+16	; 0x10
    2f66:	89 89       	ldd	r24, Y+17	; 0x11
    2f68:	9a 89       	ldd	r25, Y+18	; 0x12
    2f6a:	0e 94 ce 2c 	call	0x599c	; 0x599c <__mulsf3>
    2f6e:	dc 01       	movw	r26, r24
    2f70:	cb 01       	movw	r24, r22
    2f72:	bc 01       	movw	r22, r24
    2f74:	cd 01       	movw	r24, r26
    2f76:	0e 94 ec 2b 	call	0x57d8	; 0x57d8 <__fixunssfsi>
    2f7a:	dc 01       	movw	r26, r24
    2f7c:	cb 01       	movw	r24, r22
    2f7e:	98 8f       	std	Y+24, r25	; 0x18
    2f80:	8f 8b       	std	Y+23, r24	; 0x17
    2f82:	0f c0       	rjmp	.+30     	; 0x2fa2 <inv_place+0x1b6>
    2f84:	80 e7       	ldi	r24, 0x70	; 112
    2f86:	91 e0       	ldi	r25, 0x01	; 1
    2f88:	9a 8f       	std	Y+26, r25	; 0x1a
    2f8a:	89 8f       	std	Y+25, r24	; 0x19
    2f8c:	89 8d       	ldd	r24, Y+25	; 0x19
    2f8e:	9a 8d       	ldd	r25, Y+26	; 0x1a
    2f90:	01 97       	sbiw	r24, 0x01	; 1
    2f92:	f1 f7       	brne	.-4      	; 0x2f90 <inv_place+0x1a4>
    2f94:	9a 8f       	std	Y+26, r25	; 0x1a
    2f96:	89 8f       	std	Y+25, r24	; 0x19
    2f98:	8f 89       	ldd	r24, Y+23	; 0x17
    2f9a:	98 8d       	ldd	r25, Y+24	; 0x18
    2f9c:	01 97       	sbiw	r24, 0x01	; 1
    2f9e:	98 8f       	std	Y+24, r25	; 0x18
    2fa0:	8f 8b       	std	Y+23, r24	; 0x17
    2fa2:	8f 89       	ldd	r24, Y+23	; 0x17
    2fa4:	98 8d       	ldd	r25, Y+24	; 0x18
    2fa6:	00 97       	sbiw	r24, 0x00	; 0
    2fa8:	69 f7       	brne	.-38     	; 0x2f84 <inv_place+0x198>
    2faa:	14 c0       	rjmp	.+40     	; 0x2fd4 <inv_place+0x1e8>
    2fac:	6b 89       	ldd	r22, Y+19	; 0x13
    2fae:	7c 89       	ldd	r23, Y+20	; 0x14
    2fb0:	8d 89       	ldd	r24, Y+21	; 0x15
    2fb2:	9e 89       	ldd	r25, Y+22	; 0x16
    2fb4:	0e 94 ec 2b 	call	0x57d8	; 0x57d8 <__fixunssfsi>
    2fb8:	dc 01       	movw	r26, r24
    2fba:	cb 01       	movw	r24, r22
    2fbc:	98 8f       	std	Y+24, r25	; 0x18
    2fbe:	8f 8b       	std	Y+23, r24	; 0x17
    2fc0:	8f 89       	ldd	r24, Y+23	; 0x17
    2fc2:	98 8d       	ldd	r25, Y+24	; 0x18
    2fc4:	9c 8f       	std	Y+28, r25	; 0x1c
    2fc6:	8b 8f       	std	Y+27, r24	; 0x1b
    2fc8:	8b 8d       	ldd	r24, Y+27	; 0x1b
    2fca:	9c 8d       	ldd	r25, Y+28	; 0x1c
    2fcc:	01 97       	sbiw	r24, 0x01	; 1
    2fce:	f1 f7       	brne	.-4      	; 0x2fcc <inv_place+0x1e0>
    2fd0:	9c 8f       	std	Y+28, r25	; 0x1c
    2fd2:	8b 8f       	std	Y+27, r24	; 0x1b
    2fd4:	18 d8       	rcall	.-4048   	; 0x2006 <servo_1_free>
    2fd6:	8e e1       	ldi	r24, 0x1E	; 30
    2fd8:	0e 94 6f 0e 	call	0x1cde	; 0x1cde <servo_3>
    2fdc:	80 e0       	ldi	r24, 0x00	; 0
    2fde:	90 e8       	ldi	r25, 0x80	; 128
    2fe0:	ab e3       	ldi	r26, 0x3B	; 59
    2fe2:	b4 e4       	ldi	r27, 0x44	; 68
    2fe4:	8d 8f       	std	Y+29, r24	; 0x1d
    2fe6:	9e 8f       	std	Y+30, r25	; 0x1e
    2fe8:	af 8f       	std	Y+31, r26	; 0x1f
    2fea:	b8 a3       	std	Y+32, r27	; 0x20
    2fec:	26 e6       	ldi	r18, 0x66	; 102
    2fee:	36 e6       	ldi	r19, 0x66	; 102
    2ff0:	46 e6       	ldi	r20, 0x66	; 102
    2ff2:	55 e4       	ldi	r21, 0x45	; 69
    2ff4:	6d 8d       	ldd	r22, Y+29	; 0x1d
    2ff6:	7e 8d       	ldd	r23, Y+30	; 0x1e
    2ff8:	8f 8d       	ldd	r24, Y+31	; 0x1f
    2ffa:	98 a1       	ldd	r25, Y+32	; 0x20
    2ffc:	0e 94 ce 2c 	call	0x599c	; 0x599c <__mulsf3>
    3000:	dc 01       	movw	r26, r24
    3002:	cb 01       	movw	r24, r22
    3004:	89 a3       	std	Y+33, r24	; 0x21
    3006:	9a a3       	std	Y+34, r25	; 0x22
    3008:	ab a3       	std	Y+35, r26	; 0x23
    300a:	bc a3       	std	Y+36, r27	; 0x24
    300c:	20 e0       	ldi	r18, 0x00	; 0
    300e:	30 e0       	ldi	r19, 0x00	; 0
    3010:	40 e8       	ldi	r20, 0x80	; 128
    3012:	5f e3       	ldi	r21, 0x3F	; 63
    3014:	69 a1       	ldd	r22, Y+33	; 0x21
    3016:	7a a1       	ldd	r23, Y+34	; 0x22
    3018:	8b a1       	ldd	r24, Y+35	; 0x23
    301a:	9c a1       	ldd	r25, Y+36	; 0x24
    301c:	0e 94 80 2b 	call	0x5700	; 0x5700 <__cmpsf2>
    3020:	88 23       	and	r24, r24
    3022:	2c f4       	brge	.+10     	; 0x302e <inv_place+0x242>
    3024:	81 e0       	ldi	r24, 0x01	; 1
    3026:	90 e0       	ldi	r25, 0x00	; 0
    3028:	9e a3       	std	Y+38, r25	; 0x26
    302a:	8d a3       	std	Y+37, r24	; 0x25
    302c:	3f c0       	rjmp	.+126    	; 0x30ac <inv_place+0x2c0>
    302e:	20 e0       	ldi	r18, 0x00	; 0
    3030:	3f ef       	ldi	r19, 0xFF	; 255
    3032:	4f e7       	ldi	r20, 0x7F	; 127
    3034:	57 e4       	ldi	r21, 0x47	; 71
    3036:	69 a1       	ldd	r22, Y+33	; 0x21
    3038:	7a a1       	ldd	r23, Y+34	; 0x22
    303a:	8b a1       	ldd	r24, Y+35	; 0x23
    303c:	9c a1       	ldd	r25, Y+36	; 0x24
    303e:	0e 94 ca 2c 	call	0x5994	; 0x5994 <__gesf2>
    3042:	18 16       	cp	r1, r24
    3044:	4c f5       	brge	.+82     	; 0x3098 <inv_place+0x2ac>
    3046:	20 e0       	ldi	r18, 0x00	; 0
    3048:	30 e0       	ldi	r19, 0x00	; 0
    304a:	40 e2       	ldi	r20, 0x20	; 32
    304c:	51 e4       	ldi	r21, 0x41	; 65
    304e:	6d 8d       	ldd	r22, Y+29	; 0x1d
    3050:	7e 8d       	ldd	r23, Y+30	; 0x1e
    3052:	8f 8d       	ldd	r24, Y+31	; 0x1f
    3054:	98 a1       	ldd	r25, Y+32	; 0x20
    3056:	0e 94 ce 2c 	call	0x599c	; 0x599c <__mulsf3>
    305a:	dc 01       	movw	r26, r24
    305c:	cb 01       	movw	r24, r22
    305e:	bc 01       	movw	r22, r24
    3060:	cd 01       	movw	r24, r26
    3062:	0e 94 ec 2b 	call	0x57d8	; 0x57d8 <__fixunssfsi>
    3066:	dc 01       	movw	r26, r24
    3068:	cb 01       	movw	r24, r22
    306a:	9e a3       	std	Y+38, r25	; 0x26
    306c:	8d a3       	std	Y+37, r24	; 0x25
    306e:	0f c0       	rjmp	.+30     	; 0x308e <inv_place+0x2a2>
    3070:	80 e7       	ldi	r24, 0x70	; 112
    3072:	91 e0       	ldi	r25, 0x01	; 1
    3074:	98 a7       	std	Y+40, r25	; 0x28
    3076:	8f a3       	std	Y+39, r24	; 0x27
    3078:	8f a1       	ldd	r24, Y+39	; 0x27
    307a:	98 a5       	ldd	r25, Y+40	; 0x28
    307c:	01 97       	sbiw	r24, 0x01	; 1
    307e:	f1 f7       	brne	.-4      	; 0x307c <inv_place+0x290>
    3080:	98 a7       	std	Y+40, r25	; 0x28
    3082:	8f a3       	std	Y+39, r24	; 0x27
    3084:	8d a1       	ldd	r24, Y+37	; 0x25
    3086:	9e a1       	ldd	r25, Y+38	; 0x26
    3088:	01 97       	sbiw	r24, 0x01	; 1
    308a:	9e a3       	std	Y+38, r25	; 0x26
    308c:	8d a3       	std	Y+37, r24	; 0x25
    308e:	8d a1       	ldd	r24, Y+37	; 0x25
    3090:	9e a1       	ldd	r25, Y+38	; 0x26
    3092:	00 97       	sbiw	r24, 0x00	; 0
    3094:	69 f7       	brne	.-38     	; 0x3070 <inv_place+0x284>
    3096:	14 c0       	rjmp	.+40     	; 0x30c0 <inv_place+0x2d4>
    3098:	69 a1       	ldd	r22, Y+33	; 0x21
    309a:	7a a1       	ldd	r23, Y+34	; 0x22
    309c:	8b a1       	ldd	r24, Y+35	; 0x23
    309e:	9c a1       	ldd	r25, Y+36	; 0x24
    30a0:	0e 94 ec 2b 	call	0x57d8	; 0x57d8 <__fixunssfsi>
    30a4:	dc 01       	movw	r26, r24
    30a6:	cb 01       	movw	r24, r22
    30a8:	9e a3       	std	Y+38, r25	; 0x26
    30aa:	8d a3       	std	Y+37, r24	; 0x25
    30ac:	8d a1       	ldd	r24, Y+37	; 0x25
    30ae:	9e a1       	ldd	r25, Y+38	; 0x26
    30b0:	9a a7       	std	Y+42, r25	; 0x2a
    30b2:	89 a7       	std	Y+41, r24	; 0x29
    30b4:	89 a5       	ldd	r24, Y+41	; 0x29
    30b6:	9a a5       	ldd	r25, Y+42	; 0x2a
    30b8:	01 97       	sbiw	r24, 0x01	; 1
    30ba:	f1 f7       	brne	.-4      	; 0x30b8 <inv_place+0x2cc>
    30bc:	9a a7       	std	Y+42, r25	; 0x2a
    30be:	89 a7       	std	Y+41, r24	; 0x29
    30c0:	8d e2       	ldi	r24, 0x2D	; 45
    30c2:	0e 94 24 0e 	call	0x1c48	; 0x1c48 <servo_2>
    30c6:	80 e0       	ldi	r24, 0x00	; 0
    30c8:	90 e0       	ldi	r25, 0x00	; 0
    30ca:	aa e7       	ldi	r26, 0x7A	; 122
    30cc:	b4 e4       	ldi	r27, 0x44	; 68
    30ce:	8b a7       	std	Y+43, r24	; 0x2b
    30d0:	9c a7       	std	Y+44, r25	; 0x2c
    30d2:	ad a7       	std	Y+45, r26	; 0x2d
    30d4:	be a7       	std	Y+46, r27	; 0x2e
    30d6:	26 e6       	ldi	r18, 0x66	; 102
    30d8:	36 e6       	ldi	r19, 0x66	; 102
    30da:	46 e6       	ldi	r20, 0x66	; 102
    30dc:	55 e4       	ldi	r21, 0x45	; 69
    30de:	6b a5       	ldd	r22, Y+43	; 0x2b
    30e0:	7c a5       	ldd	r23, Y+44	; 0x2c
    30e2:	8d a5       	ldd	r24, Y+45	; 0x2d
    30e4:	9e a5       	ldd	r25, Y+46	; 0x2e
    30e6:	0e 94 ce 2c 	call	0x599c	; 0x599c <__mulsf3>
    30ea:	dc 01       	movw	r26, r24
    30ec:	cb 01       	movw	r24, r22
    30ee:	8f a7       	std	Y+47, r24	; 0x2f
    30f0:	98 ab       	std	Y+48, r25	; 0x30
    30f2:	a9 ab       	std	Y+49, r26	; 0x31
    30f4:	ba ab       	std	Y+50, r27	; 0x32
    30f6:	20 e0       	ldi	r18, 0x00	; 0
    30f8:	30 e0       	ldi	r19, 0x00	; 0
    30fa:	40 e8       	ldi	r20, 0x80	; 128
    30fc:	5f e3       	ldi	r21, 0x3F	; 63
    30fe:	6f a5       	ldd	r22, Y+47	; 0x2f
    3100:	78 a9       	ldd	r23, Y+48	; 0x30
    3102:	89 a9       	ldd	r24, Y+49	; 0x31
    3104:	9a a9       	ldd	r25, Y+50	; 0x32
    3106:	0e 94 80 2b 	call	0x5700	; 0x5700 <__cmpsf2>
    310a:	88 23       	and	r24, r24
    310c:	2c f4       	brge	.+10     	; 0x3118 <inv_place+0x32c>
    310e:	81 e0       	ldi	r24, 0x01	; 1
    3110:	90 e0       	ldi	r25, 0x00	; 0
    3112:	9c ab       	std	Y+52, r25	; 0x34
    3114:	8b ab       	std	Y+51, r24	; 0x33
    3116:	3f c0       	rjmp	.+126    	; 0x3196 <inv_place+0x3aa>
    3118:	20 e0       	ldi	r18, 0x00	; 0
    311a:	3f ef       	ldi	r19, 0xFF	; 255
    311c:	4f e7       	ldi	r20, 0x7F	; 127
    311e:	57 e4       	ldi	r21, 0x47	; 71
    3120:	6f a5       	ldd	r22, Y+47	; 0x2f
    3122:	78 a9       	ldd	r23, Y+48	; 0x30
    3124:	89 a9       	ldd	r24, Y+49	; 0x31
    3126:	9a a9       	ldd	r25, Y+50	; 0x32
    3128:	0e 94 ca 2c 	call	0x5994	; 0x5994 <__gesf2>
    312c:	18 16       	cp	r1, r24
    312e:	4c f5       	brge	.+82     	; 0x3182 <inv_place+0x396>
    3130:	20 e0       	ldi	r18, 0x00	; 0
    3132:	30 e0       	ldi	r19, 0x00	; 0
    3134:	40 e2       	ldi	r20, 0x20	; 32
    3136:	51 e4       	ldi	r21, 0x41	; 65
    3138:	6b a5       	ldd	r22, Y+43	; 0x2b
    313a:	7c a5       	ldd	r23, Y+44	; 0x2c
    313c:	8d a5       	ldd	r24, Y+45	; 0x2d
    313e:	9e a5       	ldd	r25, Y+46	; 0x2e
    3140:	0e 94 ce 2c 	call	0x599c	; 0x599c <__mulsf3>
    3144:	dc 01       	movw	r26, r24
    3146:	cb 01       	movw	r24, r22
    3148:	bc 01       	movw	r22, r24
    314a:	cd 01       	movw	r24, r26
    314c:	0e 94 ec 2b 	call	0x57d8	; 0x57d8 <__fixunssfsi>
    3150:	dc 01       	movw	r26, r24
    3152:	cb 01       	movw	r24, r22
    3154:	9c ab       	std	Y+52, r25	; 0x34
    3156:	8b ab       	std	Y+51, r24	; 0x33
    3158:	0f c0       	rjmp	.+30     	; 0x3178 <inv_place+0x38c>
    315a:	80 e7       	ldi	r24, 0x70	; 112
    315c:	91 e0       	ldi	r25, 0x01	; 1
    315e:	9e ab       	std	Y+54, r25	; 0x36
    3160:	8d ab       	std	Y+53, r24	; 0x35
    3162:	8d a9       	ldd	r24, Y+53	; 0x35
    3164:	9e a9       	ldd	r25, Y+54	; 0x36
    3166:	01 97       	sbiw	r24, 0x01	; 1
    3168:	f1 f7       	brne	.-4      	; 0x3166 <inv_place+0x37a>
    316a:	9e ab       	std	Y+54, r25	; 0x36
    316c:	8d ab       	std	Y+53, r24	; 0x35
    316e:	8b a9       	ldd	r24, Y+51	; 0x33
    3170:	9c a9       	ldd	r25, Y+52	; 0x34
    3172:	01 97       	sbiw	r24, 0x01	; 1
    3174:	9c ab       	std	Y+52, r25	; 0x34
    3176:	8b ab       	std	Y+51, r24	; 0x33
    3178:	8b a9       	ldd	r24, Y+51	; 0x33
    317a:	9c a9       	ldd	r25, Y+52	; 0x34
    317c:	00 97       	sbiw	r24, 0x00	; 0
    317e:	69 f7       	brne	.-38     	; 0x315a <inv_place+0x36e>
    3180:	14 c0       	rjmp	.+40     	; 0x31aa <inv_place+0x3be>
    3182:	6f a5       	ldd	r22, Y+47	; 0x2f
    3184:	78 a9       	ldd	r23, Y+48	; 0x30
    3186:	89 a9       	ldd	r24, Y+49	; 0x31
    3188:	9a a9       	ldd	r25, Y+50	; 0x32
    318a:	0e 94 ec 2b 	call	0x57d8	; 0x57d8 <__fixunssfsi>
    318e:	dc 01       	movw	r26, r24
    3190:	cb 01       	movw	r24, r22
    3192:	9c ab       	std	Y+52, r25	; 0x34
    3194:	8b ab       	std	Y+51, r24	; 0x33
    3196:	8b a9       	ldd	r24, Y+51	; 0x33
    3198:	9c a9       	ldd	r25, Y+52	; 0x34
    319a:	98 af       	std	Y+56, r25	; 0x38
    319c:	8f ab       	std	Y+55, r24	; 0x37
    319e:	8f a9       	ldd	r24, Y+55	; 0x37
    31a0:	98 ad       	ldd	r25, Y+56	; 0x38
    31a2:	01 97       	sbiw	r24, 0x01	; 1
    31a4:	f1 f7       	brne	.-4      	; 0x31a2 <inv_place+0x3b6>
    31a6:	98 af       	std	Y+56, r25	; 0x38
    31a8:	8f ab       	std	Y+55, r24	; 0x37
    31aa:	89 e6       	ldi	r24, 0x69	; 105
    31ac:	0e 94 6f 0e 	call	0x1cde	; 0x1cde <servo_3>
    31b0:	80 e0       	ldi	r24, 0x00	; 0
    31b2:	90 e8       	ldi	r25, 0x80	; 128
    31b4:	ab e3       	ldi	r26, 0x3B	; 59
    31b6:	b4 e4       	ldi	r27, 0x44	; 68
    31b8:	89 af       	std	Y+57, r24	; 0x39
    31ba:	9a af       	std	Y+58, r25	; 0x3a
    31bc:	ab af       	std	Y+59, r26	; 0x3b
    31be:	bc af       	std	Y+60, r27	; 0x3c
    31c0:	26 e6       	ldi	r18, 0x66	; 102
    31c2:	36 e6       	ldi	r19, 0x66	; 102
    31c4:	46 e6       	ldi	r20, 0x66	; 102
    31c6:	55 e4       	ldi	r21, 0x45	; 69
    31c8:	69 ad       	ldd	r22, Y+57	; 0x39
    31ca:	7a ad       	ldd	r23, Y+58	; 0x3a
    31cc:	8b ad       	ldd	r24, Y+59	; 0x3b
    31ce:	9c ad       	ldd	r25, Y+60	; 0x3c
    31d0:	0e 94 ce 2c 	call	0x599c	; 0x599c <__mulsf3>
    31d4:	dc 01       	movw	r26, r24
    31d6:	cb 01       	movw	r24, r22
    31d8:	9e 01       	movw	r18, r28
    31da:	23 5c       	subi	r18, 0xC3	; 195
    31dc:	3f 4f       	sbci	r19, 0xFF	; 255
    31de:	f9 01       	movw	r30, r18
    31e0:	80 83       	st	Z, r24
    31e2:	91 83       	std	Z+1, r25	; 0x01
    31e4:	a2 83       	std	Z+2, r26	; 0x02
    31e6:	b3 83       	std	Z+3, r27	; 0x03
    31e8:	20 e0       	ldi	r18, 0x00	; 0
    31ea:	30 e0       	ldi	r19, 0x00	; 0
    31ec:	40 e8       	ldi	r20, 0x80	; 128
    31ee:	5f e3       	ldi	r21, 0x3F	; 63
    31f0:	ce 01       	movw	r24, r28
    31f2:	cd 96       	adiw	r24, 0x3d	; 61
    31f4:	fc 01       	movw	r30, r24
    31f6:	60 81       	ld	r22, Z
    31f8:	71 81       	ldd	r23, Z+1	; 0x01
    31fa:	82 81       	ldd	r24, Z+2	; 0x02
    31fc:	93 81       	ldd	r25, Z+3	; 0x03
    31fe:	0e 94 80 2b 	call	0x5700	; 0x5700 <__cmpsf2>
    3202:	88 23       	and	r24, r24
    3204:	4c f4       	brge	.+18     	; 0x3218 <inv_place+0x42c>
    3206:	ce 01       	movw	r24, r28
    3208:	8f 5b       	subi	r24, 0xBF	; 191
    320a:	9f 4f       	sbci	r25, 0xFF	; 255
    320c:	21 e0       	ldi	r18, 0x01	; 1
    320e:	30 e0       	ldi	r19, 0x00	; 0
    3210:	fc 01       	movw	r30, r24
    3212:	31 83       	std	Z+1, r19	; 0x01
    3214:	20 83       	st	Z, r18
    3216:	67 c0       	rjmp	.+206    	; 0x32e6 <inv_place+0x4fa>
    3218:	20 e0       	ldi	r18, 0x00	; 0
    321a:	3f ef       	ldi	r19, 0xFF	; 255
    321c:	4f e7       	ldi	r20, 0x7F	; 127
    321e:	57 e4       	ldi	r21, 0x47	; 71
    3220:	ce 01       	movw	r24, r28
    3222:	cd 96       	adiw	r24, 0x3d	; 61
    3224:	fc 01       	movw	r30, r24
    3226:	60 81       	ld	r22, Z
    3228:	71 81       	ldd	r23, Z+1	; 0x01
    322a:	82 81       	ldd	r24, Z+2	; 0x02
    322c:	93 81       	ldd	r25, Z+3	; 0x03
    322e:	0e 94 ca 2c 	call	0x5994	; 0x5994 <__gesf2>
    3232:	18 16       	cp	r1, r24
    3234:	0c f0       	brlt	.+2      	; 0x3238 <inv_place+0x44c>
    3236:	46 c0       	rjmp	.+140    	; 0x32c4 <inv_place+0x4d8>
    3238:	20 e0       	ldi	r18, 0x00	; 0
    323a:	30 e0       	ldi	r19, 0x00	; 0
    323c:	40 e2       	ldi	r20, 0x20	; 32
    323e:	51 e4       	ldi	r21, 0x41	; 65
    3240:	69 ad       	ldd	r22, Y+57	; 0x39
    3242:	7a ad       	ldd	r23, Y+58	; 0x3a
    3244:	8b ad       	ldd	r24, Y+59	; 0x3b
    3246:	9c ad       	ldd	r25, Y+60	; 0x3c
    3248:	0e 94 ce 2c 	call	0x599c	; 0x599c <__mulsf3>
    324c:	dc 01       	movw	r26, r24
    324e:	cb 01       	movw	r24, r22
    3250:	8e 01       	movw	r16, r28
    3252:	0f 5b       	subi	r16, 0xBF	; 191
    3254:	1f 4f       	sbci	r17, 0xFF	; 255
    3256:	bc 01       	movw	r22, r24
    3258:	cd 01       	movw	r24, r26
    325a:	0e 94 ec 2b 	call	0x57d8	; 0x57d8 <__fixunssfsi>
    325e:	dc 01       	movw	r26, r24
    3260:	cb 01       	movw	r24, r22
    3262:	f8 01       	movw	r30, r16
    3264:	91 83       	std	Z+1, r25	; 0x01
    3266:	80 83       	st	Z, r24
    3268:	24 c0       	rjmp	.+72     	; 0x32b2 <inv_place+0x4c6>
    326a:	ce 01       	movw	r24, r28
    326c:	8d 5b       	subi	r24, 0xBD	; 189
    326e:	9f 4f       	sbci	r25, 0xFF	; 255
    3270:	20 e7       	ldi	r18, 0x70	; 112
    3272:	31 e0       	ldi	r19, 0x01	; 1
    3274:	fc 01       	movw	r30, r24
    3276:	31 83       	std	Z+1, r19	; 0x01
    3278:	20 83       	st	Z, r18
    327a:	ce 01       	movw	r24, r28
    327c:	8d 5b       	subi	r24, 0xBD	; 189
    327e:	9f 4f       	sbci	r25, 0xFF	; 255
    3280:	fc 01       	movw	r30, r24
    3282:	80 81       	ld	r24, Z
    3284:	91 81       	ldd	r25, Z+1	; 0x01
    3286:	01 97       	sbiw	r24, 0x01	; 1
    3288:	f1 f7       	brne	.-4      	; 0x3286 <inv_place+0x49a>
    328a:	9e 01       	movw	r18, r28
    328c:	2d 5b       	subi	r18, 0xBD	; 189
    328e:	3f 4f       	sbci	r19, 0xFF	; 255
    3290:	f9 01       	movw	r30, r18
    3292:	91 83       	std	Z+1, r25	; 0x01
    3294:	80 83       	st	Z, r24
    3296:	ce 01       	movw	r24, r28
    3298:	8f 5b       	subi	r24, 0xBF	; 191
    329a:	9f 4f       	sbci	r25, 0xFF	; 255
    329c:	9e 01       	movw	r18, r28
    329e:	2f 5b       	subi	r18, 0xBF	; 191
    32a0:	3f 4f       	sbci	r19, 0xFF	; 255
    32a2:	f9 01       	movw	r30, r18
    32a4:	20 81       	ld	r18, Z
    32a6:	31 81       	ldd	r19, Z+1	; 0x01
    32a8:	21 50       	subi	r18, 0x01	; 1
    32aa:	31 09       	sbc	r19, r1
    32ac:	fc 01       	movw	r30, r24
    32ae:	31 83       	std	Z+1, r19	; 0x01
    32b0:	20 83       	st	Z, r18
    32b2:	ce 01       	movw	r24, r28
    32b4:	8f 5b       	subi	r24, 0xBF	; 191
    32b6:	9f 4f       	sbci	r25, 0xFF	; 255
    32b8:	fc 01       	movw	r30, r24
    32ba:	80 81       	ld	r24, Z
    32bc:	91 81       	ldd	r25, Z+1	; 0x01
    32be:	00 97       	sbiw	r24, 0x00	; 0
    32c0:	a1 f6       	brne	.-88     	; 0x326a <inv_place+0x47e>
    32c2:	2b c0       	rjmp	.+86     	; 0x331a <inv_place+0x52e>
    32c4:	8e 01       	movw	r16, r28
    32c6:	0f 5b       	subi	r16, 0xBF	; 191
    32c8:	1f 4f       	sbci	r17, 0xFF	; 255
    32ca:	ce 01       	movw	r24, r28
    32cc:	cd 96       	adiw	r24, 0x3d	; 61
    32ce:	fc 01       	movw	r30, r24
    32d0:	60 81       	ld	r22, Z
    32d2:	71 81       	ldd	r23, Z+1	; 0x01
    32d4:	82 81       	ldd	r24, Z+2	; 0x02
    32d6:	93 81       	ldd	r25, Z+3	; 0x03
    32d8:	0e 94 ec 2b 	call	0x57d8	; 0x57d8 <__fixunssfsi>
    32dc:	dc 01       	movw	r26, r24
    32de:	cb 01       	movw	r24, r22
    32e0:	f8 01       	movw	r30, r16
    32e2:	91 83       	std	Z+1, r25	; 0x01
    32e4:	80 83       	st	Z, r24
    32e6:	ce 01       	movw	r24, r28
    32e8:	8b 5b       	subi	r24, 0xBB	; 187
    32ea:	9f 4f       	sbci	r25, 0xFF	; 255
    32ec:	9e 01       	movw	r18, r28
    32ee:	2f 5b       	subi	r18, 0xBF	; 191
    32f0:	3f 4f       	sbci	r19, 0xFF	; 255
    32f2:	f9 01       	movw	r30, r18
    32f4:	20 81       	ld	r18, Z
    32f6:	31 81       	ldd	r19, Z+1	; 0x01
    32f8:	fc 01       	movw	r30, r24
    32fa:	31 83       	std	Z+1, r19	; 0x01
    32fc:	20 83       	st	Z, r18
    32fe:	ce 01       	movw	r24, r28
    3300:	8b 5b       	subi	r24, 0xBB	; 187
    3302:	9f 4f       	sbci	r25, 0xFF	; 255
    3304:	fc 01       	movw	r30, r24
    3306:	80 81       	ld	r24, Z
    3308:	91 81       	ldd	r25, Z+1	; 0x01
    330a:	01 97       	sbiw	r24, 0x01	; 1
    330c:	f1 f7       	brne	.-4      	; 0x330a <inv_place+0x51e>
    330e:	9e 01       	movw	r18, r28
    3310:	2b 5b       	subi	r18, 0xBB	; 187
    3312:	3f 4f       	sbci	r19, 0xFF	; 255
    3314:	f9 01       	movw	r30, r18
    3316:	91 83       	std	Z+1, r25	; 0x01
    3318:	80 83       	st	Z, r24
    331a:	0e 94 25 10 	call	0x204a	; 0x204a <servo_3_free>
    331e:	80 e0       	ldi	r24, 0x00	; 0
    3320:	0e 94 24 0e 	call	0x1c48	; 0x1c48 <servo_2>
    3324:	9e 01       	movw	r18, r28
    3326:	29 5b       	subi	r18, 0xB9	; 185
    3328:	3f 4f       	sbci	r19, 0xFF	; 255
    332a:	80 e0       	ldi	r24, 0x00	; 0
    332c:	90 e0       	ldi	r25, 0x00	; 0
    332e:	aa e7       	ldi	r26, 0x7A	; 122
    3330:	b4 e4       	ldi	r27, 0x44	; 68
    3332:	f9 01       	movw	r30, r18
    3334:	80 83       	st	Z, r24
    3336:	91 83       	std	Z+1, r25	; 0x01
    3338:	a2 83       	std	Z+2, r26	; 0x02
    333a:	b3 83       	std	Z+3, r27	; 0x03
    333c:	8e 01       	movw	r16, r28
    333e:	05 5b       	subi	r16, 0xB5	; 181
    3340:	1f 4f       	sbci	r17, 0xFF	; 255
    3342:	ce 01       	movw	r24, r28
    3344:	89 5b       	subi	r24, 0xB9	; 185
    3346:	9f 4f       	sbci	r25, 0xFF	; 255
    3348:	26 e6       	ldi	r18, 0x66	; 102
    334a:	36 e6       	ldi	r19, 0x66	; 102
    334c:	46 e6       	ldi	r20, 0x66	; 102
    334e:	55 e4       	ldi	r21, 0x45	; 69
    3350:	fc 01       	movw	r30, r24
    3352:	60 81       	ld	r22, Z
    3354:	71 81       	ldd	r23, Z+1	; 0x01
    3356:	82 81       	ldd	r24, Z+2	; 0x02
    3358:	93 81       	ldd	r25, Z+3	; 0x03
    335a:	0e 94 ce 2c 	call	0x599c	; 0x599c <__mulsf3>
    335e:	dc 01       	movw	r26, r24
    3360:	cb 01       	movw	r24, r22
    3362:	f8 01       	movw	r30, r16
    3364:	80 83       	st	Z, r24
    3366:	91 83       	std	Z+1, r25	; 0x01
    3368:	a2 83       	std	Z+2, r26	; 0x02
    336a:	b3 83       	std	Z+3, r27	; 0x03
    336c:	ce 01       	movw	r24, r28
    336e:	85 5b       	subi	r24, 0xB5	; 181
    3370:	9f 4f       	sbci	r25, 0xFF	; 255
    3372:	20 e0       	ldi	r18, 0x00	; 0
    3374:	30 e0       	ldi	r19, 0x00	; 0
    3376:	40 e8       	ldi	r20, 0x80	; 128
    3378:	5f e3       	ldi	r21, 0x3F	; 63
    337a:	fc 01       	movw	r30, r24
    337c:	60 81       	ld	r22, Z
    337e:	71 81       	ldd	r23, Z+1	; 0x01
    3380:	82 81       	ldd	r24, Z+2	; 0x02
    3382:	93 81       	ldd	r25, Z+3	; 0x03
    3384:	0e 94 80 2b 	call	0x5700	; 0x5700 <__cmpsf2>
    3388:	88 23       	and	r24, r24
    338a:	4c f4       	brge	.+18     	; 0x339e <inv_place+0x5b2>
    338c:	ce 01       	movw	r24, r28
    338e:	81 5b       	subi	r24, 0xB1	; 177
    3390:	9f 4f       	sbci	r25, 0xFF	; 255
    3392:	21 e0       	ldi	r18, 0x01	; 1
    3394:	30 e0       	ldi	r19, 0x00	; 0
    3396:	fc 01       	movw	r30, r24
    3398:	31 83       	std	Z+1, r19	; 0x01
    339a:	20 83       	st	Z, r18
    339c:	6d c0       	rjmp	.+218    	; 0x3478 <inv_place+0x68c>
    339e:	ce 01       	movw	r24, r28
    33a0:	85 5b       	subi	r24, 0xB5	; 181
    33a2:	9f 4f       	sbci	r25, 0xFF	; 255
    33a4:	20 e0       	ldi	r18, 0x00	; 0
    33a6:	3f ef       	ldi	r19, 0xFF	; 255
    33a8:	4f e7       	ldi	r20, 0x7F	; 127
    33aa:	57 e4       	ldi	r21, 0x47	; 71
    33ac:	fc 01       	movw	r30, r24
    33ae:	60 81       	ld	r22, Z
    33b0:	71 81       	ldd	r23, Z+1	; 0x01
    33b2:	82 81       	ldd	r24, Z+2	; 0x02
    33b4:	93 81       	ldd	r25, Z+3	; 0x03
    33b6:	0e 94 ca 2c 	call	0x5994	; 0x5994 <__gesf2>
    33ba:	18 16       	cp	r1, r24
    33bc:	0c f0       	brlt	.+2      	; 0x33c0 <inv_place+0x5d4>
    33be:	4a c0       	rjmp	.+148    	; 0x3454 <inv_place+0x668>
    33c0:	ce 01       	movw	r24, r28
    33c2:	89 5b       	subi	r24, 0xB9	; 185
    33c4:	9f 4f       	sbci	r25, 0xFF	; 255
    33c6:	20 e0       	ldi	r18, 0x00	; 0
    33c8:	30 e0       	ldi	r19, 0x00	; 0
    33ca:	40 e2       	ldi	r20, 0x20	; 32
    33cc:	51 e4       	ldi	r21, 0x41	; 65
    33ce:	fc 01       	movw	r30, r24
    33d0:	60 81       	ld	r22, Z
    33d2:	71 81       	ldd	r23, Z+1	; 0x01
    33d4:	82 81       	ldd	r24, Z+2	; 0x02
    33d6:	93 81       	ldd	r25, Z+3	; 0x03
    33d8:	0e 94 ce 2c 	call	0x599c	; 0x599c <__mulsf3>
    33dc:	dc 01       	movw	r26, r24
    33de:	cb 01       	movw	r24, r22
    33e0:	8e 01       	movw	r16, r28
    33e2:	01 5b       	subi	r16, 0xB1	; 177
    33e4:	1f 4f       	sbci	r17, 0xFF	; 255
    33e6:	bc 01       	movw	r22, r24
    33e8:	cd 01       	movw	r24, r26
    33ea:	0e 94 ec 2b 	call	0x57d8	; 0x57d8 <__fixunssfsi>
    33ee:	dc 01       	movw	r26, r24
    33f0:	cb 01       	movw	r24, r22
    33f2:	f8 01       	movw	r30, r16
    33f4:	91 83       	std	Z+1, r25	; 0x01
    33f6:	80 83       	st	Z, r24
    33f8:	24 c0       	rjmp	.+72     	; 0x3442 <inv_place+0x656>
    33fa:	ce 01       	movw	r24, r28
    33fc:	8f 5a       	subi	r24, 0xAF	; 175
    33fe:	9f 4f       	sbci	r25, 0xFF	; 255
    3400:	20 e7       	ldi	r18, 0x70	; 112
    3402:	31 e0       	ldi	r19, 0x01	; 1
    3404:	fc 01       	movw	r30, r24
    3406:	31 83       	std	Z+1, r19	; 0x01
    3408:	20 83       	st	Z, r18
    340a:	ce 01       	movw	r24, r28
    340c:	8f 5a       	subi	r24, 0xAF	; 175
    340e:	9f 4f       	sbci	r25, 0xFF	; 255
    3410:	fc 01       	movw	r30, r24
    3412:	80 81       	ld	r24, Z
    3414:	91 81       	ldd	r25, Z+1	; 0x01
    3416:	01 97       	sbiw	r24, 0x01	; 1
    3418:	f1 f7       	brne	.-4      	; 0x3416 <inv_place+0x62a>
    341a:	9e 01       	movw	r18, r28
    341c:	2f 5a       	subi	r18, 0xAF	; 175
    341e:	3f 4f       	sbci	r19, 0xFF	; 255
    3420:	f9 01       	movw	r30, r18
    3422:	91 83       	std	Z+1, r25	; 0x01
    3424:	80 83       	st	Z, r24
    3426:	ce 01       	movw	r24, r28
    3428:	81 5b       	subi	r24, 0xB1	; 177
    342a:	9f 4f       	sbci	r25, 0xFF	; 255
    342c:	9e 01       	movw	r18, r28
    342e:	21 5b       	subi	r18, 0xB1	; 177
    3430:	3f 4f       	sbci	r19, 0xFF	; 255
    3432:	f9 01       	movw	r30, r18
    3434:	20 81       	ld	r18, Z
    3436:	31 81       	ldd	r19, Z+1	; 0x01
    3438:	21 50       	subi	r18, 0x01	; 1
    343a:	31 09       	sbc	r19, r1
    343c:	fc 01       	movw	r30, r24
    343e:	31 83       	std	Z+1, r19	; 0x01
    3440:	20 83       	st	Z, r18
    3442:	ce 01       	movw	r24, r28
    3444:	81 5b       	subi	r24, 0xB1	; 177
    3446:	9f 4f       	sbci	r25, 0xFF	; 255
    3448:	fc 01       	movw	r30, r24
    344a:	80 81       	ld	r24, Z
    344c:	91 81       	ldd	r25, Z+1	; 0x01
    344e:	00 97       	sbiw	r24, 0x00	; 0
    3450:	a1 f6       	brne	.-88     	; 0x33fa <inv_place+0x60e>
    3452:	2c c0       	rjmp	.+88     	; 0x34ac <inv_place+0x6c0>
    3454:	8e 01       	movw	r16, r28
    3456:	01 5b       	subi	r16, 0xB1	; 177
    3458:	1f 4f       	sbci	r17, 0xFF	; 255
    345a:	ce 01       	movw	r24, r28
    345c:	85 5b       	subi	r24, 0xB5	; 181
    345e:	9f 4f       	sbci	r25, 0xFF	; 255
    3460:	fc 01       	movw	r30, r24
    3462:	60 81       	ld	r22, Z
    3464:	71 81       	ldd	r23, Z+1	; 0x01
    3466:	82 81       	ldd	r24, Z+2	; 0x02
    3468:	93 81       	ldd	r25, Z+3	; 0x03
    346a:	0e 94 ec 2b 	call	0x57d8	; 0x57d8 <__fixunssfsi>
    346e:	dc 01       	movw	r26, r24
    3470:	cb 01       	movw	r24, r22
    3472:	f8 01       	movw	r30, r16
    3474:	91 83       	std	Z+1, r25	; 0x01
    3476:	80 83       	st	Z, r24
    3478:	ce 01       	movw	r24, r28
    347a:	8d 5a       	subi	r24, 0xAD	; 173
    347c:	9f 4f       	sbci	r25, 0xFF	; 255
    347e:	9e 01       	movw	r18, r28
    3480:	21 5b       	subi	r18, 0xB1	; 177
    3482:	3f 4f       	sbci	r19, 0xFF	; 255
    3484:	f9 01       	movw	r30, r18
    3486:	20 81       	ld	r18, Z
    3488:	31 81       	ldd	r19, Z+1	; 0x01
    348a:	fc 01       	movw	r30, r24
    348c:	31 83       	std	Z+1, r19	; 0x01
    348e:	20 83       	st	Z, r18
    3490:	ce 01       	movw	r24, r28
    3492:	8d 5a       	subi	r24, 0xAD	; 173
    3494:	9f 4f       	sbci	r25, 0xFF	; 255
    3496:	fc 01       	movw	r30, r24
    3498:	80 81       	ld	r24, Z
    349a:	91 81       	ldd	r25, Z+1	; 0x01
    349c:	01 97       	sbiw	r24, 0x01	; 1
    349e:	f1 f7       	brne	.-4      	; 0x349c <inv_place+0x6b0>
    34a0:	9e 01       	movw	r18, r28
    34a2:	2d 5a       	subi	r18, 0xAD	; 173
    34a4:	3f 4f       	sbci	r19, 0xFF	; 255
    34a6:	f9 01       	movw	r30, r18
    34a8:	91 83       	std	Z+1, r25	; 0x01
    34aa:	80 83       	st	Z, r24
    34ac:	0e 94 14 10 	call	0x2028	; 0x2028 <servo_2_free>
    34b0:	8f e5       	ldi	r24, 0x5F	; 95
    34b2:	0e 94 d9 0d 	call	0x1bb2	; 0x1bb2 <servo_1>
    34b6:	9e 01       	movw	r18, r28
    34b8:	2b 5a       	subi	r18, 0xAB	; 171
    34ba:	3f 4f       	sbci	r19, 0xFF	; 255
    34bc:	80 e0       	ldi	r24, 0x00	; 0
    34be:	90 e0       	ldi	r25, 0x00	; 0
    34c0:	aa e7       	ldi	r26, 0x7A	; 122
    34c2:	b4 e4       	ldi	r27, 0x44	; 68
    34c4:	f9 01       	movw	r30, r18
    34c6:	80 83       	st	Z, r24
    34c8:	91 83       	std	Z+1, r25	; 0x01
    34ca:	a2 83       	std	Z+2, r26	; 0x02
    34cc:	b3 83       	std	Z+3, r27	; 0x03
    34ce:	8e 01       	movw	r16, r28
    34d0:	07 5a       	subi	r16, 0xA7	; 167
    34d2:	1f 4f       	sbci	r17, 0xFF	; 255
    34d4:	ce 01       	movw	r24, r28
    34d6:	8b 5a       	subi	r24, 0xAB	; 171
    34d8:	9f 4f       	sbci	r25, 0xFF	; 255
    34da:	26 e6       	ldi	r18, 0x66	; 102
    34dc:	36 e6       	ldi	r19, 0x66	; 102
    34de:	46 e6       	ldi	r20, 0x66	; 102
    34e0:	55 e4       	ldi	r21, 0x45	; 69
    34e2:	fc 01       	movw	r30, r24
    34e4:	60 81       	ld	r22, Z
    34e6:	71 81       	ldd	r23, Z+1	; 0x01
    34e8:	82 81       	ldd	r24, Z+2	; 0x02
    34ea:	93 81       	ldd	r25, Z+3	; 0x03
    34ec:	0e 94 ce 2c 	call	0x599c	; 0x599c <__mulsf3>
    34f0:	dc 01       	movw	r26, r24
    34f2:	cb 01       	movw	r24, r22
    34f4:	f8 01       	movw	r30, r16
    34f6:	80 83       	st	Z, r24
    34f8:	91 83       	std	Z+1, r25	; 0x01
    34fa:	a2 83       	std	Z+2, r26	; 0x02
    34fc:	b3 83       	std	Z+3, r27	; 0x03
    34fe:	ce 01       	movw	r24, r28
    3500:	87 5a       	subi	r24, 0xA7	; 167
    3502:	9f 4f       	sbci	r25, 0xFF	; 255
    3504:	20 e0       	ldi	r18, 0x00	; 0
    3506:	30 e0       	ldi	r19, 0x00	; 0
    3508:	40 e8       	ldi	r20, 0x80	; 128
    350a:	5f e3       	ldi	r21, 0x3F	; 63
    350c:	fc 01       	movw	r30, r24
    350e:	60 81       	ld	r22, Z
    3510:	71 81       	ldd	r23, Z+1	; 0x01
    3512:	82 81       	ldd	r24, Z+2	; 0x02
    3514:	93 81       	ldd	r25, Z+3	; 0x03
    3516:	0e 94 80 2b 	call	0x5700	; 0x5700 <__cmpsf2>
    351a:	88 23       	and	r24, r24
    351c:	4c f4       	brge	.+18     	; 0x3530 <inv_place+0x744>
    351e:	ce 01       	movw	r24, r28
    3520:	83 5a       	subi	r24, 0xA3	; 163
    3522:	9f 4f       	sbci	r25, 0xFF	; 255
    3524:	21 e0       	ldi	r18, 0x01	; 1
    3526:	30 e0       	ldi	r19, 0x00	; 0
    3528:	fc 01       	movw	r30, r24
    352a:	31 83       	std	Z+1, r19	; 0x01
    352c:	20 83       	st	Z, r18
    352e:	6d c0       	rjmp	.+218    	; 0x360a <inv_place+0x81e>
    3530:	ce 01       	movw	r24, r28
    3532:	87 5a       	subi	r24, 0xA7	; 167
    3534:	9f 4f       	sbci	r25, 0xFF	; 255
    3536:	20 e0       	ldi	r18, 0x00	; 0
    3538:	3f ef       	ldi	r19, 0xFF	; 255
    353a:	4f e7       	ldi	r20, 0x7F	; 127
    353c:	57 e4       	ldi	r21, 0x47	; 71
    353e:	fc 01       	movw	r30, r24
    3540:	60 81       	ld	r22, Z
    3542:	71 81       	ldd	r23, Z+1	; 0x01
    3544:	82 81       	ldd	r24, Z+2	; 0x02
    3546:	93 81       	ldd	r25, Z+3	; 0x03
    3548:	0e 94 ca 2c 	call	0x5994	; 0x5994 <__gesf2>
    354c:	18 16       	cp	r1, r24
    354e:	0c f0       	brlt	.+2      	; 0x3552 <inv_place+0x766>
    3550:	4a c0       	rjmp	.+148    	; 0x35e6 <inv_place+0x7fa>
    3552:	ce 01       	movw	r24, r28
    3554:	8b 5a       	subi	r24, 0xAB	; 171
    3556:	9f 4f       	sbci	r25, 0xFF	; 255
    3558:	20 e0       	ldi	r18, 0x00	; 0
    355a:	30 e0       	ldi	r19, 0x00	; 0
    355c:	40 e2       	ldi	r20, 0x20	; 32
    355e:	51 e4       	ldi	r21, 0x41	; 65
    3560:	fc 01       	movw	r30, r24
    3562:	60 81       	ld	r22, Z
    3564:	71 81       	ldd	r23, Z+1	; 0x01
    3566:	82 81       	ldd	r24, Z+2	; 0x02
    3568:	93 81       	ldd	r25, Z+3	; 0x03
    356a:	0e 94 ce 2c 	call	0x599c	; 0x599c <__mulsf3>
    356e:	dc 01       	movw	r26, r24
    3570:	cb 01       	movw	r24, r22
    3572:	8e 01       	movw	r16, r28
    3574:	03 5a       	subi	r16, 0xA3	; 163
    3576:	1f 4f       	sbci	r17, 0xFF	; 255
    3578:	bc 01       	movw	r22, r24
    357a:	cd 01       	movw	r24, r26
    357c:	0e 94 ec 2b 	call	0x57d8	; 0x57d8 <__fixunssfsi>
    3580:	dc 01       	movw	r26, r24
    3582:	cb 01       	movw	r24, r22
    3584:	f8 01       	movw	r30, r16
    3586:	91 83       	std	Z+1, r25	; 0x01
    3588:	80 83       	st	Z, r24
    358a:	24 c0       	rjmp	.+72     	; 0x35d4 <inv_place+0x7e8>
    358c:	ce 01       	movw	r24, r28
    358e:	81 5a       	subi	r24, 0xA1	; 161
    3590:	9f 4f       	sbci	r25, 0xFF	; 255
    3592:	20 e7       	ldi	r18, 0x70	; 112
    3594:	31 e0       	ldi	r19, 0x01	; 1
    3596:	fc 01       	movw	r30, r24
    3598:	31 83       	std	Z+1, r19	; 0x01
    359a:	20 83       	st	Z, r18
    359c:	ce 01       	movw	r24, r28
    359e:	81 5a       	subi	r24, 0xA1	; 161
    35a0:	9f 4f       	sbci	r25, 0xFF	; 255
    35a2:	fc 01       	movw	r30, r24
    35a4:	80 81       	ld	r24, Z
    35a6:	91 81       	ldd	r25, Z+1	; 0x01
    35a8:	01 97       	sbiw	r24, 0x01	; 1
    35aa:	f1 f7       	brne	.-4      	; 0x35a8 <inv_place+0x7bc>
    35ac:	9e 01       	movw	r18, r28
    35ae:	21 5a       	subi	r18, 0xA1	; 161
    35b0:	3f 4f       	sbci	r19, 0xFF	; 255
    35b2:	f9 01       	movw	r30, r18
    35b4:	91 83       	std	Z+1, r25	; 0x01
    35b6:	80 83       	st	Z, r24
    35b8:	ce 01       	movw	r24, r28
    35ba:	83 5a       	subi	r24, 0xA3	; 163
    35bc:	9f 4f       	sbci	r25, 0xFF	; 255
    35be:	9e 01       	movw	r18, r28
    35c0:	23 5a       	subi	r18, 0xA3	; 163
    35c2:	3f 4f       	sbci	r19, 0xFF	; 255
    35c4:	f9 01       	movw	r30, r18
    35c6:	20 81       	ld	r18, Z
    35c8:	31 81       	ldd	r19, Z+1	; 0x01
    35ca:	21 50       	subi	r18, 0x01	; 1
    35cc:	31 09       	sbc	r19, r1
    35ce:	fc 01       	movw	r30, r24
    35d0:	31 83       	std	Z+1, r19	; 0x01
    35d2:	20 83       	st	Z, r18
    35d4:	ce 01       	movw	r24, r28
    35d6:	83 5a       	subi	r24, 0xA3	; 163
    35d8:	9f 4f       	sbci	r25, 0xFF	; 255
    35da:	fc 01       	movw	r30, r24
    35dc:	80 81       	ld	r24, Z
    35de:	91 81       	ldd	r25, Z+1	; 0x01
    35e0:	00 97       	sbiw	r24, 0x00	; 0
    35e2:	a1 f6       	brne	.-88     	; 0x358c <inv_place+0x7a0>
    35e4:	2c c0       	rjmp	.+88     	; 0x363e <inv_place+0x852>
    35e6:	8e 01       	movw	r16, r28
    35e8:	03 5a       	subi	r16, 0xA3	; 163
    35ea:	1f 4f       	sbci	r17, 0xFF	; 255
    35ec:	ce 01       	movw	r24, r28
    35ee:	87 5a       	subi	r24, 0xA7	; 167
    35f0:	9f 4f       	sbci	r25, 0xFF	; 255
    35f2:	fc 01       	movw	r30, r24
    35f4:	60 81       	ld	r22, Z
    35f6:	71 81       	ldd	r23, Z+1	; 0x01
    35f8:	82 81       	ldd	r24, Z+2	; 0x02
    35fa:	93 81       	ldd	r25, Z+3	; 0x03
    35fc:	0e 94 ec 2b 	call	0x57d8	; 0x57d8 <__fixunssfsi>
    3600:	dc 01       	movw	r26, r24
    3602:	cb 01       	movw	r24, r22
    3604:	f8 01       	movw	r30, r16
    3606:	91 83       	std	Z+1, r25	; 0x01
    3608:	80 83       	st	Z, r24
    360a:	ce 01       	movw	r24, r28
    360c:	8f 59       	subi	r24, 0x9F	; 159
    360e:	9f 4f       	sbci	r25, 0xFF	; 255
    3610:	9e 01       	movw	r18, r28
    3612:	23 5a       	subi	r18, 0xA3	; 163
    3614:	3f 4f       	sbci	r19, 0xFF	; 255
    3616:	f9 01       	movw	r30, r18
    3618:	20 81       	ld	r18, Z
    361a:	31 81       	ldd	r19, Z+1	; 0x01
    361c:	fc 01       	movw	r30, r24
    361e:	31 83       	std	Z+1, r19	; 0x01
    3620:	20 83       	st	Z, r18
    3622:	ce 01       	movw	r24, r28
    3624:	8f 59       	subi	r24, 0x9F	; 159
    3626:	9f 4f       	sbci	r25, 0xFF	; 255
    3628:	fc 01       	movw	r30, r24
    362a:	80 81       	ld	r24, Z
    362c:	91 81       	ldd	r25, Z+1	; 0x01
    362e:	01 97       	sbiw	r24, 0x01	; 1
    3630:	f1 f7       	brne	.-4      	; 0x362e <inv_place+0x842>
    3632:	9e 01       	movw	r18, r28
    3634:	2f 59       	subi	r18, 0x9F	; 159
    3636:	3f 4f       	sbci	r19, 0xFF	; 255
    3638:	f9 01       	movw	r30, r18
    363a:	91 83       	std	Z+1, r25	; 0x01
    363c:	80 83       	st	Z, r24
    363e:	0e 94 03 10 	call	0x2006	; 0x2006 <servo_1_free>
    3642:	ce 59       	subi	r28, 0x9E	; 158
    3644:	df 4f       	sbci	r29, 0xFF	; 255
    3646:	0f b6       	in	r0, 0x3f	; 63
    3648:	f8 94       	cli
    364a:	de bf       	out	0x3e, r29	; 62
    364c:	0f be       	out	0x3f, r0	; 63
    364e:	cd bf       	out	0x3d, r28	; 61
    3650:	df 91       	pop	r29
    3652:	cf 91       	pop	r28
    3654:	1f 91       	pop	r17
    3656:	0f 91       	pop	r16
    3658:	08 95       	ret

0000365a <forward_walls>:
    365a:	cf 93       	push	r28
    365c:	df 93       	push	r29
    365e:	cd b7       	in	r28, 0x3d	; 61
    3660:	de b7       	in	r29, 0x3e	; 62
    3662:	e8 97       	sbiw	r28, 0x38	; 56
    3664:	0f b6       	in	r0, 0x3f	; 63
    3666:	f8 94       	cli
    3668:	de bf       	out	0x3e, r29	; 62
    366a:	0f be       	out	0x3f, r0	; 63
    366c:	cd bf       	out	0x3d, r28	; 61
    366e:	81 e0       	ldi	r24, 0x01	; 1
    3670:	90 e0       	ldi	r25, 0x00	; 0
    3672:	0e 94 8b 10 	call	0x2116	; 0x2116 <LCD_Function>
    3676:	0e 94 8c 0d 	call	0x1b18	; 0x1b18 <forward>
    367a:	90 91 00 02 	lds	r25, 0x0200
    367e:	80 91 00 02 	lds	r24, 0x0200
    3682:	69 2f       	mov	r22, r25
    3684:	0e 94 c2 0d 	call	0x1b84	; 0x1b84 <velocity>
    3688:	80 e0       	ldi	r24, 0x00	; 0
    368a:	90 e0       	ldi	r25, 0x00	; 0
    368c:	aa ef       	ldi	r26, 0xFA	; 250
    368e:	b3 e4       	ldi	r27, 0x43	; 67
    3690:	89 83       	std	Y+1, r24	; 0x01
    3692:	9a 83       	std	Y+2, r25	; 0x02
    3694:	ab 83       	std	Y+3, r26	; 0x03
    3696:	bc 83       	std	Y+4, r27	; 0x04
    3698:	26 e6       	ldi	r18, 0x66	; 102
    369a:	36 e6       	ldi	r19, 0x66	; 102
    369c:	46 e6       	ldi	r20, 0x66	; 102
    369e:	55 e4       	ldi	r21, 0x45	; 69
    36a0:	69 81       	ldd	r22, Y+1	; 0x01
    36a2:	7a 81       	ldd	r23, Y+2	; 0x02
    36a4:	8b 81       	ldd	r24, Y+3	; 0x03
    36a6:	9c 81       	ldd	r25, Y+4	; 0x04
    36a8:	0e 94 ce 2c 	call	0x599c	; 0x599c <__mulsf3>
    36ac:	dc 01       	movw	r26, r24
    36ae:	cb 01       	movw	r24, r22
    36b0:	8d 83       	std	Y+5, r24	; 0x05
    36b2:	9e 83       	std	Y+6, r25	; 0x06
    36b4:	af 83       	std	Y+7, r26	; 0x07
    36b6:	b8 87       	std	Y+8, r27	; 0x08
    36b8:	20 e0       	ldi	r18, 0x00	; 0
    36ba:	30 e0       	ldi	r19, 0x00	; 0
    36bc:	40 e8       	ldi	r20, 0x80	; 128
    36be:	5f e3       	ldi	r21, 0x3F	; 63
    36c0:	6d 81       	ldd	r22, Y+5	; 0x05
    36c2:	7e 81       	ldd	r23, Y+6	; 0x06
    36c4:	8f 81       	ldd	r24, Y+7	; 0x07
    36c6:	98 85       	ldd	r25, Y+8	; 0x08
    36c8:	0e 94 80 2b 	call	0x5700	; 0x5700 <__cmpsf2>
    36cc:	88 23       	and	r24, r24
    36ce:	2c f4       	brge	.+10     	; 0x36da <forward_walls+0x80>
    36d0:	81 e0       	ldi	r24, 0x01	; 1
    36d2:	90 e0       	ldi	r25, 0x00	; 0
    36d4:	9a 87       	std	Y+10, r25	; 0x0a
    36d6:	89 87       	std	Y+9, r24	; 0x09
    36d8:	3f c0       	rjmp	.+126    	; 0x3758 <forward_walls+0xfe>
    36da:	20 e0       	ldi	r18, 0x00	; 0
    36dc:	3f ef       	ldi	r19, 0xFF	; 255
    36de:	4f e7       	ldi	r20, 0x7F	; 127
    36e0:	57 e4       	ldi	r21, 0x47	; 71
    36e2:	6d 81       	ldd	r22, Y+5	; 0x05
    36e4:	7e 81       	ldd	r23, Y+6	; 0x06
    36e6:	8f 81       	ldd	r24, Y+7	; 0x07
    36e8:	98 85       	ldd	r25, Y+8	; 0x08
    36ea:	0e 94 ca 2c 	call	0x5994	; 0x5994 <__gesf2>
    36ee:	18 16       	cp	r1, r24
    36f0:	4c f5       	brge	.+82     	; 0x3744 <forward_walls+0xea>
    36f2:	20 e0       	ldi	r18, 0x00	; 0
    36f4:	30 e0       	ldi	r19, 0x00	; 0
    36f6:	40 e2       	ldi	r20, 0x20	; 32
    36f8:	51 e4       	ldi	r21, 0x41	; 65
    36fa:	69 81       	ldd	r22, Y+1	; 0x01
    36fc:	7a 81       	ldd	r23, Y+2	; 0x02
    36fe:	8b 81       	ldd	r24, Y+3	; 0x03
    3700:	9c 81       	ldd	r25, Y+4	; 0x04
    3702:	0e 94 ce 2c 	call	0x599c	; 0x599c <__mulsf3>
    3706:	dc 01       	movw	r26, r24
    3708:	cb 01       	movw	r24, r22
    370a:	bc 01       	movw	r22, r24
    370c:	cd 01       	movw	r24, r26
    370e:	0e 94 ec 2b 	call	0x57d8	; 0x57d8 <__fixunssfsi>
    3712:	dc 01       	movw	r26, r24
    3714:	cb 01       	movw	r24, r22
    3716:	9a 87       	std	Y+10, r25	; 0x0a
    3718:	89 87       	std	Y+9, r24	; 0x09
    371a:	0f c0       	rjmp	.+30     	; 0x373a <forward_walls+0xe0>
    371c:	80 e7       	ldi	r24, 0x70	; 112
    371e:	91 e0       	ldi	r25, 0x01	; 1
    3720:	9c 87       	std	Y+12, r25	; 0x0c
    3722:	8b 87       	std	Y+11, r24	; 0x0b
    3724:	8b 85       	ldd	r24, Y+11	; 0x0b
    3726:	9c 85       	ldd	r25, Y+12	; 0x0c
    3728:	01 97       	sbiw	r24, 0x01	; 1
    372a:	f1 f7       	brne	.-4      	; 0x3728 <forward_walls+0xce>
    372c:	9c 87       	std	Y+12, r25	; 0x0c
    372e:	8b 87       	std	Y+11, r24	; 0x0b
    3730:	89 85       	ldd	r24, Y+9	; 0x09
    3732:	9a 85       	ldd	r25, Y+10	; 0x0a
    3734:	01 97       	sbiw	r24, 0x01	; 1
    3736:	9a 87       	std	Y+10, r25	; 0x0a
    3738:	89 87       	std	Y+9, r24	; 0x09
    373a:	89 85       	ldd	r24, Y+9	; 0x09
    373c:	9a 85       	ldd	r25, Y+10	; 0x0a
    373e:	00 97       	sbiw	r24, 0x00	; 0
    3740:	69 f7       	brne	.-38     	; 0x371c <forward_walls+0xc2>
    3742:	14 c0       	rjmp	.+40     	; 0x376c <forward_walls+0x112>
    3744:	6d 81       	ldd	r22, Y+5	; 0x05
    3746:	7e 81       	ldd	r23, Y+6	; 0x06
    3748:	8f 81       	ldd	r24, Y+7	; 0x07
    374a:	98 85       	ldd	r25, Y+8	; 0x08
    374c:	0e 94 ec 2b 	call	0x57d8	; 0x57d8 <__fixunssfsi>
    3750:	dc 01       	movw	r26, r24
    3752:	cb 01       	movw	r24, r22
    3754:	9a 87       	std	Y+10, r25	; 0x0a
    3756:	89 87       	std	Y+9, r24	; 0x09
    3758:	89 85       	ldd	r24, Y+9	; 0x09
    375a:	9a 85       	ldd	r25, Y+10	; 0x0a
    375c:	9e 87       	std	Y+14, r25	; 0x0e
    375e:	8d 87       	std	Y+13, r24	; 0x0d
    3760:	8d 85       	ldd	r24, Y+13	; 0x0d
    3762:	9e 85       	ldd	r25, Y+14	; 0x0e
    3764:	01 97       	sbiw	r24, 0x01	; 1
    3766:	f1 f7       	brne	.-4      	; 0x3764 <forward_walls+0x10a>
    3768:	9e 87       	std	Y+14, r25	; 0x0e
    376a:	8d 87       	std	Y+13, r24	; 0x0d
    376c:	8b e0       	ldi	r24, 0x0B	; 11
    376e:	0e 94 47 10 	call	0x208e	; 0x208e <ADC_Conversion>
    3772:	80 93 73 02 	sts	0x0273, r24
    3776:	80 91 73 02 	lds	r24, 0x0273
    377a:	83 37       	cpi	r24, 0x73	; 115
    377c:	08 f4       	brcc	.+2      	; 0x3780 <forward_walls+0x126>
    377e:	84 c0       	rjmp	.+264    	; 0x3888 <forward_walls+0x22e>
    3780:	80 91 73 02 	lds	r24, 0x0273
    3784:	83 38       	cpi	r24, 0x83	; 131
    3786:	08 f0       	brcs	.+2      	; 0x378a <forward_walls+0x130>
    3788:	7f c0       	rjmp	.+254    	; 0x3888 <forward_walls+0x22e>
    378a:	0e 94 8c 0d 	call	0x1b18	; 0x1b18 <forward>
    378e:	88 e2       	ldi	r24, 0x28	; 40
    3790:	91 e0       	ldi	r25, 0x01	; 1
    3792:	2c ed       	ldi	r18, 0xDC	; 220
    3794:	fc 01       	movw	r30, r24
    3796:	20 83       	st	Z, r18
    3798:	8a e2       	ldi	r24, 0x2A	; 42
    379a:	91 e0       	ldi	r25, 0x01	; 1
    379c:	2c ed       	ldi	r18, 0xDC	; 220
    379e:	fc 01       	movw	r30, r24
    37a0:	20 83       	st	Z, r18
    37a2:	80 e0       	ldi	r24, 0x00	; 0
    37a4:	90 e0       	ldi	r25, 0x00	; 0
    37a6:	a4 e3       	ldi	r26, 0x34	; 52
    37a8:	b2 e4       	ldi	r27, 0x42	; 66
    37aa:	8f 87       	std	Y+15, r24	; 0x0f
    37ac:	98 8b       	std	Y+16, r25	; 0x10
    37ae:	a9 8b       	std	Y+17, r26	; 0x11
    37b0:	ba 8b       	std	Y+18, r27	; 0x12
    37b2:	26 e6       	ldi	r18, 0x66	; 102
    37b4:	36 e6       	ldi	r19, 0x66	; 102
    37b6:	46 e6       	ldi	r20, 0x66	; 102
    37b8:	55 e4       	ldi	r21, 0x45	; 69
    37ba:	6f 85       	ldd	r22, Y+15	; 0x0f
    37bc:	78 89       	ldd	r23, Y+16	; 0x10
    37be:	89 89       	ldd	r24, Y+17	; 0x11
    37c0:	9a 89       	ldd	r25, Y+18	; 0x12
    37c2:	0e 94 ce 2c 	call	0x599c	; 0x599c <__mulsf3>
    37c6:	dc 01       	movw	r26, r24
    37c8:	cb 01       	movw	r24, r22
    37ca:	8b 8b       	std	Y+19, r24	; 0x13
    37cc:	9c 8b       	std	Y+20, r25	; 0x14
    37ce:	ad 8b       	std	Y+21, r26	; 0x15
    37d0:	be 8b       	std	Y+22, r27	; 0x16
    37d2:	20 e0       	ldi	r18, 0x00	; 0
    37d4:	30 e0       	ldi	r19, 0x00	; 0
    37d6:	40 e8       	ldi	r20, 0x80	; 128
    37d8:	5f e3       	ldi	r21, 0x3F	; 63
    37da:	6b 89       	ldd	r22, Y+19	; 0x13
    37dc:	7c 89       	ldd	r23, Y+20	; 0x14
    37de:	8d 89       	ldd	r24, Y+21	; 0x15
    37e0:	9e 89       	ldd	r25, Y+22	; 0x16
    37e2:	0e 94 80 2b 	call	0x5700	; 0x5700 <__cmpsf2>
    37e6:	88 23       	and	r24, r24
    37e8:	2c f4       	brge	.+10     	; 0x37f4 <forward_walls+0x19a>
    37ea:	81 e0       	ldi	r24, 0x01	; 1
    37ec:	90 e0       	ldi	r25, 0x00	; 0
    37ee:	98 8f       	std	Y+24, r25	; 0x18
    37f0:	8f 8b       	std	Y+23, r24	; 0x17
    37f2:	3f c0       	rjmp	.+126    	; 0x3872 <forward_walls+0x218>
    37f4:	20 e0       	ldi	r18, 0x00	; 0
    37f6:	3f ef       	ldi	r19, 0xFF	; 255
    37f8:	4f e7       	ldi	r20, 0x7F	; 127
    37fa:	57 e4       	ldi	r21, 0x47	; 71
    37fc:	6b 89       	ldd	r22, Y+19	; 0x13
    37fe:	7c 89       	ldd	r23, Y+20	; 0x14
    3800:	8d 89       	ldd	r24, Y+21	; 0x15
    3802:	9e 89       	ldd	r25, Y+22	; 0x16
    3804:	0e 94 ca 2c 	call	0x5994	; 0x5994 <__gesf2>
    3808:	18 16       	cp	r1, r24
    380a:	4c f5       	brge	.+82     	; 0x385e <forward_walls+0x204>
    380c:	20 e0       	ldi	r18, 0x00	; 0
    380e:	30 e0       	ldi	r19, 0x00	; 0
    3810:	40 e2       	ldi	r20, 0x20	; 32
    3812:	51 e4       	ldi	r21, 0x41	; 65
    3814:	6f 85       	ldd	r22, Y+15	; 0x0f
    3816:	78 89       	ldd	r23, Y+16	; 0x10
    3818:	89 89       	ldd	r24, Y+17	; 0x11
    381a:	9a 89       	ldd	r25, Y+18	; 0x12
    381c:	0e 94 ce 2c 	call	0x599c	; 0x599c <__mulsf3>
    3820:	dc 01       	movw	r26, r24
    3822:	cb 01       	movw	r24, r22
    3824:	bc 01       	movw	r22, r24
    3826:	cd 01       	movw	r24, r26
    3828:	0e 94 ec 2b 	call	0x57d8	; 0x57d8 <__fixunssfsi>
    382c:	dc 01       	movw	r26, r24
    382e:	cb 01       	movw	r24, r22
    3830:	98 8f       	std	Y+24, r25	; 0x18
    3832:	8f 8b       	std	Y+23, r24	; 0x17
    3834:	0f c0       	rjmp	.+30     	; 0x3854 <forward_walls+0x1fa>
    3836:	80 e7       	ldi	r24, 0x70	; 112
    3838:	91 e0       	ldi	r25, 0x01	; 1
    383a:	9a 8f       	std	Y+26, r25	; 0x1a
    383c:	89 8f       	std	Y+25, r24	; 0x19
    383e:	89 8d       	ldd	r24, Y+25	; 0x19
    3840:	9a 8d       	ldd	r25, Y+26	; 0x1a
    3842:	01 97       	sbiw	r24, 0x01	; 1
    3844:	f1 f7       	brne	.-4      	; 0x3842 <forward_walls+0x1e8>
    3846:	9a 8f       	std	Y+26, r25	; 0x1a
    3848:	89 8f       	std	Y+25, r24	; 0x19
    384a:	8f 89       	ldd	r24, Y+23	; 0x17
    384c:	98 8d       	ldd	r25, Y+24	; 0x18
    384e:	01 97       	sbiw	r24, 0x01	; 1
    3850:	98 8f       	std	Y+24, r25	; 0x18
    3852:	8f 8b       	std	Y+23, r24	; 0x17
    3854:	8f 89       	ldd	r24, Y+23	; 0x17
    3856:	98 8d       	ldd	r25, Y+24	; 0x18
    3858:	00 97       	sbiw	r24, 0x00	; 0
    385a:	69 f7       	brne	.-38     	; 0x3836 <forward_walls+0x1dc>
    385c:	29 c1       	rjmp	.+594    	; 0x3ab0 <forward_walls+0x456>
    385e:	6b 89       	ldd	r22, Y+19	; 0x13
    3860:	7c 89       	ldd	r23, Y+20	; 0x14
    3862:	8d 89       	ldd	r24, Y+21	; 0x15
    3864:	9e 89       	ldd	r25, Y+22	; 0x16
    3866:	0e 94 ec 2b 	call	0x57d8	; 0x57d8 <__fixunssfsi>
    386a:	dc 01       	movw	r26, r24
    386c:	cb 01       	movw	r24, r22
    386e:	98 8f       	std	Y+24, r25	; 0x18
    3870:	8f 8b       	std	Y+23, r24	; 0x17
    3872:	8f 89       	ldd	r24, Y+23	; 0x17
    3874:	98 8d       	ldd	r25, Y+24	; 0x18
    3876:	9c 8f       	std	Y+28, r25	; 0x1c
    3878:	8b 8f       	std	Y+27, r24	; 0x1b
    387a:	8b 8d       	ldd	r24, Y+27	; 0x1b
    387c:	9c 8d       	ldd	r25, Y+28	; 0x1c
    387e:	01 97       	sbiw	r24, 0x01	; 1
    3880:	f1 f7       	brne	.-4      	; 0x387e <forward_walls+0x224>
    3882:	9c 8f       	std	Y+28, r25	; 0x1c
    3884:	8b 8f       	std	Y+27, r24	; 0x1b
    3886:	14 c1       	rjmp	.+552    	; 0x3ab0 <forward_walls+0x456>
    3888:	80 91 73 02 	lds	r24, 0x0273
    388c:	83 38       	cpi	r24, 0x83	; 131
    388e:	08 f4       	brcc	.+2      	; 0x3892 <forward_walls+0x238>
    3890:	7f c0       	rjmp	.+254    	; 0x3990 <forward_walls+0x336>
    3892:	0e 94 a7 0d 	call	0x1b4e	; 0x1b4e <soft_right>
    3896:	88 e2       	ldi	r24, 0x28	; 40
    3898:	91 e0       	ldi	r25, 0x01	; 1
    389a:	25 e7       	ldi	r18, 0x75	; 117
    389c:	fc 01       	movw	r30, r24
    389e:	20 83       	st	Z, r18
    38a0:	8a e2       	ldi	r24, 0x2A	; 42
    38a2:	91 e0       	ldi	r25, 0x01	; 1
    38a4:	2f e6       	ldi	r18, 0x6F	; 111
    38a6:	fc 01       	movw	r30, r24
    38a8:	20 83       	st	Z, r18
    38aa:	80 e0       	ldi	r24, 0x00	; 0
    38ac:	90 e0       	ldi	r25, 0x00	; 0
    38ae:	a0 e0       	ldi	r26, 0x00	; 0
    38b0:	b0 e4       	ldi	r27, 0x40	; 64
    38b2:	8d 8f       	std	Y+29, r24	; 0x1d
    38b4:	9e 8f       	std	Y+30, r25	; 0x1e
    38b6:	af 8f       	std	Y+31, r26	; 0x1f
    38b8:	b8 a3       	std	Y+32, r27	; 0x20
    38ba:	26 e6       	ldi	r18, 0x66	; 102
    38bc:	36 e6       	ldi	r19, 0x66	; 102
    38be:	46 e6       	ldi	r20, 0x66	; 102
    38c0:	55 e4       	ldi	r21, 0x45	; 69
    38c2:	6d 8d       	ldd	r22, Y+29	; 0x1d
    38c4:	7e 8d       	ldd	r23, Y+30	; 0x1e
    38c6:	8f 8d       	ldd	r24, Y+31	; 0x1f
    38c8:	98 a1       	ldd	r25, Y+32	; 0x20
    38ca:	0e 94 ce 2c 	call	0x599c	; 0x599c <__mulsf3>
    38ce:	dc 01       	movw	r26, r24
    38d0:	cb 01       	movw	r24, r22
    38d2:	89 a3       	std	Y+33, r24	; 0x21
    38d4:	9a a3       	std	Y+34, r25	; 0x22
    38d6:	ab a3       	std	Y+35, r26	; 0x23
    38d8:	bc a3       	std	Y+36, r27	; 0x24
    38da:	20 e0       	ldi	r18, 0x00	; 0
    38dc:	30 e0       	ldi	r19, 0x00	; 0
    38de:	40 e8       	ldi	r20, 0x80	; 128
    38e0:	5f e3       	ldi	r21, 0x3F	; 63
    38e2:	69 a1       	ldd	r22, Y+33	; 0x21
    38e4:	7a a1       	ldd	r23, Y+34	; 0x22
    38e6:	8b a1       	ldd	r24, Y+35	; 0x23
    38e8:	9c a1       	ldd	r25, Y+36	; 0x24
    38ea:	0e 94 80 2b 	call	0x5700	; 0x5700 <__cmpsf2>
    38ee:	88 23       	and	r24, r24
    38f0:	2c f4       	brge	.+10     	; 0x38fc <forward_walls+0x2a2>
    38f2:	81 e0       	ldi	r24, 0x01	; 1
    38f4:	90 e0       	ldi	r25, 0x00	; 0
    38f6:	9e a3       	std	Y+38, r25	; 0x26
    38f8:	8d a3       	std	Y+37, r24	; 0x25
    38fa:	3f c0       	rjmp	.+126    	; 0x397a <forward_walls+0x320>
    38fc:	20 e0       	ldi	r18, 0x00	; 0
    38fe:	3f ef       	ldi	r19, 0xFF	; 255
    3900:	4f e7       	ldi	r20, 0x7F	; 127
    3902:	57 e4       	ldi	r21, 0x47	; 71
    3904:	69 a1       	ldd	r22, Y+33	; 0x21
    3906:	7a a1       	ldd	r23, Y+34	; 0x22
    3908:	8b a1       	ldd	r24, Y+35	; 0x23
    390a:	9c a1       	ldd	r25, Y+36	; 0x24
    390c:	0e 94 ca 2c 	call	0x5994	; 0x5994 <__gesf2>
    3910:	18 16       	cp	r1, r24
    3912:	4c f5       	brge	.+82     	; 0x3966 <forward_walls+0x30c>
    3914:	20 e0       	ldi	r18, 0x00	; 0
    3916:	30 e0       	ldi	r19, 0x00	; 0
    3918:	40 e2       	ldi	r20, 0x20	; 32
    391a:	51 e4       	ldi	r21, 0x41	; 65
    391c:	6d 8d       	ldd	r22, Y+29	; 0x1d
    391e:	7e 8d       	ldd	r23, Y+30	; 0x1e
    3920:	8f 8d       	ldd	r24, Y+31	; 0x1f
    3922:	98 a1       	ldd	r25, Y+32	; 0x20
    3924:	0e 94 ce 2c 	call	0x599c	; 0x599c <__mulsf3>
    3928:	dc 01       	movw	r26, r24
    392a:	cb 01       	movw	r24, r22
    392c:	bc 01       	movw	r22, r24
    392e:	cd 01       	movw	r24, r26
    3930:	0e 94 ec 2b 	call	0x57d8	; 0x57d8 <__fixunssfsi>
    3934:	dc 01       	movw	r26, r24
    3936:	cb 01       	movw	r24, r22
    3938:	9e a3       	std	Y+38, r25	; 0x26
    393a:	8d a3       	std	Y+37, r24	; 0x25
    393c:	0f c0       	rjmp	.+30     	; 0x395c <forward_walls+0x302>
    393e:	80 e7       	ldi	r24, 0x70	; 112
    3940:	91 e0       	ldi	r25, 0x01	; 1
    3942:	98 a7       	std	Y+40, r25	; 0x28
    3944:	8f a3       	std	Y+39, r24	; 0x27
    3946:	8f a1       	ldd	r24, Y+39	; 0x27
    3948:	98 a5       	ldd	r25, Y+40	; 0x28
    394a:	01 97       	sbiw	r24, 0x01	; 1
    394c:	f1 f7       	brne	.-4      	; 0x394a <forward_walls+0x2f0>
    394e:	98 a7       	std	Y+40, r25	; 0x28
    3950:	8f a3       	std	Y+39, r24	; 0x27
    3952:	8d a1       	ldd	r24, Y+37	; 0x25
    3954:	9e a1       	ldd	r25, Y+38	; 0x26
    3956:	01 97       	sbiw	r24, 0x01	; 1
    3958:	9e a3       	std	Y+38, r25	; 0x26
    395a:	8d a3       	std	Y+37, r24	; 0x25
    395c:	8d a1       	ldd	r24, Y+37	; 0x25
    395e:	9e a1       	ldd	r25, Y+38	; 0x26
    3960:	00 97       	sbiw	r24, 0x00	; 0
    3962:	69 f7       	brne	.-38     	; 0x393e <forward_walls+0x2e4>
    3964:	a5 c0       	rjmp	.+330    	; 0x3ab0 <forward_walls+0x456>
    3966:	69 a1       	ldd	r22, Y+33	; 0x21
    3968:	7a a1       	ldd	r23, Y+34	; 0x22
    396a:	8b a1       	ldd	r24, Y+35	; 0x23
    396c:	9c a1       	ldd	r25, Y+36	; 0x24
    396e:	0e 94 ec 2b 	call	0x57d8	; 0x57d8 <__fixunssfsi>
    3972:	dc 01       	movw	r26, r24
    3974:	cb 01       	movw	r24, r22
    3976:	9e a3       	std	Y+38, r25	; 0x26
    3978:	8d a3       	std	Y+37, r24	; 0x25
    397a:	8d a1       	ldd	r24, Y+37	; 0x25
    397c:	9e a1       	ldd	r25, Y+38	; 0x26
    397e:	9a a7       	std	Y+42, r25	; 0x2a
    3980:	89 a7       	std	Y+41, r24	; 0x29
    3982:	89 a5       	ldd	r24, Y+41	; 0x29
    3984:	9a a5       	ldd	r25, Y+42	; 0x2a
    3986:	01 97       	sbiw	r24, 0x01	; 1
    3988:	f1 f7       	brne	.-4      	; 0x3986 <forward_walls+0x32c>
    398a:	9a a7       	std	Y+42, r25	; 0x2a
    398c:	89 a7       	std	Y+41, r24	; 0x29
    398e:	ee ce       	rjmp	.-548    	; 0x376c <forward_walls+0x112>
    3990:	80 91 73 02 	lds	r24, 0x0273
    3994:	83 37       	cpi	r24, 0x73	; 115
    3996:	08 f0       	brcs	.+2      	; 0x399a <forward_walls+0x340>
    3998:	84 c0       	rjmp	.+264    	; 0x3aa2 <forward_walls+0x448>
    399a:	80 91 73 02 	lds	r24, 0x0273
    399e:	81 35       	cpi	r24, 0x51	; 81
    39a0:	08 f4       	brcc	.+2      	; 0x39a4 <forward_walls+0x34a>
    39a2:	7f c0       	rjmp	.+254    	; 0x3aa2 <forward_walls+0x448>
    39a4:	0e 94 b0 0d 	call	0x1b60	; 0x1b60 <soft_left>
    39a8:	88 e2       	ldi	r24, 0x28	; 40
    39aa:	91 e0       	ldi	r25, 0x01	; 1
    39ac:	22 e7       	ldi	r18, 0x72	; 114
    39ae:	fc 01       	movw	r30, r24
    39b0:	20 83       	st	Z, r18
    39b2:	8a e2       	ldi	r24, 0x2A	; 42
    39b4:	91 e0       	ldi	r25, 0x01	; 1
    39b6:	25 e7       	ldi	r18, 0x75	; 117
    39b8:	fc 01       	movw	r30, r24
    39ba:	20 83       	st	Z, r18
    39bc:	80 e0       	ldi	r24, 0x00	; 0
    39be:	90 e0       	ldi	r25, 0x00	; 0
    39c0:	a0 e0       	ldi	r26, 0x00	; 0
    39c2:	b0 e4       	ldi	r27, 0x40	; 64
    39c4:	8b a7       	std	Y+43, r24	; 0x2b
    39c6:	9c a7       	std	Y+44, r25	; 0x2c
    39c8:	ad a7       	std	Y+45, r26	; 0x2d
    39ca:	be a7       	std	Y+46, r27	; 0x2e
    39cc:	26 e6       	ldi	r18, 0x66	; 102
    39ce:	36 e6       	ldi	r19, 0x66	; 102
    39d0:	46 e6       	ldi	r20, 0x66	; 102
    39d2:	55 e4       	ldi	r21, 0x45	; 69
    39d4:	6b a5       	ldd	r22, Y+43	; 0x2b
    39d6:	7c a5       	ldd	r23, Y+44	; 0x2c
    39d8:	8d a5       	ldd	r24, Y+45	; 0x2d
    39da:	9e a5       	ldd	r25, Y+46	; 0x2e
    39dc:	0e 94 ce 2c 	call	0x599c	; 0x599c <__mulsf3>
    39e0:	dc 01       	movw	r26, r24
    39e2:	cb 01       	movw	r24, r22
    39e4:	8f a7       	std	Y+47, r24	; 0x2f
    39e6:	98 ab       	std	Y+48, r25	; 0x30
    39e8:	a9 ab       	std	Y+49, r26	; 0x31
    39ea:	ba ab       	std	Y+50, r27	; 0x32
    39ec:	20 e0       	ldi	r18, 0x00	; 0
    39ee:	30 e0       	ldi	r19, 0x00	; 0
    39f0:	40 e8       	ldi	r20, 0x80	; 128
    39f2:	5f e3       	ldi	r21, 0x3F	; 63
    39f4:	6f a5       	ldd	r22, Y+47	; 0x2f
    39f6:	78 a9       	ldd	r23, Y+48	; 0x30
    39f8:	89 a9       	ldd	r24, Y+49	; 0x31
    39fa:	9a a9       	ldd	r25, Y+50	; 0x32
    39fc:	0e 94 80 2b 	call	0x5700	; 0x5700 <__cmpsf2>
    3a00:	88 23       	and	r24, r24
    3a02:	2c f4       	brge	.+10     	; 0x3a0e <forward_walls+0x3b4>
    3a04:	81 e0       	ldi	r24, 0x01	; 1
    3a06:	90 e0       	ldi	r25, 0x00	; 0
    3a08:	9c ab       	std	Y+52, r25	; 0x34
    3a0a:	8b ab       	std	Y+51, r24	; 0x33
    3a0c:	3f c0       	rjmp	.+126    	; 0x3a8c <forward_walls+0x432>
    3a0e:	20 e0       	ldi	r18, 0x00	; 0
    3a10:	3f ef       	ldi	r19, 0xFF	; 255
    3a12:	4f e7       	ldi	r20, 0x7F	; 127
    3a14:	57 e4       	ldi	r21, 0x47	; 71
    3a16:	6f a5       	ldd	r22, Y+47	; 0x2f
    3a18:	78 a9       	ldd	r23, Y+48	; 0x30
    3a1a:	89 a9       	ldd	r24, Y+49	; 0x31
    3a1c:	9a a9       	ldd	r25, Y+50	; 0x32
    3a1e:	0e 94 ca 2c 	call	0x5994	; 0x5994 <__gesf2>
    3a22:	18 16       	cp	r1, r24
    3a24:	4c f5       	brge	.+82     	; 0x3a78 <forward_walls+0x41e>
    3a26:	20 e0       	ldi	r18, 0x00	; 0
    3a28:	30 e0       	ldi	r19, 0x00	; 0
    3a2a:	40 e2       	ldi	r20, 0x20	; 32
    3a2c:	51 e4       	ldi	r21, 0x41	; 65
    3a2e:	6b a5       	ldd	r22, Y+43	; 0x2b
    3a30:	7c a5       	ldd	r23, Y+44	; 0x2c
    3a32:	8d a5       	ldd	r24, Y+45	; 0x2d
    3a34:	9e a5       	ldd	r25, Y+46	; 0x2e
    3a36:	0e 94 ce 2c 	call	0x599c	; 0x599c <__mulsf3>
    3a3a:	dc 01       	movw	r26, r24
    3a3c:	cb 01       	movw	r24, r22
    3a3e:	bc 01       	movw	r22, r24
    3a40:	cd 01       	movw	r24, r26
    3a42:	0e 94 ec 2b 	call	0x57d8	; 0x57d8 <__fixunssfsi>
    3a46:	dc 01       	movw	r26, r24
    3a48:	cb 01       	movw	r24, r22
    3a4a:	9c ab       	std	Y+52, r25	; 0x34
    3a4c:	8b ab       	std	Y+51, r24	; 0x33
    3a4e:	0f c0       	rjmp	.+30     	; 0x3a6e <forward_walls+0x414>
    3a50:	80 e7       	ldi	r24, 0x70	; 112
    3a52:	91 e0       	ldi	r25, 0x01	; 1
    3a54:	9e ab       	std	Y+54, r25	; 0x36
    3a56:	8d ab       	std	Y+53, r24	; 0x35
    3a58:	8d a9       	ldd	r24, Y+53	; 0x35
    3a5a:	9e a9       	ldd	r25, Y+54	; 0x36
    3a5c:	01 97       	sbiw	r24, 0x01	; 1
    3a5e:	f1 f7       	brne	.-4      	; 0x3a5c <forward_walls+0x402>
    3a60:	9e ab       	std	Y+54, r25	; 0x36
    3a62:	8d ab       	std	Y+53, r24	; 0x35
    3a64:	8b a9       	ldd	r24, Y+51	; 0x33
    3a66:	9c a9       	ldd	r25, Y+52	; 0x34
    3a68:	01 97       	sbiw	r24, 0x01	; 1
    3a6a:	9c ab       	std	Y+52, r25	; 0x34
    3a6c:	8b ab       	std	Y+51, r24	; 0x33
    3a6e:	8b a9       	ldd	r24, Y+51	; 0x33
    3a70:	9c a9       	ldd	r25, Y+52	; 0x34
    3a72:	00 97       	sbiw	r24, 0x00	; 0
    3a74:	69 f7       	brne	.-38     	; 0x3a50 <forward_walls+0x3f6>
    3a76:	1c c0       	rjmp	.+56     	; 0x3ab0 <forward_walls+0x456>
    3a78:	6f a5       	ldd	r22, Y+47	; 0x2f
    3a7a:	78 a9       	ldd	r23, Y+48	; 0x30
    3a7c:	89 a9       	ldd	r24, Y+49	; 0x31
    3a7e:	9a a9       	ldd	r25, Y+50	; 0x32
    3a80:	0e 94 ec 2b 	call	0x57d8	; 0x57d8 <__fixunssfsi>
    3a84:	dc 01       	movw	r26, r24
    3a86:	cb 01       	movw	r24, r22
    3a88:	9c ab       	std	Y+52, r25	; 0x34
    3a8a:	8b ab       	std	Y+51, r24	; 0x33
    3a8c:	8b a9       	ldd	r24, Y+51	; 0x33
    3a8e:	9c a9       	ldd	r25, Y+52	; 0x34
    3a90:	98 af       	std	Y+56, r25	; 0x38
    3a92:	8f ab       	std	Y+55, r24	; 0x37
    3a94:	8f a9       	ldd	r24, Y+55	; 0x37
    3a96:	98 ad       	ldd	r25, Y+56	; 0x38
    3a98:	01 97       	sbiw	r24, 0x01	; 1
    3a9a:	f1 f7       	brne	.-4      	; 0x3a98 <forward_walls+0x43e>
    3a9c:	98 af       	std	Y+56, r25	; 0x38
    3a9e:	8f ab       	std	Y+55, r24	; 0x37
    3aa0:	07 c0       	rjmp	.+14     	; 0x3ab0 <forward_walls+0x456>
    3aa2:	80 91 73 02 	lds	r24, 0x0273
    3aa6:	80 35       	cpi	r24, 0x50	; 80
    3aa8:	18 f4       	brcc	.+6      	; 0x3ab0 <forward_walls+0x456>
    3aaa:	0e 94 b9 0d 	call	0x1b72	; 0x1b72 <stop>
    3aae:	01 c0       	rjmp	.+2      	; 0x3ab2 <forward_walls+0x458>
    3ab0:	5d ce       	rjmp	.-838    	; 0x376c <forward_walls+0x112>
    3ab2:	61 e0       	ldi	r22, 0x01	; 1
    3ab4:	70 e0       	ldi	r23, 0x00	; 0
    3ab6:	80 e0       	ldi	r24, 0x00	; 0
    3ab8:	90 e0       	ldi	r25, 0x00	; 0
    3aba:	09 d0       	rcall	.+18     	; 0x3ace <forward_wls>
    3abc:	e8 96       	adiw	r28, 0x38	; 56
    3abe:	0f b6       	in	r0, 0x3f	; 63
    3ac0:	f8 94       	cli
    3ac2:	de bf       	out	0x3e, r29	; 62
    3ac4:	0f be       	out	0x3f, r0	; 63
    3ac6:	cd bf       	out	0x3d, r28	; 61
    3ac8:	df 91       	pop	r29
    3aca:	cf 91       	pop	r28
    3acc:	08 95       	ret

00003ace <forward_wls>:
    3ace:	cf 93       	push	r28
    3ad0:	df 93       	push	r29
    3ad2:	cd b7       	in	r28, 0x3d	; 61
    3ad4:	de b7       	in	r29, 0x3e	; 62
    3ad6:	e0 97       	sbiw	r28, 0x30	; 48
    3ad8:	0f b6       	in	r0, 0x3f	; 63
    3ada:	f8 94       	cli
    3adc:	de bf       	out	0x3e, r29	; 62
    3ade:	0f be       	out	0x3f, r0	; 63
    3ae0:	cd bf       	out	0x3d, r28	; 61
    3ae2:	9e a7       	std	Y+46, r25	; 0x2e
    3ae4:	8d a7       	std	Y+45, r24	; 0x2d
    3ae6:	78 ab       	std	Y+48, r23	; 0x30
    3ae8:	6f a7       	std	Y+47, r22	; 0x2f
    3aea:	81 e0       	ldi	r24, 0x01	; 1
    3aec:	90 e0       	ldi	r25, 0x00	; 0
    3aee:	9a 83       	std	Y+2, r25	; 0x02
    3af0:	89 83       	std	Y+1, r24	; 0x01
    3af2:	90 c2       	rjmp	.+1312   	; 0x4014 <forward_wls+0x546>
    3af4:	80 e0       	ldi	r24, 0x00	; 0
    3af6:	90 e0       	ldi	r25, 0x00	; 0
    3af8:	0e 94 8b 10 	call	0x2116	; 0x2116 <LCD_Function>
    3afc:	0e 94 8c 0d 	call	0x1b18	; 0x1b18 <forward>
    3b00:	90 91 00 02 	lds	r25, 0x0200
    3b04:	80 91 00 02 	lds	r24, 0x0200
    3b08:	69 2f       	mov	r22, r25
    3b0a:	0e 94 c2 0d 	call	0x1b84	; 0x1b84 <velocity>
    3b0e:	81 e0       	ldi	r24, 0x01	; 1
    3b10:	0e 94 47 10 	call	0x208e	; 0x208e <ADC_Conversion>
    3b14:	80 93 74 02 	sts	0x0274, r24
    3b18:	82 e0       	ldi	r24, 0x02	; 2
    3b1a:	0e 94 47 10 	call	0x208e	; 0x208e <ADC_Conversion>
    3b1e:	80 93 69 02 	sts	0x0269, r24
    3b22:	83 e0       	ldi	r24, 0x03	; 3
    3b24:	0e 94 47 10 	call	0x208e	; 0x208e <ADC_Conversion>
    3b28:	80 93 6c 02 	sts	0x026C, r24
    3b2c:	8d a5       	ldd	r24, Y+45	; 0x2d
    3b2e:	9e a5       	ldd	r25, Y+46	; 0x2e
    3b30:	82 30       	cpi	r24, 0x02	; 2
    3b32:	91 05       	cpc	r25, r1
    3b34:	09 f0       	breq	.+2      	; 0x3b38 <forward_wls+0x6a>
    3b36:	88 c0       	rjmp	.+272    	; 0x3c48 <forward_wls+0x17a>
    3b38:	80 91 74 02 	lds	r24, 0x0274
    3b3c:	28 2f       	mov	r18, r24
    3b3e:	30 e0       	ldi	r19, 0x00	; 0
    3b40:	80 91 69 02 	lds	r24, 0x0269
    3b44:	88 2f       	mov	r24, r24
    3b46:	90 e0       	ldi	r25, 0x00	; 0
    3b48:	28 0f       	add	r18, r24
    3b4a:	39 1f       	adc	r19, r25
    3b4c:	80 91 6c 02 	lds	r24, 0x026C
    3b50:	88 2f       	mov	r24, r24
    3b52:	90 e0       	ldi	r25, 0x00	; 0
    3b54:	82 0f       	add	r24, r18
    3b56:	93 1f       	adc	r25, r19
    3b58:	89 31       	cpi	r24, 0x19	; 25
    3b5a:	21 e0       	ldi	r18, 0x01	; 1
    3b5c:	92 07       	cpc	r25, r18
    3b5e:	0c f4       	brge	.+2      	; 0x3b62 <forward_wls+0x94>
    3b60:	73 c0       	rjmp	.+230    	; 0x3c48 <forward_wls+0x17a>
    3b62:	80 e0       	ldi	r24, 0x00	; 0
    3b64:	90 e0       	ldi	r25, 0x00	; 0
    3b66:	a0 ea       	ldi	r26, 0xA0	; 160
    3b68:	b2 e4       	ldi	r27, 0x42	; 66
    3b6a:	8b 83       	std	Y+3, r24	; 0x03
    3b6c:	9c 83       	std	Y+4, r25	; 0x04
    3b6e:	ad 83       	std	Y+5, r26	; 0x05
    3b70:	be 83       	std	Y+6, r27	; 0x06
    3b72:	26 e6       	ldi	r18, 0x66	; 102
    3b74:	36 e6       	ldi	r19, 0x66	; 102
    3b76:	46 e6       	ldi	r20, 0x66	; 102
    3b78:	55 e4       	ldi	r21, 0x45	; 69
    3b7a:	6b 81       	ldd	r22, Y+3	; 0x03
    3b7c:	7c 81       	ldd	r23, Y+4	; 0x04
    3b7e:	8d 81       	ldd	r24, Y+5	; 0x05
    3b80:	9e 81       	ldd	r25, Y+6	; 0x06
    3b82:	0e 94 ce 2c 	call	0x599c	; 0x599c <__mulsf3>
    3b86:	dc 01       	movw	r26, r24
    3b88:	cb 01       	movw	r24, r22
    3b8a:	8f 83       	std	Y+7, r24	; 0x07
    3b8c:	98 87       	std	Y+8, r25	; 0x08
    3b8e:	a9 87       	std	Y+9, r26	; 0x09
    3b90:	ba 87       	std	Y+10, r27	; 0x0a
    3b92:	20 e0       	ldi	r18, 0x00	; 0
    3b94:	30 e0       	ldi	r19, 0x00	; 0
    3b96:	40 e8       	ldi	r20, 0x80	; 128
    3b98:	5f e3       	ldi	r21, 0x3F	; 63
    3b9a:	6f 81       	ldd	r22, Y+7	; 0x07
    3b9c:	78 85       	ldd	r23, Y+8	; 0x08
    3b9e:	89 85       	ldd	r24, Y+9	; 0x09
    3ba0:	9a 85       	ldd	r25, Y+10	; 0x0a
    3ba2:	0e 94 80 2b 	call	0x5700	; 0x5700 <__cmpsf2>
    3ba6:	88 23       	and	r24, r24
    3ba8:	2c f4       	brge	.+10     	; 0x3bb4 <forward_wls+0xe6>
    3baa:	81 e0       	ldi	r24, 0x01	; 1
    3bac:	90 e0       	ldi	r25, 0x00	; 0
    3bae:	9c 87       	std	Y+12, r25	; 0x0c
    3bb0:	8b 87       	std	Y+11, r24	; 0x0b
    3bb2:	3f c0       	rjmp	.+126    	; 0x3c32 <forward_wls+0x164>
    3bb4:	20 e0       	ldi	r18, 0x00	; 0
    3bb6:	3f ef       	ldi	r19, 0xFF	; 255
    3bb8:	4f e7       	ldi	r20, 0x7F	; 127
    3bba:	57 e4       	ldi	r21, 0x47	; 71
    3bbc:	6f 81       	ldd	r22, Y+7	; 0x07
    3bbe:	78 85       	ldd	r23, Y+8	; 0x08
    3bc0:	89 85       	ldd	r24, Y+9	; 0x09
    3bc2:	9a 85       	ldd	r25, Y+10	; 0x0a
    3bc4:	0e 94 ca 2c 	call	0x5994	; 0x5994 <__gesf2>
    3bc8:	18 16       	cp	r1, r24
    3bca:	4c f5       	brge	.+82     	; 0x3c1e <forward_wls+0x150>
    3bcc:	20 e0       	ldi	r18, 0x00	; 0
    3bce:	30 e0       	ldi	r19, 0x00	; 0
    3bd0:	40 e2       	ldi	r20, 0x20	; 32
    3bd2:	51 e4       	ldi	r21, 0x41	; 65
    3bd4:	6b 81       	ldd	r22, Y+3	; 0x03
    3bd6:	7c 81       	ldd	r23, Y+4	; 0x04
    3bd8:	8d 81       	ldd	r24, Y+5	; 0x05
    3bda:	9e 81       	ldd	r25, Y+6	; 0x06
    3bdc:	0e 94 ce 2c 	call	0x599c	; 0x599c <__mulsf3>
    3be0:	dc 01       	movw	r26, r24
    3be2:	cb 01       	movw	r24, r22
    3be4:	bc 01       	movw	r22, r24
    3be6:	cd 01       	movw	r24, r26
    3be8:	0e 94 ec 2b 	call	0x57d8	; 0x57d8 <__fixunssfsi>
    3bec:	dc 01       	movw	r26, r24
    3bee:	cb 01       	movw	r24, r22
    3bf0:	9c 87       	std	Y+12, r25	; 0x0c
    3bf2:	8b 87       	std	Y+11, r24	; 0x0b
    3bf4:	0f c0       	rjmp	.+30     	; 0x3c14 <forward_wls+0x146>
    3bf6:	80 e7       	ldi	r24, 0x70	; 112
    3bf8:	91 e0       	ldi	r25, 0x01	; 1
    3bfa:	9e 87       	std	Y+14, r25	; 0x0e
    3bfc:	8d 87       	std	Y+13, r24	; 0x0d
    3bfe:	8d 85       	ldd	r24, Y+13	; 0x0d
    3c00:	9e 85       	ldd	r25, Y+14	; 0x0e
    3c02:	01 97       	sbiw	r24, 0x01	; 1
    3c04:	f1 f7       	brne	.-4      	; 0x3c02 <forward_wls+0x134>
    3c06:	9e 87       	std	Y+14, r25	; 0x0e
    3c08:	8d 87       	std	Y+13, r24	; 0x0d
    3c0a:	8b 85       	ldd	r24, Y+11	; 0x0b
    3c0c:	9c 85       	ldd	r25, Y+12	; 0x0c
    3c0e:	01 97       	sbiw	r24, 0x01	; 1
    3c10:	9c 87       	std	Y+12, r25	; 0x0c
    3c12:	8b 87       	std	Y+11, r24	; 0x0b
    3c14:	8b 85       	ldd	r24, Y+11	; 0x0b
    3c16:	9c 85       	ldd	r25, Y+12	; 0x0c
    3c18:	00 97       	sbiw	r24, 0x00	; 0
    3c1a:	69 f7       	brne	.-38     	; 0x3bf6 <forward_wls+0x128>
    3c1c:	ea c1       	rjmp	.+980    	; 0x3ff2 <forward_wls+0x524>
    3c1e:	6f 81       	ldd	r22, Y+7	; 0x07
    3c20:	78 85       	ldd	r23, Y+8	; 0x08
    3c22:	89 85       	ldd	r24, Y+9	; 0x09
    3c24:	9a 85       	ldd	r25, Y+10	; 0x0a
    3c26:	0e 94 ec 2b 	call	0x57d8	; 0x57d8 <__fixunssfsi>
    3c2a:	dc 01       	movw	r26, r24
    3c2c:	cb 01       	movw	r24, r22
    3c2e:	9c 87       	std	Y+12, r25	; 0x0c
    3c30:	8b 87       	std	Y+11, r24	; 0x0b
    3c32:	8b 85       	ldd	r24, Y+11	; 0x0b
    3c34:	9c 85       	ldd	r25, Y+12	; 0x0c
    3c36:	98 8b       	std	Y+16, r25	; 0x10
    3c38:	8f 87       	std	Y+15, r24	; 0x0f
    3c3a:	8f 85       	ldd	r24, Y+15	; 0x0f
    3c3c:	98 89       	ldd	r25, Y+16	; 0x10
    3c3e:	01 97       	sbiw	r24, 0x01	; 1
    3c40:	f1 f7       	brne	.-4      	; 0x3c3e <forward_wls+0x170>
    3c42:	98 8b       	std	Y+16, r25	; 0x10
    3c44:	8f 87       	std	Y+15, r24	; 0x0f
    3c46:	d5 c1       	rjmp	.+938    	; 0x3ff2 <forward_wls+0x524>
    3c48:	8d a5       	ldd	r24, Y+45	; 0x2d
    3c4a:	9e a5       	ldd	r25, Y+46	; 0x2e
    3c4c:	83 30       	cpi	r24, 0x03	; 3
    3c4e:	91 05       	cpc	r25, r1
    3c50:	09 f0       	breq	.+2      	; 0x3c54 <forward_wls+0x186>
    3c52:	7f c0       	rjmp	.+254    	; 0x3d52 <forward_wls+0x284>
    3c54:	80 91 74 02 	lds	r24, 0x0274
    3c58:	89 37       	cpi	r24, 0x79	; 121
    3c5a:	08 f4       	brcc	.+2      	; 0x3c5e <forward_wls+0x190>
    3c5c:	c9 c1       	rjmp	.+914    	; 0x3ff0 <forward_wls+0x522>
    3c5e:	80 91 6c 02 	lds	r24, 0x026C
    3c62:	89 37       	cpi	r24, 0x79	; 121
    3c64:	08 f4       	brcc	.+2      	; 0x3c68 <forward_wls+0x19a>
    3c66:	c4 c1       	rjmp	.+904    	; 0x3ff0 <forward_wls+0x522>
    3c68:	0e 94 b9 0d 	call	0x1b72	; 0x1b72 <stop>
    3c6c:	80 e0       	ldi	r24, 0x00	; 0
    3c6e:	90 e0       	ldi	r25, 0x00	; 0
    3c70:	a8 ec       	ldi	r26, 0xC8	; 200
    3c72:	b2 e4       	ldi	r27, 0x42	; 66
    3c74:	89 8b       	std	Y+17, r24	; 0x11
    3c76:	9a 8b       	std	Y+18, r25	; 0x12
    3c78:	ab 8b       	std	Y+19, r26	; 0x13
    3c7a:	bc 8b       	std	Y+20, r27	; 0x14
    3c7c:	26 e6       	ldi	r18, 0x66	; 102
    3c7e:	36 e6       	ldi	r19, 0x66	; 102
    3c80:	46 e6       	ldi	r20, 0x66	; 102
    3c82:	55 e4       	ldi	r21, 0x45	; 69
    3c84:	69 89       	ldd	r22, Y+17	; 0x11
    3c86:	7a 89       	ldd	r23, Y+18	; 0x12
    3c88:	8b 89       	ldd	r24, Y+19	; 0x13
    3c8a:	9c 89       	ldd	r25, Y+20	; 0x14
    3c8c:	0e 94 ce 2c 	call	0x599c	; 0x599c <__mulsf3>
    3c90:	dc 01       	movw	r26, r24
    3c92:	cb 01       	movw	r24, r22
    3c94:	8d 8b       	std	Y+21, r24	; 0x15
    3c96:	9e 8b       	std	Y+22, r25	; 0x16
    3c98:	af 8b       	std	Y+23, r26	; 0x17
    3c9a:	b8 8f       	std	Y+24, r27	; 0x18
    3c9c:	20 e0       	ldi	r18, 0x00	; 0
    3c9e:	30 e0       	ldi	r19, 0x00	; 0
    3ca0:	40 e8       	ldi	r20, 0x80	; 128
    3ca2:	5f e3       	ldi	r21, 0x3F	; 63
    3ca4:	6d 89       	ldd	r22, Y+21	; 0x15
    3ca6:	7e 89       	ldd	r23, Y+22	; 0x16
    3ca8:	8f 89       	ldd	r24, Y+23	; 0x17
    3caa:	98 8d       	ldd	r25, Y+24	; 0x18
    3cac:	0e 94 80 2b 	call	0x5700	; 0x5700 <__cmpsf2>
    3cb0:	88 23       	and	r24, r24
    3cb2:	2c f4       	brge	.+10     	; 0x3cbe <forward_wls+0x1f0>
    3cb4:	81 e0       	ldi	r24, 0x01	; 1
    3cb6:	90 e0       	ldi	r25, 0x00	; 0
    3cb8:	9a 8f       	std	Y+26, r25	; 0x1a
    3cba:	89 8f       	std	Y+25, r24	; 0x19
    3cbc:	3f c0       	rjmp	.+126    	; 0x3d3c <forward_wls+0x26e>
    3cbe:	20 e0       	ldi	r18, 0x00	; 0
    3cc0:	3f ef       	ldi	r19, 0xFF	; 255
    3cc2:	4f e7       	ldi	r20, 0x7F	; 127
    3cc4:	57 e4       	ldi	r21, 0x47	; 71
    3cc6:	6d 89       	ldd	r22, Y+21	; 0x15
    3cc8:	7e 89       	ldd	r23, Y+22	; 0x16
    3cca:	8f 89       	ldd	r24, Y+23	; 0x17
    3ccc:	98 8d       	ldd	r25, Y+24	; 0x18
    3cce:	0e 94 ca 2c 	call	0x5994	; 0x5994 <__gesf2>
    3cd2:	18 16       	cp	r1, r24
    3cd4:	4c f5       	brge	.+82     	; 0x3d28 <forward_wls+0x25a>
    3cd6:	20 e0       	ldi	r18, 0x00	; 0
    3cd8:	30 e0       	ldi	r19, 0x00	; 0
    3cda:	40 e2       	ldi	r20, 0x20	; 32
    3cdc:	51 e4       	ldi	r21, 0x41	; 65
    3cde:	69 89       	ldd	r22, Y+17	; 0x11
    3ce0:	7a 89       	ldd	r23, Y+18	; 0x12
    3ce2:	8b 89       	ldd	r24, Y+19	; 0x13
    3ce4:	9c 89       	ldd	r25, Y+20	; 0x14
    3ce6:	0e 94 ce 2c 	call	0x599c	; 0x599c <__mulsf3>
    3cea:	dc 01       	movw	r26, r24
    3cec:	cb 01       	movw	r24, r22
    3cee:	bc 01       	movw	r22, r24
    3cf0:	cd 01       	movw	r24, r26
    3cf2:	0e 94 ec 2b 	call	0x57d8	; 0x57d8 <__fixunssfsi>
    3cf6:	dc 01       	movw	r26, r24
    3cf8:	cb 01       	movw	r24, r22
    3cfa:	9a 8f       	std	Y+26, r25	; 0x1a
    3cfc:	89 8f       	std	Y+25, r24	; 0x19
    3cfe:	0f c0       	rjmp	.+30     	; 0x3d1e <forward_wls+0x250>
    3d00:	80 e7       	ldi	r24, 0x70	; 112
    3d02:	91 e0       	ldi	r25, 0x01	; 1
    3d04:	9c 8f       	std	Y+28, r25	; 0x1c
    3d06:	8b 8f       	std	Y+27, r24	; 0x1b
    3d08:	8b 8d       	ldd	r24, Y+27	; 0x1b
    3d0a:	9c 8d       	ldd	r25, Y+28	; 0x1c
    3d0c:	01 97       	sbiw	r24, 0x01	; 1
    3d0e:	f1 f7       	brne	.-4      	; 0x3d0c <forward_wls+0x23e>
    3d10:	9c 8f       	std	Y+28, r25	; 0x1c
    3d12:	8b 8f       	std	Y+27, r24	; 0x1b
    3d14:	89 8d       	ldd	r24, Y+25	; 0x19
    3d16:	9a 8d       	ldd	r25, Y+26	; 0x1a
    3d18:	01 97       	sbiw	r24, 0x01	; 1
    3d1a:	9a 8f       	std	Y+26, r25	; 0x1a
    3d1c:	89 8f       	std	Y+25, r24	; 0x19
    3d1e:	89 8d       	ldd	r24, Y+25	; 0x19
    3d20:	9a 8d       	ldd	r25, Y+26	; 0x1a
    3d22:	00 97       	sbiw	r24, 0x00	; 0
    3d24:	69 f7       	brne	.-38     	; 0x3d00 <forward_wls+0x232>
    3d26:	65 c1       	rjmp	.+714    	; 0x3ff2 <forward_wls+0x524>
    3d28:	6d 89       	ldd	r22, Y+21	; 0x15
    3d2a:	7e 89       	ldd	r23, Y+22	; 0x16
    3d2c:	8f 89       	ldd	r24, Y+23	; 0x17
    3d2e:	98 8d       	ldd	r25, Y+24	; 0x18
    3d30:	0e 94 ec 2b 	call	0x57d8	; 0x57d8 <__fixunssfsi>
    3d34:	dc 01       	movw	r26, r24
    3d36:	cb 01       	movw	r24, r22
    3d38:	9a 8f       	std	Y+26, r25	; 0x1a
    3d3a:	89 8f       	std	Y+25, r24	; 0x19
    3d3c:	89 8d       	ldd	r24, Y+25	; 0x19
    3d3e:	9a 8d       	ldd	r25, Y+26	; 0x1a
    3d40:	9e 8f       	std	Y+30, r25	; 0x1e
    3d42:	8d 8f       	std	Y+29, r24	; 0x1d
    3d44:	8d 8d       	ldd	r24, Y+29	; 0x1d
    3d46:	9e 8d       	ldd	r25, Y+30	; 0x1e
    3d48:	01 97       	sbiw	r24, 0x01	; 1
    3d4a:	f1 f7       	brne	.-4      	; 0x3d48 <forward_wls+0x27a>
    3d4c:	9e 8f       	std	Y+30, r25	; 0x1e
    3d4e:	8d 8f       	std	Y+29, r24	; 0x1d
    3d50:	50 c1       	rjmp	.+672    	; 0x3ff2 <forward_wls+0x524>
    3d52:	8d a5       	ldd	r24, Y+45	; 0x2d
    3d54:	9e a5       	ldd	r25, Y+46	; 0x2e
    3d56:	81 30       	cpi	r24, 0x01	; 1
    3d58:	91 05       	cpc	r25, r1
    3d5a:	09 f0       	breq	.+2      	; 0x3d5e <forward_wls+0x290>
    3d5c:	89 c0       	rjmp	.+274    	; 0x3e70 <forward_wls+0x3a2>
    3d5e:	8b e0       	ldi	r24, 0x0B	; 11
    3d60:	0e 94 47 10 	call	0x208e	; 0x208e <ADC_Conversion>
    3d64:	80 93 73 02 	sts	0x0273, r24
    3d68:	80 91 73 02 	lds	r24, 0x0273
    3d6c:	8c 34       	cpi	r24, 0x4C	; 76
    3d6e:	08 f4       	brcc	.+2      	; 0x3d72 <forward_wls+0x2a4>
    3d70:	3f c1       	rjmp	.+638    	; 0x3ff0 <forward_wls+0x522>
    3d72:	80 91 74 02 	lds	r24, 0x0274
    3d76:	80 35       	cpi	r24, 0x50	; 80
    3d78:	08 f0       	brcs	.+2      	; 0x3d7c <forward_wls+0x2ae>
    3d7a:	3a c1       	rjmp	.+628    	; 0x3ff0 <forward_wls+0x522>
    3d7c:	80 91 6c 02 	lds	r24, 0x026C
    3d80:	80 35       	cpi	r24, 0x50	; 80
    3d82:	08 f0       	brcs	.+2      	; 0x3d86 <forward_wls+0x2b8>
    3d84:	35 c1       	rjmp	.+618    	; 0x3ff0 <forward_wls+0x522>
    3d86:	0e 94 b9 0d 	call	0x1b72	; 0x1b72 <stop>
    3d8a:	80 e0       	ldi	r24, 0x00	; 0
    3d8c:	90 e0       	ldi	r25, 0x00	; 0
    3d8e:	a8 ec       	ldi	r26, 0xC8	; 200
    3d90:	b2 e4       	ldi	r27, 0x42	; 66
    3d92:	8f 8f       	std	Y+31, r24	; 0x1f
    3d94:	98 a3       	std	Y+32, r25	; 0x20
    3d96:	a9 a3       	std	Y+33, r26	; 0x21
    3d98:	ba a3       	std	Y+34, r27	; 0x22
    3d9a:	26 e6       	ldi	r18, 0x66	; 102
    3d9c:	36 e6       	ldi	r19, 0x66	; 102
    3d9e:	46 e6       	ldi	r20, 0x66	; 102
    3da0:	55 e4       	ldi	r21, 0x45	; 69
    3da2:	6f 8d       	ldd	r22, Y+31	; 0x1f
    3da4:	78 a1       	ldd	r23, Y+32	; 0x20
    3da6:	89 a1       	ldd	r24, Y+33	; 0x21
    3da8:	9a a1       	ldd	r25, Y+34	; 0x22
    3daa:	0e 94 ce 2c 	call	0x599c	; 0x599c <__mulsf3>
    3dae:	dc 01       	movw	r26, r24
    3db0:	cb 01       	movw	r24, r22
    3db2:	8b a3       	std	Y+35, r24	; 0x23
    3db4:	9c a3       	std	Y+36, r25	; 0x24
    3db6:	ad a3       	std	Y+37, r26	; 0x25
    3db8:	be a3       	std	Y+38, r27	; 0x26
    3dba:	20 e0       	ldi	r18, 0x00	; 0
    3dbc:	30 e0       	ldi	r19, 0x00	; 0
    3dbe:	40 e8       	ldi	r20, 0x80	; 128
    3dc0:	5f e3       	ldi	r21, 0x3F	; 63
    3dc2:	6b a1       	ldd	r22, Y+35	; 0x23
    3dc4:	7c a1       	ldd	r23, Y+36	; 0x24
    3dc6:	8d a1       	ldd	r24, Y+37	; 0x25
    3dc8:	9e a1       	ldd	r25, Y+38	; 0x26
    3dca:	0e 94 80 2b 	call	0x5700	; 0x5700 <__cmpsf2>
    3dce:	88 23       	and	r24, r24
    3dd0:	2c f4       	brge	.+10     	; 0x3ddc <forward_wls+0x30e>
    3dd2:	81 e0       	ldi	r24, 0x01	; 1
    3dd4:	90 e0       	ldi	r25, 0x00	; 0
    3dd6:	98 a7       	std	Y+40, r25	; 0x28
    3dd8:	8f a3       	std	Y+39, r24	; 0x27
    3dda:	3f c0       	rjmp	.+126    	; 0x3e5a <forward_wls+0x38c>
    3ddc:	20 e0       	ldi	r18, 0x00	; 0
    3dde:	3f ef       	ldi	r19, 0xFF	; 255
    3de0:	4f e7       	ldi	r20, 0x7F	; 127
    3de2:	57 e4       	ldi	r21, 0x47	; 71
    3de4:	6b a1       	ldd	r22, Y+35	; 0x23
    3de6:	7c a1       	ldd	r23, Y+36	; 0x24
    3de8:	8d a1       	ldd	r24, Y+37	; 0x25
    3dea:	9e a1       	ldd	r25, Y+38	; 0x26
    3dec:	0e 94 ca 2c 	call	0x5994	; 0x5994 <__gesf2>
    3df0:	18 16       	cp	r1, r24
    3df2:	4c f5       	brge	.+82     	; 0x3e46 <forward_wls+0x378>
    3df4:	20 e0       	ldi	r18, 0x00	; 0
    3df6:	30 e0       	ldi	r19, 0x00	; 0
    3df8:	40 e2       	ldi	r20, 0x20	; 32
    3dfa:	51 e4       	ldi	r21, 0x41	; 65
    3dfc:	6f 8d       	ldd	r22, Y+31	; 0x1f
    3dfe:	78 a1       	ldd	r23, Y+32	; 0x20
    3e00:	89 a1       	ldd	r24, Y+33	; 0x21
    3e02:	9a a1       	ldd	r25, Y+34	; 0x22
    3e04:	0e 94 ce 2c 	call	0x599c	; 0x599c <__mulsf3>
    3e08:	dc 01       	movw	r26, r24
    3e0a:	cb 01       	movw	r24, r22
    3e0c:	bc 01       	movw	r22, r24
    3e0e:	cd 01       	movw	r24, r26
    3e10:	0e 94 ec 2b 	call	0x57d8	; 0x57d8 <__fixunssfsi>
    3e14:	dc 01       	movw	r26, r24
    3e16:	cb 01       	movw	r24, r22
    3e18:	98 a7       	std	Y+40, r25	; 0x28
    3e1a:	8f a3       	std	Y+39, r24	; 0x27
    3e1c:	0f c0       	rjmp	.+30     	; 0x3e3c <forward_wls+0x36e>
    3e1e:	80 e7       	ldi	r24, 0x70	; 112
    3e20:	91 e0       	ldi	r25, 0x01	; 1
    3e22:	9a a7       	std	Y+42, r25	; 0x2a
    3e24:	89 a7       	std	Y+41, r24	; 0x29
    3e26:	89 a5       	ldd	r24, Y+41	; 0x29
    3e28:	9a a5       	ldd	r25, Y+42	; 0x2a
    3e2a:	01 97       	sbiw	r24, 0x01	; 1
    3e2c:	f1 f7       	brne	.-4      	; 0x3e2a <forward_wls+0x35c>
    3e2e:	9a a7       	std	Y+42, r25	; 0x2a
    3e30:	89 a7       	std	Y+41, r24	; 0x29
    3e32:	8f a1       	ldd	r24, Y+39	; 0x27
    3e34:	98 a5       	ldd	r25, Y+40	; 0x28
    3e36:	01 97       	sbiw	r24, 0x01	; 1
    3e38:	98 a7       	std	Y+40, r25	; 0x28
    3e3a:	8f a3       	std	Y+39, r24	; 0x27
    3e3c:	8f a1       	ldd	r24, Y+39	; 0x27
    3e3e:	98 a5       	ldd	r25, Y+40	; 0x28
    3e40:	00 97       	sbiw	r24, 0x00	; 0
    3e42:	69 f7       	brne	.-38     	; 0x3e1e <forward_wls+0x350>
    3e44:	d6 c0       	rjmp	.+428    	; 0x3ff2 <forward_wls+0x524>
    3e46:	6b a1       	ldd	r22, Y+35	; 0x23
    3e48:	7c a1       	ldd	r23, Y+36	; 0x24
    3e4a:	8d a1       	ldd	r24, Y+37	; 0x25
    3e4c:	9e a1       	ldd	r25, Y+38	; 0x26
    3e4e:	0e 94 ec 2b 	call	0x57d8	; 0x57d8 <__fixunssfsi>
    3e52:	dc 01       	movw	r26, r24
    3e54:	cb 01       	movw	r24, r22
    3e56:	98 a7       	std	Y+40, r25	; 0x28
    3e58:	8f a3       	std	Y+39, r24	; 0x27
    3e5a:	8f a1       	ldd	r24, Y+39	; 0x27
    3e5c:	98 a5       	ldd	r25, Y+40	; 0x28
    3e5e:	9c a7       	std	Y+44, r25	; 0x2c
    3e60:	8b a7       	std	Y+43, r24	; 0x2b
    3e62:	8b a5       	ldd	r24, Y+43	; 0x2b
    3e64:	9c a5       	ldd	r25, Y+44	; 0x2c
    3e66:	01 97       	sbiw	r24, 0x01	; 1
    3e68:	f1 f7       	brne	.-4      	; 0x3e66 <forward_wls+0x398>
    3e6a:	9c a7       	std	Y+44, r25	; 0x2c
    3e6c:	8b a7       	std	Y+43, r24	; 0x2b
    3e6e:	c1 c0       	rjmp	.+386    	; 0x3ff2 <forward_wls+0x524>
    3e70:	8d a5       	ldd	r24, Y+45	; 0x2d
    3e72:	9e a5       	ldd	r25, Y+46	; 0x2e
    3e74:	00 97       	sbiw	r24, 0x00	; 0
    3e76:	a9 f4       	brne	.+42     	; 0x3ea2 <forward_wls+0x3d4>
    3e78:	80 91 74 02 	lds	r24, 0x0274
    3e7c:	28 2f       	mov	r18, r24
    3e7e:	30 e0       	ldi	r19, 0x00	; 0
    3e80:	80 91 69 02 	lds	r24, 0x0269
    3e84:	88 2f       	mov	r24, r24
    3e86:	90 e0       	ldi	r25, 0x00	; 0
    3e88:	28 0f       	add	r18, r24
    3e8a:	39 1f       	adc	r19, r25
    3e8c:	80 91 6c 02 	lds	r24, 0x026C
    3e90:	88 2f       	mov	r24, r24
    3e92:	90 e0       	ldi	r25, 0x00	; 0
    3e94:	82 0f       	add	r24, r18
    3e96:	93 1f       	adc	r25, r19
    3e98:	81 39       	cpi	r24, 0x91	; 145
    3e9a:	e1 e0       	ldi	r30, 0x01	; 1
    3e9c:	9e 07       	cpc	r25, r30
    3e9e:	0c f0       	brlt	.+2      	; 0x3ea2 <forward_wls+0x3d4>
    3ea0:	a8 c0       	rjmp	.+336    	; 0x3ff2 <forward_wls+0x524>
    3ea2:	80 91 74 02 	lds	r24, 0x0274
    3ea6:	8c 33       	cpi	r24, 0x3C	; 60
    3ea8:	a8 f4       	brcc	.+42     	; 0x3ed4 <forward_wls+0x406>
    3eaa:	80 91 69 02 	lds	r24, 0x0269
    3eae:	8d 37       	cpi	r24, 0x7D	; 125
    3eb0:	88 f0       	brcs	.+34     	; 0x3ed4 <forward_wls+0x406>
    3eb2:	80 91 6c 02 	lds	r24, 0x026C
    3eb6:	8c 33       	cpi	r24, 0x3C	; 60
    3eb8:	68 f4       	brcc	.+26     	; 0x3ed4 <forward_wls+0x406>
    3eba:	88 e2       	ldi	r24, 0x28	; 40
    3ebc:	91 e0       	ldi	r25, 0x01	; 1
    3ebe:	20 91 00 02 	lds	r18, 0x0200
    3ec2:	fc 01       	movw	r30, r24
    3ec4:	20 83       	st	Z, r18
    3ec6:	8a e2       	ldi	r24, 0x2A	; 42
    3ec8:	91 e0       	ldi	r25, 0x01	; 1
    3eca:	20 91 00 02 	lds	r18, 0x0200
    3ece:	fc 01       	movw	r30, r24
    3ed0:	20 83       	st	Z, r18
    3ed2:	8e c0       	rjmp	.+284    	; 0x3ff0 <forward_wls+0x522>
    3ed4:	80 91 74 02 	lds	r24, 0x0274
    3ed8:	88 32       	cpi	r24, 0x28	; 40
    3eda:	a8 f4       	brcc	.+42     	; 0x3f06 <forward_wls+0x438>
    3edc:	80 91 69 02 	lds	r24, 0x0269
    3ee0:	8c 33       	cpi	r24, 0x3C	; 60
    3ee2:	88 f4       	brcc	.+34     	; 0x3f06 <forward_wls+0x438>
    3ee4:	80 91 6c 02 	lds	r24, 0x026C
    3ee8:	8d 38       	cpi	r24, 0x8D	; 141
    3eea:	68 f0       	brcs	.+26     	; 0x3f06 <forward_wls+0x438>
    3eec:	88 e2       	ldi	r24, 0x28	; 40
    3eee:	91 e0       	ldi	r25, 0x01	; 1
    3ef0:	20 91 00 02 	lds	r18, 0x0200
    3ef4:	fc 01       	movw	r30, r24
    3ef6:	20 83       	st	Z, r18
    3ef8:	8a e2       	ldi	r24, 0x2A	; 42
    3efa:	91 e0       	ldi	r25, 0x01	; 1
    3efc:	20 91 01 02 	lds	r18, 0x0201
    3f00:	fc 01       	movw	r30, r24
    3f02:	20 83       	st	Z, r18
    3f04:	75 c0       	rjmp	.+234    	; 0x3ff0 <forward_wls+0x522>
    3f06:	80 91 6c 02 	lds	r24, 0x026C
    3f0a:	88 32       	cpi	r24, 0x28	; 40
    3f0c:	a8 f4       	brcc	.+42     	; 0x3f38 <forward_wls+0x46a>
    3f0e:	80 91 69 02 	lds	r24, 0x0269
    3f12:	8c 33       	cpi	r24, 0x3C	; 60
    3f14:	88 f4       	brcc	.+34     	; 0x3f38 <forward_wls+0x46a>
    3f16:	80 91 74 02 	lds	r24, 0x0274
    3f1a:	8d 38       	cpi	r24, 0x8D	; 141
    3f1c:	68 f0       	brcs	.+26     	; 0x3f38 <forward_wls+0x46a>
    3f1e:	88 e2       	ldi	r24, 0x28	; 40
    3f20:	91 e0       	ldi	r25, 0x01	; 1
    3f22:	20 91 01 02 	lds	r18, 0x0201
    3f26:	fc 01       	movw	r30, r24
    3f28:	20 83       	st	Z, r18
    3f2a:	8a e2       	ldi	r24, 0x2A	; 42
    3f2c:	91 e0       	ldi	r25, 0x01	; 1
    3f2e:	20 91 00 02 	lds	r18, 0x0200
    3f32:	fc 01       	movw	r30, r24
    3f34:	20 83       	st	Z, r18
    3f36:	5c c0       	rjmp	.+184    	; 0x3ff0 <forward_wls+0x522>
    3f38:	80 91 74 02 	lds	r24, 0x0274
    3f3c:	28 2f       	mov	r18, r24
    3f3e:	30 e0       	ldi	r19, 0x00	; 0
    3f40:	80 91 69 02 	lds	r24, 0x0269
    3f44:	88 2f       	mov	r24, r24
    3f46:	90 e0       	ldi	r25, 0x00	; 0
    3f48:	28 0f       	add	r18, r24
    3f4a:	39 1f       	adc	r19, r25
    3f4c:	80 91 6c 02 	lds	r24, 0x026C
    3f50:	88 2f       	mov	r24, r24
    3f52:	90 e0       	ldi	r25, 0x00	; 0
    3f54:	82 0f       	add	r24, r18
    3f56:	93 1f       	adc	r25, r19
    3f58:	88 3c       	cpi	r24, 0xC8	; 200
    3f5a:	91 05       	cpc	r25, r1
    3f5c:	dc f4       	brge	.+54     	; 0x3f94 <forward_wls+0x4c6>
    3f5e:	80 91 69 02 	lds	r24, 0x0269
    3f62:	83 33       	cpi	r24, 0x33	; 51
    3f64:	b8 f0       	brcs	.+46     	; 0x3f94 <forward_wls+0x4c6>
    3f66:	80 91 69 02 	lds	r24, 0x0269
    3f6a:	84 36       	cpi	r24, 0x64	; 100
    3f6c:	98 f4       	brcc	.+38     	; 0x3f94 <forward_wls+0x4c6>
    3f6e:	90 91 74 02 	lds	r25, 0x0274
    3f72:	80 91 6c 02 	lds	r24, 0x026C
    3f76:	89 17       	cp	r24, r25
    3f78:	68 f4       	brcc	.+26     	; 0x3f94 <forward_wls+0x4c6>
    3f7a:	88 e2       	ldi	r24, 0x28	; 40
    3f7c:	91 e0       	ldi	r25, 0x01	; 1
    3f7e:	20 91 02 02 	lds	r18, 0x0202
    3f82:	fc 01       	movw	r30, r24
    3f84:	20 83       	st	Z, r18
    3f86:	8a e2       	ldi	r24, 0x2A	; 42
    3f88:	91 e0       	ldi	r25, 0x01	; 1
    3f8a:	20 91 00 02 	lds	r18, 0x0200
    3f8e:	fc 01       	movw	r30, r24
    3f90:	20 83       	st	Z, r18
    3f92:	2e c0       	rjmp	.+92     	; 0x3ff0 <forward_wls+0x522>
    3f94:	80 91 74 02 	lds	r24, 0x0274
    3f98:	28 2f       	mov	r18, r24
    3f9a:	30 e0       	ldi	r19, 0x00	; 0
    3f9c:	80 91 69 02 	lds	r24, 0x0269
    3fa0:	88 2f       	mov	r24, r24
    3fa2:	90 e0       	ldi	r25, 0x00	; 0
    3fa4:	28 0f       	add	r18, r24
    3fa6:	39 1f       	adc	r19, r25
    3fa8:	80 91 6c 02 	lds	r24, 0x026C
    3fac:	88 2f       	mov	r24, r24
    3fae:	90 e0       	ldi	r25, 0x00	; 0
    3fb0:	82 0f       	add	r24, r18
    3fb2:	93 1f       	adc	r25, r19
    3fb4:	88 3c       	cpi	r24, 0xC8	; 200
    3fb6:	91 05       	cpc	r25, r1
    3fb8:	dc f4       	brge	.+54     	; 0x3ff0 <forward_wls+0x522>
    3fba:	80 91 69 02 	lds	r24, 0x0269
    3fbe:	83 33       	cpi	r24, 0x33	; 51
    3fc0:	b8 f0       	brcs	.+46     	; 0x3ff0 <forward_wls+0x522>
    3fc2:	80 91 69 02 	lds	r24, 0x0269
    3fc6:	84 36       	cpi	r24, 0x64	; 100
    3fc8:	98 f4       	brcc	.+38     	; 0x3ff0 <forward_wls+0x522>
    3fca:	90 91 74 02 	lds	r25, 0x0274
    3fce:	80 91 6c 02 	lds	r24, 0x026C
    3fd2:	98 17       	cp	r25, r24
    3fd4:	68 f4       	brcc	.+26     	; 0x3ff0 <forward_wls+0x522>
    3fd6:	88 e2       	ldi	r24, 0x28	; 40
    3fd8:	91 e0       	ldi	r25, 0x01	; 1
    3fda:	20 91 00 02 	lds	r18, 0x0200
    3fde:	fc 01       	movw	r30, r24
    3fe0:	20 83       	st	Z, r18
    3fe2:	8a e2       	ldi	r24, 0x2A	; 42
    3fe4:	91 e0       	ldi	r25, 0x01	; 1
    3fe6:	20 91 02 02 	lds	r18, 0x0202
    3fea:	fc 01       	movw	r30, r24
    3fec:	20 83       	st	Z, r18
    3fee:	8f cd       	rjmp	.-1250   	; 0x3b0e <forward_wls+0x40>
    3ff0:	8e cd       	rjmp	.-1252   	; 0x3b0e <forward_wls+0x40>
    3ff2:	8d a5       	ldd	r24, Y+45	; 0x2d
    3ff4:	9e a5       	ldd	r25, Y+46	; 0x2e
    3ff6:	81 30       	cpi	r24, 0x01	; 1
    3ff8:	91 05       	cpc	r25, r1
    3ffa:	09 f4       	brne	.+2      	; 0x3ffe <forward_wls+0x530>
    3ffc:	2e db       	rcall	.-2468   	; 0x365a <forward_walls>
    3ffe:	8d a5       	ldd	r24, Y+45	; 0x2d
    4000:	9e a5       	ldd	r25, Y+46	; 0x2e
    4002:	83 30       	cpi	r24, 0x03	; 3
    4004:	91 05       	cpc	r25, r1
    4006:	09 f4       	brne	.+2      	; 0x400a <forward_wls+0x53c>
    4008:	1c d0       	rcall	.+56     	; 0x4042 <forward_inv>
    400a:	89 81       	ldd	r24, Y+1	; 0x01
    400c:	9a 81       	ldd	r25, Y+2	; 0x02
    400e:	01 96       	adiw	r24, 0x01	; 1
    4010:	9a 83       	std	Y+2, r25	; 0x02
    4012:	89 83       	std	Y+1, r24	; 0x01
    4014:	29 81       	ldd	r18, Y+1	; 0x01
    4016:	3a 81       	ldd	r19, Y+2	; 0x02
    4018:	8f a5       	ldd	r24, Y+47	; 0x2f
    401a:	98 a9       	ldd	r25, Y+48	; 0x30
    401c:	82 17       	cp	r24, r18
    401e:	93 07       	cpc	r25, r19
    4020:	0c f0       	brlt	.+2      	; 0x4024 <forward_wls+0x556>
    4022:	68 cd       	rjmp	.-1328   	; 0x3af4 <forward_wls+0x26>
    4024:	82 e2       	ldi	r24, 0x22	; 34
    4026:	90 e0       	ldi	r25, 0x00	; 0
    4028:	fc 01       	movw	r30, r24
    402a:	10 82       	st	Z, r1
    402c:	0e 94 b9 0d 	call	0x1b72	; 0x1b72 <stop>
    4030:	e0 96       	adiw	r28, 0x30	; 48
    4032:	0f b6       	in	r0, 0x3f	; 63
    4034:	f8 94       	cli
    4036:	de bf       	out	0x3e, r29	; 62
    4038:	0f be       	out	0x3f, r0	; 63
    403a:	cd bf       	out	0x3d, r28	; 61
    403c:	df 91       	pop	r29
    403e:	cf 91       	pop	r28
    4040:	08 95       	ret

00004042 <forward_inv>:
    4042:	0f 93       	push	r16
    4044:	1f 93       	push	r17
    4046:	cf 93       	push	r28
    4048:	df 93       	push	r29
    404a:	cd b7       	in	r28, 0x3d	; 61
    404c:	de b7       	in	r29, 0x3e	; 62
    404e:	c7 54       	subi	r28, 0x47	; 71
    4050:	d1 09       	sbc	r29, r1
    4052:	0f b6       	in	r0, 0x3f	; 63
    4054:	f8 94       	cli
    4056:	de bf       	out	0x3e, r29	; 62
    4058:	0f be       	out	0x3f, r0	; 63
    405a:	cd bf       	out	0x3d, r28	; 61
    405c:	19 82       	std	Y+1, r1	; 0x01
    405e:	83 e0       	ldi	r24, 0x03	; 3
    4060:	90 e0       	ldi	r25, 0x00	; 0
    4062:	0e 94 8b 10 	call	0x2116	; 0x2116 <LCD_Function>
    4066:	89 81       	ldd	r24, Y+1	; 0x01
    4068:	88 2f       	mov	r24, r24
    406a:	90 e0       	ldi	r25, 0x00	; 0
    406c:	22 e0       	ldi	r18, 0x02	; 2
    406e:	30 e0       	ldi	r19, 0x00	; 0
    4070:	ac 01       	movw	r20, r24
    4072:	67 e0       	ldi	r22, 0x07	; 7
    4074:	82 e0       	ldi	r24, 0x02	; 2
    4076:	0e 94 ff 09 	call	0x13fe	; 0x13fe <lcd_print>
    407a:	0e 94 8c 0d 	call	0x1b18	; 0x1b18 <forward>
    407e:	90 91 00 02 	lds	r25, 0x0200
    4082:	80 91 00 02 	lds	r24, 0x0200
    4086:	69 2f       	mov	r22, r25
    4088:	0e 94 c2 0d 	call	0x1b84	; 0x1b84 <velocity>
    408c:	81 e0       	ldi	r24, 0x01	; 1
    408e:	0e 94 47 10 	call	0x208e	; 0x208e <ADC_Conversion>
    4092:	80 93 74 02 	sts	0x0274, r24
    4096:	82 e0       	ldi	r24, 0x02	; 2
    4098:	0e 94 47 10 	call	0x208e	; 0x208e <ADC_Conversion>
    409c:	80 93 69 02 	sts	0x0269, r24
    40a0:	83 e0       	ldi	r24, 0x03	; 3
    40a2:	0e 94 47 10 	call	0x208e	; 0x208e <ADC_Conversion>
    40a6:	80 93 6c 02 	sts	0x026C, r24
    40aa:	80 91 74 02 	lds	r24, 0x0274
    40ae:	28 2f       	mov	r18, r24
    40b0:	30 e0       	ldi	r19, 0x00	; 0
    40b2:	80 91 69 02 	lds	r24, 0x0269
    40b6:	88 2f       	mov	r24, r24
    40b8:	90 e0       	ldi	r25, 0x00	; 0
    40ba:	28 0f       	add	r18, r24
    40bc:	39 1f       	adc	r19, r25
    40be:	80 91 6c 02 	lds	r24, 0x026C
    40c2:	88 2f       	mov	r24, r24
    40c4:	90 e0       	ldi	r25, 0x00	; 0
    40c6:	82 0f       	add	r24, r18
    40c8:	93 1f       	adc	r25, r19
    40ca:	8a 34       	cpi	r24, 0x4A	; 74
    40cc:	21 e0       	ldi	r18, 0x01	; 1
    40ce:	92 07       	cpc	r25, r18
    40d0:	0c f0       	brlt	.+2      	; 0x40d4 <forward_inv+0x92>
    40d2:	75 c1       	rjmp	.+746    	; 0x43be <forward_inv+0x37c>
    40d4:	80 91 69 02 	lds	r24, 0x0269
    40d8:	8a 35       	cpi	r24, 0x5A	; 90
    40da:	08 f0       	brcs	.+2      	; 0x40de <forward_inv+0x9c>
    40dc:	70 c1       	rjmp	.+736    	; 0x43be <forward_inv+0x37c>
    40de:	89 81       	ldd	r24, Y+1	; 0x01
    40e0:	88 23       	and	r24, r24
    40e2:	09 f0       	breq	.+2      	; 0x40e6 <forward_inv+0xa4>
    40e4:	6c c1       	rjmp	.+728    	; 0x43be <forward_inv+0x37c>
    40e6:	80 e0       	ldi	r24, 0x00	; 0
    40e8:	90 e0       	ldi	r25, 0x00	; 0
    40ea:	a8 ec       	ldi	r26, 0xC8	; 200
    40ec:	b2 e4       	ldi	r27, 0x42	; 66
    40ee:	8a 83       	std	Y+2, r24	; 0x02
    40f0:	9b 83       	std	Y+3, r25	; 0x03
    40f2:	ac 83       	std	Y+4, r26	; 0x04
    40f4:	bd 83       	std	Y+5, r27	; 0x05
    40f6:	26 e6       	ldi	r18, 0x66	; 102
    40f8:	36 e6       	ldi	r19, 0x66	; 102
    40fa:	46 e6       	ldi	r20, 0x66	; 102
    40fc:	55 e4       	ldi	r21, 0x45	; 69
    40fe:	6a 81       	ldd	r22, Y+2	; 0x02
    4100:	7b 81       	ldd	r23, Y+3	; 0x03
    4102:	8c 81       	ldd	r24, Y+4	; 0x04
    4104:	9d 81       	ldd	r25, Y+5	; 0x05
    4106:	0e 94 ce 2c 	call	0x599c	; 0x599c <__mulsf3>
    410a:	dc 01       	movw	r26, r24
    410c:	cb 01       	movw	r24, r22
    410e:	8e 83       	std	Y+6, r24	; 0x06
    4110:	9f 83       	std	Y+7, r25	; 0x07
    4112:	a8 87       	std	Y+8, r26	; 0x08
    4114:	b9 87       	std	Y+9, r27	; 0x09
    4116:	20 e0       	ldi	r18, 0x00	; 0
    4118:	30 e0       	ldi	r19, 0x00	; 0
    411a:	40 e8       	ldi	r20, 0x80	; 128
    411c:	5f e3       	ldi	r21, 0x3F	; 63
    411e:	6e 81       	ldd	r22, Y+6	; 0x06
    4120:	7f 81       	ldd	r23, Y+7	; 0x07
    4122:	88 85       	ldd	r24, Y+8	; 0x08
    4124:	99 85       	ldd	r25, Y+9	; 0x09
    4126:	0e 94 80 2b 	call	0x5700	; 0x5700 <__cmpsf2>
    412a:	88 23       	and	r24, r24
    412c:	2c f4       	brge	.+10     	; 0x4138 <forward_inv+0xf6>
    412e:	81 e0       	ldi	r24, 0x01	; 1
    4130:	90 e0       	ldi	r25, 0x00	; 0
    4132:	9b 87       	std	Y+11, r25	; 0x0b
    4134:	8a 87       	std	Y+10, r24	; 0x0a
    4136:	3f c0       	rjmp	.+126    	; 0x41b6 <forward_inv+0x174>
    4138:	20 e0       	ldi	r18, 0x00	; 0
    413a:	3f ef       	ldi	r19, 0xFF	; 255
    413c:	4f e7       	ldi	r20, 0x7F	; 127
    413e:	57 e4       	ldi	r21, 0x47	; 71
    4140:	6e 81       	ldd	r22, Y+6	; 0x06
    4142:	7f 81       	ldd	r23, Y+7	; 0x07
    4144:	88 85       	ldd	r24, Y+8	; 0x08
    4146:	99 85       	ldd	r25, Y+9	; 0x09
    4148:	0e 94 ca 2c 	call	0x5994	; 0x5994 <__gesf2>
    414c:	18 16       	cp	r1, r24
    414e:	4c f5       	brge	.+82     	; 0x41a2 <forward_inv+0x160>
    4150:	20 e0       	ldi	r18, 0x00	; 0
    4152:	30 e0       	ldi	r19, 0x00	; 0
    4154:	40 e2       	ldi	r20, 0x20	; 32
    4156:	51 e4       	ldi	r21, 0x41	; 65
    4158:	6a 81       	ldd	r22, Y+2	; 0x02
    415a:	7b 81       	ldd	r23, Y+3	; 0x03
    415c:	8c 81       	ldd	r24, Y+4	; 0x04
    415e:	9d 81       	ldd	r25, Y+5	; 0x05
    4160:	0e 94 ce 2c 	call	0x599c	; 0x599c <__mulsf3>
    4164:	dc 01       	movw	r26, r24
    4166:	cb 01       	movw	r24, r22
    4168:	bc 01       	movw	r22, r24
    416a:	cd 01       	movw	r24, r26
    416c:	0e 94 ec 2b 	call	0x57d8	; 0x57d8 <__fixunssfsi>
    4170:	dc 01       	movw	r26, r24
    4172:	cb 01       	movw	r24, r22
    4174:	9b 87       	std	Y+11, r25	; 0x0b
    4176:	8a 87       	std	Y+10, r24	; 0x0a
    4178:	0f c0       	rjmp	.+30     	; 0x4198 <forward_inv+0x156>
    417a:	80 e7       	ldi	r24, 0x70	; 112
    417c:	91 e0       	ldi	r25, 0x01	; 1
    417e:	9d 87       	std	Y+13, r25	; 0x0d
    4180:	8c 87       	std	Y+12, r24	; 0x0c
    4182:	8c 85       	ldd	r24, Y+12	; 0x0c
    4184:	9d 85       	ldd	r25, Y+13	; 0x0d
    4186:	01 97       	sbiw	r24, 0x01	; 1
    4188:	f1 f7       	brne	.-4      	; 0x4186 <forward_inv+0x144>
    418a:	9d 87       	std	Y+13, r25	; 0x0d
    418c:	8c 87       	std	Y+12, r24	; 0x0c
    418e:	8a 85       	ldd	r24, Y+10	; 0x0a
    4190:	9b 85       	ldd	r25, Y+11	; 0x0b
    4192:	01 97       	sbiw	r24, 0x01	; 1
    4194:	9b 87       	std	Y+11, r25	; 0x0b
    4196:	8a 87       	std	Y+10, r24	; 0x0a
    4198:	8a 85       	ldd	r24, Y+10	; 0x0a
    419a:	9b 85       	ldd	r25, Y+11	; 0x0b
    419c:	00 97       	sbiw	r24, 0x00	; 0
    419e:	69 f7       	brne	.-38     	; 0x417a <forward_inv+0x138>
    41a0:	14 c0       	rjmp	.+40     	; 0x41ca <forward_inv+0x188>
    41a2:	6e 81       	ldd	r22, Y+6	; 0x06
    41a4:	7f 81       	ldd	r23, Y+7	; 0x07
    41a6:	88 85       	ldd	r24, Y+8	; 0x08
    41a8:	99 85       	ldd	r25, Y+9	; 0x09
    41aa:	0e 94 ec 2b 	call	0x57d8	; 0x57d8 <__fixunssfsi>
    41ae:	dc 01       	movw	r26, r24
    41b0:	cb 01       	movw	r24, r22
    41b2:	9b 87       	std	Y+11, r25	; 0x0b
    41b4:	8a 87       	std	Y+10, r24	; 0x0a
    41b6:	8a 85       	ldd	r24, Y+10	; 0x0a
    41b8:	9b 85       	ldd	r25, Y+11	; 0x0b
    41ba:	9f 87       	std	Y+15, r25	; 0x0f
    41bc:	8e 87       	std	Y+14, r24	; 0x0e
    41be:	8e 85       	ldd	r24, Y+14	; 0x0e
    41c0:	9f 85       	ldd	r25, Y+15	; 0x0f
    41c2:	01 97       	sbiw	r24, 0x01	; 1
    41c4:	f1 f7       	brne	.-4      	; 0x41c2 <forward_inv+0x180>
    41c6:	9f 87       	std	Y+15, r25	; 0x0f
    41c8:	8e 87       	std	Y+14, r24	; 0x0e
    41ca:	89 81       	ldd	r24, Y+1	; 0x01
    41cc:	8f 5f       	subi	r24, 0xFF	; 255
    41ce:	89 83       	std	Y+1, r24	; 0x01
    41d0:	89 81       	ldd	r24, Y+1	; 0x01
    41d2:	88 2f       	mov	r24, r24
    41d4:	90 e0       	ldi	r25, 0x00	; 0
    41d6:	22 e0       	ldi	r18, 0x02	; 2
    41d8:	30 e0       	ldi	r19, 0x00	; 0
    41da:	ac 01       	movw	r20, r24
    41dc:	67 e0       	ldi	r22, 0x07	; 7
    41de:	82 e0       	ldi	r24, 0x02	; 2
    41e0:	0e 94 ff 09 	call	0x13fe	; 0x13fe <lcd_print>
    41e4:	0e 94 83 0d 	call	0x1b06	; 0x1b06 <back>
    41e8:	80 e0       	ldi	r24, 0x00	; 0
    41ea:	90 e0       	ldi	r25, 0x00	; 0
    41ec:	aa e7       	ldi	r26, 0x7A	; 122
    41ee:	b3 e4       	ldi	r27, 0x43	; 67
    41f0:	88 8b       	std	Y+16, r24	; 0x10
    41f2:	99 8b       	std	Y+17, r25	; 0x11
    41f4:	aa 8b       	std	Y+18, r26	; 0x12
    41f6:	bb 8b       	std	Y+19, r27	; 0x13
    41f8:	26 e6       	ldi	r18, 0x66	; 102
    41fa:	36 e6       	ldi	r19, 0x66	; 102
    41fc:	46 e6       	ldi	r20, 0x66	; 102
    41fe:	55 e4       	ldi	r21, 0x45	; 69
    4200:	68 89       	ldd	r22, Y+16	; 0x10
    4202:	79 89       	ldd	r23, Y+17	; 0x11
    4204:	8a 89       	ldd	r24, Y+18	; 0x12
    4206:	9b 89       	ldd	r25, Y+19	; 0x13
    4208:	0e 94 ce 2c 	call	0x599c	; 0x599c <__mulsf3>
    420c:	dc 01       	movw	r26, r24
    420e:	cb 01       	movw	r24, r22
    4210:	8c 8b       	std	Y+20, r24	; 0x14
    4212:	9d 8b       	std	Y+21, r25	; 0x15
    4214:	ae 8b       	std	Y+22, r26	; 0x16
    4216:	bf 8b       	std	Y+23, r27	; 0x17
    4218:	20 e0       	ldi	r18, 0x00	; 0
    421a:	30 e0       	ldi	r19, 0x00	; 0
    421c:	40 e8       	ldi	r20, 0x80	; 128
    421e:	5f e3       	ldi	r21, 0x3F	; 63
    4220:	6c 89       	ldd	r22, Y+20	; 0x14
    4222:	7d 89       	ldd	r23, Y+21	; 0x15
    4224:	8e 89       	ldd	r24, Y+22	; 0x16
    4226:	9f 89       	ldd	r25, Y+23	; 0x17
    4228:	0e 94 80 2b 	call	0x5700	; 0x5700 <__cmpsf2>
    422c:	88 23       	and	r24, r24
    422e:	2c f4       	brge	.+10     	; 0x423a <forward_inv+0x1f8>
    4230:	81 e0       	ldi	r24, 0x01	; 1
    4232:	90 e0       	ldi	r25, 0x00	; 0
    4234:	99 8f       	std	Y+25, r25	; 0x19
    4236:	88 8f       	std	Y+24, r24	; 0x18
    4238:	3f c0       	rjmp	.+126    	; 0x42b8 <forward_inv+0x276>
    423a:	20 e0       	ldi	r18, 0x00	; 0
    423c:	3f ef       	ldi	r19, 0xFF	; 255
    423e:	4f e7       	ldi	r20, 0x7F	; 127
    4240:	57 e4       	ldi	r21, 0x47	; 71
    4242:	6c 89       	ldd	r22, Y+20	; 0x14
    4244:	7d 89       	ldd	r23, Y+21	; 0x15
    4246:	8e 89       	ldd	r24, Y+22	; 0x16
    4248:	9f 89       	ldd	r25, Y+23	; 0x17
    424a:	0e 94 ca 2c 	call	0x5994	; 0x5994 <__gesf2>
    424e:	18 16       	cp	r1, r24
    4250:	4c f5       	brge	.+82     	; 0x42a4 <forward_inv+0x262>
    4252:	20 e0       	ldi	r18, 0x00	; 0
    4254:	30 e0       	ldi	r19, 0x00	; 0
    4256:	40 e2       	ldi	r20, 0x20	; 32
    4258:	51 e4       	ldi	r21, 0x41	; 65
    425a:	68 89       	ldd	r22, Y+16	; 0x10
    425c:	79 89       	ldd	r23, Y+17	; 0x11
    425e:	8a 89       	ldd	r24, Y+18	; 0x12
    4260:	9b 89       	ldd	r25, Y+19	; 0x13
    4262:	0e 94 ce 2c 	call	0x599c	; 0x599c <__mulsf3>
    4266:	dc 01       	movw	r26, r24
    4268:	cb 01       	movw	r24, r22
    426a:	bc 01       	movw	r22, r24
    426c:	cd 01       	movw	r24, r26
    426e:	0e 94 ec 2b 	call	0x57d8	; 0x57d8 <__fixunssfsi>
    4272:	dc 01       	movw	r26, r24
    4274:	cb 01       	movw	r24, r22
    4276:	99 8f       	std	Y+25, r25	; 0x19
    4278:	88 8f       	std	Y+24, r24	; 0x18
    427a:	0f c0       	rjmp	.+30     	; 0x429a <forward_inv+0x258>
    427c:	80 e7       	ldi	r24, 0x70	; 112
    427e:	91 e0       	ldi	r25, 0x01	; 1
    4280:	9b 8f       	std	Y+27, r25	; 0x1b
    4282:	8a 8f       	std	Y+26, r24	; 0x1a
    4284:	8a 8d       	ldd	r24, Y+26	; 0x1a
    4286:	9b 8d       	ldd	r25, Y+27	; 0x1b
    4288:	01 97       	sbiw	r24, 0x01	; 1
    428a:	f1 f7       	brne	.-4      	; 0x4288 <forward_inv+0x246>
    428c:	9b 8f       	std	Y+27, r25	; 0x1b
    428e:	8a 8f       	std	Y+26, r24	; 0x1a
    4290:	88 8d       	ldd	r24, Y+24	; 0x18
    4292:	99 8d       	ldd	r25, Y+25	; 0x19
    4294:	01 97       	sbiw	r24, 0x01	; 1
    4296:	99 8f       	std	Y+25, r25	; 0x19
    4298:	88 8f       	std	Y+24, r24	; 0x18
    429a:	88 8d       	ldd	r24, Y+24	; 0x18
    429c:	99 8d       	ldd	r25, Y+25	; 0x19
    429e:	00 97       	sbiw	r24, 0x00	; 0
    42a0:	69 f7       	brne	.-38     	; 0x427c <forward_inv+0x23a>
    42a2:	14 c0       	rjmp	.+40     	; 0x42cc <forward_inv+0x28a>
    42a4:	6c 89       	ldd	r22, Y+20	; 0x14
    42a6:	7d 89       	ldd	r23, Y+21	; 0x15
    42a8:	8e 89       	ldd	r24, Y+22	; 0x16
    42aa:	9f 89       	ldd	r25, Y+23	; 0x17
    42ac:	0e 94 ec 2b 	call	0x57d8	; 0x57d8 <__fixunssfsi>
    42b0:	dc 01       	movw	r26, r24
    42b2:	cb 01       	movw	r24, r22
    42b4:	99 8f       	std	Y+25, r25	; 0x19
    42b6:	88 8f       	std	Y+24, r24	; 0x18
    42b8:	88 8d       	ldd	r24, Y+24	; 0x18
    42ba:	99 8d       	ldd	r25, Y+25	; 0x19
    42bc:	9d 8f       	std	Y+29, r25	; 0x1d
    42be:	8c 8f       	std	Y+28, r24	; 0x1c
    42c0:	8c 8d       	ldd	r24, Y+28	; 0x1c
    42c2:	9d 8d       	ldd	r25, Y+29	; 0x1d
    42c4:	01 97       	sbiw	r24, 0x01	; 1
    42c6:	f1 f7       	brne	.-4      	; 0x42c4 <forward_inv+0x282>
    42c8:	9d 8f       	std	Y+29, r25	; 0x1d
    42ca:	8c 8f       	std	Y+28, r24	; 0x1c
    42cc:	0e 94 b9 0d 	call	0x1b72	; 0x1b72 <stop>
    42d0:	0e 94 f6 16 	call	0x2dec	; 0x2dec <inv_place>
    42d4:	0e 94 8c 0d 	call	0x1b18	; 0x1b18 <forward>
    42d8:	80 e0       	ldi	r24, 0x00	; 0
    42da:	90 e0       	ldi	r25, 0x00	; 0
    42dc:	a8 ec       	ldi	r26, 0xC8	; 200
    42de:	b2 e4       	ldi	r27, 0x42	; 66
    42e0:	8e 8f       	std	Y+30, r24	; 0x1e
    42e2:	9f 8f       	std	Y+31, r25	; 0x1f
    42e4:	a8 a3       	std	Y+32, r26	; 0x20
    42e6:	b9 a3       	std	Y+33, r27	; 0x21
    42e8:	26 e6       	ldi	r18, 0x66	; 102
    42ea:	36 e6       	ldi	r19, 0x66	; 102
    42ec:	46 e6       	ldi	r20, 0x66	; 102
    42ee:	55 e4       	ldi	r21, 0x45	; 69
    42f0:	6e 8d       	ldd	r22, Y+30	; 0x1e
    42f2:	7f 8d       	ldd	r23, Y+31	; 0x1f
    42f4:	88 a1       	ldd	r24, Y+32	; 0x20
    42f6:	99 a1       	ldd	r25, Y+33	; 0x21
    42f8:	0e 94 ce 2c 	call	0x599c	; 0x599c <__mulsf3>
    42fc:	dc 01       	movw	r26, r24
    42fe:	cb 01       	movw	r24, r22
    4300:	8a a3       	std	Y+34, r24	; 0x22
    4302:	9b a3       	std	Y+35, r25	; 0x23
    4304:	ac a3       	std	Y+36, r26	; 0x24
    4306:	bd a3       	std	Y+37, r27	; 0x25
    4308:	20 e0       	ldi	r18, 0x00	; 0
    430a:	30 e0       	ldi	r19, 0x00	; 0
    430c:	40 e8       	ldi	r20, 0x80	; 128
    430e:	5f e3       	ldi	r21, 0x3F	; 63
    4310:	6a a1       	ldd	r22, Y+34	; 0x22
    4312:	7b a1       	ldd	r23, Y+35	; 0x23
    4314:	8c a1       	ldd	r24, Y+36	; 0x24
    4316:	9d a1       	ldd	r25, Y+37	; 0x25
    4318:	0e 94 80 2b 	call	0x5700	; 0x5700 <__cmpsf2>
    431c:	88 23       	and	r24, r24
    431e:	2c f4       	brge	.+10     	; 0x432a <forward_inv+0x2e8>
    4320:	81 e0       	ldi	r24, 0x01	; 1
    4322:	90 e0       	ldi	r25, 0x00	; 0
    4324:	9f a3       	std	Y+39, r25	; 0x27
    4326:	8e a3       	std	Y+38, r24	; 0x26
    4328:	3f c0       	rjmp	.+126    	; 0x43a8 <forward_inv+0x366>
    432a:	20 e0       	ldi	r18, 0x00	; 0
    432c:	3f ef       	ldi	r19, 0xFF	; 255
    432e:	4f e7       	ldi	r20, 0x7F	; 127
    4330:	57 e4       	ldi	r21, 0x47	; 71
    4332:	6a a1       	ldd	r22, Y+34	; 0x22
    4334:	7b a1       	ldd	r23, Y+35	; 0x23
    4336:	8c a1       	ldd	r24, Y+36	; 0x24
    4338:	9d a1       	ldd	r25, Y+37	; 0x25
    433a:	0e 94 ca 2c 	call	0x5994	; 0x5994 <__gesf2>
    433e:	18 16       	cp	r1, r24
    4340:	4c f5       	brge	.+82     	; 0x4394 <forward_inv+0x352>
    4342:	20 e0       	ldi	r18, 0x00	; 0
    4344:	30 e0       	ldi	r19, 0x00	; 0
    4346:	40 e2       	ldi	r20, 0x20	; 32
    4348:	51 e4       	ldi	r21, 0x41	; 65
    434a:	6e 8d       	ldd	r22, Y+30	; 0x1e
    434c:	7f 8d       	ldd	r23, Y+31	; 0x1f
    434e:	88 a1       	ldd	r24, Y+32	; 0x20
    4350:	99 a1       	ldd	r25, Y+33	; 0x21
    4352:	0e 94 ce 2c 	call	0x599c	; 0x599c <__mulsf3>
    4356:	dc 01       	movw	r26, r24
    4358:	cb 01       	movw	r24, r22
    435a:	bc 01       	movw	r22, r24
    435c:	cd 01       	movw	r24, r26
    435e:	0e 94 ec 2b 	call	0x57d8	; 0x57d8 <__fixunssfsi>
    4362:	dc 01       	movw	r26, r24
    4364:	cb 01       	movw	r24, r22
    4366:	9f a3       	std	Y+39, r25	; 0x27
    4368:	8e a3       	std	Y+38, r24	; 0x26
    436a:	0f c0       	rjmp	.+30     	; 0x438a <forward_inv+0x348>
    436c:	80 e7       	ldi	r24, 0x70	; 112
    436e:	91 e0       	ldi	r25, 0x01	; 1
    4370:	99 a7       	std	Y+41, r25	; 0x29
    4372:	88 a7       	std	Y+40, r24	; 0x28
    4374:	88 a5       	ldd	r24, Y+40	; 0x28
    4376:	99 a5       	ldd	r25, Y+41	; 0x29
    4378:	01 97       	sbiw	r24, 0x01	; 1
    437a:	f1 f7       	brne	.-4      	; 0x4378 <forward_inv+0x336>
    437c:	99 a7       	std	Y+41, r25	; 0x29
    437e:	88 a7       	std	Y+40, r24	; 0x28
    4380:	8e a1       	ldd	r24, Y+38	; 0x26
    4382:	9f a1       	ldd	r25, Y+39	; 0x27
    4384:	01 97       	sbiw	r24, 0x01	; 1
    4386:	9f a3       	std	Y+39, r25	; 0x27
    4388:	8e a3       	std	Y+38, r24	; 0x26
    438a:	8e a1       	ldd	r24, Y+38	; 0x26
    438c:	9f a1       	ldd	r25, Y+39	; 0x27
    438e:	00 97       	sbiw	r24, 0x00	; 0
    4390:	69 f7       	brne	.-38     	; 0x436c <forward_inv+0x32a>
    4392:	a0 c1       	rjmp	.+832    	; 0x46d4 <forward_inv+0x692>
    4394:	6a a1       	ldd	r22, Y+34	; 0x22
    4396:	7b a1       	ldd	r23, Y+35	; 0x23
    4398:	8c a1       	ldd	r24, Y+36	; 0x24
    439a:	9d a1       	ldd	r25, Y+37	; 0x25
    439c:	0e 94 ec 2b 	call	0x57d8	; 0x57d8 <__fixunssfsi>
    43a0:	dc 01       	movw	r26, r24
    43a2:	cb 01       	movw	r24, r22
    43a4:	9f a3       	std	Y+39, r25	; 0x27
    43a6:	8e a3       	std	Y+38, r24	; 0x26
    43a8:	8e a1       	ldd	r24, Y+38	; 0x26
    43aa:	9f a1       	ldd	r25, Y+39	; 0x27
    43ac:	9b a7       	std	Y+43, r25	; 0x2b
    43ae:	8a a7       	std	Y+42, r24	; 0x2a
    43b0:	8a a5       	ldd	r24, Y+42	; 0x2a
    43b2:	9b a5       	ldd	r25, Y+43	; 0x2b
    43b4:	01 97       	sbiw	r24, 0x01	; 1
    43b6:	f1 f7       	brne	.-4      	; 0x43b4 <forward_inv+0x372>
    43b8:	9b a7       	std	Y+43, r25	; 0x2b
    43ba:	8a a7       	std	Y+42, r24	; 0x2a
    43bc:	8b c1       	rjmp	.+790    	; 0x46d4 <forward_inv+0x692>
    43be:	80 91 74 02 	lds	r24, 0x0274
    43c2:	85 3b       	cpi	r24, 0xB5	; 181
    43c4:	a8 f0       	brcs	.+42     	; 0x43f0 <forward_inv+0x3ae>
    43c6:	80 91 69 02 	lds	r24, 0x0269
    43ca:	82 38       	cpi	r24, 0x82	; 130
    43cc:	88 f4       	brcc	.+34     	; 0x43f0 <forward_inv+0x3ae>
    43ce:	80 91 6c 02 	lds	r24, 0x026C
    43d2:	85 3b       	cpi	r24, 0xB5	; 181
    43d4:	68 f0       	brcs	.+26     	; 0x43f0 <forward_inv+0x3ae>
    43d6:	88 e2       	ldi	r24, 0x28	; 40
    43d8:	91 e0       	ldi	r25, 0x01	; 1
    43da:	20 91 00 02 	lds	r18, 0x0200
    43de:	fc 01       	movw	r30, r24
    43e0:	20 83       	st	Z, r18
    43e2:	8a e2       	ldi	r24, 0x2A	; 42
    43e4:	91 e0       	ldi	r25, 0x01	; 1
    43e6:	20 91 00 02 	lds	r18, 0x0200
    43ea:	fc 01       	movw	r30, r24
    43ec:	20 83       	st	Z, r18
    43ee:	72 c1       	rjmp	.+740    	; 0x46d4 <forward_inv+0x692>
    43f0:	80 91 74 02 	lds	r24, 0x0274
    43f4:	80 35       	cpi	r24, 0x50	; 80
    43f6:	08 f0       	brcs	.+2      	; 0x43fa <forward_inv+0x3b8>
    43f8:	8c c0       	rjmp	.+280    	; 0x4512 <forward_inv+0x4d0>
    43fa:	80 91 69 02 	lds	r24, 0x0269
    43fe:	83 38       	cpi	r24, 0x83	; 131
    4400:	08 f4       	brcc	.+2      	; 0x4404 <forward_inv+0x3c2>
    4402:	87 c0       	rjmp	.+270    	; 0x4512 <forward_inv+0x4d0>
    4404:	80 91 6c 02 	lds	r24, 0x026C
    4408:	87 39       	cpi	r24, 0x97	; 151
    440a:	08 f4       	brcc	.+2      	; 0x440e <forward_inv+0x3cc>
    440c:	82 c0       	rjmp	.+260    	; 0x4512 <forward_inv+0x4d0>
    440e:	0e 94 b0 0d 	call	0x1b60	; 0x1b60 <soft_left>
    4412:	88 e2       	ldi	r24, 0x28	; 40
    4414:	91 e0       	ldi	r25, 0x01	; 1
    4416:	20 91 01 02 	lds	r18, 0x0201
    441a:	22 53       	subi	r18, 0x32	; 50
    441c:	fc 01       	movw	r30, r24
    441e:	20 83       	st	Z, r18
    4420:	8a e2       	ldi	r24, 0x2A	; 42
    4422:	91 e0       	ldi	r25, 0x01	; 1
    4424:	20 91 00 02 	lds	r18, 0x0200
    4428:	fc 01       	movw	r30, r24
    442a:	20 83       	st	Z, r18
    442c:	80 e0       	ldi	r24, 0x00	; 0
    442e:	90 e0       	ldi	r25, 0x00	; 0
    4430:	a0 e8       	ldi	r26, 0x80	; 128
    4432:	bf e3       	ldi	r27, 0x3F	; 63
    4434:	8c a7       	std	Y+44, r24	; 0x2c
    4436:	9d a7       	std	Y+45, r25	; 0x2d
    4438:	ae a7       	std	Y+46, r26	; 0x2e
    443a:	bf a7       	std	Y+47, r27	; 0x2f
    443c:	26 e6       	ldi	r18, 0x66	; 102
    443e:	36 e6       	ldi	r19, 0x66	; 102
    4440:	46 e6       	ldi	r20, 0x66	; 102
    4442:	55 e4       	ldi	r21, 0x45	; 69
    4444:	6c a5       	ldd	r22, Y+44	; 0x2c
    4446:	7d a5       	ldd	r23, Y+45	; 0x2d
    4448:	8e a5       	ldd	r24, Y+46	; 0x2e
    444a:	9f a5       	ldd	r25, Y+47	; 0x2f
    444c:	0e 94 ce 2c 	call	0x599c	; 0x599c <__mulsf3>
    4450:	dc 01       	movw	r26, r24
    4452:	cb 01       	movw	r24, r22
    4454:	88 ab       	std	Y+48, r24	; 0x30
    4456:	99 ab       	std	Y+49, r25	; 0x31
    4458:	aa ab       	std	Y+50, r26	; 0x32
    445a:	bb ab       	std	Y+51, r27	; 0x33
    445c:	20 e0       	ldi	r18, 0x00	; 0
    445e:	30 e0       	ldi	r19, 0x00	; 0
    4460:	40 e8       	ldi	r20, 0x80	; 128
    4462:	5f e3       	ldi	r21, 0x3F	; 63
    4464:	68 a9       	ldd	r22, Y+48	; 0x30
    4466:	79 a9       	ldd	r23, Y+49	; 0x31
    4468:	8a a9       	ldd	r24, Y+50	; 0x32
    446a:	9b a9       	ldd	r25, Y+51	; 0x33
    446c:	0e 94 80 2b 	call	0x5700	; 0x5700 <__cmpsf2>
    4470:	88 23       	and	r24, r24
    4472:	2c f4       	brge	.+10     	; 0x447e <forward_inv+0x43c>
    4474:	81 e0       	ldi	r24, 0x01	; 1
    4476:	90 e0       	ldi	r25, 0x00	; 0
    4478:	9d ab       	std	Y+53, r25	; 0x35
    447a:	8c ab       	std	Y+52, r24	; 0x34
    447c:	3f c0       	rjmp	.+126    	; 0x44fc <forward_inv+0x4ba>
    447e:	20 e0       	ldi	r18, 0x00	; 0
    4480:	3f ef       	ldi	r19, 0xFF	; 255
    4482:	4f e7       	ldi	r20, 0x7F	; 127
    4484:	57 e4       	ldi	r21, 0x47	; 71
    4486:	68 a9       	ldd	r22, Y+48	; 0x30
    4488:	79 a9       	ldd	r23, Y+49	; 0x31
    448a:	8a a9       	ldd	r24, Y+50	; 0x32
    448c:	9b a9       	ldd	r25, Y+51	; 0x33
    448e:	0e 94 ca 2c 	call	0x5994	; 0x5994 <__gesf2>
    4492:	18 16       	cp	r1, r24
    4494:	4c f5       	brge	.+82     	; 0x44e8 <forward_inv+0x4a6>
    4496:	20 e0       	ldi	r18, 0x00	; 0
    4498:	30 e0       	ldi	r19, 0x00	; 0
    449a:	40 e2       	ldi	r20, 0x20	; 32
    449c:	51 e4       	ldi	r21, 0x41	; 65
    449e:	6c a5       	ldd	r22, Y+44	; 0x2c
    44a0:	7d a5       	ldd	r23, Y+45	; 0x2d
    44a2:	8e a5       	ldd	r24, Y+46	; 0x2e
    44a4:	9f a5       	ldd	r25, Y+47	; 0x2f
    44a6:	0e 94 ce 2c 	call	0x599c	; 0x599c <__mulsf3>
    44aa:	dc 01       	movw	r26, r24
    44ac:	cb 01       	movw	r24, r22
    44ae:	bc 01       	movw	r22, r24
    44b0:	cd 01       	movw	r24, r26
    44b2:	0e 94 ec 2b 	call	0x57d8	; 0x57d8 <__fixunssfsi>
    44b6:	dc 01       	movw	r26, r24
    44b8:	cb 01       	movw	r24, r22
    44ba:	9d ab       	std	Y+53, r25	; 0x35
    44bc:	8c ab       	std	Y+52, r24	; 0x34
    44be:	0f c0       	rjmp	.+30     	; 0x44de <forward_inv+0x49c>
    44c0:	80 e7       	ldi	r24, 0x70	; 112
    44c2:	91 e0       	ldi	r25, 0x01	; 1
    44c4:	9f ab       	std	Y+55, r25	; 0x37
    44c6:	8e ab       	std	Y+54, r24	; 0x36
    44c8:	8e a9       	ldd	r24, Y+54	; 0x36
    44ca:	9f a9       	ldd	r25, Y+55	; 0x37
    44cc:	01 97       	sbiw	r24, 0x01	; 1
    44ce:	f1 f7       	brne	.-4      	; 0x44cc <forward_inv+0x48a>
    44d0:	9f ab       	std	Y+55, r25	; 0x37
    44d2:	8e ab       	std	Y+54, r24	; 0x36
    44d4:	8c a9       	ldd	r24, Y+52	; 0x34
    44d6:	9d a9       	ldd	r25, Y+53	; 0x35
    44d8:	01 97       	sbiw	r24, 0x01	; 1
    44da:	9d ab       	std	Y+53, r25	; 0x35
    44dc:	8c ab       	std	Y+52, r24	; 0x34
    44de:	8c a9       	ldd	r24, Y+52	; 0x34
    44e0:	9d a9       	ldd	r25, Y+53	; 0x35
    44e2:	00 97       	sbiw	r24, 0x00	; 0
    44e4:	69 f7       	brne	.-38     	; 0x44c0 <forward_inv+0x47e>
    44e6:	f6 c0       	rjmp	.+492    	; 0x46d4 <forward_inv+0x692>
    44e8:	68 a9       	ldd	r22, Y+48	; 0x30
    44ea:	79 a9       	ldd	r23, Y+49	; 0x31
    44ec:	8a a9       	ldd	r24, Y+50	; 0x32
    44ee:	9b a9       	ldd	r25, Y+51	; 0x33
    44f0:	0e 94 ec 2b 	call	0x57d8	; 0x57d8 <__fixunssfsi>
    44f4:	dc 01       	movw	r26, r24
    44f6:	cb 01       	movw	r24, r22
    44f8:	9d ab       	std	Y+53, r25	; 0x35
    44fa:	8c ab       	std	Y+52, r24	; 0x34
    44fc:	8c a9       	ldd	r24, Y+52	; 0x34
    44fe:	9d a9       	ldd	r25, Y+53	; 0x35
    4500:	99 af       	std	Y+57, r25	; 0x39
    4502:	88 af       	std	Y+56, r24	; 0x38
    4504:	88 ad       	ldd	r24, Y+56	; 0x38
    4506:	99 ad       	ldd	r25, Y+57	; 0x39
    4508:	01 97       	sbiw	r24, 0x01	; 1
    450a:	f1 f7       	brne	.-4      	; 0x4508 <forward_inv+0x4c6>
    450c:	99 af       	std	Y+57, r25	; 0x39
    450e:	88 af       	std	Y+56, r24	; 0x38
    4510:	e1 c0       	rjmp	.+450    	; 0x46d4 <forward_inv+0x692>
    4512:	80 91 6c 02 	lds	r24, 0x026C
    4516:	86 39       	cpi	r24, 0x96	; 150
    4518:	08 f0       	brcs	.+2      	; 0x451c <forward_inv+0x4da>
    451a:	cf c0       	rjmp	.+414    	; 0x46ba <forward_inv+0x678>
    451c:	80 91 69 02 	lds	r24, 0x0269
    4520:	83 38       	cpi	r24, 0x83	; 131
    4522:	08 f4       	brcc	.+2      	; 0x4526 <forward_inv+0x4e4>
    4524:	ca c0       	rjmp	.+404    	; 0x46ba <forward_inv+0x678>
    4526:	80 91 74 02 	lds	r24, 0x0274
    452a:	81 35       	cpi	r24, 0x51	; 81
    452c:	08 f4       	brcc	.+2      	; 0x4530 <forward_inv+0x4ee>
    452e:	c5 c0       	rjmp	.+394    	; 0x46ba <forward_inv+0x678>
    4530:	0e 94 a7 0d 	call	0x1b4e	; 0x1b4e <soft_right>
    4534:	88 e2       	ldi	r24, 0x28	; 40
    4536:	91 e0       	ldi	r25, 0x01	; 1
    4538:	20 91 00 02 	lds	r18, 0x0200
    453c:	fc 01       	movw	r30, r24
    453e:	20 83       	st	Z, r18
    4540:	8a e2       	ldi	r24, 0x2A	; 42
    4542:	91 e0       	ldi	r25, 0x01	; 1
    4544:	20 91 01 02 	lds	r18, 0x0201
    4548:	22 53       	subi	r18, 0x32	; 50
    454a:	fc 01       	movw	r30, r24
    454c:	20 83       	st	Z, r18
    454e:	80 e0       	ldi	r24, 0x00	; 0
    4550:	90 e0       	ldi	r25, 0x00	; 0
    4552:	a0 e8       	ldi	r26, 0x80	; 128
    4554:	bf e3       	ldi	r27, 0x3F	; 63
    4556:	8a af       	std	Y+58, r24	; 0x3a
    4558:	9b af       	std	Y+59, r25	; 0x3b
    455a:	ac af       	std	Y+60, r26	; 0x3c
    455c:	bd af       	std	Y+61, r27	; 0x3d
    455e:	8e 01       	movw	r16, r28
    4560:	02 5c       	subi	r16, 0xC2	; 194
    4562:	1f 4f       	sbci	r17, 0xFF	; 255
    4564:	26 e6       	ldi	r18, 0x66	; 102
    4566:	36 e6       	ldi	r19, 0x66	; 102
    4568:	46 e6       	ldi	r20, 0x66	; 102
    456a:	55 e4       	ldi	r21, 0x45	; 69
    456c:	6a ad       	ldd	r22, Y+58	; 0x3a
    456e:	7b ad       	ldd	r23, Y+59	; 0x3b
    4570:	8c ad       	ldd	r24, Y+60	; 0x3c
    4572:	9d ad       	ldd	r25, Y+61	; 0x3d
    4574:	0e 94 ce 2c 	call	0x599c	; 0x599c <__mulsf3>
    4578:	dc 01       	movw	r26, r24
    457a:	cb 01       	movw	r24, r22
    457c:	f8 01       	movw	r30, r16
    457e:	80 83       	st	Z, r24
    4580:	91 83       	std	Z+1, r25	; 0x01
    4582:	a2 83       	std	Z+2, r26	; 0x02
    4584:	b3 83       	std	Z+3, r27	; 0x03
    4586:	ce 01       	movw	r24, r28
    4588:	ce 96       	adiw	r24, 0x3e	; 62
    458a:	20 e0       	ldi	r18, 0x00	; 0
    458c:	30 e0       	ldi	r19, 0x00	; 0
    458e:	40 e8       	ldi	r20, 0x80	; 128
    4590:	5f e3       	ldi	r21, 0x3F	; 63
    4592:	fc 01       	movw	r30, r24
    4594:	60 81       	ld	r22, Z
    4596:	71 81       	ldd	r23, Z+1	; 0x01
    4598:	82 81       	ldd	r24, Z+2	; 0x02
    459a:	93 81       	ldd	r25, Z+3	; 0x03
    459c:	0e 94 80 2b 	call	0x5700	; 0x5700 <__cmpsf2>
    45a0:	88 23       	and	r24, r24
    45a2:	4c f4       	brge	.+18     	; 0x45b6 <forward_inv+0x574>
    45a4:	ce 01       	movw	r24, r28
    45a6:	8e 5b       	subi	r24, 0xBE	; 190
    45a8:	9f 4f       	sbci	r25, 0xFF	; 255
    45aa:	21 e0       	ldi	r18, 0x01	; 1
    45ac:	30 e0       	ldi	r19, 0x00	; 0
    45ae:	fc 01       	movw	r30, r24
    45b0:	31 83       	std	Z+1, r19	; 0x01
    45b2:	20 83       	st	Z, r18
    45b4:	67 c0       	rjmp	.+206    	; 0x4684 <forward_inv+0x642>
    45b6:	ce 01       	movw	r24, r28
    45b8:	ce 96       	adiw	r24, 0x3e	; 62
    45ba:	20 e0       	ldi	r18, 0x00	; 0
    45bc:	3f ef       	ldi	r19, 0xFF	; 255
    45be:	4f e7       	ldi	r20, 0x7F	; 127
    45c0:	57 e4       	ldi	r21, 0x47	; 71
    45c2:	fc 01       	movw	r30, r24
    45c4:	60 81       	ld	r22, Z
    45c6:	71 81       	ldd	r23, Z+1	; 0x01
    45c8:	82 81       	ldd	r24, Z+2	; 0x02
    45ca:	93 81       	ldd	r25, Z+3	; 0x03
    45cc:	0e 94 ca 2c 	call	0x5994	; 0x5994 <__gesf2>
    45d0:	18 16       	cp	r1, r24
    45d2:	0c f0       	brlt	.+2      	; 0x45d6 <forward_inv+0x594>
    45d4:	46 c0       	rjmp	.+140    	; 0x4662 <forward_inv+0x620>
    45d6:	20 e0       	ldi	r18, 0x00	; 0
    45d8:	30 e0       	ldi	r19, 0x00	; 0
    45da:	40 e2       	ldi	r20, 0x20	; 32
    45dc:	51 e4       	ldi	r21, 0x41	; 65
    45de:	6a ad       	ldd	r22, Y+58	; 0x3a
    45e0:	7b ad       	ldd	r23, Y+59	; 0x3b
    45e2:	8c ad       	ldd	r24, Y+60	; 0x3c
    45e4:	9d ad       	ldd	r25, Y+61	; 0x3d
    45e6:	0e 94 ce 2c 	call	0x599c	; 0x599c <__mulsf3>
    45ea:	dc 01       	movw	r26, r24
    45ec:	cb 01       	movw	r24, r22
    45ee:	8e 01       	movw	r16, r28
    45f0:	0e 5b       	subi	r16, 0xBE	; 190
    45f2:	1f 4f       	sbci	r17, 0xFF	; 255
    45f4:	bc 01       	movw	r22, r24
    45f6:	cd 01       	movw	r24, r26
    45f8:	0e 94 ec 2b 	call	0x57d8	; 0x57d8 <__fixunssfsi>
    45fc:	dc 01       	movw	r26, r24
    45fe:	cb 01       	movw	r24, r22
    4600:	f8 01       	movw	r30, r16
    4602:	91 83       	std	Z+1, r25	; 0x01
    4604:	80 83       	st	Z, r24
    4606:	24 c0       	rjmp	.+72     	; 0x4650 <forward_inv+0x60e>
    4608:	ce 01       	movw	r24, r28
    460a:	8c 5b       	subi	r24, 0xBC	; 188
    460c:	9f 4f       	sbci	r25, 0xFF	; 255
    460e:	20 e7       	ldi	r18, 0x70	; 112
    4610:	31 e0       	ldi	r19, 0x01	; 1
    4612:	fc 01       	movw	r30, r24
    4614:	31 83       	std	Z+1, r19	; 0x01
    4616:	20 83       	st	Z, r18
    4618:	ce 01       	movw	r24, r28
    461a:	8c 5b       	subi	r24, 0xBC	; 188
    461c:	9f 4f       	sbci	r25, 0xFF	; 255
    461e:	fc 01       	movw	r30, r24
    4620:	80 81       	ld	r24, Z
    4622:	91 81       	ldd	r25, Z+1	; 0x01
    4624:	01 97       	sbiw	r24, 0x01	; 1
    4626:	f1 f7       	brne	.-4      	; 0x4624 <forward_inv+0x5e2>
    4628:	9e 01       	movw	r18, r28
    462a:	2c 5b       	subi	r18, 0xBC	; 188
    462c:	3f 4f       	sbci	r19, 0xFF	; 255
    462e:	f9 01       	movw	r30, r18
    4630:	91 83       	std	Z+1, r25	; 0x01
    4632:	80 83       	st	Z, r24
    4634:	ce 01       	movw	r24, r28
    4636:	8e 5b       	subi	r24, 0xBE	; 190
    4638:	9f 4f       	sbci	r25, 0xFF	; 255
    463a:	9e 01       	movw	r18, r28
    463c:	2e 5b       	subi	r18, 0xBE	; 190
    463e:	3f 4f       	sbci	r19, 0xFF	; 255
    4640:	f9 01       	movw	r30, r18
    4642:	20 81       	ld	r18, Z
    4644:	31 81       	ldd	r19, Z+1	; 0x01
    4646:	21 50       	subi	r18, 0x01	; 1
    4648:	31 09       	sbc	r19, r1
    464a:	fc 01       	movw	r30, r24
    464c:	31 83       	std	Z+1, r19	; 0x01
    464e:	20 83       	st	Z, r18
    4650:	ce 01       	movw	r24, r28
    4652:	8e 5b       	subi	r24, 0xBE	; 190
    4654:	9f 4f       	sbci	r25, 0xFF	; 255
    4656:	fc 01       	movw	r30, r24
    4658:	80 81       	ld	r24, Z
    465a:	91 81       	ldd	r25, Z+1	; 0x01
    465c:	00 97       	sbiw	r24, 0x00	; 0
    465e:	a1 f6       	brne	.-88     	; 0x4608 <forward_inv+0x5c6>
    4660:	39 c0       	rjmp	.+114    	; 0x46d4 <forward_inv+0x692>
    4662:	8e 01       	movw	r16, r28
    4664:	0e 5b       	subi	r16, 0xBE	; 190
    4666:	1f 4f       	sbci	r17, 0xFF	; 255
    4668:	ce 01       	movw	r24, r28
    466a:	ce 96       	adiw	r24, 0x3e	; 62
    466c:	fc 01       	movw	r30, r24
    466e:	60 81       	ld	r22, Z
    4670:	71 81       	ldd	r23, Z+1	; 0x01
    4672:	82 81       	ldd	r24, Z+2	; 0x02
    4674:	93 81       	ldd	r25, Z+3	; 0x03
    4676:	0e 94 ec 2b 	call	0x57d8	; 0x57d8 <__fixunssfsi>
    467a:	dc 01       	movw	r26, r24
    467c:	cb 01       	movw	r24, r22
    467e:	f8 01       	movw	r30, r16
    4680:	91 83       	std	Z+1, r25	; 0x01
    4682:	80 83       	st	Z, r24
    4684:	ce 01       	movw	r24, r28
    4686:	8a 5b       	subi	r24, 0xBA	; 186
    4688:	9f 4f       	sbci	r25, 0xFF	; 255
    468a:	9e 01       	movw	r18, r28
    468c:	2e 5b       	subi	r18, 0xBE	; 190
    468e:	3f 4f       	sbci	r19, 0xFF	; 255
    4690:	f9 01       	movw	r30, r18
    4692:	20 81       	ld	r18, Z
    4694:	31 81       	ldd	r19, Z+1	; 0x01
    4696:	fc 01       	movw	r30, r24
    4698:	31 83       	std	Z+1, r19	; 0x01
    469a:	20 83       	st	Z, r18
    469c:	ce 01       	movw	r24, r28
    469e:	8a 5b       	subi	r24, 0xBA	; 186
    46a0:	9f 4f       	sbci	r25, 0xFF	; 255
    46a2:	fc 01       	movw	r30, r24
    46a4:	80 81       	ld	r24, Z
    46a6:	91 81       	ldd	r25, Z+1	; 0x01
    46a8:	01 97       	sbiw	r24, 0x01	; 1
    46aa:	f1 f7       	brne	.-4      	; 0x46a8 <forward_inv+0x666>
    46ac:	9e 01       	movw	r18, r28
    46ae:	2a 5b       	subi	r18, 0xBA	; 186
    46b0:	3f 4f       	sbci	r19, 0xFF	; 255
    46b2:	f9 01       	movw	r30, r18
    46b4:	91 83       	std	Z+1, r25	; 0x01
    46b6:	80 83       	st	Z, r24
    46b8:	0d c0       	rjmp	.+26     	; 0x46d4 <forward_inv+0x692>
    46ba:	80 91 6c 02 	lds	r24, 0x026C
    46be:	84 36       	cpi	r24, 0x64	; 100
    46c0:	48 f4       	brcc	.+18     	; 0x46d4 <forward_inv+0x692>
    46c2:	80 91 69 02 	lds	r24, 0x0269
    46c6:	85 36       	cpi	r24, 0x65	; 101
    46c8:	28 f0       	brcs	.+10     	; 0x46d4 <forward_inv+0x692>
    46ca:	80 91 74 02 	lds	r24, 0x0274
    46ce:	84 36       	cpi	r24, 0x64	; 100
    46d0:	08 f4       	brcc	.+2      	; 0x46d4 <forward_inv+0x692>
    46d2:	01 c0       	rjmp	.+2      	; 0x46d6 <forward_inv+0x694>
    46d4:	d2 cc       	rjmp	.-1628   	; 0x407a <forward_inv+0x38>
    46d6:	61 e0       	ldi	r22, 0x01	; 1
    46d8:	70 e0       	ldi	r23, 0x00	; 0
    46da:	82 e0       	ldi	r24, 0x02	; 2
    46dc:	90 e0       	ldi	r25, 0x00	; 0
    46de:	f7 d9       	rcall	.-3090   	; 0x3ace <forward_wls>
    46e0:	c9 5b       	subi	r28, 0xB9	; 185
    46e2:	df 4f       	sbci	r29, 0xFF	; 255
    46e4:	0f b6       	in	r0, 0x3f	; 63
    46e6:	f8 94       	cli
    46e8:	de bf       	out	0x3e, r29	; 62
    46ea:	0f be       	out	0x3f, r0	; 63
    46ec:	cd bf       	out	0x3d, r28	; 61
    46ee:	df 91       	pop	r29
    46f0:	cf 91       	pop	r28
    46f2:	1f 91       	pop	r17
    46f4:	0f 91       	pop	r16
    46f6:	08 95       	ret

000046f8 <right_turn_wls>:
    46f8:	cf 93       	push	r28
    46fa:	df 93       	push	r29
    46fc:	cd b7       	in	r28, 0x3d	; 61
    46fe:	de b7       	in	r29, 0x3e	; 62
    4700:	e8 97       	sbiw	r28, 0x38	; 56
    4702:	0f b6       	in	r0, 0x3f	; 63
    4704:	f8 94       	cli
    4706:	de bf       	out	0x3e, r29	; 62
    4708:	0f be       	out	0x3f, r0	; 63
    470a:	cd bf       	out	0x3d, r28	; 61
    470c:	0e 94 8c 0d 	call	0x1b18	; 0x1b18 <forward>
    4710:	80 e0       	ldi	r24, 0x00	; 0
    4712:	90 e0       	ldi	r25, 0x00	; 0
    4714:	aa e7       	ldi	r26, 0x7A	; 122
    4716:	b3 e4       	ldi	r27, 0x43	; 67
    4718:	89 83       	std	Y+1, r24	; 0x01
    471a:	9a 83       	std	Y+2, r25	; 0x02
    471c:	ab 83       	std	Y+3, r26	; 0x03
    471e:	bc 83       	std	Y+4, r27	; 0x04
    4720:	26 e6       	ldi	r18, 0x66	; 102
    4722:	36 e6       	ldi	r19, 0x66	; 102
    4724:	46 e6       	ldi	r20, 0x66	; 102
    4726:	55 e4       	ldi	r21, 0x45	; 69
    4728:	69 81       	ldd	r22, Y+1	; 0x01
    472a:	7a 81       	ldd	r23, Y+2	; 0x02
    472c:	8b 81       	ldd	r24, Y+3	; 0x03
    472e:	9c 81       	ldd	r25, Y+4	; 0x04
    4730:	0e 94 ce 2c 	call	0x599c	; 0x599c <__mulsf3>
    4734:	dc 01       	movw	r26, r24
    4736:	cb 01       	movw	r24, r22
    4738:	8d 83       	std	Y+5, r24	; 0x05
    473a:	9e 83       	std	Y+6, r25	; 0x06
    473c:	af 83       	std	Y+7, r26	; 0x07
    473e:	b8 87       	std	Y+8, r27	; 0x08
    4740:	20 e0       	ldi	r18, 0x00	; 0
    4742:	30 e0       	ldi	r19, 0x00	; 0
    4744:	40 e8       	ldi	r20, 0x80	; 128
    4746:	5f e3       	ldi	r21, 0x3F	; 63
    4748:	6d 81       	ldd	r22, Y+5	; 0x05
    474a:	7e 81       	ldd	r23, Y+6	; 0x06
    474c:	8f 81       	ldd	r24, Y+7	; 0x07
    474e:	98 85       	ldd	r25, Y+8	; 0x08
    4750:	d7 d7       	rcall	.+4014   	; 0x5700 <__cmpsf2>
    4752:	88 23       	and	r24, r24
    4754:	2c f4       	brge	.+10     	; 0x4760 <right_turn_wls+0x68>
    4756:	81 e0       	ldi	r24, 0x01	; 1
    4758:	90 e0       	ldi	r25, 0x00	; 0
    475a:	9a 87       	std	Y+10, r25	; 0x0a
    475c:	89 87       	std	Y+9, r24	; 0x09
    475e:	3f c0       	rjmp	.+126    	; 0x47de <right_turn_wls+0xe6>
    4760:	20 e0       	ldi	r18, 0x00	; 0
    4762:	3f ef       	ldi	r19, 0xFF	; 255
    4764:	4f e7       	ldi	r20, 0x7F	; 127
    4766:	57 e4       	ldi	r21, 0x47	; 71
    4768:	6d 81       	ldd	r22, Y+5	; 0x05
    476a:	7e 81       	ldd	r23, Y+6	; 0x06
    476c:	8f 81       	ldd	r24, Y+7	; 0x07
    476e:	98 85       	ldd	r25, Y+8	; 0x08
    4770:	0e 94 ca 2c 	call	0x5994	; 0x5994 <__gesf2>
    4774:	18 16       	cp	r1, r24
    4776:	4c f5       	brge	.+82     	; 0x47ca <right_turn_wls+0xd2>
    4778:	20 e0       	ldi	r18, 0x00	; 0
    477a:	30 e0       	ldi	r19, 0x00	; 0
    477c:	40 e2       	ldi	r20, 0x20	; 32
    477e:	51 e4       	ldi	r21, 0x41	; 65
    4780:	69 81       	ldd	r22, Y+1	; 0x01
    4782:	7a 81       	ldd	r23, Y+2	; 0x02
    4784:	8b 81       	ldd	r24, Y+3	; 0x03
    4786:	9c 81       	ldd	r25, Y+4	; 0x04
    4788:	0e 94 ce 2c 	call	0x599c	; 0x599c <__mulsf3>
    478c:	dc 01       	movw	r26, r24
    478e:	cb 01       	movw	r24, r22
    4790:	bc 01       	movw	r22, r24
    4792:	cd 01       	movw	r24, r26
    4794:	0e 94 ec 2b 	call	0x57d8	; 0x57d8 <__fixunssfsi>
    4798:	dc 01       	movw	r26, r24
    479a:	cb 01       	movw	r24, r22
    479c:	9a 87       	std	Y+10, r25	; 0x0a
    479e:	89 87       	std	Y+9, r24	; 0x09
    47a0:	0f c0       	rjmp	.+30     	; 0x47c0 <right_turn_wls+0xc8>
    47a2:	80 e7       	ldi	r24, 0x70	; 112
    47a4:	91 e0       	ldi	r25, 0x01	; 1
    47a6:	9c 87       	std	Y+12, r25	; 0x0c
    47a8:	8b 87       	std	Y+11, r24	; 0x0b
    47aa:	8b 85       	ldd	r24, Y+11	; 0x0b
    47ac:	9c 85       	ldd	r25, Y+12	; 0x0c
    47ae:	01 97       	sbiw	r24, 0x01	; 1
    47b0:	f1 f7       	brne	.-4      	; 0x47ae <right_turn_wls+0xb6>
    47b2:	9c 87       	std	Y+12, r25	; 0x0c
    47b4:	8b 87       	std	Y+11, r24	; 0x0b
    47b6:	89 85       	ldd	r24, Y+9	; 0x09
    47b8:	9a 85       	ldd	r25, Y+10	; 0x0a
    47ba:	01 97       	sbiw	r24, 0x01	; 1
    47bc:	9a 87       	std	Y+10, r25	; 0x0a
    47be:	89 87       	std	Y+9, r24	; 0x09
    47c0:	89 85       	ldd	r24, Y+9	; 0x09
    47c2:	9a 85       	ldd	r25, Y+10	; 0x0a
    47c4:	00 97       	sbiw	r24, 0x00	; 0
    47c6:	69 f7       	brne	.-38     	; 0x47a2 <right_turn_wls+0xaa>
    47c8:	14 c0       	rjmp	.+40     	; 0x47f2 <right_turn_wls+0xfa>
    47ca:	6d 81       	ldd	r22, Y+5	; 0x05
    47cc:	7e 81       	ldd	r23, Y+6	; 0x06
    47ce:	8f 81       	ldd	r24, Y+7	; 0x07
    47d0:	98 85       	ldd	r25, Y+8	; 0x08
    47d2:	0e 94 ec 2b 	call	0x57d8	; 0x57d8 <__fixunssfsi>
    47d6:	dc 01       	movw	r26, r24
    47d8:	cb 01       	movw	r24, r22
    47da:	9a 87       	std	Y+10, r25	; 0x0a
    47dc:	89 87       	std	Y+9, r24	; 0x09
    47de:	89 85       	ldd	r24, Y+9	; 0x09
    47e0:	9a 85       	ldd	r25, Y+10	; 0x0a
    47e2:	9e 87       	std	Y+14, r25	; 0x0e
    47e4:	8d 87       	std	Y+13, r24	; 0x0d
    47e6:	8d 85       	ldd	r24, Y+13	; 0x0d
    47e8:	9e 85       	ldd	r25, Y+14	; 0x0e
    47ea:	01 97       	sbiw	r24, 0x01	; 1
    47ec:	f1 f7       	brne	.-4      	; 0x47ea <right_turn_wls+0xf2>
    47ee:	9e 87       	std	Y+14, r25	; 0x0e
    47f0:	8d 87       	std	Y+13, r24	; 0x0d
    47f2:	0e 94 95 0d 	call	0x1b2a	; 0x1b2a <right>
    47f6:	80 e0       	ldi	r24, 0x00	; 0
    47f8:	90 e0       	ldi	r25, 0x00	; 0
    47fa:	a8 e4       	ldi	r26, 0x48	; 72
    47fc:	b3 e4       	ldi	r27, 0x43	; 67
    47fe:	8f 87       	std	Y+15, r24	; 0x0f
    4800:	98 8b       	std	Y+16, r25	; 0x10
    4802:	a9 8b       	std	Y+17, r26	; 0x11
    4804:	ba 8b       	std	Y+18, r27	; 0x12
    4806:	26 e6       	ldi	r18, 0x66	; 102
    4808:	36 e6       	ldi	r19, 0x66	; 102
    480a:	46 e6       	ldi	r20, 0x66	; 102
    480c:	55 e4       	ldi	r21, 0x45	; 69
    480e:	6f 85       	ldd	r22, Y+15	; 0x0f
    4810:	78 89       	ldd	r23, Y+16	; 0x10
    4812:	89 89       	ldd	r24, Y+17	; 0x11
    4814:	9a 89       	ldd	r25, Y+18	; 0x12
    4816:	0e 94 ce 2c 	call	0x599c	; 0x599c <__mulsf3>
    481a:	dc 01       	movw	r26, r24
    481c:	cb 01       	movw	r24, r22
    481e:	8b 8b       	std	Y+19, r24	; 0x13
    4820:	9c 8b       	std	Y+20, r25	; 0x14
    4822:	ad 8b       	std	Y+21, r26	; 0x15
    4824:	be 8b       	std	Y+22, r27	; 0x16
    4826:	20 e0       	ldi	r18, 0x00	; 0
    4828:	30 e0       	ldi	r19, 0x00	; 0
    482a:	40 e8       	ldi	r20, 0x80	; 128
    482c:	5f e3       	ldi	r21, 0x3F	; 63
    482e:	6b 89       	ldd	r22, Y+19	; 0x13
    4830:	7c 89       	ldd	r23, Y+20	; 0x14
    4832:	8d 89       	ldd	r24, Y+21	; 0x15
    4834:	9e 89       	ldd	r25, Y+22	; 0x16
    4836:	64 d7       	rcall	.+3784   	; 0x5700 <__cmpsf2>
    4838:	88 23       	and	r24, r24
    483a:	2c f4       	brge	.+10     	; 0x4846 <right_turn_wls+0x14e>
    483c:	81 e0       	ldi	r24, 0x01	; 1
    483e:	90 e0       	ldi	r25, 0x00	; 0
    4840:	98 8f       	std	Y+24, r25	; 0x18
    4842:	8f 8b       	std	Y+23, r24	; 0x17
    4844:	3d c0       	rjmp	.+122    	; 0x48c0 <right_turn_wls+0x1c8>
    4846:	20 e0       	ldi	r18, 0x00	; 0
    4848:	3f ef       	ldi	r19, 0xFF	; 255
    484a:	4f e7       	ldi	r20, 0x7F	; 127
    484c:	57 e4       	ldi	r21, 0x47	; 71
    484e:	6b 89       	ldd	r22, Y+19	; 0x13
    4850:	7c 89       	ldd	r23, Y+20	; 0x14
    4852:	8d 89       	ldd	r24, Y+21	; 0x15
    4854:	9e 89       	ldd	r25, Y+22	; 0x16
    4856:	0e 94 ca 2c 	call	0x5994	; 0x5994 <__gesf2>
    485a:	18 16       	cp	r1, r24
    485c:	44 f5       	brge	.+80     	; 0x48ae <right_turn_wls+0x1b6>
    485e:	20 e0       	ldi	r18, 0x00	; 0
    4860:	30 e0       	ldi	r19, 0x00	; 0
    4862:	40 e2       	ldi	r20, 0x20	; 32
    4864:	51 e4       	ldi	r21, 0x41	; 65
    4866:	6f 85       	ldd	r22, Y+15	; 0x0f
    4868:	78 89       	ldd	r23, Y+16	; 0x10
    486a:	89 89       	ldd	r24, Y+17	; 0x11
    486c:	9a 89       	ldd	r25, Y+18	; 0x12
    486e:	0e 94 ce 2c 	call	0x599c	; 0x599c <__mulsf3>
    4872:	dc 01       	movw	r26, r24
    4874:	cb 01       	movw	r24, r22
    4876:	bc 01       	movw	r22, r24
    4878:	cd 01       	movw	r24, r26
    487a:	ae d7       	rcall	.+3932   	; 0x57d8 <__fixunssfsi>
    487c:	dc 01       	movw	r26, r24
    487e:	cb 01       	movw	r24, r22
    4880:	98 8f       	std	Y+24, r25	; 0x18
    4882:	8f 8b       	std	Y+23, r24	; 0x17
    4884:	0f c0       	rjmp	.+30     	; 0x48a4 <right_turn_wls+0x1ac>
    4886:	80 e7       	ldi	r24, 0x70	; 112
    4888:	91 e0       	ldi	r25, 0x01	; 1
    488a:	9a 8f       	std	Y+26, r25	; 0x1a
    488c:	89 8f       	std	Y+25, r24	; 0x19
    488e:	89 8d       	ldd	r24, Y+25	; 0x19
    4890:	9a 8d       	ldd	r25, Y+26	; 0x1a
    4892:	01 97       	sbiw	r24, 0x01	; 1
    4894:	f1 f7       	brne	.-4      	; 0x4892 <right_turn_wls+0x19a>
    4896:	9a 8f       	std	Y+26, r25	; 0x1a
    4898:	89 8f       	std	Y+25, r24	; 0x19
    489a:	8f 89       	ldd	r24, Y+23	; 0x17
    489c:	98 8d       	ldd	r25, Y+24	; 0x18
    489e:	01 97       	sbiw	r24, 0x01	; 1
    48a0:	98 8f       	std	Y+24, r25	; 0x18
    48a2:	8f 8b       	std	Y+23, r24	; 0x17
    48a4:	8f 89       	ldd	r24, Y+23	; 0x17
    48a6:	98 8d       	ldd	r25, Y+24	; 0x18
    48a8:	00 97       	sbiw	r24, 0x00	; 0
    48aa:	69 f7       	brne	.-38     	; 0x4886 <right_turn_wls+0x18e>
    48ac:	13 c0       	rjmp	.+38     	; 0x48d4 <right_turn_wls+0x1dc>
    48ae:	6b 89       	ldd	r22, Y+19	; 0x13
    48b0:	7c 89       	ldd	r23, Y+20	; 0x14
    48b2:	8d 89       	ldd	r24, Y+21	; 0x15
    48b4:	9e 89       	ldd	r25, Y+22	; 0x16
    48b6:	90 d7       	rcall	.+3872   	; 0x57d8 <__fixunssfsi>
    48b8:	dc 01       	movw	r26, r24
    48ba:	cb 01       	movw	r24, r22
    48bc:	98 8f       	std	Y+24, r25	; 0x18
    48be:	8f 8b       	std	Y+23, r24	; 0x17
    48c0:	8f 89       	ldd	r24, Y+23	; 0x17
    48c2:	98 8d       	ldd	r25, Y+24	; 0x18
    48c4:	9c 8f       	std	Y+28, r25	; 0x1c
    48c6:	8b 8f       	std	Y+27, r24	; 0x1b
    48c8:	8b 8d       	ldd	r24, Y+27	; 0x1b
    48ca:	9c 8d       	ldd	r25, Y+28	; 0x1c
    48cc:	01 97       	sbiw	r24, 0x01	; 1
    48ce:	f1 f7       	brne	.-4      	; 0x48cc <right_turn_wls+0x1d4>
    48d0:	9c 8f       	std	Y+28, r25	; 0x1c
    48d2:	8b 8f       	std	Y+27, r24	; 0x1b
    48d4:	0e 94 b9 0d 	call	0x1b72	; 0x1b72 <stop>
    48d8:	80 e0       	ldi	r24, 0x00	; 0
    48da:	90 e0       	ldi	r25, 0x00	; 0
    48dc:	a8 e4       	ldi	r26, 0x48	; 72
    48de:	b2 e4       	ldi	r27, 0x42	; 66
    48e0:	8d 8f       	std	Y+29, r24	; 0x1d
    48e2:	9e 8f       	std	Y+30, r25	; 0x1e
    48e4:	af 8f       	std	Y+31, r26	; 0x1f
    48e6:	b8 a3       	std	Y+32, r27	; 0x20
    48e8:	26 e6       	ldi	r18, 0x66	; 102
    48ea:	36 e6       	ldi	r19, 0x66	; 102
    48ec:	46 e6       	ldi	r20, 0x66	; 102
    48ee:	55 e4       	ldi	r21, 0x45	; 69
    48f0:	6d 8d       	ldd	r22, Y+29	; 0x1d
    48f2:	7e 8d       	ldd	r23, Y+30	; 0x1e
    48f4:	8f 8d       	ldd	r24, Y+31	; 0x1f
    48f6:	98 a1       	ldd	r25, Y+32	; 0x20
    48f8:	0e 94 ce 2c 	call	0x599c	; 0x599c <__mulsf3>
    48fc:	dc 01       	movw	r26, r24
    48fe:	cb 01       	movw	r24, r22
    4900:	89 a3       	std	Y+33, r24	; 0x21
    4902:	9a a3       	std	Y+34, r25	; 0x22
    4904:	ab a3       	std	Y+35, r26	; 0x23
    4906:	bc a3       	std	Y+36, r27	; 0x24
    4908:	20 e0       	ldi	r18, 0x00	; 0
    490a:	30 e0       	ldi	r19, 0x00	; 0
    490c:	40 e8       	ldi	r20, 0x80	; 128
    490e:	5f e3       	ldi	r21, 0x3F	; 63
    4910:	69 a1       	ldd	r22, Y+33	; 0x21
    4912:	7a a1       	ldd	r23, Y+34	; 0x22
    4914:	8b a1       	ldd	r24, Y+35	; 0x23
    4916:	9c a1       	ldd	r25, Y+36	; 0x24
    4918:	f3 d6       	rcall	.+3558   	; 0x5700 <__cmpsf2>
    491a:	88 23       	and	r24, r24
    491c:	2c f4       	brge	.+10     	; 0x4928 <right_turn_wls+0x230>
    491e:	81 e0       	ldi	r24, 0x01	; 1
    4920:	90 e0       	ldi	r25, 0x00	; 0
    4922:	9e a3       	std	Y+38, r25	; 0x26
    4924:	8d a3       	std	Y+37, r24	; 0x25
    4926:	3d c0       	rjmp	.+122    	; 0x49a2 <right_turn_wls+0x2aa>
    4928:	20 e0       	ldi	r18, 0x00	; 0
    492a:	3f ef       	ldi	r19, 0xFF	; 255
    492c:	4f e7       	ldi	r20, 0x7F	; 127
    492e:	57 e4       	ldi	r21, 0x47	; 71
    4930:	69 a1       	ldd	r22, Y+33	; 0x21
    4932:	7a a1       	ldd	r23, Y+34	; 0x22
    4934:	8b a1       	ldd	r24, Y+35	; 0x23
    4936:	9c a1       	ldd	r25, Y+36	; 0x24
    4938:	0e 94 ca 2c 	call	0x5994	; 0x5994 <__gesf2>
    493c:	18 16       	cp	r1, r24
    493e:	44 f5       	brge	.+80     	; 0x4990 <right_turn_wls+0x298>
    4940:	20 e0       	ldi	r18, 0x00	; 0
    4942:	30 e0       	ldi	r19, 0x00	; 0
    4944:	40 e2       	ldi	r20, 0x20	; 32
    4946:	51 e4       	ldi	r21, 0x41	; 65
    4948:	6d 8d       	ldd	r22, Y+29	; 0x1d
    494a:	7e 8d       	ldd	r23, Y+30	; 0x1e
    494c:	8f 8d       	ldd	r24, Y+31	; 0x1f
    494e:	98 a1       	ldd	r25, Y+32	; 0x20
    4950:	0e 94 ce 2c 	call	0x599c	; 0x599c <__mulsf3>
    4954:	dc 01       	movw	r26, r24
    4956:	cb 01       	movw	r24, r22
    4958:	bc 01       	movw	r22, r24
    495a:	cd 01       	movw	r24, r26
    495c:	3d d7       	rcall	.+3706   	; 0x57d8 <__fixunssfsi>
    495e:	dc 01       	movw	r26, r24
    4960:	cb 01       	movw	r24, r22
    4962:	9e a3       	std	Y+38, r25	; 0x26
    4964:	8d a3       	std	Y+37, r24	; 0x25
    4966:	0f c0       	rjmp	.+30     	; 0x4986 <right_turn_wls+0x28e>
    4968:	80 e7       	ldi	r24, 0x70	; 112
    496a:	91 e0       	ldi	r25, 0x01	; 1
    496c:	98 a7       	std	Y+40, r25	; 0x28
    496e:	8f a3       	std	Y+39, r24	; 0x27
    4970:	8f a1       	ldd	r24, Y+39	; 0x27
    4972:	98 a5       	ldd	r25, Y+40	; 0x28
    4974:	01 97       	sbiw	r24, 0x01	; 1
    4976:	f1 f7       	brne	.-4      	; 0x4974 <right_turn_wls+0x27c>
    4978:	98 a7       	std	Y+40, r25	; 0x28
    497a:	8f a3       	std	Y+39, r24	; 0x27
    497c:	8d a1       	ldd	r24, Y+37	; 0x25
    497e:	9e a1       	ldd	r25, Y+38	; 0x26
    4980:	01 97       	sbiw	r24, 0x01	; 1
    4982:	9e a3       	std	Y+38, r25	; 0x26
    4984:	8d a3       	std	Y+37, r24	; 0x25
    4986:	8d a1       	ldd	r24, Y+37	; 0x25
    4988:	9e a1       	ldd	r25, Y+38	; 0x26
    498a:	00 97       	sbiw	r24, 0x00	; 0
    498c:	69 f7       	brne	.-38     	; 0x4968 <right_turn_wls+0x270>
    498e:	13 c0       	rjmp	.+38     	; 0x49b6 <right_turn_wls+0x2be>
    4990:	69 a1       	ldd	r22, Y+33	; 0x21
    4992:	7a a1       	ldd	r23, Y+34	; 0x22
    4994:	8b a1       	ldd	r24, Y+35	; 0x23
    4996:	9c a1       	ldd	r25, Y+36	; 0x24
    4998:	1f d7       	rcall	.+3646   	; 0x57d8 <__fixunssfsi>
    499a:	dc 01       	movw	r26, r24
    499c:	cb 01       	movw	r24, r22
    499e:	9e a3       	std	Y+38, r25	; 0x26
    49a0:	8d a3       	std	Y+37, r24	; 0x25
    49a2:	8d a1       	ldd	r24, Y+37	; 0x25
    49a4:	9e a1       	ldd	r25, Y+38	; 0x26
    49a6:	9a a7       	std	Y+42, r25	; 0x2a
    49a8:	89 a7       	std	Y+41, r24	; 0x29
    49aa:	89 a5       	ldd	r24, Y+41	; 0x29
    49ac:	9a a5       	ldd	r25, Y+42	; 0x2a
    49ae:	01 97       	sbiw	r24, 0x01	; 1
    49b0:	f1 f7       	brne	.-4      	; 0x49ae <right_turn_wls+0x2b6>
    49b2:	9a a7       	std	Y+42, r25	; 0x2a
    49b4:	89 a7       	std	Y+41, r24	; 0x29
    49b6:	0e 94 95 0d 	call	0x1b2a	; 0x1b2a <right>
    49ba:	88 e2       	ldi	r24, 0x28	; 40
    49bc:	91 e0       	ldi	r25, 0x01	; 1
    49be:	24 e6       	ldi	r18, 0x64	; 100
    49c0:	fc 01       	movw	r30, r24
    49c2:	20 83       	st	Z, r18
    49c4:	8a e2       	ldi	r24, 0x2A	; 42
    49c6:	91 e0       	ldi	r25, 0x01	; 1
    49c8:	24 e6       	ldi	r18, 0x64	; 100
    49ca:	fc 01       	movw	r30, r24
    49cc:	20 83       	st	Z, r18
    49ce:	83 e0       	ldi	r24, 0x03	; 3
    49d0:	0e 94 47 10 	call	0x208e	; 0x208e <ADC_Conversion>
    49d4:	80 93 6c 02 	sts	0x026C, r24
    49d8:	80 91 6c 02 	lds	r24, 0x026C
    49dc:	80 35       	cpi	r24, 0x50	; 80
    49de:	50 f1       	brcs	.+84     	; 0x4a34 <right_turn_wls+0x33c>
    49e0:	82 e2       	ldi	r24, 0x22	; 34
    49e2:	90 e0       	ldi	r25, 0x00	; 0
    49e4:	fc 01       	movw	r30, r24
    49e6:	10 82       	st	Z, r1
    49e8:	00 00       	nop
    49ea:	0e 94 b9 0d 	call	0x1b72	; 0x1b72 <stop>
    49ee:	80 e0       	ldi	r24, 0x00	; 0
    49f0:	90 e0       	ldi	r25, 0x00	; 0
    49f2:	a8 e4       	ldi	r26, 0x48	; 72
    49f4:	b3 e4       	ldi	r27, 0x43	; 67
    49f6:	8b a7       	std	Y+43, r24	; 0x2b
    49f8:	9c a7       	std	Y+44, r25	; 0x2c
    49fa:	ad a7       	std	Y+45, r26	; 0x2d
    49fc:	be a7       	std	Y+46, r27	; 0x2e
    49fe:	26 e6       	ldi	r18, 0x66	; 102
    4a00:	36 e6       	ldi	r19, 0x66	; 102
    4a02:	46 e6       	ldi	r20, 0x66	; 102
    4a04:	55 e4       	ldi	r21, 0x45	; 69
    4a06:	6b a5       	ldd	r22, Y+43	; 0x2b
    4a08:	7c a5       	ldd	r23, Y+44	; 0x2c
    4a0a:	8d a5       	ldd	r24, Y+45	; 0x2d
    4a0c:	9e a5       	ldd	r25, Y+46	; 0x2e
    4a0e:	c6 d7       	rcall	.+3980   	; 0x599c <__mulsf3>
    4a10:	dc 01       	movw	r26, r24
    4a12:	cb 01       	movw	r24, r22
    4a14:	8f a7       	std	Y+47, r24	; 0x2f
    4a16:	98 ab       	std	Y+48, r25	; 0x30
    4a18:	a9 ab       	std	Y+49, r26	; 0x31
    4a1a:	ba ab       	std	Y+50, r27	; 0x32
    4a1c:	20 e0       	ldi	r18, 0x00	; 0
    4a1e:	30 e0       	ldi	r19, 0x00	; 0
    4a20:	40 e8       	ldi	r20, 0x80	; 128
    4a22:	5f e3       	ldi	r21, 0x3F	; 63
    4a24:	6f a5       	ldd	r22, Y+47	; 0x2f
    4a26:	78 a9       	ldd	r23, Y+48	; 0x30
    4a28:	89 a9       	ldd	r24, Y+49	; 0x31
    4a2a:	9a a9       	ldd	r25, Y+50	; 0x32
    4a2c:	69 d6       	rcall	.+3282   	; 0x5700 <__cmpsf2>
    4a2e:	88 23       	and	r24, r24
    4a30:	14 f0       	brlt	.+4      	; 0x4a36 <right_turn_wls+0x33e>
    4a32:	06 c0       	rjmp	.+12     	; 0x4a40 <right_turn_wls+0x348>
    4a34:	cc cf       	rjmp	.-104    	; 0x49ce <right_turn_wls+0x2d6>
    4a36:	81 e0       	ldi	r24, 0x01	; 1
    4a38:	90 e0       	ldi	r25, 0x00	; 0
    4a3a:	9c ab       	std	Y+52, r25	; 0x34
    4a3c:	8b ab       	std	Y+51, r24	; 0x33
    4a3e:	3b c0       	rjmp	.+118    	; 0x4ab6 <right_turn_wls+0x3be>
    4a40:	20 e0       	ldi	r18, 0x00	; 0
    4a42:	3f ef       	ldi	r19, 0xFF	; 255
    4a44:	4f e7       	ldi	r20, 0x7F	; 127
    4a46:	57 e4       	ldi	r21, 0x47	; 71
    4a48:	6f a5       	ldd	r22, Y+47	; 0x2f
    4a4a:	78 a9       	ldd	r23, Y+48	; 0x30
    4a4c:	89 a9       	ldd	r24, Y+49	; 0x31
    4a4e:	9a a9       	ldd	r25, Y+50	; 0x32
    4a50:	a1 d7       	rcall	.+3906   	; 0x5994 <__gesf2>
    4a52:	18 16       	cp	r1, r24
    4a54:	3c f5       	brge	.+78     	; 0x4aa4 <right_turn_wls+0x3ac>
    4a56:	20 e0       	ldi	r18, 0x00	; 0
    4a58:	30 e0       	ldi	r19, 0x00	; 0
    4a5a:	40 e2       	ldi	r20, 0x20	; 32
    4a5c:	51 e4       	ldi	r21, 0x41	; 65
    4a5e:	6b a5       	ldd	r22, Y+43	; 0x2b
    4a60:	7c a5       	ldd	r23, Y+44	; 0x2c
    4a62:	8d a5       	ldd	r24, Y+45	; 0x2d
    4a64:	9e a5       	ldd	r25, Y+46	; 0x2e
    4a66:	9a d7       	rcall	.+3892   	; 0x599c <__mulsf3>
    4a68:	dc 01       	movw	r26, r24
    4a6a:	cb 01       	movw	r24, r22
    4a6c:	bc 01       	movw	r22, r24
    4a6e:	cd 01       	movw	r24, r26
    4a70:	b3 d6       	rcall	.+3430   	; 0x57d8 <__fixunssfsi>
    4a72:	dc 01       	movw	r26, r24
    4a74:	cb 01       	movw	r24, r22
    4a76:	9c ab       	std	Y+52, r25	; 0x34
    4a78:	8b ab       	std	Y+51, r24	; 0x33
    4a7a:	0f c0       	rjmp	.+30     	; 0x4a9a <right_turn_wls+0x3a2>
    4a7c:	80 e7       	ldi	r24, 0x70	; 112
    4a7e:	91 e0       	ldi	r25, 0x01	; 1
    4a80:	9e ab       	std	Y+54, r25	; 0x36
    4a82:	8d ab       	std	Y+53, r24	; 0x35
    4a84:	8d a9       	ldd	r24, Y+53	; 0x35
    4a86:	9e a9       	ldd	r25, Y+54	; 0x36
    4a88:	01 97       	sbiw	r24, 0x01	; 1
    4a8a:	f1 f7       	brne	.-4      	; 0x4a88 <right_turn_wls+0x390>
    4a8c:	9e ab       	std	Y+54, r25	; 0x36
    4a8e:	8d ab       	std	Y+53, r24	; 0x35
    4a90:	8b a9       	ldd	r24, Y+51	; 0x33
    4a92:	9c a9       	ldd	r25, Y+52	; 0x34
    4a94:	01 97       	sbiw	r24, 0x01	; 1
    4a96:	9c ab       	std	Y+52, r25	; 0x34
    4a98:	8b ab       	std	Y+51, r24	; 0x33
    4a9a:	8b a9       	ldd	r24, Y+51	; 0x33
    4a9c:	9c a9       	ldd	r25, Y+52	; 0x34
    4a9e:	00 97       	sbiw	r24, 0x00	; 0
    4aa0:	69 f7       	brne	.-38     	; 0x4a7c <right_turn_wls+0x384>
    4aa2:	13 c0       	rjmp	.+38     	; 0x4aca <right_turn_wls+0x3d2>
    4aa4:	6f a5       	ldd	r22, Y+47	; 0x2f
    4aa6:	78 a9       	ldd	r23, Y+48	; 0x30
    4aa8:	89 a9       	ldd	r24, Y+49	; 0x31
    4aaa:	9a a9       	ldd	r25, Y+50	; 0x32
    4aac:	95 d6       	rcall	.+3370   	; 0x57d8 <__fixunssfsi>
    4aae:	dc 01       	movw	r26, r24
    4ab0:	cb 01       	movw	r24, r22
    4ab2:	9c ab       	std	Y+52, r25	; 0x34
    4ab4:	8b ab       	std	Y+51, r24	; 0x33
    4ab6:	8b a9       	ldd	r24, Y+51	; 0x33
    4ab8:	9c a9       	ldd	r25, Y+52	; 0x34
    4aba:	98 af       	std	Y+56, r25	; 0x38
    4abc:	8f ab       	std	Y+55, r24	; 0x37
    4abe:	8f a9       	ldd	r24, Y+55	; 0x37
    4ac0:	98 ad       	ldd	r25, Y+56	; 0x38
    4ac2:	01 97       	sbiw	r24, 0x01	; 1
    4ac4:	f1 f7       	brne	.-4      	; 0x4ac2 <right_turn_wls+0x3ca>
    4ac6:	98 af       	std	Y+56, r25	; 0x38
    4ac8:	8f ab       	std	Y+55, r24	; 0x37
    4aca:	88 e2       	ldi	r24, 0x28	; 40
    4acc:	91 e0       	ldi	r25, 0x01	; 1
    4ace:	20 91 00 02 	lds	r18, 0x0200
    4ad2:	fc 01       	movw	r30, r24
    4ad4:	20 83       	st	Z, r18
    4ad6:	8a e2       	ldi	r24, 0x2A	; 42
    4ad8:	91 e0       	ldi	r25, 0x01	; 1
    4ada:	20 91 00 02 	lds	r18, 0x0200
    4ade:	fc 01       	movw	r30, r24
    4ae0:	20 83       	st	Z, r18
    4ae2:	e8 96       	adiw	r28, 0x38	; 56
    4ae4:	0f b6       	in	r0, 0x3f	; 63
    4ae6:	f8 94       	cli
    4ae8:	de bf       	out	0x3e, r29	; 62
    4aea:	0f be       	out	0x3f, r0	; 63
    4aec:	cd bf       	out	0x3d, r28	; 61
    4aee:	df 91       	pop	r29
    4af0:	cf 91       	pop	r28
    4af2:	08 95       	ret

00004af4 <right_turn_wls_bwall>:
    4af4:	cf 93       	push	r28
    4af6:	df 93       	push	r29
    4af8:	cd b7       	in	r28, 0x3d	; 61
    4afa:	de b7       	in	r29, 0x3e	; 62
    4afc:	e8 97       	sbiw	r28, 0x38	; 56
    4afe:	0f b6       	in	r0, 0x3f	; 63
    4b00:	f8 94       	cli
    4b02:	de bf       	out	0x3e, r29	; 62
    4b04:	0f be       	out	0x3f, r0	; 63
    4b06:	cd bf       	out	0x3d, r28	; 61
    4b08:	0e 94 95 0d 	call	0x1b2a	; 0x1b2a <right>
    4b0c:	80 e0       	ldi	r24, 0x00	; 0
    4b0e:	90 e0       	ldi	r25, 0x00	; 0
    4b10:	a8 e4       	ldi	r26, 0x48	; 72
    4b12:	b3 e4       	ldi	r27, 0x43	; 67
    4b14:	89 83       	std	Y+1, r24	; 0x01
    4b16:	9a 83       	std	Y+2, r25	; 0x02
    4b18:	ab 83       	std	Y+3, r26	; 0x03
    4b1a:	bc 83       	std	Y+4, r27	; 0x04
    4b1c:	26 e6       	ldi	r18, 0x66	; 102
    4b1e:	36 e6       	ldi	r19, 0x66	; 102
    4b20:	46 e6       	ldi	r20, 0x66	; 102
    4b22:	55 e4       	ldi	r21, 0x45	; 69
    4b24:	69 81       	ldd	r22, Y+1	; 0x01
    4b26:	7a 81       	ldd	r23, Y+2	; 0x02
    4b28:	8b 81       	ldd	r24, Y+3	; 0x03
    4b2a:	9c 81       	ldd	r25, Y+4	; 0x04
    4b2c:	37 d7       	rcall	.+3694   	; 0x599c <__mulsf3>
    4b2e:	dc 01       	movw	r26, r24
    4b30:	cb 01       	movw	r24, r22
    4b32:	8d 83       	std	Y+5, r24	; 0x05
    4b34:	9e 83       	std	Y+6, r25	; 0x06
    4b36:	af 83       	std	Y+7, r26	; 0x07
    4b38:	b8 87       	std	Y+8, r27	; 0x08
    4b3a:	20 e0       	ldi	r18, 0x00	; 0
    4b3c:	30 e0       	ldi	r19, 0x00	; 0
    4b3e:	40 e8       	ldi	r20, 0x80	; 128
    4b40:	5f e3       	ldi	r21, 0x3F	; 63
    4b42:	6d 81       	ldd	r22, Y+5	; 0x05
    4b44:	7e 81       	ldd	r23, Y+6	; 0x06
    4b46:	8f 81       	ldd	r24, Y+7	; 0x07
    4b48:	98 85       	ldd	r25, Y+8	; 0x08
    4b4a:	da d5       	rcall	.+2996   	; 0x5700 <__cmpsf2>
    4b4c:	88 23       	and	r24, r24
    4b4e:	2c f4       	brge	.+10     	; 0x4b5a <right_turn_wls_bwall+0x66>
    4b50:	81 e0       	ldi	r24, 0x01	; 1
    4b52:	90 e0       	ldi	r25, 0x00	; 0
    4b54:	9a 87       	std	Y+10, r25	; 0x0a
    4b56:	89 87       	std	Y+9, r24	; 0x09
    4b58:	3b c0       	rjmp	.+118    	; 0x4bd0 <right_turn_wls_bwall+0xdc>
    4b5a:	20 e0       	ldi	r18, 0x00	; 0
    4b5c:	3f ef       	ldi	r19, 0xFF	; 255
    4b5e:	4f e7       	ldi	r20, 0x7F	; 127
    4b60:	57 e4       	ldi	r21, 0x47	; 71
    4b62:	6d 81       	ldd	r22, Y+5	; 0x05
    4b64:	7e 81       	ldd	r23, Y+6	; 0x06
    4b66:	8f 81       	ldd	r24, Y+7	; 0x07
    4b68:	98 85       	ldd	r25, Y+8	; 0x08
    4b6a:	14 d7       	rcall	.+3624   	; 0x5994 <__gesf2>
    4b6c:	18 16       	cp	r1, r24
    4b6e:	3c f5       	brge	.+78     	; 0x4bbe <right_turn_wls_bwall+0xca>
    4b70:	20 e0       	ldi	r18, 0x00	; 0
    4b72:	30 e0       	ldi	r19, 0x00	; 0
    4b74:	40 e2       	ldi	r20, 0x20	; 32
    4b76:	51 e4       	ldi	r21, 0x41	; 65
    4b78:	69 81       	ldd	r22, Y+1	; 0x01
    4b7a:	7a 81       	ldd	r23, Y+2	; 0x02
    4b7c:	8b 81       	ldd	r24, Y+3	; 0x03
    4b7e:	9c 81       	ldd	r25, Y+4	; 0x04
    4b80:	0d d7       	rcall	.+3610   	; 0x599c <__mulsf3>
    4b82:	dc 01       	movw	r26, r24
    4b84:	cb 01       	movw	r24, r22
    4b86:	bc 01       	movw	r22, r24
    4b88:	cd 01       	movw	r24, r26
    4b8a:	26 d6       	rcall	.+3148   	; 0x57d8 <__fixunssfsi>
    4b8c:	dc 01       	movw	r26, r24
    4b8e:	cb 01       	movw	r24, r22
    4b90:	9a 87       	std	Y+10, r25	; 0x0a
    4b92:	89 87       	std	Y+9, r24	; 0x09
    4b94:	0f c0       	rjmp	.+30     	; 0x4bb4 <right_turn_wls_bwall+0xc0>
    4b96:	80 e7       	ldi	r24, 0x70	; 112
    4b98:	91 e0       	ldi	r25, 0x01	; 1
    4b9a:	9c 87       	std	Y+12, r25	; 0x0c
    4b9c:	8b 87       	std	Y+11, r24	; 0x0b
    4b9e:	8b 85       	ldd	r24, Y+11	; 0x0b
    4ba0:	9c 85       	ldd	r25, Y+12	; 0x0c
    4ba2:	01 97       	sbiw	r24, 0x01	; 1
    4ba4:	f1 f7       	brne	.-4      	; 0x4ba2 <right_turn_wls_bwall+0xae>
    4ba6:	9c 87       	std	Y+12, r25	; 0x0c
    4ba8:	8b 87       	std	Y+11, r24	; 0x0b
    4baa:	89 85       	ldd	r24, Y+9	; 0x09
    4bac:	9a 85       	ldd	r25, Y+10	; 0x0a
    4bae:	01 97       	sbiw	r24, 0x01	; 1
    4bb0:	9a 87       	std	Y+10, r25	; 0x0a
    4bb2:	89 87       	std	Y+9, r24	; 0x09
    4bb4:	89 85       	ldd	r24, Y+9	; 0x09
    4bb6:	9a 85       	ldd	r25, Y+10	; 0x0a
    4bb8:	00 97       	sbiw	r24, 0x00	; 0
    4bba:	69 f7       	brne	.-38     	; 0x4b96 <right_turn_wls_bwall+0xa2>
    4bbc:	13 c0       	rjmp	.+38     	; 0x4be4 <right_turn_wls_bwall+0xf0>
    4bbe:	6d 81       	ldd	r22, Y+5	; 0x05
    4bc0:	7e 81       	ldd	r23, Y+6	; 0x06
    4bc2:	8f 81       	ldd	r24, Y+7	; 0x07
    4bc4:	98 85       	ldd	r25, Y+8	; 0x08
    4bc6:	08 d6       	rcall	.+3088   	; 0x57d8 <__fixunssfsi>
    4bc8:	dc 01       	movw	r26, r24
    4bca:	cb 01       	movw	r24, r22
    4bcc:	9a 87       	std	Y+10, r25	; 0x0a
    4bce:	89 87       	std	Y+9, r24	; 0x09
    4bd0:	89 85       	ldd	r24, Y+9	; 0x09
    4bd2:	9a 85       	ldd	r25, Y+10	; 0x0a
    4bd4:	9e 87       	std	Y+14, r25	; 0x0e
    4bd6:	8d 87       	std	Y+13, r24	; 0x0d
    4bd8:	8d 85       	ldd	r24, Y+13	; 0x0d
    4bda:	9e 85       	ldd	r25, Y+14	; 0x0e
    4bdc:	01 97       	sbiw	r24, 0x01	; 1
    4bde:	f1 f7       	brne	.-4      	; 0x4bdc <right_turn_wls_bwall+0xe8>
    4be0:	9e 87       	std	Y+14, r25	; 0x0e
    4be2:	8d 87       	std	Y+13, r24	; 0x0d
    4be4:	0e 94 b9 0d 	call	0x1b72	; 0x1b72 <stop>
    4be8:	80 e0       	ldi	r24, 0x00	; 0
    4bea:	90 e0       	ldi	r25, 0x00	; 0
    4bec:	a8 e4       	ldi	r26, 0x48	; 72
    4bee:	b2 e4       	ldi	r27, 0x42	; 66
    4bf0:	8f 87       	std	Y+15, r24	; 0x0f
    4bf2:	98 8b       	std	Y+16, r25	; 0x10
    4bf4:	a9 8b       	std	Y+17, r26	; 0x11
    4bf6:	ba 8b       	std	Y+18, r27	; 0x12
    4bf8:	26 e6       	ldi	r18, 0x66	; 102
    4bfa:	36 e6       	ldi	r19, 0x66	; 102
    4bfc:	46 e6       	ldi	r20, 0x66	; 102
    4bfe:	55 e4       	ldi	r21, 0x45	; 69
    4c00:	6f 85       	ldd	r22, Y+15	; 0x0f
    4c02:	78 89       	ldd	r23, Y+16	; 0x10
    4c04:	89 89       	ldd	r24, Y+17	; 0x11
    4c06:	9a 89       	ldd	r25, Y+18	; 0x12
    4c08:	c9 d6       	rcall	.+3474   	; 0x599c <__mulsf3>
    4c0a:	dc 01       	movw	r26, r24
    4c0c:	cb 01       	movw	r24, r22
    4c0e:	8b 8b       	std	Y+19, r24	; 0x13
    4c10:	9c 8b       	std	Y+20, r25	; 0x14
    4c12:	ad 8b       	std	Y+21, r26	; 0x15
    4c14:	be 8b       	std	Y+22, r27	; 0x16
    4c16:	20 e0       	ldi	r18, 0x00	; 0
    4c18:	30 e0       	ldi	r19, 0x00	; 0
    4c1a:	40 e8       	ldi	r20, 0x80	; 128
    4c1c:	5f e3       	ldi	r21, 0x3F	; 63
    4c1e:	6b 89       	ldd	r22, Y+19	; 0x13
    4c20:	7c 89       	ldd	r23, Y+20	; 0x14
    4c22:	8d 89       	ldd	r24, Y+21	; 0x15
    4c24:	9e 89       	ldd	r25, Y+22	; 0x16
    4c26:	6c d5       	rcall	.+2776   	; 0x5700 <__cmpsf2>
    4c28:	88 23       	and	r24, r24
    4c2a:	2c f4       	brge	.+10     	; 0x4c36 <right_turn_wls_bwall+0x142>
    4c2c:	81 e0       	ldi	r24, 0x01	; 1
    4c2e:	90 e0       	ldi	r25, 0x00	; 0
    4c30:	98 8f       	std	Y+24, r25	; 0x18
    4c32:	8f 8b       	std	Y+23, r24	; 0x17
    4c34:	3b c0       	rjmp	.+118    	; 0x4cac <right_turn_wls_bwall+0x1b8>
    4c36:	20 e0       	ldi	r18, 0x00	; 0
    4c38:	3f ef       	ldi	r19, 0xFF	; 255
    4c3a:	4f e7       	ldi	r20, 0x7F	; 127
    4c3c:	57 e4       	ldi	r21, 0x47	; 71
    4c3e:	6b 89       	ldd	r22, Y+19	; 0x13
    4c40:	7c 89       	ldd	r23, Y+20	; 0x14
    4c42:	8d 89       	ldd	r24, Y+21	; 0x15
    4c44:	9e 89       	ldd	r25, Y+22	; 0x16
    4c46:	a6 d6       	rcall	.+3404   	; 0x5994 <__gesf2>
    4c48:	18 16       	cp	r1, r24
    4c4a:	3c f5       	brge	.+78     	; 0x4c9a <right_turn_wls_bwall+0x1a6>
    4c4c:	20 e0       	ldi	r18, 0x00	; 0
    4c4e:	30 e0       	ldi	r19, 0x00	; 0
    4c50:	40 e2       	ldi	r20, 0x20	; 32
    4c52:	51 e4       	ldi	r21, 0x41	; 65
    4c54:	6f 85       	ldd	r22, Y+15	; 0x0f
    4c56:	78 89       	ldd	r23, Y+16	; 0x10
    4c58:	89 89       	ldd	r24, Y+17	; 0x11
    4c5a:	9a 89       	ldd	r25, Y+18	; 0x12
    4c5c:	9f d6       	rcall	.+3390   	; 0x599c <__mulsf3>
    4c5e:	dc 01       	movw	r26, r24
    4c60:	cb 01       	movw	r24, r22
    4c62:	bc 01       	movw	r22, r24
    4c64:	cd 01       	movw	r24, r26
    4c66:	b8 d5       	rcall	.+2928   	; 0x57d8 <__fixunssfsi>
    4c68:	dc 01       	movw	r26, r24
    4c6a:	cb 01       	movw	r24, r22
    4c6c:	98 8f       	std	Y+24, r25	; 0x18
    4c6e:	8f 8b       	std	Y+23, r24	; 0x17
    4c70:	0f c0       	rjmp	.+30     	; 0x4c90 <right_turn_wls_bwall+0x19c>
    4c72:	80 e7       	ldi	r24, 0x70	; 112
    4c74:	91 e0       	ldi	r25, 0x01	; 1
    4c76:	9a 8f       	std	Y+26, r25	; 0x1a
    4c78:	89 8f       	std	Y+25, r24	; 0x19
    4c7a:	89 8d       	ldd	r24, Y+25	; 0x19
    4c7c:	9a 8d       	ldd	r25, Y+26	; 0x1a
    4c7e:	01 97       	sbiw	r24, 0x01	; 1
    4c80:	f1 f7       	brne	.-4      	; 0x4c7e <right_turn_wls_bwall+0x18a>
    4c82:	9a 8f       	std	Y+26, r25	; 0x1a
    4c84:	89 8f       	std	Y+25, r24	; 0x19
    4c86:	8f 89       	ldd	r24, Y+23	; 0x17
    4c88:	98 8d       	ldd	r25, Y+24	; 0x18
    4c8a:	01 97       	sbiw	r24, 0x01	; 1
    4c8c:	98 8f       	std	Y+24, r25	; 0x18
    4c8e:	8f 8b       	std	Y+23, r24	; 0x17
    4c90:	8f 89       	ldd	r24, Y+23	; 0x17
    4c92:	98 8d       	ldd	r25, Y+24	; 0x18
    4c94:	00 97       	sbiw	r24, 0x00	; 0
    4c96:	69 f7       	brne	.-38     	; 0x4c72 <right_turn_wls_bwall+0x17e>
    4c98:	13 c0       	rjmp	.+38     	; 0x4cc0 <right_turn_wls_bwall+0x1cc>
    4c9a:	6b 89       	ldd	r22, Y+19	; 0x13
    4c9c:	7c 89       	ldd	r23, Y+20	; 0x14
    4c9e:	8d 89       	ldd	r24, Y+21	; 0x15
    4ca0:	9e 89       	ldd	r25, Y+22	; 0x16
    4ca2:	9a d5       	rcall	.+2868   	; 0x57d8 <__fixunssfsi>
    4ca4:	dc 01       	movw	r26, r24
    4ca6:	cb 01       	movw	r24, r22
    4ca8:	98 8f       	std	Y+24, r25	; 0x18
    4caa:	8f 8b       	std	Y+23, r24	; 0x17
    4cac:	8f 89       	ldd	r24, Y+23	; 0x17
    4cae:	98 8d       	ldd	r25, Y+24	; 0x18
    4cb0:	9c 8f       	std	Y+28, r25	; 0x1c
    4cb2:	8b 8f       	std	Y+27, r24	; 0x1b
    4cb4:	8b 8d       	ldd	r24, Y+27	; 0x1b
    4cb6:	9c 8d       	ldd	r25, Y+28	; 0x1c
    4cb8:	01 97       	sbiw	r24, 0x01	; 1
    4cba:	f1 f7       	brne	.-4      	; 0x4cb8 <right_turn_wls_bwall+0x1c4>
    4cbc:	9c 8f       	std	Y+28, r25	; 0x1c
    4cbe:	8b 8f       	std	Y+27, r24	; 0x1b
    4cc0:	0e 94 95 0d 	call	0x1b2a	; 0x1b2a <right>
    4cc4:	88 e2       	ldi	r24, 0x28	; 40
    4cc6:	91 e0       	ldi	r25, 0x01	; 1
    4cc8:	24 e6       	ldi	r18, 0x64	; 100
    4cca:	fc 01       	movw	r30, r24
    4ccc:	20 83       	st	Z, r18
    4cce:	8a e2       	ldi	r24, 0x2A	; 42
    4cd0:	91 e0       	ldi	r25, 0x01	; 1
    4cd2:	24 e6       	ldi	r18, 0x64	; 100
    4cd4:	fc 01       	movw	r30, r24
    4cd6:	20 83       	st	Z, r18
    4cd8:	83 e0       	ldi	r24, 0x03	; 3
    4cda:	0e 94 47 10 	call	0x208e	; 0x208e <ADC_Conversion>
    4cde:	80 93 6c 02 	sts	0x026C, r24
    4ce2:	80 91 6c 02 	lds	r24, 0x026C
    4ce6:	80 35       	cpi	r24, 0x50	; 80
    4ce8:	50 f1       	brcs	.+84     	; 0x4d3e <right_turn_wls_bwall+0x24a>
    4cea:	82 e2       	ldi	r24, 0x22	; 34
    4cec:	90 e0       	ldi	r25, 0x00	; 0
    4cee:	fc 01       	movw	r30, r24
    4cf0:	10 82       	st	Z, r1
    4cf2:	00 00       	nop
    4cf4:	0e 94 95 0d 	call	0x1b2a	; 0x1b2a <right>
    4cf8:	80 e0       	ldi	r24, 0x00	; 0
    4cfa:	90 e0       	ldi	r25, 0x00	; 0
    4cfc:	a0 ea       	ldi	r26, 0xA0	; 160
    4cfe:	b0 e4       	ldi	r27, 0x40	; 64
    4d00:	8d 8f       	std	Y+29, r24	; 0x1d
    4d02:	9e 8f       	std	Y+30, r25	; 0x1e
    4d04:	af 8f       	std	Y+31, r26	; 0x1f
    4d06:	b8 a3       	std	Y+32, r27	; 0x20
    4d08:	26 e6       	ldi	r18, 0x66	; 102
    4d0a:	36 e6       	ldi	r19, 0x66	; 102
    4d0c:	46 e6       	ldi	r20, 0x66	; 102
    4d0e:	55 e4       	ldi	r21, 0x45	; 69
    4d10:	6d 8d       	ldd	r22, Y+29	; 0x1d
    4d12:	7e 8d       	ldd	r23, Y+30	; 0x1e
    4d14:	8f 8d       	ldd	r24, Y+31	; 0x1f
    4d16:	98 a1       	ldd	r25, Y+32	; 0x20
    4d18:	41 d6       	rcall	.+3202   	; 0x599c <__mulsf3>
    4d1a:	dc 01       	movw	r26, r24
    4d1c:	cb 01       	movw	r24, r22
    4d1e:	89 a3       	std	Y+33, r24	; 0x21
    4d20:	9a a3       	std	Y+34, r25	; 0x22
    4d22:	ab a3       	std	Y+35, r26	; 0x23
    4d24:	bc a3       	std	Y+36, r27	; 0x24
    4d26:	20 e0       	ldi	r18, 0x00	; 0
    4d28:	30 e0       	ldi	r19, 0x00	; 0
    4d2a:	40 e8       	ldi	r20, 0x80	; 128
    4d2c:	5f e3       	ldi	r21, 0x3F	; 63
    4d2e:	69 a1       	ldd	r22, Y+33	; 0x21
    4d30:	7a a1       	ldd	r23, Y+34	; 0x22
    4d32:	8b a1       	ldd	r24, Y+35	; 0x23
    4d34:	9c a1       	ldd	r25, Y+36	; 0x24
    4d36:	e4 d4       	rcall	.+2504   	; 0x5700 <__cmpsf2>
    4d38:	88 23       	and	r24, r24
    4d3a:	14 f0       	brlt	.+4      	; 0x4d40 <right_turn_wls_bwall+0x24c>
    4d3c:	06 c0       	rjmp	.+12     	; 0x4d4a <right_turn_wls_bwall+0x256>
    4d3e:	cc cf       	rjmp	.-104    	; 0x4cd8 <right_turn_wls_bwall+0x1e4>
    4d40:	81 e0       	ldi	r24, 0x01	; 1
    4d42:	90 e0       	ldi	r25, 0x00	; 0
    4d44:	9e a3       	std	Y+38, r25	; 0x26
    4d46:	8d a3       	std	Y+37, r24	; 0x25
    4d48:	3b c0       	rjmp	.+118    	; 0x4dc0 <right_turn_wls_bwall+0x2cc>
    4d4a:	20 e0       	ldi	r18, 0x00	; 0
    4d4c:	3f ef       	ldi	r19, 0xFF	; 255
    4d4e:	4f e7       	ldi	r20, 0x7F	; 127
    4d50:	57 e4       	ldi	r21, 0x47	; 71
    4d52:	69 a1       	ldd	r22, Y+33	; 0x21
    4d54:	7a a1       	ldd	r23, Y+34	; 0x22
    4d56:	8b a1       	ldd	r24, Y+35	; 0x23
    4d58:	9c a1       	ldd	r25, Y+36	; 0x24
    4d5a:	1c d6       	rcall	.+3128   	; 0x5994 <__gesf2>
    4d5c:	18 16       	cp	r1, r24
    4d5e:	3c f5       	brge	.+78     	; 0x4dae <right_turn_wls_bwall+0x2ba>
    4d60:	20 e0       	ldi	r18, 0x00	; 0
    4d62:	30 e0       	ldi	r19, 0x00	; 0
    4d64:	40 e2       	ldi	r20, 0x20	; 32
    4d66:	51 e4       	ldi	r21, 0x41	; 65
    4d68:	6d 8d       	ldd	r22, Y+29	; 0x1d
    4d6a:	7e 8d       	ldd	r23, Y+30	; 0x1e
    4d6c:	8f 8d       	ldd	r24, Y+31	; 0x1f
    4d6e:	98 a1       	ldd	r25, Y+32	; 0x20
    4d70:	15 d6       	rcall	.+3114   	; 0x599c <__mulsf3>
    4d72:	dc 01       	movw	r26, r24
    4d74:	cb 01       	movw	r24, r22
    4d76:	bc 01       	movw	r22, r24
    4d78:	cd 01       	movw	r24, r26
    4d7a:	2e d5       	rcall	.+2652   	; 0x57d8 <__fixunssfsi>
    4d7c:	dc 01       	movw	r26, r24
    4d7e:	cb 01       	movw	r24, r22
    4d80:	9e a3       	std	Y+38, r25	; 0x26
    4d82:	8d a3       	std	Y+37, r24	; 0x25
    4d84:	0f c0       	rjmp	.+30     	; 0x4da4 <right_turn_wls_bwall+0x2b0>
    4d86:	80 e7       	ldi	r24, 0x70	; 112
    4d88:	91 e0       	ldi	r25, 0x01	; 1
    4d8a:	98 a7       	std	Y+40, r25	; 0x28
    4d8c:	8f a3       	std	Y+39, r24	; 0x27
    4d8e:	8f a1       	ldd	r24, Y+39	; 0x27
    4d90:	98 a5       	ldd	r25, Y+40	; 0x28
    4d92:	01 97       	sbiw	r24, 0x01	; 1
    4d94:	f1 f7       	brne	.-4      	; 0x4d92 <right_turn_wls_bwall+0x29e>
    4d96:	98 a7       	std	Y+40, r25	; 0x28
    4d98:	8f a3       	std	Y+39, r24	; 0x27
    4d9a:	8d a1       	ldd	r24, Y+37	; 0x25
    4d9c:	9e a1       	ldd	r25, Y+38	; 0x26
    4d9e:	01 97       	sbiw	r24, 0x01	; 1
    4da0:	9e a3       	std	Y+38, r25	; 0x26
    4da2:	8d a3       	std	Y+37, r24	; 0x25
    4da4:	8d a1       	ldd	r24, Y+37	; 0x25
    4da6:	9e a1       	ldd	r25, Y+38	; 0x26
    4da8:	00 97       	sbiw	r24, 0x00	; 0
    4daa:	69 f7       	brne	.-38     	; 0x4d86 <right_turn_wls_bwall+0x292>
    4dac:	13 c0       	rjmp	.+38     	; 0x4dd4 <right_turn_wls_bwall+0x2e0>
    4dae:	69 a1       	ldd	r22, Y+33	; 0x21
    4db0:	7a a1       	ldd	r23, Y+34	; 0x22
    4db2:	8b a1       	ldd	r24, Y+35	; 0x23
    4db4:	9c a1       	ldd	r25, Y+36	; 0x24
    4db6:	10 d5       	rcall	.+2592   	; 0x57d8 <__fixunssfsi>
    4db8:	dc 01       	movw	r26, r24
    4dba:	cb 01       	movw	r24, r22
    4dbc:	9e a3       	std	Y+38, r25	; 0x26
    4dbe:	8d a3       	std	Y+37, r24	; 0x25
    4dc0:	8d a1       	ldd	r24, Y+37	; 0x25
    4dc2:	9e a1       	ldd	r25, Y+38	; 0x26
    4dc4:	9a a7       	std	Y+42, r25	; 0x2a
    4dc6:	89 a7       	std	Y+41, r24	; 0x29
    4dc8:	89 a5       	ldd	r24, Y+41	; 0x29
    4dca:	9a a5       	ldd	r25, Y+42	; 0x2a
    4dcc:	01 97       	sbiw	r24, 0x01	; 1
    4dce:	f1 f7       	brne	.-4      	; 0x4dcc <right_turn_wls_bwall+0x2d8>
    4dd0:	9a a7       	std	Y+42, r25	; 0x2a
    4dd2:	89 a7       	std	Y+41, r24	; 0x29
    4dd4:	0e 94 b9 0d 	call	0x1b72	; 0x1b72 <stop>
    4dd8:	80 e0       	ldi	r24, 0x00	; 0
    4dda:	90 e0       	ldi	r25, 0x00	; 0
    4ddc:	a8 e4       	ldi	r26, 0x48	; 72
    4dde:	b3 e4       	ldi	r27, 0x43	; 67
    4de0:	8b a7       	std	Y+43, r24	; 0x2b
    4de2:	9c a7       	std	Y+44, r25	; 0x2c
    4de4:	ad a7       	std	Y+45, r26	; 0x2d
    4de6:	be a7       	std	Y+46, r27	; 0x2e
    4de8:	26 e6       	ldi	r18, 0x66	; 102
    4dea:	36 e6       	ldi	r19, 0x66	; 102
    4dec:	46 e6       	ldi	r20, 0x66	; 102
    4dee:	55 e4       	ldi	r21, 0x45	; 69
    4df0:	6b a5       	ldd	r22, Y+43	; 0x2b
    4df2:	7c a5       	ldd	r23, Y+44	; 0x2c
    4df4:	8d a5       	ldd	r24, Y+45	; 0x2d
    4df6:	9e a5       	ldd	r25, Y+46	; 0x2e
    4df8:	d1 d5       	rcall	.+2978   	; 0x599c <__mulsf3>
    4dfa:	dc 01       	movw	r26, r24
    4dfc:	cb 01       	movw	r24, r22
    4dfe:	8f a7       	std	Y+47, r24	; 0x2f
    4e00:	98 ab       	std	Y+48, r25	; 0x30
    4e02:	a9 ab       	std	Y+49, r26	; 0x31
    4e04:	ba ab       	std	Y+50, r27	; 0x32
    4e06:	20 e0       	ldi	r18, 0x00	; 0
    4e08:	30 e0       	ldi	r19, 0x00	; 0
    4e0a:	40 e8       	ldi	r20, 0x80	; 128
    4e0c:	5f e3       	ldi	r21, 0x3F	; 63
    4e0e:	6f a5       	ldd	r22, Y+47	; 0x2f
    4e10:	78 a9       	ldd	r23, Y+48	; 0x30
    4e12:	89 a9       	ldd	r24, Y+49	; 0x31
    4e14:	9a a9       	ldd	r25, Y+50	; 0x32
    4e16:	74 d4       	rcall	.+2280   	; 0x5700 <__cmpsf2>
    4e18:	88 23       	and	r24, r24
    4e1a:	2c f4       	brge	.+10     	; 0x4e26 <right_turn_wls_bwall+0x332>
    4e1c:	81 e0       	ldi	r24, 0x01	; 1
    4e1e:	90 e0       	ldi	r25, 0x00	; 0
    4e20:	9c ab       	std	Y+52, r25	; 0x34
    4e22:	8b ab       	std	Y+51, r24	; 0x33
    4e24:	3b c0       	rjmp	.+118    	; 0x4e9c <right_turn_wls_bwall+0x3a8>
    4e26:	20 e0       	ldi	r18, 0x00	; 0
    4e28:	3f ef       	ldi	r19, 0xFF	; 255
    4e2a:	4f e7       	ldi	r20, 0x7F	; 127
    4e2c:	57 e4       	ldi	r21, 0x47	; 71
    4e2e:	6f a5       	ldd	r22, Y+47	; 0x2f
    4e30:	78 a9       	ldd	r23, Y+48	; 0x30
    4e32:	89 a9       	ldd	r24, Y+49	; 0x31
    4e34:	9a a9       	ldd	r25, Y+50	; 0x32
    4e36:	ae d5       	rcall	.+2908   	; 0x5994 <__gesf2>
    4e38:	18 16       	cp	r1, r24
    4e3a:	3c f5       	brge	.+78     	; 0x4e8a <right_turn_wls_bwall+0x396>
    4e3c:	20 e0       	ldi	r18, 0x00	; 0
    4e3e:	30 e0       	ldi	r19, 0x00	; 0
    4e40:	40 e2       	ldi	r20, 0x20	; 32
    4e42:	51 e4       	ldi	r21, 0x41	; 65
    4e44:	6b a5       	ldd	r22, Y+43	; 0x2b
    4e46:	7c a5       	ldd	r23, Y+44	; 0x2c
    4e48:	8d a5       	ldd	r24, Y+45	; 0x2d
    4e4a:	9e a5       	ldd	r25, Y+46	; 0x2e
    4e4c:	a7 d5       	rcall	.+2894   	; 0x599c <__mulsf3>
    4e4e:	dc 01       	movw	r26, r24
    4e50:	cb 01       	movw	r24, r22
    4e52:	bc 01       	movw	r22, r24
    4e54:	cd 01       	movw	r24, r26
    4e56:	c0 d4       	rcall	.+2432   	; 0x57d8 <__fixunssfsi>
    4e58:	dc 01       	movw	r26, r24
    4e5a:	cb 01       	movw	r24, r22
    4e5c:	9c ab       	std	Y+52, r25	; 0x34
    4e5e:	8b ab       	std	Y+51, r24	; 0x33
    4e60:	0f c0       	rjmp	.+30     	; 0x4e80 <right_turn_wls_bwall+0x38c>
    4e62:	80 e7       	ldi	r24, 0x70	; 112
    4e64:	91 e0       	ldi	r25, 0x01	; 1
    4e66:	9e ab       	std	Y+54, r25	; 0x36
    4e68:	8d ab       	std	Y+53, r24	; 0x35
    4e6a:	8d a9       	ldd	r24, Y+53	; 0x35
    4e6c:	9e a9       	ldd	r25, Y+54	; 0x36
    4e6e:	01 97       	sbiw	r24, 0x01	; 1
    4e70:	f1 f7       	brne	.-4      	; 0x4e6e <right_turn_wls_bwall+0x37a>
    4e72:	9e ab       	std	Y+54, r25	; 0x36
    4e74:	8d ab       	std	Y+53, r24	; 0x35
    4e76:	8b a9       	ldd	r24, Y+51	; 0x33
    4e78:	9c a9       	ldd	r25, Y+52	; 0x34
    4e7a:	01 97       	sbiw	r24, 0x01	; 1
    4e7c:	9c ab       	std	Y+52, r25	; 0x34
    4e7e:	8b ab       	std	Y+51, r24	; 0x33
    4e80:	8b a9       	ldd	r24, Y+51	; 0x33
    4e82:	9c a9       	ldd	r25, Y+52	; 0x34
    4e84:	00 97       	sbiw	r24, 0x00	; 0
    4e86:	69 f7       	brne	.-38     	; 0x4e62 <right_turn_wls_bwall+0x36e>
    4e88:	13 c0       	rjmp	.+38     	; 0x4eb0 <right_turn_wls_bwall+0x3bc>
    4e8a:	6f a5       	ldd	r22, Y+47	; 0x2f
    4e8c:	78 a9       	ldd	r23, Y+48	; 0x30
    4e8e:	89 a9       	ldd	r24, Y+49	; 0x31
    4e90:	9a a9       	ldd	r25, Y+50	; 0x32
    4e92:	a2 d4       	rcall	.+2372   	; 0x57d8 <__fixunssfsi>
    4e94:	dc 01       	movw	r26, r24
    4e96:	cb 01       	movw	r24, r22
    4e98:	9c ab       	std	Y+52, r25	; 0x34
    4e9a:	8b ab       	std	Y+51, r24	; 0x33
    4e9c:	8b a9       	ldd	r24, Y+51	; 0x33
    4e9e:	9c a9       	ldd	r25, Y+52	; 0x34
    4ea0:	98 af       	std	Y+56, r25	; 0x38
    4ea2:	8f ab       	std	Y+55, r24	; 0x37
    4ea4:	8f a9       	ldd	r24, Y+55	; 0x37
    4ea6:	98 ad       	ldd	r25, Y+56	; 0x38
    4ea8:	01 97       	sbiw	r24, 0x01	; 1
    4eaa:	f1 f7       	brne	.-4      	; 0x4ea8 <right_turn_wls_bwall+0x3b4>
    4eac:	98 af       	std	Y+56, r25	; 0x38
    4eae:	8f ab       	std	Y+55, r24	; 0x37
    4eb0:	88 e2       	ldi	r24, 0x28	; 40
    4eb2:	91 e0       	ldi	r25, 0x01	; 1
    4eb4:	20 91 00 02 	lds	r18, 0x0200
    4eb8:	fc 01       	movw	r30, r24
    4eba:	20 83       	st	Z, r18
    4ebc:	8a e2       	ldi	r24, 0x2A	; 42
    4ebe:	91 e0       	ldi	r25, 0x01	; 1
    4ec0:	20 91 00 02 	lds	r18, 0x0200
    4ec4:	fc 01       	movw	r30, r24
    4ec6:	20 83       	st	Z, r18
    4ec8:	e8 96       	adiw	r28, 0x38	; 56
    4eca:	0f b6       	in	r0, 0x3f	; 63
    4ecc:	f8 94       	cli
    4ece:	de bf       	out	0x3e, r29	; 62
    4ed0:	0f be       	out	0x3f, r0	; 63
    4ed2:	cd bf       	out	0x3d, r28	; 61
    4ed4:	df 91       	pop	r29
    4ed6:	cf 91       	pop	r28
    4ed8:	08 95       	ret

00004eda <left_turn_wls>:
    4eda:	cf 93       	push	r28
    4edc:	df 93       	push	r29
    4ede:	cd b7       	in	r28, 0x3d	; 61
    4ee0:	de b7       	in	r29, 0x3e	; 62
    4ee2:	aa 97       	sbiw	r28, 0x2a	; 42
    4ee4:	0f b6       	in	r0, 0x3f	; 63
    4ee6:	f8 94       	cli
    4ee8:	de bf       	out	0x3e, r29	; 62
    4eea:	0f be       	out	0x3f, r0	; 63
    4eec:	cd bf       	out	0x3d, r28	; 61
    4eee:	0e 94 9e 0d 	call	0x1b3c	; 0x1b3c <left>
    4ef2:	80 e0       	ldi	r24, 0x00	; 0
    4ef4:	90 e0       	ldi	r25, 0x00	; 0
    4ef6:	a8 e4       	ldi	r26, 0x48	; 72
    4ef8:	b3 e4       	ldi	r27, 0x43	; 67
    4efa:	89 83       	std	Y+1, r24	; 0x01
    4efc:	9a 83       	std	Y+2, r25	; 0x02
    4efe:	ab 83       	std	Y+3, r26	; 0x03
    4f00:	bc 83       	std	Y+4, r27	; 0x04
    4f02:	26 e6       	ldi	r18, 0x66	; 102
    4f04:	36 e6       	ldi	r19, 0x66	; 102
    4f06:	46 e6       	ldi	r20, 0x66	; 102
    4f08:	55 e4       	ldi	r21, 0x45	; 69
    4f0a:	69 81       	ldd	r22, Y+1	; 0x01
    4f0c:	7a 81       	ldd	r23, Y+2	; 0x02
    4f0e:	8b 81       	ldd	r24, Y+3	; 0x03
    4f10:	9c 81       	ldd	r25, Y+4	; 0x04
    4f12:	44 d5       	rcall	.+2696   	; 0x599c <__mulsf3>
    4f14:	dc 01       	movw	r26, r24
    4f16:	cb 01       	movw	r24, r22
    4f18:	8d 83       	std	Y+5, r24	; 0x05
    4f1a:	9e 83       	std	Y+6, r25	; 0x06
    4f1c:	af 83       	std	Y+7, r26	; 0x07
    4f1e:	b8 87       	std	Y+8, r27	; 0x08
    4f20:	20 e0       	ldi	r18, 0x00	; 0
    4f22:	30 e0       	ldi	r19, 0x00	; 0
    4f24:	40 e8       	ldi	r20, 0x80	; 128
    4f26:	5f e3       	ldi	r21, 0x3F	; 63
    4f28:	6d 81       	ldd	r22, Y+5	; 0x05
    4f2a:	7e 81       	ldd	r23, Y+6	; 0x06
    4f2c:	8f 81       	ldd	r24, Y+7	; 0x07
    4f2e:	98 85       	ldd	r25, Y+8	; 0x08
    4f30:	e7 d3       	rcall	.+1998   	; 0x5700 <__cmpsf2>
    4f32:	88 23       	and	r24, r24
    4f34:	2c f4       	brge	.+10     	; 0x4f40 <left_turn_wls+0x66>
    4f36:	81 e0       	ldi	r24, 0x01	; 1
    4f38:	90 e0       	ldi	r25, 0x00	; 0
    4f3a:	9a 87       	std	Y+10, r25	; 0x0a
    4f3c:	89 87       	std	Y+9, r24	; 0x09
    4f3e:	3b c0       	rjmp	.+118    	; 0x4fb6 <left_turn_wls+0xdc>
    4f40:	20 e0       	ldi	r18, 0x00	; 0
    4f42:	3f ef       	ldi	r19, 0xFF	; 255
    4f44:	4f e7       	ldi	r20, 0x7F	; 127
    4f46:	57 e4       	ldi	r21, 0x47	; 71
    4f48:	6d 81       	ldd	r22, Y+5	; 0x05
    4f4a:	7e 81       	ldd	r23, Y+6	; 0x06
    4f4c:	8f 81       	ldd	r24, Y+7	; 0x07
    4f4e:	98 85       	ldd	r25, Y+8	; 0x08
    4f50:	21 d5       	rcall	.+2626   	; 0x5994 <__gesf2>
    4f52:	18 16       	cp	r1, r24
    4f54:	3c f5       	brge	.+78     	; 0x4fa4 <left_turn_wls+0xca>
    4f56:	20 e0       	ldi	r18, 0x00	; 0
    4f58:	30 e0       	ldi	r19, 0x00	; 0
    4f5a:	40 e2       	ldi	r20, 0x20	; 32
    4f5c:	51 e4       	ldi	r21, 0x41	; 65
    4f5e:	69 81       	ldd	r22, Y+1	; 0x01
    4f60:	7a 81       	ldd	r23, Y+2	; 0x02
    4f62:	8b 81       	ldd	r24, Y+3	; 0x03
    4f64:	9c 81       	ldd	r25, Y+4	; 0x04
    4f66:	1a d5       	rcall	.+2612   	; 0x599c <__mulsf3>
    4f68:	dc 01       	movw	r26, r24
    4f6a:	cb 01       	movw	r24, r22
    4f6c:	bc 01       	movw	r22, r24
    4f6e:	cd 01       	movw	r24, r26
    4f70:	33 d4       	rcall	.+2150   	; 0x57d8 <__fixunssfsi>
    4f72:	dc 01       	movw	r26, r24
    4f74:	cb 01       	movw	r24, r22
    4f76:	9a 87       	std	Y+10, r25	; 0x0a
    4f78:	89 87       	std	Y+9, r24	; 0x09
    4f7a:	0f c0       	rjmp	.+30     	; 0x4f9a <left_turn_wls+0xc0>
    4f7c:	80 e7       	ldi	r24, 0x70	; 112
    4f7e:	91 e0       	ldi	r25, 0x01	; 1
    4f80:	9c 87       	std	Y+12, r25	; 0x0c
    4f82:	8b 87       	std	Y+11, r24	; 0x0b
    4f84:	8b 85       	ldd	r24, Y+11	; 0x0b
    4f86:	9c 85       	ldd	r25, Y+12	; 0x0c
    4f88:	01 97       	sbiw	r24, 0x01	; 1
    4f8a:	f1 f7       	brne	.-4      	; 0x4f88 <left_turn_wls+0xae>
    4f8c:	9c 87       	std	Y+12, r25	; 0x0c
    4f8e:	8b 87       	std	Y+11, r24	; 0x0b
    4f90:	89 85       	ldd	r24, Y+9	; 0x09
    4f92:	9a 85       	ldd	r25, Y+10	; 0x0a
    4f94:	01 97       	sbiw	r24, 0x01	; 1
    4f96:	9a 87       	std	Y+10, r25	; 0x0a
    4f98:	89 87       	std	Y+9, r24	; 0x09
    4f9a:	89 85       	ldd	r24, Y+9	; 0x09
    4f9c:	9a 85       	ldd	r25, Y+10	; 0x0a
    4f9e:	00 97       	sbiw	r24, 0x00	; 0
    4fa0:	69 f7       	brne	.-38     	; 0x4f7c <left_turn_wls+0xa2>
    4fa2:	13 c0       	rjmp	.+38     	; 0x4fca <left_turn_wls+0xf0>
    4fa4:	6d 81       	ldd	r22, Y+5	; 0x05
    4fa6:	7e 81       	ldd	r23, Y+6	; 0x06
    4fa8:	8f 81       	ldd	r24, Y+7	; 0x07
    4faa:	98 85       	ldd	r25, Y+8	; 0x08
    4fac:	15 d4       	rcall	.+2090   	; 0x57d8 <__fixunssfsi>
    4fae:	dc 01       	movw	r26, r24
    4fb0:	cb 01       	movw	r24, r22
    4fb2:	9a 87       	std	Y+10, r25	; 0x0a
    4fb4:	89 87       	std	Y+9, r24	; 0x09
    4fb6:	89 85       	ldd	r24, Y+9	; 0x09
    4fb8:	9a 85       	ldd	r25, Y+10	; 0x0a
    4fba:	9e 87       	std	Y+14, r25	; 0x0e
    4fbc:	8d 87       	std	Y+13, r24	; 0x0d
    4fbe:	8d 85       	ldd	r24, Y+13	; 0x0d
    4fc0:	9e 85       	ldd	r25, Y+14	; 0x0e
    4fc2:	01 97       	sbiw	r24, 0x01	; 1
    4fc4:	f1 f7       	brne	.-4      	; 0x4fc2 <left_turn_wls+0xe8>
    4fc6:	9e 87       	std	Y+14, r25	; 0x0e
    4fc8:	8d 87       	std	Y+13, r24	; 0x0d
    4fca:	0e 94 b9 0d 	call	0x1b72	; 0x1b72 <stop>
    4fce:	80 e0       	ldi	r24, 0x00	; 0
    4fd0:	90 e0       	ldi	r25, 0x00	; 0
    4fd2:	a8 e4       	ldi	r26, 0x48	; 72
    4fd4:	b2 e4       	ldi	r27, 0x42	; 66
    4fd6:	8f 87       	std	Y+15, r24	; 0x0f
    4fd8:	98 8b       	std	Y+16, r25	; 0x10
    4fda:	a9 8b       	std	Y+17, r26	; 0x11
    4fdc:	ba 8b       	std	Y+18, r27	; 0x12
    4fde:	26 e6       	ldi	r18, 0x66	; 102
    4fe0:	36 e6       	ldi	r19, 0x66	; 102
    4fe2:	46 e6       	ldi	r20, 0x66	; 102
    4fe4:	55 e4       	ldi	r21, 0x45	; 69
    4fe6:	6f 85       	ldd	r22, Y+15	; 0x0f
    4fe8:	78 89       	ldd	r23, Y+16	; 0x10
    4fea:	89 89       	ldd	r24, Y+17	; 0x11
    4fec:	9a 89       	ldd	r25, Y+18	; 0x12
    4fee:	d6 d4       	rcall	.+2476   	; 0x599c <__mulsf3>
    4ff0:	dc 01       	movw	r26, r24
    4ff2:	cb 01       	movw	r24, r22
    4ff4:	8b 8b       	std	Y+19, r24	; 0x13
    4ff6:	9c 8b       	std	Y+20, r25	; 0x14
    4ff8:	ad 8b       	std	Y+21, r26	; 0x15
    4ffa:	be 8b       	std	Y+22, r27	; 0x16
    4ffc:	20 e0       	ldi	r18, 0x00	; 0
    4ffe:	30 e0       	ldi	r19, 0x00	; 0
    5000:	40 e8       	ldi	r20, 0x80	; 128
    5002:	5f e3       	ldi	r21, 0x3F	; 63
    5004:	6b 89       	ldd	r22, Y+19	; 0x13
    5006:	7c 89       	ldd	r23, Y+20	; 0x14
    5008:	8d 89       	ldd	r24, Y+21	; 0x15
    500a:	9e 89       	ldd	r25, Y+22	; 0x16
    500c:	79 d3       	rcall	.+1778   	; 0x5700 <__cmpsf2>
    500e:	88 23       	and	r24, r24
    5010:	2c f4       	brge	.+10     	; 0x501c <left_turn_wls+0x142>
    5012:	81 e0       	ldi	r24, 0x01	; 1
    5014:	90 e0       	ldi	r25, 0x00	; 0
    5016:	98 8f       	std	Y+24, r25	; 0x18
    5018:	8f 8b       	std	Y+23, r24	; 0x17
    501a:	3b c0       	rjmp	.+118    	; 0x5092 <left_turn_wls+0x1b8>
    501c:	20 e0       	ldi	r18, 0x00	; 0
    501e:	3f ef       	ldi	r19, 0xFF	; 255
    5020:	4f e7       	ldi	r20, 0x7F	; 127
    5022:	57 e4       	ldi	r21, 0x47	; 71
    5024:	6b 89       	ldd	r22, Y+19	; 0x13
    5026:	7c 89       	ldd	r23, Y+20	; 0x14
    5028:	8d 89       	ldd	r24, Y+21	; 0x15
    502a:	9e 89       	ldd	r25, Y+22	; 0x16
    502c:	b3 d4       	rcall	.+2406   	; 0x5994 <__gesf2>
    502e:	18 16       	cp	r1, r24
    5030:	3c f5       	brge	.+78     	; 0x5080 <left_turn_wls+0x1a6>
    5032:	20 e0       	ldi	r18, 0x00	; 0
    5034:	30 e0       	ldi	r19, 0x00	; 0
    5036:	40 e2       	ldi	r20, 0x20	; 32
    5038:	51 e4       	ldi	r21, 0x41	; 65
    503a:	6f 85       	ldd	r22, Y+15	; 0x0f
    503c:	78 89       	ldd	r23, Y+16	; 0x10
    503e:	89 89       	ldd	r24, Y+17	; 0x11
    5040:	9a 89       	ldd	r25, Y+18	; 0x12
    5042:	ac d4       	rcall	.+2392   	; 0x599c <__mulsf3>
    5044:	dc 01       	movw	r26, r24
    5046:	cb 01       	movw	r24, r22
    5048:	bc 01       	movw	r22, r24
    504a:	cd 01       	movw	r24, r26
    504c:	c5 d3       	rcall	.+1930   	; 0x57d8 <__fixunssfsi>
    504e:	dc 01       	movw	r26, r24
    5050:	cb 01       	movw	r24, r22
    5052:	98 8f       	std	Y+24, r25	; 0x18
    5054:	8f 8b       	std	Y+23, r24	; 0x17
    5056:	0f c0       	rjmp	.+30     	; 0x5076 <left_turn_wls+0x19c>
    5058:	80 e7       	ldi	r24, 0x70	; 112
    505a:	91 e0       	ldi	r25, 0x01	; 1
    505c:	9a 8f       	std	Y+26, r25	; 0x1a
    505e:	89 8f       	std	Y+25, r24	; 0x19
    5060:	89 8d       	ldd	r24, Y+25	; 0x19
    5062:	9a 8d       	ldd	r25, Y+26	; 0x1a
    5064:	01 97       	sbiw	r24, 0x01	; 1
    5066:	f1 f7       	brne	.-4      	; 0x5064 <left_turn_wls+0x18a>
    5068:	9a 8f       	std	Y+26, r25	; 0x1a
    506a:	89 8f       	std	Y+25, r24	; 0x19
    506c:	8f 89       	ldd	r24, Y+23	; 0x17
    506e:	98 8d       	ldd	r25, Y+24	; 0x18
    5070:	01 97       	sbiw	r24, 0x01	; 1
    5072:	98 8f       	std	Y+24, r25	; 0x18
    5074:	8f 8b       	std	Y+23, r24	; 0x17
    5076:	8f 89       	ldd	r24, Y+23	; 0x17
    5078:	98 8d       	ldd	r25, Y+24	; 0x18
    507a:	00 97       	sbiw	r24, 0x00	; 0
    507c:	69 f7       	brne	.-38     	; 0x5058 <left_turn_wls+0x17e>
    507e:	13 c0       	rjmp	.+38     	; 0x50a6 <left_turn_wls+0x1cc>
    5080:	6b 89       	ldd	r22, Y+19	; 0x13
    5082:	7c 89       	ldd	r23, Y+20	; 0x14
    5084:	8d 89       	ldd	r24, Y+21	; 0x15
    5086:	9e 89       	ldd	r25, Y+22	; 0x16
    5088:	a7 d3       	rcall	.+1870   	; 0x57d8 <__fixunssfsi>
    508a:	dc 01       	movw	r26, r24
    508c:	cb 01       	movw	r24, r22
    508e:	98 8f       	std	Y+24, r25	; 0x18
    5090:	8f 8b       	std	Y+23, r24	; 0x17
    5092:	8f 89       	ldd	r24, Y+23	; 0x17
    5094:	98 8d       	ldd	r25, Y+24	; 0x18
    5096:	9c 8f       	std	Y+28, r25	; 0x1c
    5098:	8b 8f       	std	Y+27, r24	; 0x1b
    509a:	8b 8d       	ldd	r24, Y+27	; 0x1b
    509c:	9c 8d       	ldd	r25, Y+28	; 0x1c
    509e:	01 97       	sbiw	r24, 0x01	; 1
    50a0:	f1 f7       	brne	.-4      	; 0x509e <left_turn_wls+0x1c4>
    50a2:	9c 8f       	std	Y+28, r25	; 0x1c
    50a4:	8b 8f       	std	Y+27, r24	; 0x1b
    50a6:	0e 94 9e 0d 	call	0x1b3c	; 0x1b3c <left>
    50aa:	88 e2       	ldi	r24, 0x28	; 40
    50ac:	91 e0       	ldi	r25, 0x01	; 1
    50ae:	24 e6       	ldi	r18, 0x64	; 100
    50b0:	fc 01       	movw	r30, r24
    50b2:	20 83       	st	Z, r18
    50b4:	8a e2       	ldi	r24, 0x2A	; 42
    50b6:	91 e0       	ldi	r25, 0x01	; 1
    50b8:	24 e6       	ldi	r18, 0x64	; 100
    50ba:	fc 01       	movw	r30, r24
    50bc:	20 83       	st	Z, r18
    50be:	81 e0       	ldi	r24, 0x01	; 1
    50c0:	0e 94 47 10 	call	0x208e	; 0x208e <ADC_Conversion>
    50c4:	80 93 69 02 	sts	0x0269, r24
    50c8:	80 91 69 02 	lds	r24, 0x0269
    50cc:	80 35       	cpi	r24, 0x50	; 80
    50ce:	50 f1       	brcs	.+84     	; 0x5124 <left_turn_wls+0x24a>
    50d0:	82 e2       	ldi	r24, 0x22	; 34
    50d2:	90 e0       	ldi	r25, 0x00	; 0
    50d4:	fc 01       	movw	r30, r24
    50d6:	10 82       	st	Z, r1
    50d8:	00 00       	nop
    50da:	0e 94 b9 0d 	call	0x1b72	; 0x1b72 <stop>
    50de:	80 e0       	ldi	r24, 0x00	; 0
    50e0:	90 e0       	ldi	r25, 0x00	; 0
    50e2:	a8 e4       	ldi	r26, 0x48	; 72
    50e4:	b3 e4       	ldi	r27, 0x43	; 67
    50e6:	8d 8f       	std	Y+29, r24	; 0x1d
    50e8:	9e 8f       	std	Y+30, r25	; 0x1e
    50ea:	af 8f       	std	Y+31, r26	; 0x1f
    50ec:	b8 a3       	std	Y+32, r27	; 0x20
    50ee:	26 e6       	ldi	r18, 0x66	; 102
    50f0:	36 e6       	ldi	r19, 0x66	; 102
    50f2:	46 e6       	ldi	r20, 0x66	; 102
    50f4:	55 e4       	ldi	r21, 0x45	; 69
    50f6:	6d 8d       	ldd	r22, Y+29	; 0x1d
    50f8:	7e 8d       	ldd	r23, Y+30	; 0x1e
    50fa:	8f 8d       	ldd	r24, Y+31	; 0x1f
    50fc:	98 a1       	ldd	r25, Y+32	; 0x20
    50fe:	4e d4       	rcall	.+2204   	; 0x599c <__mulsf3>
    5100:	dc 01       	movw	r26, r24
    5102:	cb 01       	movw	r24, r22
    5104:	89 a3       	std	Y+33, r24	; 0x21
    5106:	9a a3       	std	Y+34, r25	; 0x22
    5108:	ab a3       	std	Y+35, r26	; 0x23
    510a:	bc a3       	std	Y+36, r27	; 0x24
    510c:	20 e0       	ldi	r18, 0x00	; 0
    510e:	30 e0       	ldi	r19, 0x00	; 0
    5110:	40 e8       	ldi	r20, 0x80	; 128
    5112:	5f e3       	ldi	r21, 0x3F	; 63
    5114:	69 a1       	ldd	r22, Y+33	; 0x21
    5116:	7a a1       	ldd	r23, Y+34	; 0x22
    5118:	8b a1       	ldd	r24, Y+35	; 0x23
    511a:	9c a1       	ldd	r25, Y+36	; 0x24
    511c:	f1 d2       	rcall	.+1506   	; 0x5700 <__cmpsf2>
    511e:	88 23       	and	r24, r24
    5120:	14 f0       	brlt	.+4      	; 0x5126 <left_turn_wls+0x24c>
    5122:	06 c0       	rjmp	.+12     	; 0x5130 <left_turn_wls+0x256>
    5124:	cc cf       	rjmp	.-104    	; 0x50be <left_turn_wls+0x1e4>
    5126:	81 e0       	ldi	r24, 0x01	; 1
    5128:	90 e0       	ldi	r25, 0x00	; 0
    512a:	9e a3       	std	Y+38, r25	; 0x26
    512c:	8d a3       	std	Y+37, r24	; 0x25
    512e:	3b c0       	rjmp	.+118    	; 0x51a6 <left_turn_wls+0x2cc>
    5130:	20 e0       	ldi	r18, 0x00	; 0
    5132:	3f ef       	ldi	r19, 0xFF	; 255
    5134:	4f e7       	ldi	r20, 0x7F	; 127
    5136:	57 e4       	ldi	r21, 0x47	; 71
    5138:	69 a1       	ldd	r22, Y+33	; 0x21
    513a:	7a a1       	ldd	r23, Y+34	; 0x22
    513c:	8b a1       	ldd	r24, Y+35	; 0x23
    513e:	9c a1       	ldd	r25, Y+36	; 0x24
    5140:	29 d4       	rcall	.+2130   	; 0x5994 <__gesf2>
    5142:	18 16       	cp	r1, r24
    5144:	3c f5       	brge	.+78     	; 0x5194 <left_turn_wls+0x2ba>
    5146:	20 e0       	ldi	r18, 0x00	; 0
    5148:	30 e0       	ldi	r19, 0x00	; 0
    514a:	40 e2       	ldi	r20, 0x20	; 32
    514c:	51 e4       	ldi	r21, 0x41	; 65
    514e:	6d 8d       	ldd	r22, Y+29	; 0x1d
    5150:	7e 8d       	ldd	r23, Y+30	; 0x1e
    5152:	8f 8d       	ldd	r24, Y+31	; 0x1f
    5154:	98 a1       	ldd	r25, Y+32	; 0x20
    5156:	22 d4       	rcall	.+2116   	; 0x599c <__mulsf3>
    5158:	dc 01       	movw	r26, r24
    515a:	cb 01       	movw	r24, r22
    515c:	bc 01       	movw	r22, r24
    515e:	cd 01       	movw	r24, r26
    5160:	3b d3       	rcall	.+1654   	; 0x57d8 <__fixunssfsi>
    5162:	dc 01       	movw	r26, r24
    5164:	cb 01       	movw	r24, r22
    5166:	9e a3       	std	Y+38, r25	; 0x26
    5168:	8d a3       	std	Y+37, r24	; 0x25
    516a:	0f c0       	rjmp	.+30     	; 0x518a <left_turn_wls+0x2b0>
    516c:	80 e7       	ldi	r24, 0x70	; 112
    516e:	91 e0       	ldi	r25, 0x01	; 1
    5170:	98 a7       	std	Y+40, r25	; 0x28
    5172:	8f a3       	std	Y+39, r24	; 0x27
    5174:	8f a1       	ldd	r24, Y+39	; 0x27
    5176:	98 a5       	ldd	r25, Y+40	; 0x28
    5178:	01 97       	sbiw	r24, 0x01	; 1
    517a:	f1 f7       	brne	.-4      	; 0x5178 <left_turn_wls+0x29e>
    517c:	98 a7       	std	Y+40, r25	; 0x28
    517e:	8f a3       	std	Y+39, r24	; 0x27
    5180:	8d a1       	ldd	r24, Y+37	; 0x25
    5182:	9e a1       	ldd	r25, Y+38	; 0x26
    5184:	01 97       	sbiw	r24, 0x01	; 1
    5186:	9e a3       	std	Y+38, r25	; 0x26
    5188:	8d a3       	std	Y+37, r24	; 0x25
    518a:	8d a1       	ldd	r24, Y+37	; 0x25
    518c:	9e a1       	ldd	r25, Y+38	; 0x26
    518e:	00 97       	sbiw	r24, 0x00	; 0
    5190:	69 f7       	brne	.-38     	; 0x516c <left_turn_wls+0x292>
    5192:	13 c0       	rjmp	.+38     	; 0x51ba <left_turn_wls+0x2e0>
    5194:	69 a1       	ldd	r22, Y+33	; 0x21
    5196:	7a a1       	ldd	r23, Y+34	; 0x22
    5198:	8b a1       	ldd	r24, Y+35	; 0x23
    519a:	9c a1       	ldd	r25, Y+36	; 0x24
    519c:	1d d3       	rcall	.+1594   	; 0x57d8 <__fixunssfsi>
    519e:	dc 01       	movw	r26, r24
    51a0:	cb 01       	movw	r24, r22
    51a2:	9e a3       	std	Y+38, r25	; 0x26
    51a4:	8d a3       	std	Y+37, r24	; 0x25
    51a6:	8d a1       	ldd	r24, Y+37	; 0x25
    51a8:	9e a1       	ldd	r25, Y+38	; 0x26
    51aa:	9a a7       	std	Y+42, r25	; 0x2a
    51ac:	89 a7       	std	Y+41, r24	; 0x29
    51ae:	89 a5       	ldd	r24, Y+41	; 0x29
    51b0:	9a a5       	ldd	r25, Y+42	; 0x2a
    51b2:	01 97       	sbiw	r24, 0x01	; 1
    51b4:	f1 f7       	brne	.-4      	; 0x51b2 <left_turn_wls+0x2d8>
    51b6:	9a a7       	std	Y+42, r25	; 0x2a
    51b8:	89 a7       	std	Y+41, r24	; 0x29
    51ba:	88 e2       	ldi	r24, 0x28	; 40
    51bc:	91 e0       	ldi	r25, 0x01	; 1
    51be:	20 91 00 02 	lds	r18, 0x0200
    51c2:	fc 01       	movw	r30, r24
    51c4:	20 83       	st	Z, r18
    51c6:	8a e2       	ldi	r24, 0x2A	; 42
    51c8:	91 e0       	ldi	r25, 0x01	; 1
    51ca:	20 91 00 02 	lds	r18, 0x0200
    51ce:	fc 01       	movw	r30, r24
    51d0:	20 83       	st	Z, r18
    51d2:	aa 96       	adiw	r28, 0x2a	; 42
    51d4:	0f b6       	in	r0, 0x3f	; 63
    51d6:	f8 94       	cli
    51d8:	de bf       	out	0x3e, r29	; 62
    51da:	0f be       	out	0x3f, r0	; 63
    51dc:	cd bf       	out	0x3d, r28	; 61
    51de:	df 91       	pop	r29
    51e0:	cf 91       	pop	r28
    51e2:	08 95       	ret

000051e4 <adc_init>:


/* -------------------------------------------------------------INITIALIZATION--------------------------------------------------*/

//Function to Initialize ADC
void adc_init() {
    51e4:	cf 93       	push	r28
    51e6:	df 93       	push	r29
    51e8:	cd b7       	in	r28, 0x3d	; 61
    51ea:	de b7       	in	r29, 0x3e	; 62
  ADCSRA = 0x00;
    51ec:	8a e7       	ldi	r24, 0x7A	; 122
    51ee:	90 e0       	ldi	r25, 0x00	; 0
    51f0:	fc 01       	movw	r30, r24
    51f2:	10 82       	st	Z, r1
  ADCSRB = 0x00; //MUX5 = 0
    51f4:	8b e7       	ldi	r24, 0x7B	; 123
    51f6:	90 e0       	ldi	r25, 0x00	; 0
    51f8:	fc 01       	movw	r30, r24
    51fa:	10 82       	st	Z, r1
  ADMUX = 0x20; //Vref=5V external --- ADLAR=1 --- MUX4:0 = 0000
    51fc:	8c e7       	ldi	r24, 0x7C	; 124
    51fe:	90 e0       	ldi	r25, 0x00	; 0
    5200:	20 e2       	ldi	r18, 0x20	; 32
    5202:	fc 01       	movw	r30, r24
    5204:	20 83       	st	Z, r18
  ACSR = 0x80;
    5206:	80 e5       	ldi	r24, 0x50	; 80
    5208:	90 e0       	ldi	r25, 0x00	; 0
    520a:	20 e8       	ldi	r18, 0x80	; 128
    520c:	fc 01       	movw	r30, r24
    520e:	20 83       	st	Z, r18
  ADCSRA = 0x86; //ADEN=1 --- ADIE=1 --- ADPS2:0 = 1 1 0
    5210:	8a e7       	ldi	r24, 0x7A	; 122
    5212:	90 e0       	ldi	r25, 0x00	; 0
    5214:	26 e8       	ldi	r18, 0x86	; 134
    5216:	fc 01       	movw	r30, r24
    5218:	20 83       	st	Z, r18
}
    521a:	df 91       	pop	r29
    521c:	cf 91       	pop	r28
    521e:	08 95       	ret

00005220 <init_devices>:

void init_devices(void) {
    5220:	cf 93       	push	r28
    5222:	df 93       	push	r29
    5224:	cd b7       	in	r28, 0x3d	; 61
    5226:	de b7       	in	r29, 0x3e	; 62
  cli(); //Clears the global interrupts
    5228:	f8 94       	cli
  port_init();
    522a:	0e 94 f4 0c 	call	0x19e8	; 0x19e8 <port_init>
  adc_init();
    522e:	da df       	rcall	.-76     	; 0x51e4 <adc_init>
  timer5_init();
    5230:	0e 94 93 0b 	call	0x1726	; 0x1726 <timer5_init>
  timer1_init();
    5234:	0e 94 48 0b 	call	0x1690	; 0x1690 <timer1_init>
  sei(); //Enables the global interrupts
    5238:	78 94       	sei
  lcd_set_4bit(); //These functions need not to be inside interrupt blocked code
    523a:	0e 94 ad 00 	call	0x15a	; 0x15a <lcd_set_4bit>
  lcd_init();
    523e:	0e 94 33 06 	call	0xc66	; 0xc66 <lcd_init>
}
    5242:	df 91       	pop	r29
    5244:	cf 91       	pop	r28
    5246:	08 95       	ret

00005248 <main>:
/* --------------------------------------------------------------MAIN-----------------------------------------------------------*/


int main() 
{
    5248:	cf 93       	push	r28
    524a:	df 93       	push	r29
    524c:	cd b7       	in	r28, 0x3d	; 61
    524e:	de b7       	in	r29, 0x3e	; 62
    5250:	e8 97       	sbiw	r28, 0x38	; 56
    5252:	0f b6       	in	r0, 0x3f	; 63
    5254:	f8 94       	cli
    5256:	de bf       	out	0x3e, r29	; 62
    5258:	0f be       	out	0x3f, r0	; 63
    525a:	cd bf       	out	0x3d, r28	; 61
  init_devices();
    525c:	e1 df       	rcall	.-62     	; 0x5220 <init_devices>
  forward_wls(0,1);
    525e:	61 e0       	ldi	r22, 0x01	; 1
    5260:	70 e0       	ldi	r23, 0x00	; 0
    5262:	80 e0       	ldi	r24, 0x00	; 0
    5264:	90 e0       	ldi	r25, 0x00	; 0
    5266:	0e 94 67 1d 	call	0x3ace	; 0x3ace <forward_wls>
  right_turn_wls();
    526a:	46 da       	rcall	.-2932   	; 0x46f8 <right_turn_wls>
  forward_wls(2,1);
    526c:	61 e0       	ldi	r22, 0x01	; 1
    526e:	70 e0       	ldi	r23, 0x00	; 0
    5270:	82 e0       	ldi	r24, 0x02	; 2
    5272:	90 e0       	ldi	r25, 0x00	; 0
    5274:	0e 94 67 1d 	call	0x3ace	; 0x3ace <forward_wls>
  right_turn_wls();
    5278:	3f da       	rcall	.-2946   	; 0x46f8 <right_turn_wls>
  forward_wls(0,1);
    527a:	61 e0       	ldi	r22, 0x01	; 1
    527c:	70 e0       	ldi	r23, 0x00	; 0
    527e:	80 e0       	ldi	r24, 0x00	; 0
    5280:	90 e0       	ldi	r25, 0x00	; 0
    5282:	0e 94 67 1d 	call	0x3ace	; 0x3ace <forward_wls>
  forward();
    5286:	0e 94 8c 0d 	call	0x1b18	; 0x1b18 <forward>
    528a:	80 e0       	ldi	r24, 0x00	; 0
    528c:	90 e0       	ldi	r25, 0x00	; 0
    528e:	a7 e8       	ldi	r26, 0x87	; 135
    5290:	b3 e4       	ldi	r27, 0x43	; 67
    5292:	89 83       	std	Y+1, r24	; 0x01
    5294:	9a 83       	std	Y+2, r25	; 0x02
    5296:	ab 83       	std	Y+3, r26	; 0x03
    5298:	bc 83       	std	Y+4, r27	; 0x04

	__builtin_avr_delay_cycles(__ticks_dc);

#else
	uint16_t __ticks;
	__tmp = ((F_CPU) / 4e3) * __ms;
    529a:	26 e6       	ldi	r18, 0x66	; 102
    529c:	36 e6       	ldi	r19, 0x66	; 102
    529e:	46 e6       	ldi	r20, 0x66	; 102
    52a0:	55 e4       	ldi	r21, 0x45	; 69
    52a2:	69 81       	ldd	r22, Y+1	; 0x01
    52a4:	7a 81       	ldd	r23, Y+2	; 0x02
    52a6:	8b 81       	ldd	r24, Y+3	; 0x03
    52a8:	9c 81       	ldd	r25, Y+4	; 0x04
    52aa:	78 d3       	rcall	.+1776   	; 0x599c <__mulsf3>
    52ac:	dc 01       	movw	r26, r24
    52ae:	cb 01       	movw	r24, r22
    52b0:	8d 83       	std	Y+5, r24	; 0x05
    52b2:	9e 83       	std	Y+6, r25	; 0x06
    52b4:	af 83       	std	Y+7, r26	; 0x07
    52b6:	b8 87       	std	Y+8, r27	; 0x08
	if (__tmp < 1.0)
    52b8:	20 e0       	ldi	r18, 0x00	; 0
    52ba:	30 e0       	ldi	r19, 0x00	; 0
    52bc:	40 e8       	ldi	r20, 0x80	; 128
    52be:	5f e3       	ldi	r21, 0x3F	; 63
    52c0:	6d 81       	ldd	r22, Y+5	; 0x05
    52c2:	7e 81       	ldd	r23, Y+6	; 0x06
    52c4:	8f 81       	ldd	r24, Y+7	; 0x07
    52c6:	98 85       	ldd	r25, Y+8	; 0x08
    52c8:	1b d2       	rcall	.+1078   	; 0x5700 <__cmpsf2>
    52ca:	88 23       	and	r24, r24
    52cc:	2c f4       	brge	.+10     	; 0x52d8 <main+0x90>
		__ticks = 1;
    52ce:	81 e0       	ldi	r24, 0x01	; 1
    52d0:	90 e0       	ldi	r25, 0x00	; 0
    52d2:	9a 87       	std	Y+10, r25	; 0x0a
    52d4:	89 87       	std	Y+9, r24	; 0x09
    52d6:	3b c0       	rjmp	.+118    	; 0x534e <main+0x106>
	else if (__tmp > 65535)
    52d8:	20 e0       	ldi	r18, 0x00	; 0
    52da:	3f ef       	ldi	r19, 0xFF	; 255
    52dc:	4f e7       	ldi	r20, 0x7F	; 127
    52de:	57 e4       	ldi	r21, 0x47	; 71
    52e0:	6d 81       	ldd	r22, Y+5	; 0x05
    52e2:	7e 81       	ldd	r23, Y+6	; 0x06
    52e4:	8f 81       	ldd	r24, Y+7	; 0x07
    52e6:	98 85       	ldd	r25, Y+8	; 0x08
    52e8:	55 d3       	rcall	.+1706   	; 0x5994 <__gesf2>
    52ea:	18 16       	cp	r1, r24
    52ec:	3c f5       	brge	.+78     	; 0x533c <main+0xf4>
	{
		//	__ticks = requested delay in 1/10 ms
		__ticks = (uint16_t) (__ms * 10.0);
    52ee:	20 e0       	ldi	r18, 0x00	; 0
    52f0:	30 e0       	ldi	r19, 0x00	; 0
    52f2:	40 e2       	ldi	r20, 0x20	; 32
    52f4:	51 e4       	ldi	r21, 0x41	; 65
    52f6:	69 81       	ldd	r22, Y+1	; 0x01
    52f8:	7a 81       	ldd	r23, Y+2	; 0x02
    52fa:	8b 81       	ldd	r24, Y+3	; 0x03
    52fc:	9c 81       	ldd	r25, Y+4	; 0x04
    52fe:	4e d3       	rcall	.+1692   	; 0x599c <__mulsf3>
    5300:	dc 01       	movw	r26, r24
    5302:	cb 01       	movw	r24, r22
    5304:	bc 01       	movw	r22, r24
    5306:	cd 01       	movw	r24, r26
    5308:	67 d2       	rcall	.+1230   	; 0x57d8 <__fixunssfsi>
    530a:	dc 01       	movw	r26, r24
    530c:	cb 01       	movw	r24, r22
    530e:	9a 87       	std	Y+10, r25	; 0x0a
    5310:	89 87       	std	Y+9, r24	; 0x09
    5312:	0f c0       	rjmp	.+30     	; 0x5332 <main+0xea>
    5314:	80 e7       	ldi	r24, 0x70	; 112
    5316:	91 e0       	ldi	r25, 0x01	; 1
    5318:	9c 87       	std	Y+12, r25	; 0x0c
    531a:	8b 87       	std	Y+11, r24	; 0x0b
    milliseconds can be achieved.
 */
void
_delay_loop_2(uint16_t __count)
{
	__asm__ volatile (
    531c:	8b 85       	ldd	r24, Y+11	; 0x0b
    531e:	9c 85       	ldd	r25, Y+12	; 0x0c
    5320:	01 97       	sbiw	r24, 0x01	; 1
    5322:	f1 f7       	brne	.-4      	; 0x5320 <main+0xd8>
    5324:	9c 87       	std	Y+12, r25	; 0x0c
    5326:	8b 87       	std	Y+11, r24	; 0x0b
		while(__ticks)
		{
			// wait 1/10 ms
			_delay_loop_2(((F_CPU) / 4e3) / 10);
			__ticks --;
    5328:	89 85       	ldd	r24, Y+9	; 0x09
    532a:	9a 85       	ldd	r25, Y+10	; 0x0a
    532c:	01 97       	sbiw	r24, 0x01	; 1
    532e:	9a 87       	std	Y+10, r25	; 0x0a
    5330:	89 87       	std	Y+9, r24	; 0x09
		__ticks = 1;
	else if (__tmp > 65535)
	{
		//	__ticks = requested delay in 1/10 ms
		__ticks = (uint16_t) (__ms * 10.0);
		while(__ticks)
    5332:	89 85       	ldd	r24, Y+9	; 0x09
    5334:	9a 85       	ldd	r25, Y+10	; 0x0a
    5336:	00 97       	sbiw	r24, 0x00	; 0
    5338:	69 f7       	brne	.-38     	; 0x5314 <main+0xcc>
    533a:	13 c0       	rjmp	.+38     	; 0x5362 <main+0x11a>
			__ticks --;
		}
		return;
	}
	else
		__ticks = (uint16_t)__tmp;
    533c:	6d 81       	ldd	r22, Y+5	; 0x05
    533e:	7e 81       	ldd	r23, Y+6	; 0x06
    5340:	8f 81       	ldd	r24, Y+7	; 0x07
    5342:	98 85       	ldd	r25, Y+8	; 0x08
    5344:	49 d2       	rcall	.+1170   	; 0x57d8 <__fixunssfsi>
    5346:	dc 01       	movw	r26, r24
    5348:	cb 01       	movw	r24, r22
    534a:	9a 87       	std	Y+10, r25	; 0x0a
    534c:	89 87       	std	Y+9, r24	; 0x09
    534e:	89 85       	ldd	r24, Y+9	; 0x09
    5350:	9a 85       	ldd	r25, Y+10	; 0x0a
    5352:	9e 87       	std	Y+14, r25	; 0x0e
    5354:	8d 87       	std	Y+13, r24	; 0x0d
    5356:	8d 85       	ldd	r24, Y+13	; 0x0d
    5358:	9e 85       	ldd	r25, Y+14	; 0x0e
    535a:	01 97       	sbiw	r24, 0x01	; 1
    535c:	f1 f7       	brne	.-4      	; 0x535a <main+0x112>
    535e:	9e 87       	std	Y+14, r25	; 0x0e
    5360:	8d 87       	std	Y+13, r24	; 0x0d
  _delay_ms(270);
  stop();
    5362:	0e 94 b9 0d 	call	0x1b72	; 0x1b72 <stop>
  left_turn_wls();
    5366:	b9 dd       	rcall	.-1166   	; 0x4eda <left_turn_wls>
  back();
    5368:	0e 94 83 0d 	call	0x1b06	; 0x1b06 <back>
    536c:	80 e0       	ldi	r24, 0x00	; 0
    536e:	90 e0       	ldi	r25, 0x00	; 0
    5370:	a8 e4       	ldi	r26, 0x48	; 72
    5372:	b3 e4       	ldi	r27, 0x43	; 67
    5374:	8f 87       	std	Y+15, r24	; 0x0f
    5376:	98 8b       	std	Y+16, r25	; 0x10
    5378:	a9 8b       	std	Y+17, r26	; 0x11
    537a:	ba 8b       	std	Y+18, r27	; 0x12

	__builtin_avr_delay_cycles(__ticks_dc);

#else
	uint16_t __ticks;
	__tmp = ((F_CPU) / 4e3) * __ms;
    537c:	26 e6       	ldi	r18, 0x66	; 102
    537e:	36 e6       	ldi	r19, 0x66	; 102
    5380:	46 e6       	ldi	r20, 0x66	; 102
    5382:	55 e4       	ldi	r21, 0x45	; 69
    5384:	6f 85       	ldd	r22, Y+15	; 0x0f
    5386:	78 89       	ldd	r23, Y+16	; 0x10
    5388:	89 89       	ldd	r24, Y+17	; 0x11
    538a:	9a 89       	ldd	r25, Y+18	; 0x12
    538c:	07 d3       	rcall	.+1550   	; 0x599c <__mulsf3>
    538e:	dc 01       	movw	r26, r24
    5390:	cb 01       	movw	r24, r22
    5392:	8b 8b       	std	Y+19, r24	; 0x13
    5394:	9c 8b       	std	Y+20, r25	; 0x14
    5396:	ad 8b       	std	Y+21, r26	; 0x15
    5398:	be 8b       	std	Y+22, r27	; 0x16
	if (__tmp < 1.0)
    539a:	20 e0       	ldi	r18, 0x00	; 0
    539c:	30 e0       	ldi	r19, 0x00	; 0
    539e:	40 e8       	ldi	r20, 0x80	; 128
    53a0:	5f e3       	ldi	r21, 0x3F	; 63
    53a2:	6b 89       	ldd	r22, Y+19	; 0x13
    53a4:	7c 89       	ldd	r23, Y+20	; 0x14
    53a6:	8d 89       	ldd	r24, Y+21	; 0x15
    53a8:	9e 89       	ldd	r25, Y+22	; 0x16
    53aa:	aa d1       	rcall	.+852    	; 0x5700 <__cmpsf2>
    53ac:	88 23       	and	r24, r24
    53ae:	2c f4       	brge	.+10     	; 0x53ba <main+0x172>
		__ticks = 1;
    53b0:	81 e0       	ldi	r24, 0x01	; 1
    53b2:	90 e0       	ldi	r25, 0x00	; 0
    53b4:	98 8f       	std	Y+24, r25	; 0x18
    53b6:	8f 8b       	std	Y+23, r24	; 0x17
    53b8:	3b c0       	rjmp	.+118    	; 0x5430 <main+0x1e8>
	else if (__tmp > 65535)
    53ba:	20 e0       	ldi	r18, 0x00	; 0
    53bc:	3f ef       	ldi	r19, 0xFF	; 255
    53be:	4f e7       	ldi	r20, 0x7F	; 127
    53c0:	57 e4       	ldi	r21, 0x47	; 71
    53c2:	6b 89       	ldd	r22, Y+19	; 0x13
    53c4:	7c 89       	ldd	r23, Y+20	; 0x14
    53c6:	8d 89       	ldd	r24, Y+21	; 0x15
    53c8:	9e 89       	ldd	r25, Y+22	; 0x16
    53ca:	e4 d2       	rcall	.+1480   	; 0x5994 <__gesf2>
    53cc:	18 16       	cp	r1, r24
    53ce:	3c f5       	brge	.+78     	; 0x541e <main+0x1d6>
	{
		//	__ticks = requested delay in 1/10 ms
		__ticks = (uint16_t) (__ms * 10.0);
    53d0:	20 e0       	ldi	r18, 0x00	; 0
    53d2:	30 e0       	ldi	r19, 0x00	; 0
    53d4:	40 e2       	ldi	r20, 0x20	; 32
    53d6:	51 e4       	ldi	r21, 0x41	; 65
    53d8:	6f 85       	ldd	r22, Y+15	; 0x0f
    53da:	78 89       	ldd	r23, Y+16	; 0x10
    53dc:	89 89       	ldd	r24, Y+17	; 0x11
    53de:	9a 89       	ldd	r25, Y+18	; 0x12
    53e0:	dd d2       	rcall	.+1466   	; 0x599c <__mulsf3>
    53e2:	dc 01       	movw	r26, r24
    53e4:	cb 01       	movw	r24, r22
    53e6:	bc 01       	movw	r22, r24
    53e8:	cd 01       	movw	r24, r26
    53ea:	f6 d1       	rcall	.+1004   	; 0x57d8 <__fixunssfsi>
    53ec:	dc 01       	movw	r26, r24
    53ee:	cb 01       	movw	r24, r22
    53f0:	98 8f       	std	Y+24, r25	; 0x18
    53f2:	8f 8b       	std	Y+23, r24	; 0x17
    53f4:	0f c0       	rjmp	.+30     	; 0x5414 <main+0x1cc>
    53f6:	80 e7       	ldi	r24, 0x70	; 112
    53f8:	91 e0       	ldi	r25, 0x01	; 1
    53fa:	9a 8f       	std	Y+26, r25	; 0x1a
    53fc:	89 8f       	std	Y+25, r24	; 0x19
    53fe:	89 8d       	ldd	r24, Y+25	; 0x19
    5400:	9a 8d       	ldd	r25, Y+26	; 0x1a
    5402:	01 97       	sbiw	r24, 0x01	; 1
    5404:	f1 f7       	brne	.-4      	; 0x5402 <main+0x1ba>
    5406:	9a 8f       	std	Y+26, r25	; 0x1a
    5408:	89 8f       	std	Y+25, r24	; 0x19
		while(__ticks)
		{
			// wait 1/10 ms
			_delay_loop_2(((F_CPU) / 4e3) / 10);
			__ticks --;
    540a:	8f 89       	ldd	r24, Y+23	; 0x17
    540c:	98 8d       	ldd	r25, Y+24	; 0x18
    540e:	01 97       	sbiw	r24, 0x01	; 1
    5410:	98 8f       	std	Y+24, r25	; 0x18
    5412:	8f 8b       	std	Y+23, r24	; 0x17
		__ticks = 1;
	else if (__tmp > 65535)
	{
		//	__ticks = requested delay in 1/10 ms
		__ticks = (uint16_t) (__ms * 10.0);
		while(__ticks)
    5414:	8f 89       	ldd	r24, Y+23	; 0x17
    5416:	98 8d       	ldd	r25, Y+24	; 0x18
    5418:	00 97       	sbiw	r24, 0x00	; 0
    541a:	69 f7       	brne	.-38     	; 0x53f6 <main+0x1ae>
    541c:	13 c0       	rjmp	.+38     	; 0x5444 <main+0x1fc>
			__ticks --;
		}
		return;
	}
	else
		__ticks = (uint16_t)__tmp;
    541e:	6b 89       	ldd	r22, Y+19	; 0x13
    5420:	7c 89       	ldd	r23, Y+20	; 0x14
    5422:	8d 89       	ldd	r24, Y+21	; 0x15
    5424:	9e 89       	ldd	r25, Y+22	; 0x16
    5426:	d8 d1       	rcall	.+944    	; 0x57d8 <__fixunssfsi>
    5428:	dc 01       	movw	r26, r24
    542a:	cb 01       	movw	r24, r22
    542c:	98 8f       	std	Y+24, r25	; 0x18
    542e:	8f 8b       	std	Y+23, r24	; 0x17
    5430:	8f 89       	ldd	r24, Y+23	; 0x17
    5432:	98 8d       	ldd	r25, Y+24	; 0x18
    5434:	9c 8f       	std	Y+28, r25	; 0x1c
    5436:	8b 8f       	std	Y+27, r24	; 0x1b
    5438:	8b 8d       	ldd	r24, Y+27	; 0x1b
    543a:	9c 8d       	ldd	r25, Y+28	; 0x1c
    543c:	01 97       	sbiw	r24, 0x01	; 1
    543e:	f1 f7       	brne	.-4      	; 0x543c <main+0x1f4>
    5440:	9c 8f       	std	Y+28, r25	; 0x1c
    5442:	8b 8f       	std	Y+27, r24	; 0x1b
  _delay_ms(200);
  stop();
    5444:	0e 94 b9 0d 	call	0x1b72	; 0x1b72 <stop>
  m_pick();
    5448:	0e 94 e9 10 	call	0x21d2	; 0x21d2 <m_pick>
  right_turn_wls_bwall();
    544c:	53 db       	rcall	.-2394   	; 0x4af4 <right_turn_wls_bwall>
  forward_wls(0,2);
    544e:	62 e0       	ldi	r22, 0x02	; 2
    5450:	70 e0       	ldi	r23, 0x00	; 0
    5452:	80 e0       	ldi	r24, 0x00	; 0
    5454:	90 e0       	ldi	r25, 0x00	; 0
    5456:	0e 94 67 1d 	call	0x3ace	; 0x3ace <forward_wls>
  forward();
    545a:	0e 94 8c 0d 	call	0x1b18	; 0x1b18 <forward>
    545e:	80 e0       	ldi	r24, 0x00	; 0
    5460:	90 e0       	ldi	r25, 0x00	; 0
    5462:	a7 e8       	ldi	r26, 0x87	; 135
    5464:	b3 e4       	ldi	r27, 0x43	; 67
    5466:	8d 8f       	std	Y+29, r24	; 0x1d
    5468:	9e 8f       	std	Y+30, r25	; 0x1e
    546a:	af 8f       	std	Y+31, r26	; 0x1f
    546c:	b8 a3       	std	Y+32, r27	; 0x20

	__builtin_avr_delay_cycles(__ticks_dc);

#else
	uint16_t __ticks;
	__tmp = ((F_CPU) / 4e3) * __ms;
    546e:	26 e6       	ldi	r18, 0x66	; 102
    5470:	36 e6       	ldi	r19, 0x66	; 102
    5472:	46 e6       	ldi	r20, 0x66	; 102
    5474:	55 e4       	ldi	r21, 0x45	; 69
    5476:	6d 8d       	ldd	r22, Y+29	; 0x1d
    5478:	7e 8d       	ldd	r23, Y+30	; 0x1e
    547a:	8f 8d       	ldd	r24, Y+31	; 0x1f
    547c:	98 a1       	ldd	r25, Y+32	; 0x20
    547e:	8e d2       	rcall	.+1308   	; 0x599c <__mulsf3>
    5480:	dc 01       	movw	r26, r24
    5482:	cb 01       	movw	r24, r22
    5484:	89 a3       	std	Y+33, r24	; 0x21
    5486:	9a a3       	std	Y+34, r25	; 0x22
    5488:	ab a3       	std	Y+35, r26	; 0x23
    548a:	bc a3       	std	Y+36, r27	; 0x24
	if (__tmp < 1.0)
    548c:	20 e0       	ldi	r18, 0x00	; 0
    548e:	30 e0       	ldi	r19, 0x00	; 0
    5490:	40 e8       	ldi	r20, 0x80	; 128
    5492:	5f e3       	ldi	r21, 0x3F	; 63
    5494:	69 a1       	ldd	r22, Y+33	; 0x21
    5496:	7a a1       	ldd	r23, Y+34	; 0x22
    5498:	8b a1       	ldd	r24, Y+35	; 0x23
    549a:	9c a1       	ldd	r25, Y+36	; 0x24
    549c:	31 d1       	rcall	.+610    	; 0x5700 <__cmpsf2>
    549e:	88 23       	and	r24, r24
    54a0:	2c f4       	brge	.+10     	; 0x54ac <main+0x264>
		__ticks = 1;
    54a2:	81 e0       	ldi	r24, 0x01	; 1
    54a4:	90 e0       	ldi	r25, 0x00	; 0
    54a6:	9e a3       	std	Y+38, r25	; 0x26
    54a8:	8d a3       	std	Y+37, r24	; 0x25
    54aa:	3b c0       	rjmp	.+118    	; 0x5522 <main+0x2da>
	else if (__tmp > 65535)
    54ac:	20 e0       	ldi	r18, 0x00	; 0
    54ae:	3f ef       	ldi	r19, 0xFF	; 255
    54b0:	4f e7       	ldi	r20, 0x7F	; 127
    54b2:	57 e4       	ldi	r21, 0x47	; 71
    54b4:	69 a1       	ldd	r22, Y+33	; 0x21
    54b6:	7a a1       	ldd	r23, Y+34	; 0x22
    54b8:	8b a1       	ldd	r24, Y+35	; 0x23
    54ba:	9c a1       	ldd	r25, Y+36	; 0x24
    54bc:	6b d2       	rcall	.+1238   	; 0x5994 <__gesf2>
    54be:	18 16       	cp	r1, r24
    54c0:	3c f5       	brge	.+78     	; 0x5510 <main+0x2c8>
	{
		//	__ticks = requested delay in 1/10 ms
		__ticks = (uint16_t) (__ms * 10.0);
    54c2:	20 e0       	ldi	r18, 0x00	; 0
    54c4:	30 e0       	ldi	r19, 0x00	; 0
    54c6:	40 e2       	ldi	r20, 0x20	; 32
    54c8:	51 e4       	ldi	r21, 0x41	; 65
    54ca:	6d 8d       	ldd	r22, Y+29	; 0x1d
    54cc:	7e 8d       	ldd	r23, Y+30	; 0x1e
    54ce:	8f 8d       	ldd	r24, Y+31	; 0x1f
    54d0:	98 a1       	ldd	r25, Y+32	; 0x20
    54d2:	64 d2       	rcall	.+1224   	; 0x599c <__mulsf3>
    54d4:	dc 01       	movw	r26, r24
    54d6:	cb 01       	movw	r24, r22
    54d8:	bc 01       	movw	r22, r24
    54da:	cd 01       	movw	r24, r26
    54dc:	7d d1       	rcall	.+762    	; 0x57d8 <__fixunssfsi>
    54de:	dc 01       	movw	r26, r24
    54e0:	cb 01       	movw	r24, r22
    54e2:	9e a3       	std	Y+38, r25	; 0x26
    54e4:	8d a3       	std	Y+37, r24	; 0x25
    54e6:	0f c0       	rjmp	.+30     	; 0x5506 <main+0x2be>
    54e8:	80 e7       	ldi	r24, 0x70	; 112
    54ea:	91 e0       	ldi	r25, 0x01	; 1
    54ec:	98 a7       	std	Y+40, r25	; 0x28
    54ee:	8f a3       	std	Y+39, r24	; 0x27
    54f0:	8f a1       	ldd	r24, Y+39	; 0x27
    54f2:	98 a5       	ldd	r25, Y+40	; 0x28
    54f4:	01 97       	sbiw	r24, 0x01	; 1
    54f6:	f1 f7       	brne	.-4      	; 0x54f4 <main+0x2ac>
    54f8:	98 a7       	std	Y+40, r25	; 0x28
    54fa:	8f a3       	std	Y+39, r24	; 0x27
		while(__ticks)
		{
			// wait 1/10 ms
			_delay_loop_2(((F_CPU) / 4e3) / 10);
			__ticks --;
    54fc:	8d a1       	ldd	r24, Y+37	; 0x25
    54fe:	9e a1       	ldd	r25, Y+38	; 0x26
    5500:	01 97       	sbiw	r24, 0x01	; 1
    5502:	9e a3       	std	Y+38, r25	; 0x26
    5504:	8d a3       	std	Y+37, r24	; 0x25
		__ticks = 1;
	else if (__tmp > 65535)
	{
		//	__ticks = requested delay in 1/10 ms
		__ticks = (uint16_t) (__ms * 10.0);
		while(__ticks)
    5506:	8d a1       	ldd	r24, Y+37	; 0x25
    5508:	9e a1       	ldd	r25, Y+38	; 0x26
    550a:	00 97       	sbiw	r24, 0x00	; 0
    550c:	69 f7       	brne	.-38     	; 0x54e8 <main+0x2a0>
    550e:	13 c0       	rjmp	.+38     	; 0x5536 <main+0x2ee>
			__ticks --;
		}
		return;
	}
	else
		__ticks = (uint16_t)__tmp;
    5510:	69 a1       	ldd	r22, Y+33	; 0x21
    5512:	7a a1       	ldd	r23, Y+34	; 0x22
    5514:	8b a1       	ldd	r24, Y+35	; 0x23
    5516:	9c a1       	ldd	r25, Y+36	; 0x24
    5518:	5f d1       	rcall	.+702    	; 0x57d8 <__fixunssfsi>
    551a:	dc 01       	movw	r26, r24
    551c:	cb 01       	movw	r24, r22
    551e:	9e a3       	std	Y+38, r25	; 0x26
    5520:	8d a3       	std	Y+37, r24	; 0x25
    5522:	8d a1       	ldd	r24, Y+37	; 0x25
    5524:	9e a1       	ldd	r25, Y+38	; 0x26
    5526:	9a a7       	std	Y+42, r25	; 0x2a
    5528:	89 a7       	std	Y+41, r24	; 0x29
    552a:	89 a5       	ldd	r24, Y+41	; 0x29
    552c:	9a a5       	ldd	r25, Y+42	; 0x2a
    552e:	01 97       	sbiw	r24, 0x01	; 1
    5530:	f1 f7       	brne	.-4      	; 0x552e <main+0x2e6>
    5532:	9a a7       	std	Y+42, r25	; 0x2a
    5534:	89 a7       	std	Y+41, r24	; 0x29
  _delay_ms(270);
  stop();
    5536:	0e 94 b9 0d 	call	0x1b72	; 0x1b72 <stop>
  left_turn_wls();
    553a:	cf dc       	rcall	.-1634   	; 0x4eda <left_turn_wls>
  back();
    553c:	0e 94 83 0d 	call	0x1b06	; 0x1b06 <back>
    5540:	80 e0       	ldi	r24, 0x00	; 0
    5542:	90 e0       	ldi	r25, 0x00	; 0
    5544:	a8 e4       	ldi	r26, 0x48	; 72
    5546:	b3 e4       	ldi	r27, 0x43	; 67
    5548:	8b a7       	std	Y+43, r24	; 0x2b
    554a:	9c a7       	std	Y+44, r25	; 0x2c
    554c:	ad a7       	std	Y+45, r26	; 0x2d
    554e:	be a7       	std	Y+46, r27	; 0x2e

	__builtin_avr_delay_cycles(__ticks_dc);

#else
	uint16_t __ticks;
	__tmp = ((F_CPU) / 4e3) * __ms;
    5550:	26 e6       	ldi	r18, 0x66	; 102
    5552:	36 e6       	ldi	r19, 0x66	; 102
    5554:	46 e6       	ldi	r20, 0x66	; 102
    5556:	55 e4       	ldi	r21, 0x45	; 69
    5558:	6b a5       	ldd	r22, Y+43	; 0x2b
    555a:	7c a5       	ldd	r23, Y+44	; 0x2c
    555c:	8d a5       	ldd	r24, Y+45	; 0x2d
    555e:	9e a5       	ldd	r25, Y+46	; 0x2e
    5560:	1d d2       	rcall	.+1082   	; 0x599c <__mulsf3>
    5562:	dc 01       	movw	r26, r24
    5564:	cb 01       	movw	r24, r22
    5566:	8f a7       	std	Y+47, r24	; 0x2f
    5568:	98 ab       	std	Y+48, r25	; 0x30
    556a:	a9 ab       	std	Y+49, r26	; 0x31
    556c:	ba ab       	std	Y+50, r27	; 0x32
	if (__tmp < 1.0)
    556e:	20 e0       	ldi	r18, 0x00	; 0
    5570:	30 e0       	ldi	r19, 0x00	; 0
    5572:	40 e8       	ldi	r20, 0x80	; 128
    5574:	5f e3       	ldi	r21, 0x3F	; 63
    5576:	6f a5       	ldd	r22, Y+47	; 0x2f
    5578:	78 a9       	ldd	r23, Y+48	; 0x30
    557a:	89 a9       	ldd	r24, Y+49	; 0x31
    557c:	9a a9       	ldd	r25, Y+50	; 0x32
    557e:	c0 d0       	rcall	.+384    	; 0x5700 <__cmpsf2>
    5580:	88 23       	and	r24, r24
    5582:	2c f4       	brge	.+10     	; 0x558e <main+0x346>
		__ticks = 1;
    5584:	81 e0       	ldi	r24, 0x01	; 1
    5586:	90 e0       	ldi	r25, 0x00	; 0
    5588:	9c ab       	std	Y+52, r25	; 0x34
    558a:	8b ab       	std	Y+51, r24	; 0x33
    558c:	3b c0       	rjmp	.+118    	; 0x5604 <main+0x3bc>
	else if (__tmp > 65535)
    558e:	20 e0       	ldi	r18, 0x00	; 0
    5590:	3f ef       	ldi	r19, 0xFF	; 255
    5592:	4f e7       	ldi	r20, 0x7F	; 127
    5594:	57 e4       	ldi	r21, 0x47	; 71
    5596:	6f a5       	ldd	r22, Y+47	; 0x2f
    5598:	78 a9       	ldd	r23, Y+48	; 0x30
    559a:	89 a9       	ldd	r24, Y+49	; 0x31
    559c:	9a a9       	ldd	r25, Y+50	; 0x32
    559e:	fa d1       	rcall	.+1012   	; 0x5994 <__gesf2>
    55a0:	18 16       	cp	r1, r24
    55a2:	3c f5       	brge	.+78     	; 0x55f2 <main+0x3aa>
	{
		//	__ticks = requested delay in 1/10 ms
		__ticks = (uint16_t) (__ms * 10.0);
    55a4:	20 e0       	ldi	r18, 0x00	; 0
    55a6:	30 e0       	ldi	r19, 0x00	; 0
    55a8:	40 e2       	ldi	r20, 0x20	; 32
    55aa:	51 e4       	ldi	r21, 0x41	; 65
    55ac:	6b a5       	ldd	r22, Y+43	; 0x2b
    55ae:	7c a5       	ldd	r23, Y+44	; 0x2c
    55b0:	8d a5       	ldd	r24, Y+45	; 0x2d
    55b2:	9e a5       	ldd	r25, Y+46	; 0x2e
    55b4:	f3 d1       	rcall	.+998    	; 0x599c <__mulsf3>
    55b6:	dc 01       	movw	r26, r24
    55b8:	cb 01       	movw	r24, r22
    55ba:	bc 01       	movw	r22, r24
    55bc:	cd 01       	movw	r24, r26
    55be:	0c d1       	rcall	.+536    	; 0x57d8 <__fixunssfsi>
    55c0:	dc 01       	movw	r26, r24
    55c2:	cb 01       	movw	r24, r22
    55c4:	9c ab       	std	Y+52, r25	; 0x34
    55c6:	8b ab       	std	Y+51, r24	; 0x33
    55c8:	0f c0       	rjmp	.+30     	; 0x55e8 <main+0x3a0>
    55ca:	80 e7       	ldi	r24, 0x70	; 112
    55cc:	91 e0       	ldi	r25, 0x01	; 1
    55ce:	9e ab       	std	Y+54, r25	; 0x36
    55d0:	8d ab       	std	Y+53, r24	; 0x35
    55d2:	8d a9       	ldd	r24, Y+53	; 0x35
    55d4:	9e a9       	ldd	r25, Y+54	; 0x36
    55d6:	01 97       	sbiw	r24, 0x01	; 1
    55d8:	f1 f7       	brne	.-4      	; 0x55d6 <main+0x38e>
    55da:	9e ab       	std	Y+54, r25	; 0x36
    55dc:	8d ab       	std	Y+53, r24	; 0x35
		while(__ticks)
		{
			// wait 1/10 ms
			_delay_loop_2(((F_CPU) / 4e3) / 10);
			__ticks --;
    55de:	8b a9       	ldd	r24, Y+51	; 0x33
    55e0:	9c a9       	ldd	r25, Y+52	; 0x34
    55e2:	01 97       	sbiw	r24, 0x01	; 1
    55e4:	9c ab       	std	Y+52, r25	; 0x34
    55e6:	8b ab       	std	Y+51, r24	; 0x33
		__ticks = 1;
	else if (__tmp > 65535)
	{
		//	__ticks = requested delay in 1/10 ms
		__ticks = (uint16_t) (__ms * 10.0);
		while(__ticks)
    55e8:	8b a9       	ldd	r24, Y+51	; 0x33
    55ea:	9c a9       	ldd	r25, Y+52	; 0x34
    55ec:	00 97       	sbiw	r24, 0x00	; 0
    55ee:	69 f7       	brne	.-38     	; 0x55ca <main+0x382>
    55f0:	13 c0       	rjmp	.+38     	; 0x5618 <main+0x3d0>
			__ticks --;
		}
		return;
	}
	else
		__ticks = (uint16_t)__tmp;
    55f2:	6f a5       	ldd	r22, Y+47	; 0x2f
    55f4:	78 a9       	ldd	r23, Y+48	; 0x30
    55f6:	89 a9       	ldd	r24, Y+49	; 0x31
    55f8:	9a a9       	ldd	r25, Y+50	; 0x32
    55fa:	ee d0       	rcall	.+476    	; 0x57d8 <__fixunssfsi>
    55fc:	dc 01       	movw	r26, r24
    55fe:	cb 01       	movw	r24, r22
    5600:	9c ab       	std	Y+52, r25	; 0x34
    5602:	8b ab       	std	Y+51, r24	; 0x33
    5604:	8b a9       	ldd	r24, Y+51	; 0x33
    5606:	9c a9       	ldd	r25, Y+52	; 0x34
    5608:	98 af       	std	Y+56, r25	; 0x38
    560a:	8f ab       	std	Y+55, r24	; 0x37
    560c:	8f a9       	ldd	r24, Y+55	; 0x37
    560e:	98 ad       	ldd	r25, Y+56	; 0x38
    5610:	01 97       	sbiw	r24, 0x01	; 1
    5612:	f1 f7       	brne	.-4      	; 0x5610 <main+0x3c8>
    5614:	98 af       	std	Y+56, r25	; 0x38
    5616:	8f ab       	std	Y+55, r24	; 0x37
  _delay_ms(200);
  stop();
    5618:	0e 94 b9 0d 	call	0x1b72	; 0x1b72 <stop>
  s_pick();
    561c:	0e 94 8b 13 	call	0x2716	; 0x2716 <s_pick>
    5620:	80 e0       	ldi	r24, 0x00	; 0
    5622:	90 e0       	ldi	r25, 0x00	; 0
  
}
    5624:	e8 96       	adiw	r28, 0x38	; 56
    5626:	0f b6       	in	r0, 0x3f	; 63
    5628:	f8 94       	cli
    562a:	de bf       	out	0x3e, r29	; 62
    562c:	0f be       	out	0x3f, r0	; 63
    562e:	cd bf       	out	0x3d, r28	; 61
    5630:	df 91       	pop	r29
    5632:	cf 91       	pop	r28
    5634:	08 95       	ret

00005636 <__subsf3>:
    5636:	50 58       	subi	r21, 0x80	; 128

00005638 <__addsf3>:
    5638:	bb 27       	eor	r27, r27
    563a:	aa 27       	eor	r26, r26
    563c:	0e d0       	rcall	.+28     	; 0x565a <__addsf3x>
    563e:	70 c1       	rjmp	.+736    	; 0x5920 <__fp_round>
    5640:	61 d1       	rcall	.+706    	; 0x5904 <__fp_pscA>
    5642:	30 f0       	brcs	.+12     	; 0x5650 <__addsf3+0x18>
    5644:	66 d1       	rcall	.+716    	; 0x5912 <__fp_pscB>
    5646:	20 f0       	brcs	.+8      	; 0x5650 <__addsf3+0x18>
    5648:	31 f4       	brne	.+12     	; 0x5656 <__addsf3+0x1e>
    564a:	9f 3f       	cpi	r25, 0xFF	; 255
    564c:	11 f4       	brne	.+4      	; 0x5652 <__addsf3+0x1a>
    564e:	1e f4       	brtc	.+6      	; 0x5656 <__addsf3+0x1e>
    5650:	56 c1       	rjmp	.+684    	; 0x58fe <__fp_nan>
    5652:	0e f4       	brtc	.+2      	; 0x5656 <__addsf3+0x1e>
    5654:	e0 95       	com	r30
    5656:	e7 fb       	bst	r30, 7
    5658:	4c c1       	rjmp	.+664    	; 0x58f2 <__fp_inf>

0000565a <__addsf3x>:
    565a:	e9 2f       	mov	r30, r25
    565c:	72 d1       	rcall	.+740    	; 0x5942 <__fp_split3>
    565e:	80 f3       	brcs	.-32     	; 0x5640 <__addsf3+0x8>
    5660:	ba 17       	cp	r27, r26
    5662:	62 07       	cpc	r22, r18
    5664:	73 07       	cpc	r23, r19
    5666:	84 07       	cpc	r24, r20
    5668:	95 07       	cpc	r25, r21
    566a:	18 f0       	brcs	.+6      	; 0x5672 <__addsf3x+0x18>
    566c:	71 f4       	brne	.+28     	; 0x568a <__addsf3x+0x30>
    566e:	9e f5       	brtc	.+102    	; 0x56d6 <__addsf3x+0x7c>
    5670:	8a c1       	rjmp	.+788    	; 0x5986 <__fp_zero>
    5672:	0e f4       	brtc	.+2      	; 0x5676 <__addsf3x+0x1c>
    5674:	e0 95       	com	r30
    5676:	0b 2e       	mov	r0, r27
    5678:	ba 2f       	mov	r27, r26
    567a:	a0 2d       	mov	r26, r0
    567c:	0b 01       	movw	r0, r22
    567e:	b9 01       	movw	r22, r18
    5680:	90 01       	movw	r18, r0
    5682:	0c 01       	movw	r0, r24
    5684:	ca 01       	movw	r24, r20
    5686:	a0 01       	movw	r20, r0
    5688:	11 24       	eor	r1, r1
    568a:	ff 27       	eor	r31, r31
    568c:	59 1b       	sub	r21, r25
    568e:	99 f0       	breq	.+38     	; 0x56b6 <__addsf3x+0x5c>
    5690:	59 3f       	cpi	r21, 0xF9	; 249
    5692:	50 f4       	brcc	.+20     	; 0x56a8 <__addsf3x+0x4e>
    5694:	50 3e       	cpi	r21, 0xE0	; 224
    5696:	68 f1       	brcs	.+90     	; 0x56f2 <__addsf3x+0x98>
    5698:	1a 16       	cp	r1, r26
    569a:	f0 40       	sbci	r31, 0x00	; 0
    569c:	a2 2f       	mov	r26, r18
    569e:	23 2f       	mov	r18, r19
    56a0:	34 2f       	mov	r19, r20
    56a2:	44 27       	eor	r20, r20
    56a4:	58 5f       	subi	r21, 0xF8	; 248
    56a6:	f3 cf       	rjmp	.-26     	; 0x568e <__addsf3x+0x34>
    56a8:	46 95       	lsr	r20
    56aa:	37 95       	ror	r19
    56ac:	27 95       	ror	r18
    56ae:	a7 95       	ror	r26
    56b0:	f0 40       	sbci	r31, 0x00	; 0
    56b2:	53 95       	inc	r21
    56b4:	c9 f7       	brne	.-14     	; 0x56a8 <__addsf3x+0x4e>
    56b6:	7e f4       	brtc	.+30     	; 0x56d6 <__addsf3x+0x7c>
    56b8:	1f 16       	cp	r1, r31
    56ba:	ba 0b       	sbc	r27, r26
    56bc:	62 0b       	sbc	r22, r18
    56be:	73 0b       	sbc	r23, r19
    56c0:	84 0b       	sbc	r24, r20
    56c2:	ba f0       	brmi	.+46     	; 0x56f2 <__addsf3x+0x98>
    56c4:	91 50       	subi	r25, 0x01	; 1
    56c6:	a1 f0       	breq	.+40     	; 0x56f0 <__addsf3x+0x96>
    56c8:	ff 0f       	add	r31, r31
    56ca:	bb 1f       	adc	r27, r27
    56cc:	66 1f       	adc	r22, r22
    56ce:	77 1f       	adc	r23, r23
    56d0:	88 1f       	adc	r24, r24
    56d2:	c2 f7       	brpl	.-16     	; 0x56c4 <__addsf3x+0x6a>
    56d4:	0e c0       	rjmp	.+28     	; 0x56f2 <__addsf3x+0x98>
    56d6:	ba 0f       	add	r27, r26
    56d8:	62 1f       	adc	r22, r18
    56da:	73 1f       	adc	r23, r19
    56dc:	84 1f       	adc	r24, r20
    56de:	48 f4       	brcc	.+18     	; 0x56f2 <__addsf3x+0x98>
    56e0:	87 95       	ror	r24
    56e2:	77 95       	ror	r23
    56e4:	67 95       	ror	r22
    56e6:	b7 95       	ror	r27
    56e8:	f7 95       	ror	r31
    56ea:	9e 3f       	cpi	r25, 0xFE	; 254
    56ec:	08 f0       	brcs	.+2      	; 0x56f0 <__addsf3x+0x96>
    56ee:	b3 cf       	rjmp	.-154    	; 0x5656 <__addsf3+0x1e>
    56f0:	93 95       	inc	r25
    56f2:	88 0f       	add	r24, r24
    56f4:	08 f0       	brcs	.+2      	; 0x56f8 <__addsf3x+0x9e>
    56f6:	99 27       	eor	r25, r25
    56f8:	ee 0f       	add	r30, r30
    56fa:	97 95       	ror	r25
    56fc:	87 95       	ror	r24
    56fe:	08 95       	ret

00005700 <__cmpsf2>:
    5700:	d4 d0       	rcall	.+424    	; 0x58aa <__fp_cmp>
    5702:	08 f4       	brcc	.+2      	; 0x5706 <__cmpsf2+0x6>
    5704:	81 e0       	ldi	r24, 0x01	; 1
    5706:	08 95       	ret

00005708 <__divsf3>:
    5708:	0c d0       	rcall	.+24     	; 0x5722 <__divsf3x>
    570a:	0a c1       	rjmp	.+532    	; 0x5920 <__fp_round>
    570c:	02 d1       	rcall	.+516    	; 0x5912 <__fp_pscB>
    570e:	40 f0       	brcs	.+16     	; 0x5720 <__divsf3+0x18>
    5710:	f9 d0       	rcall	.+498    	; 0x5904 <__fp_pscA>
    5712:	30 f0       	brcs	.+12     	; 0x5720 <__divsf3+0x18>
    5714:	21 f4       	brne	.+8      	; 0x571e <__divsf3+0x16>
    5716:	5f 3f       	cpi	r21, 0xFF	; 255
    5718:	19 f0       	breq	.+6      	; 0x5720 <__divsf3+0x18>
    571a:	eb c0       	rjmp	.+470    	; 0x58f2 <__fp_inf>
    571c:	51 11       	cpse	r21, r1
    571e:	34 c1       	rjmp	.+616    	; 0x5988 <__fp_szero>
    5720:	ee c0       	rjmp	.+476    	; 0x58fe <__fp_nan>

00005722 <__divsf3x>:
    5722:	0f d1       	rcall	.+542    	; 0x5942 <__fp_split3>
    5724:	98 f3       	brcs	.-26     	; 0x570c <__divsf3+0x4>

00005726 <__divsf3_pse>:
    5726:	99 23       	and	r25, r25
    5728:	c9 f3       	breq	.-14     	; 0x571c <__divsf3+0x14>
    572a:	55 23       	and	r21, r21
    572c:	b1 f3       	breq	.-20     	; 0x571a <__divsf3+0x12>
    572e:	95 1b       	sub	r25, r21
    5730:	55 0b       	sbc	r21, r21
    5732:	bb 27       	eor	r27, r27
    5734:	aa 27       	eor	r26, r26
    5736:	62 17       	cp	r22, r18
    5738:	73 07       	cpc	r23, r19
    573a:	84 07       	cpc	r24, r20
    573c:	38 f0       	brcs	.+14     	; 0x574c <__divsf3_pse+0x26>
    573e:	9f 5f       	subi	r25, 0xFF	; 255
    5740:	5f 4f       	sbci	r21, 0xFF	; 255
    5742:	22 0f       	add	r18, r18
    5744:	33 1f       	adc	r19, r19
    5746:	44 1f       	adc	r20, r20
    5748:	aa 1f       	adc	r26, r26
    574a:	a9 f3       	breq	.-22     	; 0x5736 <__divsf3_pse+0x10>
    574c:	33 d0       	rcall	.+102    	; 0x57b4 <__divsf3_pse+0x8e>
    574e:	0e 2e       	mov	r0, r30
    5750:	3a f0       	brmi	.+14     	; 0x5760 <__divsf3_pse+0x3a>
    5752:	e0 e8       	ldi	r30, 0x80	; 128
    5754:	30 d0       	rcall	.+96     	; 0x57b6 <__divsf3_pse+0x90>
    5756:	91 50       	subi	r25, 0x01	; 1
    5758:	50 40       	sbci	r21, 0x00	; 0
    575a:	e6 95       	lsr	r30
    575c:	00 1c       	adc	r0, r0
    575e:	ca f7       	brpl	.-14     	; 0x5752 <__divsf3_pse+0x2c>
    5760:	29 d0       	rcall	.+82     	; 0x57b4 <__divsf3_pse+0x8e>
    5762:	fe 2f       	mov	r31, r30
    5764:	27 d0       	rcall	.+78     	; 0x57b4 <__divsf3_pse+0x8e>
    5766:	66 0f       	add	r22, r22
    5768:	77 1f       	adc	r23, r23
    576a:	88 1f       	adc	r24, r24
    576c:	bb 1f       	adc	r27, r27
    576e:	26 17       	cp	r18, r22
    5770:	37 07       	cpc	r19, r23
    5772:	48 07       	cpc	r20, r24
    5774:	ab 07       	cpc	r26, r27
    5776:	b0 e8       	ldi	r27, 0x80	; 128
    5778:	09 f0       	breq	.+2      	; 0x577c <__divsf3_pse+0x56>
    577a:	bb 0b       	sbc	r27, r27
    577c:	80 2d       	mov	r24, r0
    577e:	bf 01       	movw	r22, r30
    5780:	ff 27       	eor	r31, r31
    5782:	93 58       	subi	r25, 0x83	; 131
    5784:	5f 4f       	sbci	r21, 0xFF	; 255
    5786:	2a f0       	brmi	.+10     	; 0x5792 <__divsf3_pse+0x6c>
    5788:	9e 3f       	cpi	r25, 0xFE	; 254
    578a:	51 05       	cpc	r21, r1
    578c:	68 f0       	brcs	.+26     	; 0x57a8 <__divsf3_pse+0x82>
    578e:	b1 c0       	rjmp	.+354    	; 0x58f2 <__fp_inf>
    5790:	fb c0       	rjmp	.+502    	; 0x5988 <__fp_szero>
    5792:	5f 3f       	cpi	r21, 0xFF	; 255
    5794:	ec f3       	brlt	.-6      	; 0x5790 <__divsf3_pse+0x6a>
    5796:	98 3e       	cpi	r25, 0xE8	; 232
    5798:	dc f3       	brlt	.-10     	; 0x5790 <__divsf3_pse+0x6a>
    579a:	86 95       	lsr	r24
    579c:	77 95       	ror	r23
    579e:	67 95       	ror	r22
    57a0:	b7 95       	ror	r27
    57a2:	f7 95       	ror	r31
    57a4:	9f 5f       	subi	r25, 0xFF	; 255
    57a6:	c9 f7       	brne	.-14     	; 0x579a <__divsf3_pse+0x74>
    57a8:	88 0f       	add	r24, r24
    57aa:	91 1d       	adc	r25, r1
    57ac:	96 95       	lsr	r25
    57ae:	87 95       	ror	r24
    57b0:	97 f9       	bld	r25, 7
    57b2:	08 95       	ret
    57b4:	e1 e0       	ldi	r30, 0x01	; 1
    57b6:	66 0f       	add	r22, r22
    57b8:	77 1f       	adc	r23, r23
    57ba:	88 1f       	adc	r24, r24
    57bc:	bb 1f       	adc	r27, r27
    57be:	62 17       	cp	r22, r18
    57c0:	73 07       	cpc	r23, r19
    57c2:	84 07       	cpc	r24, r20
    57c4:	ba 07       	cpc	r27, r26
    57c6:	20 f0       	brcs	.+8      	; 0x57d0 <__divsf3_pse+0xaa>
    57c8:	62 1b       	sub	r22, r18
    57ca:	73 0b       	sbc	r23, r19
    57cc:	84 0b       	sbc	r24, r20
    57ce:	ba 0b       	sbc	r27, r26
    57d0:	ee 1f       	adc	r30, r30
    57d2:	88 f7       	brcc	.-30     	; 0x57b6 <__divsf3_pse+0x90>
    57d4:	e0 95       	com	r30
    57d6:	08 95       	ret

000057d8 <__fixunssfsi>:
    57d8:	bc d0       	rcall	.+376    	; 0x5952 <__fp_splitA>
    57da:	88 f0       	brcs	.+34     	; 0x57fe <__fixunssfsi+0x26>
    57dc:	9f 57       	subi	r25, 0x7F	; 127
    57de:	90 f0       	brcs	.+36     	; 0x5804 <__fixunssfsi+0x2c>
    57e0:	b9 2f       	mov	r27, r25
    57e2:	99 27       	eor	r25, r25
    57e4:	b7 51       	subi	r27, 0x17	; 23
    57e6:	a0 f0       	brcs	.+40     	; 0x5810 <__fixunssfsi+0x38>
    57e8:	d1 f0       	breq	.+52     	; 0x581e <__fixunssfsi+0x46>
    57ea:	66 0f       	add	r22, r22
    57ec:	77 1f       	adc	r23, r23
    57ee:	88 1f       	adc	r24, r24
    57f0:	99 1f       	adc	r25, r25
    57f2:	1a f0       	brmi	.+6      	; 0x57fa <__fixunssfsi+0x22>
    57f4:	ba 95       	dec	r27
    57f6:	c9 f7       	brne	.-14     	; 0x57ea <__fixunssfsi+0x12>
    57f8:	12 c0       	rjmp	.+36     	; 0x581e <__fixunssfsi+0x46>
    57fa:	b1 30       	cpi	r27, 0x01	; 1
    57fc:	81 f0       	breq	.+32     	; 0x581e <__fixunssfsi+0x46>
    57fe:	c3 d0       	rcall	.+390    	; 0x5986 <__fp_zero>
    5800:	b1 e0       	ldi	r27, 0x01	; 1
    5802:	08 95       	ret
    5804:	c0 c0       	rjmp	.+384    	; 0x5986 <__fp_zero>
    5806:	67 2f       	mov	r22, r23
    5808:	78 2f       	mov	r23, r24
    580a:	88 27       	eor	r24, r24
    580c:	b8 5f       	subi	r27, 0xF8	; 248
    580e:	39 f0       	breq	.+14     	; 0x581e <__fixunssfsi+0x46>
    5810:	b9 3f       	cpi	r27, 0xF9	; 249
    5812:	cc f3       	brlt	.-14     	; 0x5806 <__fixunssfsi+0x2e>
    5814:	86 95       	lsr	r24
    5816:	77 95       	ror	r23
    5818:	67 95       	ror	r22
    581a:	b3 95       	inc	r27
    581c:	d9 f7       	brne	.-10     	; 0x5814 <__fixunssfsi+0x3c>
    581e:	3e f4       	brtc	.+14     	; 0x582e <__fixunssfsi+0x56>
    5820:	90 95       	com	r25
    5822:	80 95       	com	r24
    5824:	70 95       	com	r23
    5826:	61 95       	neg	r22
    5828:	7f 4f       	sbci	r23, 0xFF	; 255
    582a:	8f 4f       	sbci	r24, 0xFF	; 255
    582c:	9f 4f       	sbci	r25, 0xFF	; 255
    582e:	08 95       	ret

00005830 <__floatunsisf>:
    5830:	e8 94       	clt
    5832:	09 c0       	rjmp	.+18     	; 0x5846 <__floatsisf+0x12>

00005834 <__floatsisf>:
    5834:	97 fb       	bst	r25, 7
    5836:	3e f4       	brtc	.+14     	; 0x5846 <__floatsisf+0x12>
    5838:	90 95       	com	r25
    583a:	80 95       	com	r24
    583c:	70 95       	com	r23
    583e:	61 95       	neg	r22
    5840:	7f 4f       	sbci	r23, 0xFF	; 255
    5842:	8f 4f       	sbci	r24, 0xFF	; 255
    5844:	9f 4f       	sbci	r25, 0xFF	; 255
    5846:	99 23       	and	r25, r25
    5848:	a9 f0       	breq	.+42     	; 0x5874 <__floatsisf+0x40>
    584a:	f9 2f       	mov	r31, r25
    584c:	96 e9       	ldi	r25, 0x96	; 150
    584e:	bb 27       	eor	r27, r27
    5850:	93 95       	inc	r25
    5852:	f6 95       	lsr	r31
    5854:	87 95       	ror	r24
    5856:	77 95       	ror	r23
    5858:	67 95       	ror	r22
    585a:	b7 95       	ror	r27
    585c:	f1 11       	cpse	r31, r1
    585e:	f8 cf       	rjmp	.-16     	; 0x5850 <__floatsisf+0x1c>
    5860:	fa f4       	brpl	.+62     	; 0x58a0 <__floatsisf+0x6c>
    5862:	bb 0f       	add	r27, r27
    5864:	11 f4       	brne	.+4      	; 0x586a <__floatsisf+0x36>
    5866:	60 ff       	sbrs	r22, 0
    5868:	1b c0       	rjmp	.+54     	; 0x58a0 <__floatsisf+0x6c>
    586a:	6f 5f       	subi	r22, 0xFF	; 255
    586c:	7f 4f       	sbci	r23, 0xFF	; 255
    586e:	8f 4f       	sbci	r24, 0xFF	; 255
    5870:	9f 4f       	sbci	r25, 0xFF	; 255
    5872:	16 c0       	rjmp	.+44     	; 0x58a0 <__floatsisf+0x6c>
    5874:	88 23       	and	r24, r24
    5876:	11 f0       	breq	.+4      	; 0x587c <__floatsisf+0x48>
    5878:	96 e9       	ldi	r25, 0x96	; 150
    587a:	11 c0       	rjmp	.+34     	; 0x589e <__floatsisf+0x6a>
    587c:	77 23       	and	r23, r23
    587e:	21 f0       	breq	.+8      	; 0x5888 <__floatsisf+0x54>
    5880:	9e e8       	ldi	r25, 0x8E	; 142
    5882:	87 2f       	mov	r24, r23
    5884:	76 2f       	mov	r23, r22
    5886:	05 c0       	rjmp	.+10     	; 0x5892 <__floatsisf+0x5e>
    5888:	66 23       	and	r22, r22
    588a:	71 f0       	breq	.+28     	; 0x58a8 <__floatsisf+0x74>
    588c:	96 e8       	ldi	r25, 0x86	; 134
    588e:	86 2f       	mov	r24, r22
    5890:	70 e0       	ldi	r23, 0x00	; 0
    5892:	60 e0       	ldi	r22, 0x00	; 0
    5894:	2a f0       	brmi	.+10     	; 0x58a0 <__floatsisf+0x6c>
    5896:	9a 95       	dec	r25
    5898:	66 0f       	add	r22, r22
    589a:	77 1f       	adc	r23, r23
    589c:	88 1f       	adc	r24, r24
    589e:	da f7       	brpl	.-10     	; 0x5896 <__floatsisf+0x62>
    58a0:	88 0f       	add	r24, r24
    58a2:	96 95       	lsr	r25
    58a4:	87 95       	ror	r24
    58a6:	97 f9       	bld	r25, 7
    58a8:	08 95       	ret

000058aa <__fp_cmp>:
    58aa:	99 0f       	add	r25, r25
    58ac:	00 08       	sbc	r0, r0
    58ae:	55 0f       	add	r21, r21
    58b0:	aa 0b       	sbc	r26, r26
    58b2:	e0 e8       	ldi	r30, 0x80	; 128
    58b4:	fe ef       	ldi	r31, 0xFE	; 254
    58b6:	16 16       	cp	r1, r22
    58b8:	17 06       	cpc	r1, r23
    58ba:	e8 07       	cpc	r30, r24
    58bc:	f9 07       	cpc	r31, r25
    58be:	c0 f0       	brcs	.+48     	; 0x58f0 <__fp_cmp+0x46>
    58c0:	12 16       	cp	r1, r18
    58c2:	13 06       	cpc	r1, r19
    58c4:	e4 07       	cpc	r30, r20
    58c6:	f5 07       	cpc	r31, r21
    58c8:	98 f0       	brcs	.+38     	; 0x58f0 <__fp_cmp+0x46>
    58ca:	62 1b       	sub	r22, r18
    58cc:	73 0b       	sbc	r23, r19
    58ce:	84 0b       	sbc	r24, r20
    58d0:	95 0b       	sbc	r25, r21
    58d2:	39 f4       	brne	.+14     	; 0x58e2 <__fp_cmp+0x38>
    58d4:	0a 26       	eor	r0, r26
    58d6:	61 f0       	breq	.+24     	; 0x58f0 <__fp_cmp+0x46>
    58d8:	23 2b       	or	r18, r19
    58da:	24 2b       	or	r18, r20
    58dc:	25 2b       	or	r18, r21
    58de:	21 f4       	brne	.+8      	; 0x58e8 <__fp_cmp+0x3e>
    58e0:	08 95       	ret
    58e2:	0a 26       	eor	r0, r26
    58e4:	09 f4       	brne	.+2      	; 0x58e8 <__fp_cmp+0x3e>
    58e6:	a1 40       	sbci	r26, 0x01	; 1
    58e8:	a6 95       	lsr	r26
    58ea:	8f ef       	ldi	r24, 0xFF	; 255
    58ec:	81 1d       	adc	r24, r1
    58ee:	81 1d       	adc	r24, r1
    58f0:	08 95       	ret

000058f2 <__fp_inf>:
    58f2:	97 f9       	bld	r25, 7
    58f4:	9f 67       	ori	r25, 0x7F	; 127
    58f6:	80 e8       	ldi	r24, 0x80	; 128
    58f8:	70 e0       	ldi	r23, 0x00	; 0
    58fa:	60 e0       	ldi	r22, 0x00	; 0
    58fc:	08 95       	ret

000058fe <__fp_nan>:
    58fe:	9f ef       	ldi	r25, 0xFF	; 255
    5900:	80 ec       	ldi	r24, 0xC0	; 192
    5902:	08 95       	ret

00005904 <__fp_pscA>:
    5904:	00 24       	eor	r0, r0
    5906:	0a 94       	dec	r0
    5908:	16 16       	cp	r1, r22
    590a:	17 06       	cpc	r1, r23
    590c:	18 06       	cpc	r1, r24
    590e:	09 06       	cpc	r0, r25
    5910:	08 95       	ret

00005912 <__fp_pscB>:
    5912:	00 24       	eor	r0, r0
    5914:	0a 94       	dec	r0
    5916:	12 16       	cp	r1, r18
    5918:	13 06       	cpc	r1, r19
    591a:	14 06       	cpc	r1, r20
    591c:	05 06       	cpc	r0, r21
    591e:	08 95       	ret

00005920 <__fp_round>:
    5920:	09 2e       	mov	r0, r25
    5922:	03 94       	inc	r0
    5924:	00 0c       	add	r0, r0
    5926:	11 f4       	brne	.+4      	; 0x592c <__fp_round+0xc>
    5928:	88 23       	and	r24, r24
    592a:	52 f0       	brmi	.+20     	; 0x5940 <__fp_round+0x20>
    592c:	bb 0f       	add	r27, r27
    592e:	40 f4       	brcc	.+16     	; 0x5940 <__fp_round+0x20>
    5930:	bf 2b       	or	r27, r31
    5932:	11 f4       	brne	.+4      	; 0x5938 <__fp_round+0x18>
    5934:	60 ff       	sbrs	r22, 0
    5936:	04 c0       	rjmp	.+8      	; 0x5940 <__fp_round+0x20>
    5938:	6f 5f       	subi	r22, 0xFF	; 255
    593a:	7f 4f       	sbci	r23, 0xFF	; 255
    593c:	8f 4f       	sbci	r24, 0xFF	; 255
    593e:	9f 4f       	sbci	r25, 0xFF	; 255
    5940:	08 95       	ret

00005942 <__fp_split3>:
    5942:	57 fd       	sbrc	r21, 7
    5944:	90 58       	subi	r25, 0x80	; 128
    5946:	44 0f       	add	r20, r20
    5948:	55 1f       	adc	r21, r21
    594a:	59 f0       	breq	.+22     	; 0x5962 <__fp_splitA+0x10>
    594c:	5f 3f       	cpi	r21, 0xFF	; 255
    594e:	71 f0       	breq	.+28     	; 0x596c <__fp_splitA+0x1a>
    5950:	47 95       	ror	r20

00005952 <__fp_splitA>:
    5952:	88 0f       	add	r24, r24
    5954:	97 fb       	bst	r25, 7
    5956:	99 1f       	adc	r25, r25
    5958:	61 f0       	breq	.+24     	; 0x5972 <__fp_splitA+0x20>
    595a:	9f 3f       	cpi	r25, 0xFF	; 255
    595c:	79 f0       	breq	.+30     	; 0x597c <__fp_splitA+0x2a>
    595e:	87 95       	ror	r24
    5960:	08 95       	ret
    5962:	12 16       	cp	r1, r18
    5964:	13 06       	cpc	r1, r19
    5966:	14 06       	cpc	r1, r20
    5968:	55 1f       	adc	r21, r21
    596a:	f2 cf       	rjmp	.-28     	; 0x5950 <__fp_split3+0xe>
    596c:	46 95       	lsr	r20
    596e:	f1 df       	rcall	.-30     	; 0x5952 <__fp_splitA>
    5970:	08 c0       	rjmp	.+16     	; 0x5982 <__fp_splitA+0x30>
    5972:	16 16       	cp	r1, r22
    5974:	17 06       	cpc	r1, r23
    5976:	18 06       	cpc	r1, r24
    5978:	99 1f       	adc	r25, r25
    597a:	f1 cf       	rjmp	.-30     	; 0x595e <__fp_splitA+0xc>
    597c:	86 95       	lsr	r24
    597e:	71 05       	cpc	r23, r1
    5980:	61 05       	cpc	r22, r1
    5982:	08 94       	sec
    5984:	08 95       	ret

00005986 <__fp_zero>:
    5986:	e8 94       	clt

00005988 <__fp_szero>:
    5988:	bb 27       	eor	r27, r27
    598a:	66 27       	eor	r22, r22
    598c:	77 27       	eor	r23, r23
    598e:	cb 01       	movw	r24, r22
    5990:	97 f9       	bld	r25, 7
    5992:	08 95       	ret

00005994 <__gesf2>:
    5994:	8a df       	rcall	.-236    	; 0x58aa <__fp_cmp>
    5996:	08 f4       	brcc	.+2      	; 0x599a <__gesf2+0x6>
    5998:	8f ef       	ldi	r24, 0xFF	; 255
    599a:	08 95       	ret

0000599c <__mulsf3>:
    599c:	0b d0       	rcall	.+22     	; 0x59b4 <__mulsf3x>
    599e:	c0 cf       	rjmp	.-128    	; 0x5920 <__fp_round>
    59a0:	b1 df       	rcall	.-158    	; 0x5904 <__fp_pscA>
    59a2:	28 f0       	brcs	.+10     	; 0x59ae <__mulsf3+0x12>
    59a4:	b6 df       	rcall	.-148    	; 0x5912 <__fp_pscB>
    59a6:	18 f0       	brcs	.+6      	; 0x59ae <__mulsf3+0x12>
    59a8:	95 23       	and	r25, r21
    59aa:	09 f0       	breq	.+2      	; 0x59ae <__mulsf3+0x12>
    59ac:	a2 cf       	rjmp	.-188    	; 0x58f2 <__fp_inf>
    59ae:	a7 cf       	rjmp	.-178    	; 0x58fe <__fp_nan>
    59b0:	11 24       	eor	r1, r1
    59b2:	ea cf       	rjmp	.-44     	; 0x5988 <__fp_szero>

000059b4 <__mulsf3x>:
    59b4:	c6 df       	rcall	.-116    	; 0x5942 <__fp_split3>
    59b6:	a0 f3       	brcs	.-24     	; 0x59a0 <__mulsf3+0x4>

000059b8 <__mulsf3_pse>:
    59b8:	95 9f       	mul	r25, r21
    59ba:	d1 f3       	breq	.-12     	; 0x59b0 <__mulsf3+0x14>
    59bc:	95 0f       	add	r25, r21
    59be:	50 e0       	ldi	r21, 0x00	; 0
    59c0:	55 1f       	adc	r21, r21
    59c2:	62 9f       	mul	r22, r18
    59c4:	f0 01       	movw	r30, r0
    59c6:	72 9f       	mul	r23, r18
    59c8:	bb 27       	eor	r27, r27
    59ca:	f0 0d       	add	r31, r0
    59cc:	b1 1d       	adc	r27, r1
    59ce:	63 9f       	mul	r22, r19
    59d0:	aa 27       	eor	r26, r26
    59d2:	f0 0d       	add	r31, r0
    59d4:	b1 1d       	adc	r27, r1
    59d6:	aa 1f       	adc	r26, r26
    59d8:	64 9f       	mul	r22, r20
    59da:	66 27       	eor	r22, r22
    59dc:	b0 0d       	add	r27, r0
    59de:	a1 1d       	adc	r26, r1
    59e0:	66 1f       	adc	r22, r22
    59e2:	82 9f       	mul	r24, r18
    59e4:	22 27       	eor	r18, r18
    59e6:	b0 0d       	add	r27, r0
    59e8:	a1 1d       	adc	r26, r1
    59ea:	62 1f       	adc	r22, r18
    59ec:	73 9f       	mul	r23, r19
    59ee:	b0 0d       	add	r27, r0
    59f0:	a1 1d       	adc	r26, r1
    59f2:	62 1f       	adc	r22, r18
    59f4:	83 9f       	mul	r24, r19
    59f6:	a0 0d       	add	r26, r0
    59f8:	61 1d       	adc	r22, r1
    59fa:	22 1f       	adc	r18, r18
    59fc:	74 9f       	mul	r23, r20
    59fe:	33 27       	eor	r19, r19
    5a00:	a0 0d       	add	r26, r0
    5a02:	61 1d       	adc	r22, r1
    5a04:	23 1f       	adc	r18, r19
    5a06:	84 9f       	mul	r24, r20
    5a08:	60 0d       	add	r22, r0
    5a0a:	21 1d       	adc	r18, r1
    5a0c:	82 2f       	mov	r24, r18
    5a0e:	76 2f       	mov	r23, r22
    5a10:	6a 2f       	mov	r22, r26
    5a12:	11 24       	eor	r1, r1
    5a14:	9f 57       	subi	r25, 0x7F	; 127
    5a16:	50 40       	sbci	r21, 0x00	; 0
    5a18:	8a f0       	brmi	.+34     	; 0x5a3c <__mulsf3_pse+0x84>
    5a1a:	e1 f0       	breq	.+56     	; 0x5a54 <__mulsf3_pse+0x9c>
    5a1c:	88 23       	and	r24, r24
    5a1e:	4a f0       	brmi	.+18     	; 0x5a32 <__mulsf3_pse+0x7a>
    5a20:	ee 0f       	add	r30, r30
    5a22:	ff 1f       	adc	r31, r31
    5a24:	bb 1f       	adc	r27, r27
    5a26:	66 1f       	adc	r22, r22
    5a28:	77 1f       	adc	r23, r23
    5a2a:	88 1f       	adc	r24, r24
    5a2c:	91 50       	subi	r25, 0x01	; 1
    5a2e:	50 40       	sbci	r21, 0x00	; 0
    5a30:	a9 f7       	brne	.-22     	; 0x5a1c <__mulsf3_pse+0x64>
    5a32:	9e 3f       	cpi	r25, 0xFE	; 254
    5a34:	51 05       	cpc	r21, r1
    5a36:	70 f0       	brcs	.+28     	; 0x5a54 <__mulsf3_pse+0x9c>
    5a38:	5c cf       	rjmp	.-328    	; 0x58f2 <__fp_inf>
    5a3a:	a6 cf       	rjmp	.-180    	; 0x5988 <__fp_szero>
    5a3c:	5f 3f       	cpi	r21, 0xFF	; 255
    5a3e:	ec f3       	brlt	.-6      	; 0x5a3a <__mulsf3_pse+0x82>
    5a40:	98 3e       	cpi	r25, 0xE8	; 232
    5a42:	dc f3       	brlt	.-10     	; 0x5a3a <__mulsf3_pse+0x82>
    5a44:	86 95       	lsr	r24
    5a46:	77 95       	ror	r23
    5a48:	67 95       	ror	r22
    5a4a:	b7 95       	ror	r27
    5a4c:	f7 95       	ror	r31
    5a4e:	e7 95       	ror	r30
    5a50:	9f 5f       	subi	r25, 0xFF	; 255
    5a52:	c1 f7       	brne	.-16     	; 0x5a44 <__mulsf3_pse+0x8c>
    5a54:	fe 2b       	or	r31, r30
    5a56:	88 0f       	add	r24, r24
    5a58:	91 1d       	adc	r25, r1
    5a5a:	96 95       	lsr	r25
    5a5c:	87 95       	ror	r24
    5a5e:	97 f9       	bld	r25, 7
    5a60:	08 95       	ret

00005a62 <__umulhisi3>:
    5a62:	a2 9f       	mul	r26, r18
    5a64:	b0 01       	movw	r22, r0
    5a66:	b3 9f       	mul	r27, r19
    5a68:	c0 01       	movw	r24, r0
    5a6a:	a3 9f       	mul	r26, r19
    5a6c:	70 0d       	add	r23, r0
    5a6e:	81 1d       	adc	r24, r1
    5a70:	11 24       	eor	r1, r1
    5a72:	91 1d       	adc	r25, r1
    5a74:	b2 9f       	mul	r27, r18
    5a76:	70 0d       	add	r23, r0
    5a78:	81 1d       	adc	r24, r1
    5a7a:	11 24       	eor	r1, r1
    5a7c:	91 1d       	adc	r25, r1
    5a7e:	08 95       	ret

00005a80 <_exit>:
    5a80:	f8 94       	cli

00005a82 <__stop_program>:
    5a82:	ff cf       	rjmp	.-2      	; 0x5a82 <__stop_program>
