
Task5.elf:     file format elf32-avr

Sections:
Idx Name          Size      VMA       LMA       File off  Algn
  0 .text         000016d2  00000000  00000000  00000074  2**1
                  CONTENTS, ALLOC, LOAD, READONLY, CODE
  1 .bss          00000008  00800200  00800200  00001746  2**0
                  ALLOC
  2 .comment      00000030  00000000  00000000  00001746  2**0
                  CONTENTS, READONLY
  3 .debug_aranges 00000298  00000000  00000000  00001776  2**0
                  CONTENTS, READONLY, DEBUGGING
  4 .debug_info   0000365a  00000000  00000000  00001a0e  2**0
                  CONTENTS, READONLY, DEBUGGING
  5 .debug_abbrev 0000030d  00000000  00000000  00005068  2**0
                  CONTENTS, READONLY, DEBUGGING
  6 .debug_line   000036f6  00000000  00000000  00005375  2**0
                  CONTENTS, READONLY, DEBUGGING
  7 .debug_frame  00000af8  00000000  00000000  00008a6c  2**2
                  CONTENTS, READONLY, DEBUGGING
  8 .debug_str    00000745  00000000  00000000  00009564  2**0
                  CONTENTS, READONLY, DEBUGGING
  9 .debug_loc    0000169f  00000000  00000000  00009ca9  2**0
                  CONTENTS, READONLY, DEBUGGING
 10 .debug_ranges 00000468  00000000  00000000  0000b348  2**0
                  CONTENTS, READONLY, DEBUGGING

Disassembly of section .text:

00000000 <__vectors>:
       0:	71 c0       	rjmp	.+226    	; 0xe4 <__ctors_end>
       2:	00 00       	nop
       4:	90 c0       	rjmp	.+288    	; 0x126 <__bad_interrupt>
       6:	00 00       	nop
       8:	8e c0       	rjmp	.+284    	; 0x126 <__bad_interrupt>
       a:	00 00       	nop
       c:	8c c0       	rjmp	.+280    	; 0x126 <__bad_interrupt>
       e:	00 00       	nop
      10:	8a c0       	rjmp	.+276    	; 0x126 <__bad_interrupt>
      12:	00 00       	nop
      14:	0c 94 f6 09 	jmp	0x13ec	; 0x13ec <__vector_5>
      18:	0c 94 c9 09 	jmp	0x1392	; 0x1392 <__vector_6>
      1c:	84 c0       	rjmp	.+264    	; 0x126 <__bad_interrupt>
      1e:	00 00       	nop
      20:	82 c0       	rjmp	.+260    	; 0x126 <__bad_interrupt>
      22:	00 00       	nop
      24:	80 c0       	rjmp	.+256    	; 0x126 <__bad_interrupt>
      26:	00 00       	nop
      28:	7e c0       	rjmp	.+252    	; 0x126 <__bad_interrupt>
      2a:	00 00       	nop
      2c:	7c c0       	rjmp	.+248    	; 0x126 <__bad_interrupt>
      2e:	00 00       	nop
      30:	7a c0       	rjmp	.+244    	; 0x126 <__bad_interrupt>
      32:	00 00       	nop
      34:	78 c0       	rjmp	.+240    	; 0x126 <__bad_interrupt>
      36:	00 00       	nop
      38:	76 c0       	rjmp	.+236    	; 0x126 <__bad_interrupt>
      3a:	00 00       	nop
      3c:	74 c0       	rjmp	.+232    	; 0x126 <__bad_interrupt>
      3e:	00 00       	nop
      40:	72 c0       	rjmp	.+228    	; 0x126 <__bad_interrupt>
      42:	00 00       	nop
      44:	70 c0       	rjmp	.+224    	; 0x126 <__bad_interrupt>
      46:	00 00       	nop
      48:	6e c0       	rjmp	.+220    	; 0x126 <__bad_interrupt>
      4a:	00 00       	nop
      4c:	6c c0       	rjmp	.+216    	; 0x126 <__bad_interrupt>
      4e:	00 00       	nop
      50:	6a c0       	rjmp	.+212    	; 0x126 <__bad_interrupt>
      52:	00 00       	nop
      54:	68 c0       	rjmp	.+208    	; 0x126 <__bad_interrupt>
      56:	00 00       	nop
      58:	66 c0       	rjmp	.+204    	; 0x126 <__bad_interrupt>
      5a:	00 00       	nop
      5c:	64 c0       	rjmp	.+200    	; 0x126 <__bad_interrupt>
      5e:	00 00       	nop
      60:	62 c0       	rjmp	.+196    	; 0x126 <__bad_interrupt>
      62:	00 00       	nop
      64:	60 c0       	rjmp	.+192    	; 0x126 <__bad_interrupt>
      66:	00 00       	nop
      68:	5e c0       	rjmp	.+188    	; 0x126 <__bad_interrupt>
      6a:	00 00       	nop
      6c:	5c c0       	rjmp	.+184    	; 0x126 <__bad_interrupt>
      6e:	00 00       	nop
      70:	5a c0       	rjmp	.+180    	; 0x126 <__bad_interrupt>
      72:	00 00       	nop
      74:	58 c0       	rjmp	.+176    	; 0x126 <__bad_interrupt>
      76:	00 00       	nop
      78:	56 c0       	rjmp	.+172    	; 0x126 <__bad_interrupt>
      7a:	00 00       	nop
      7c:	54 c0       	rjmp	.+168    	; 0x126 <__bad_interrupt>
      7e:	00 00       	nop
      80:	52 c0       	rjmp	.+164    	; 0x126 <__bad_interrupt>
      82:	00 00       	nop
      84:	50 c0       	rjmp	.+160    	; 0x126 <__bad_interrupt>
      86:	00 00       	nop
      88:	4e c0       	rjmp	.+156    	; 0x126 <__bad_interrupt>
      8a:	00 00       	nop
      8c:	4c c0       	rjmp	.+152    	; 0x126 <__bad_interrupt>
      8e:	00 00       	nop
      90:	4a c0       	rjmp	.+148    	; 0x126 <__bad_interrupt>
      92:	00 00       	nop
      94:	48 c0       	rjmp	.+144    	; 0x126 <__bad_interrupt>
      96:	00 00       	nop
      98:	46 c0       	rjmp	.+140    	; 0x126 <__bad_interrupt>
      9a:	00 00       	nop
      9c:	44 c0       	rjmp	.+136    	; 0x126 <__bad_interrupt>
      9e:	00 00       	nop
      a0:	42 c0       	rjmp	.+132    	; 0x126 <__bad_interrupt>
      a2:	00 00       	nop
      a4:	40 c0       	rjmp	.+128    	; 0x126 <__bad_interrupt>
      a6:	00 00       	nop
      a8:	3e c0       	rjmp	.+124    	; 0x126 <__bad_interrupt>
      aa:	00 00       	nop
      ac:	3c c0       	rjmp	.+120    	; 0x126 <__bad_interrupt>
      ae:	00 00       	nop
      b0:	3a c0       	rjmp	.+116    	; 0x126 <__bad_interrupt>
      b2:	00 00       	nop
      b4:	38 c0       	rjmp	.+112    	; 0x126 <__bad_interrupt>
      b6:	00 00       	nop
      b8:	36 c0       	rjmp	.+108    	; 0x126 <__bad_interrupt>
      ba:	00 00       	nop
      bc:	34 c0       	rjmp	.+104    	; 0x126 <__bad_interrupt>
      be:	00 00       	nop
      c0:	32 c0       	rjmp	.+100    	; 0x126 <__bad_interrupt>
      c2:	00 00       	nop
      c4:	30 c0       	rjmp	.+96     	; 0x126 <__bad_interrupt>
      c6:	00 00       	nop
      c8:	2e c0       	rjmp	.+92     	; 0x126 <__bad_interrupt>
      ca:	00 00       	nop
      cc:	2c c0       	rjmp	.+88     	; 0x126 <__bad_interrupt>
      ce:	00 00       	nop
      d0:	2a c0       	rjmp	.+84     	; 0x126 <__bad_interrupt>
      d2:	00 00       	nop
      d4:	28 c0       	rjmp	.+80     	; 0x126 <__bad_interrupt>
      d6:	00 00       	nop
      d8:	26 c0       	rjmp	.+76     	; 0x126 <__bad_interrupt>
      da:	00 00       	nop
      dc:	24 c0       	rjmp	.+72     	; 0x126 <__bad_interrupt>
      de:	00 00       	nop
      e0:	22 c0       	rjmp	.+68     	; 0x126 <__bad_interrupt>
	...

000000e4 <__ctors_end>:
      e4:	11 24       	eor	r1, r1
      e6:	1f be       	out	0x3f, r1	; 63
      e8:	cf ef       	ldi	r28, 0xFF	; 255
      ea:	d1 e2       	ldi	r29, 0x21	; 33
      ec:	de bf       	out	0x3e, r29	; 62
      ee:	cd bf       	out	0x3d, r28	; 61
      f0:	00 e0       	ldi	r16, 0x00	; 0
      f2:	0c bf       	out	0x3c, r16	; 60

000000f4 <__do_copy_data>:
      f4:	12 e0       	ldi	r17, 0x02	; 2
      f6:	a0 e0       	ldi	r26, 0x00	; 0
      f8:	b2 e0       	ldi	r27, 0x02	; 2
      fa:	e2 ed       	ldi	r30, 0xD2	; 210
      fc:	f6 e1       	ldi	r31, 0x16	; 22
      fe:	00 e0       	ldi	r16, 0x00	; 0
     100:	0b bf       	out	0x3b, r16	; 59
     102:	02 c0       	rjmp	.+4      	; 0x108 <__do_copy_data+0x14>
     104:	07 90       	elpm	r0, Z+
     106:	0d 92       	st	X+, r0
     108:	a0 30       	cpi	r26, 0x00	; 0
     10a:	b1 07       	cpc	r27, r17
     10c:	d9 f7       	brne	.-10     	; 0x104 <__do_copy_data+0x10>

0000010e <__do_clear_bss>:
     10e:	22 e0       	ldi	r18, 0x02	; 2
     110:	a0 e0       	ldi	r26, 0x00	; 0
     112:	b2 e0       	ldi	r27, 0x02	; 2
     114:	01 c0       	rjmp	.+2      	; 0x118 <.do_clear_bss_start>

00000116 <.do_clear_bss_loop>:
     116:	1d 92       	st	X+, r1

00000118 <.do_clear_bss_start>:
     118:	a8 30       	cpi	r26, 0x08	; 8
     11a:	b2 07       	cpc	r27, r18
     11c:	e1 f7       	brne	.-8      	; 0x116 <.do_clear_bss_loop>
     11e:	0e 94 51 0a 	call	0x14a2	; 0x14a2 <main>
     122:	0c 94 67 0b 	jmp	0x16ce	; 0x16ce <_exit>

00000126 <__bad_interrupt>:
     126:	6c cf       	rjmp	.-296    	; 0x0 <__vectors>

00000128 <lcd_port_config>:

void back_mm(unsigned int DistanceInMM)
{
	back();
	linear_distance_mm(DistanceInMM);
}
     128:	cf 93       	push	r28
     12a:	df 93       	push	r29
     12c:	cd b7       	in	r28, 0x3d	; 61
     12e:	de b7       	in	r29, 0x3e	; 62
     130:	87 e2       	ldi	r24, 0x27	; 39
     132:	90 e0       	ldi	r25, 0x00	; 0
     134:	27 e2       	ldi	r18, 0x27	; 39
     136:	30 e0       	ldi	r19, 0x00	; 0
     138:	f9 01       	movw	r30, r18
     13a:	20 81       	ld	r18, Z
     13c:	27 6f       	ori	r18, 0xF7	; 247
     13e:	fc 01       	movw	r30, r24
     140:	20 83       	st	Z, r18
     142:	88 e2       	ldi	r24, 0x28	; 40
     144:	90 e0       	ldi	r25, 0x00	; 0
     146:	28 e2       	ldi	r18, 0x28	; 40
     148:	30 e0       	ldi	r19, 0x00	; 0
     14a:	f9 01       	movw	r30, r18
     14c:	20 81       	ld	r18, Z
     14e:	28 70       	andi	r18, 0x08	; 8
     150:	fc 01       	movw	r30, r24
     152:	20 83       	st	Z, r18
     154:	df 91       	pop	r29
     156:	cf 91       	pop	r28
     158:	08 95       	ret

0000015a <lcd_set_4bit>:
     15a:	0f 93       	push	r16
     15c:	1f 93       	push	r17
     15e:	cf 93       	push	r28
     160:	df 93       	push	r29
     162:	cd b7       	in	r28, 0x3d	; 61
     164:	de b7       	in	r29, 0x3e	; 62
     166:	c0 57       	subi	r28, 0x70	; 112
     168:	d1 09       	sbc	r29, r1
     16a:	0f b6       	in	r0, 0x3f	; 63
     16c:	f8 94       	cli
     16e:	de bf       	out	0x3e, r29	; 62
     170:	0f be       	out	0x3f, r0	; 63
     172:	cd bf       	out	0x3d, r28	; 61
     174:	80 e0       	ldi	r24, 0x00	; 0
     176:	90 e0       	ldi	r25, 0x00	; 0
     178:	a0 e8       	ldi	r26, 0x80	; 128
     17a:	bf e3       	ldi	r27, 0x3F	; 63
     17c:	89 83       	std	Y+1, r24	; 0x01
     17e:	9a 83       	std	Y+2, r25	; 0x02
     180:	ab 83       	std	Y+3, r26	; 0x03
     182:	bc 83       	std	Y+4, r27	; 0x04
     184:	26 e6       	ldi	r18, 0x66	; 102
     186:	36 e6       	ldi	r19, 0x66	; 102
     188:	46 e6       	ldi	r20, 0x66	; 102
     18a:	55 e4       	ldi	r21, 0x45	; 69
     18c:	69 81       	ldd	r22, Y+1	; 0x01
     18e:	7a 81       	ldd	r23, Y+2	; 0x02
     190:	8b 81       	ldd	r24, Y+3	; 0x03
     192:	9c 81       	ldd	r25, Y+4	; 0x04
     194:	0e 94 04 0b 	call	0x1608	; 0x1608 <__mulsf3>
     198:	dc 01       	movw	r26, r24
     19a:	cb 01       	movw	r24, r22
     19c:	8d 83       	std	Y+5, r24	; 0x05
     19e:	9e 83       	std	Y+6, r25	; 0x06
     1a0:	af 83       	std	Y+7, r26	; 0x07
     1a2:	b8 87       	std	Y+8, r27	; 0x08
     1a4:	20 e0       	ldi	r18, 0x00	; 0
     1a6:	30 e0       	ldi	r19, 0x00	; 0
     1a8:	40 e8       	ldi	r20, 0x80	; 128
     1aa:	5f e3       	ldi	r21, 0x3F	; 63
     1ac:	6d 81       	ldd	r22, Y+5	; 0x05
     1ae:	7e 81       	ldd	r23, Y+6	; 0x06
     1b0:	8f 81       	ldd	r24, Y+7	; 0x07
     1b2:	98 85       	ldd	r25, Y+8	; 0x08
     1b4:	0e 94 5b 0a 	call	0x14b6	; 0x14b6 <__cmpsf2>
     1b8:	88 23       	and	r24, r24
     1ba:	2c f4       	brge	.+10     	; 0x1c6 <lcd_set_4bit+0x6c>
     1bc:	81 e0       	ldi	r24, 0x01	; 1
     1be:	90 e0       	ldi	r25, 0x00	; 0
     1c0:	9a 87       	std	Y+10, r25	; 0x0a
     1c2:	89 87       	std	Y+9, r24	; 0x09
     1c4:	3f c0       	rjmp	.+126    	; 0x244 <lcd_set_4bit+0xea>
     1c6:	20 e0       	ldi	r18, 0x00	; 0
     1c8:	3f ef       	ldi	r19, 0xFF	; 255
     1ca:	4f e7       	ldi	r20, 0x7F	; 127
     1cc:	57 e4       	ldi	r21, 0x47	; 71
     1ce:	6d 81       	ldd	r22, Y+5	; 0x05
     1d0:	7e 81       	ldd	r23, Y+6	; 0x06
     1d2:	8f 81       	ldd	r24, Y+7	; 0x07
     1d4:	98 85       	ldd	r25, Y+8	; 0x08
     1d6:	0e 94 00 0b 	call	0x1600	; 0x1600 <__gesf2>
     1da:	18 16       	cp	r1, r24
     1dc:	4c f5       	brge	.+82     	; 0x230 <lcd_set_4bit+0xd6>
     1de:	20 e0       	ldi	r18, 0x00	; 0
     1e0:	30 e0       	ldi	r19, 0x00	; 0
     1e2:	40 e2       	ldi	r20, 0x20	; 32
     1e4:	51 e4       	ldi	r21, 0x41	; 65
     1e6:	69 81       	ldd	r22, Y+1	; 0x01
     1e8:	7a 81       	ldd	r23, Y+2	; 0x02
     1ea:	8b 81       	ldd	r24, Y+3	; 0x03
     1ec:	9c 81       	ldd	r25, Y+4	; 0x04
     1ee:	0e 94 04 0b 	call	0x1608	; 0x1608 <__mulsf3>
     1f2:	dc 01       	movw	r26, r24
     1f4:	cb 01       	movw	r24, r22
     1f6:	bc 01       	movw	r22, r24
     1f8:	cd 01       	movw	r24, r26
     1fa:	0e 94 5f 0a 	call	0x14be	; 0x14be <__fixunssfsi>
     1fe:	dc 01       	movw	r26, r24
     200:	cb 01       	movw	r24, r22
     202:	9a 87       	std	Y+10, r25	; 0x0a
     204:	89 87       	std	Y+9, r24	; 0x09
     206:	0f c0       	rjmp	.+30     	; 0x226 <lcd_set_4bit+0xcc>
     208:	80 e7       	ldi	r24, 0x70	; 112
     20a:	91 e0       	ldi	r25, 0x01	; 1
     20c:	9c 87       	std	Y+12, r25	; 0x0c
     20e:	8b 87       	std	Y+11, r24	; 0x0b
     210:	8b 85       	ldd	r24, Y+11	; 0x0b
     212:	9c 85       	ldd	r25, Y+12	; 0x0c
     214:	01 97       	sbiw	r24, 0x01	; 1
     216:	f1 f7       	brne	.-4      	; 0x214 <lcd_set_4bit+0xba>
     218:	9c 87       	std	Y+12, r25	; 0x0c
     21a:	8b 87       	std	Y+11, r24	; 0x0b
     21c:	89 85       	ldd	r24, Y+9	; 0x09
     21e:	9a 85       	ldd	r25, Y+10	; 0x0a
     220:	01 97       	sbiw	r24, 0x01	; 1
     222:	9a 87       	std	Y+10, r25	; 0x0a
     224:	89 87       	std	Y+9, r24	; 0x09
     226:	89 85       	ldd	r24, Y+9	; 0x09
     228:	9a 85       	ldd	r25, Y+10	; 0x0a
     22a:	00 97       	sbiw	r24, 0x00	; 0
     22c:	69 f7       	brne	.-38     	; 0x208 <lcd_set_4bit+0xae>
     22e:	14 c0       	rjmp	.+40     	; 0x258 <lcd_set_4bit+0xfe>
     230:	6d 81       	ldd	r22, Y+5	; 0x05
     232:	7e 81       	ldd	r23, Y+6	; 0x06
     234:	8f 81       	ldd	r24, Y+7	; 0x07
     236:	98 85       	ldd	r25, Y+8	; 0x08
     238:	0e 94 5f 0a 	call	0x14be	; 0x14be <__fixunssfsi>
     23c:	dc 01       	movw	r26, r24
     23e:	cb 01       	movw	r24, r22
     240:	9a 87       	std	Y+10, r25	; 0x0a
     242:	89 87       	std	Y+9, r24	; 0x09
     244:	89 85       	ldd	r24, Y+9	; 0x09
     246:	9a 85       	ldd	r25, Y+10	; 0x0a
     248:	9e 87       	std	Y+14, r25	; 0x0e
     24a:	8d 87       	std	Y+13, r24	; 0x0d
     24c:	8d 85       	ldd	r24, Y+13	; 0x0d
     24e:	9e 85       	ldd	r25, Y+14	; 0x0e
     250:	01 97       	sbiw	r24, 0x01	; 1
     252:	f1 f7       	brne	.-4      	; 0x250 <lcd_set_4bit+0xf6>
     254:	9e 87       	std	Y+14, r25	; 0x0e
     256:	8d 87       	std	Y+13, r24	; 0x0d
     258:	88 e2       	ldi	r24, 0x28	; 40
     25a:	90 e0       	ldi	r25, 0x00	; 0
     25c:	28 e2       	ldi	r18, 0x28	; 40
     25e:	30 e0       	ldi	r19, 0x00	; 0
     260:	f9 01       	movw	r30, r18
     262:	20 81       	ld	r18, Z
     264:	2e 7f       	andi	r18, 0xFE	; 254
     266:	fc 01       	movw	r30, r24
     268:	20 83       	st	Z, r18
     26a:	88 e2       	ldi	r24, 0x28	; 40
     26c:	90 e0       	ldi	r25, 0x00	; 0
     26e:	28 e2       	ldi	r18, 0x28	; 40
     270:	30 e0       	ldi	r19, 0x00	; 0
     272:	f9 01       	movw	r30, r18
     274:	20 81       	ld	r18, Z
     276:	2d 7f       	andi	r18, 0xFD	; 253
     278:	fc 01       	movw	r30, r24
     27a:	20 83       	st	Z, r18
     27c:	88 e2       	ldi	r24, 0x28	; 40
     27e:	90 e0       	ldi	r25, 0x00	; 0
     280:	20 e3       	ldi	r18, 0x30	; 48
     282:	fc 01       	movw	r30, r24
     284:	20 83       	st	Z, r18
     286:	88 e2       	ldi	r24, 0x28	; 40
     288:	90 e0       	ldi	r25, 0x00	; 0
     28a:	28 e2       	ldi	r18, 0x28	; 40
     28c:	30 e0       	ldi	r19, 0x00	; 0
     28e:	f9 01       	movw	r30, r18
     290:	20 81       	ld	r18, Z
     292:	24 60       	ori	r18, 0x04	; 4
     294:	fc 01       	movw	r30, r24
     296:	20 83       	st	Z, r18
     298:	80 e0       	ldi	r24, 0x00	; 0
     29a:	90 e0       	ldi	r25, 0x00	; 0
     29c:	a0 ea       	ldi	r26, 0xA0	; 160
     29e:	b0 e4       	ldi	r27, 0x40	; 64
     2a0:	8f 87       	std	Y+15, r24	; 0x0f
     2a2:	98 8b       	std	Y+16, r25	; 0x10
     2a4:	a9 8b       	std	Y+17, r26	; 0x11
     2a6:	ba 8b       	std	Y+18, r27	; 0x12
     2a8:	26 e6       	ldi	r18, 0x66	; 102
     2aa:	36 e6       	ldi	r19, 0x66	; 102
     2ac:	46 e6       	ldi	r20, 0x66	; 102
     2ae:	55 e4       	ldi	r21, 0x45	; 69
     2b0:	6f 85       	ldd	r22, Y+15	; 0x0f
     2b2:	78 89       	ldd	r23, Y+16	; 0x10
     2b4:	89 89       	ldd	r24, Y+17	; 0x11
     2b6:	9a 89       	ldd	r25, Y+18	; 0x12
     2b8:	0e 94 04 0b 	call	0x1608	; 0x1608 <__mulsf3>
     2bc:	dc 01       	movw	r26, r24
     2be:	cb 01       	movw	r24, r22
     2c0:	8b 8b       	std	Y+19, r24	; 0x13
     2c2:	9c 8b       	std	Y+20, r25	; 0x14
     2c4:	ad 8b       	std	Y+21, r26	; 0x15
     2c6:	be 8b       	std	Y+22, r27	; 0x16
     2c8:	20 e0       	ldi	r18, 0x00	; 0
     2ca:	30 e0       	ldi	r19, 0x00	; 0
     2cc:	40 e8       	ldi	r20, 0x80	; 128
     2ce:	5f e3       	ldi	r21, 0x3F	; 63
     2d0:	6b 89       	ldd	r22, Y+19	; 0x13
     2d2:	7c 89       	ldd	r23, Y+20	; 0x14
     2d4:	8d 89       	ldd	r24, Y+21	; 0x15
     2d6:	9e 89       	ldd	r25, Y+22	; 0x16
     2d8:	0e 94 5b 0a 	call	0x14b6	; 0x14b6 <__cmpsf2>
     2dc:	88 23       	and	r24, r24
     2de:	2c f4       	brge	.+10     	; 0x2ea <lcd_set_4bit+0x190>
     2e0:	81 e0       	ldi	r24, 0x01	; 1
     2e2:	90 e0       	ldi	r25, 0x00	; 0
     2e4:	98 8f       	std	Y+24, r25	; 0x18
     2e6:	8f 8b       	std	Y+23, r24	; 0x17
     2e8:	3f c0       	rjmp	.+126    	; 0x368 <lcd_set_4bit+0x20e>
     2ea:	20 e0       	ldi	r18, 0x00	; 0
     2ec:	3f ef       	ldi	r19, 0xFF	; 255
     2ee:	4f e7       	ldi	r20, 0x7F	; 127
     2f0:	57 e4       	ldi	r21, 0x47	; 71
     2f2:	6b 89       	ldd	r22, Y+19	; 0x13
     2f4:	7c 89       	ldd	r23, Y+20	; 0x14
     2f6:	8d 89       	ldd	r24, Y+21	; 0x15
     2f8:	9e 89       	ldd	r25, Y+22	; 0x16
     2fa:	0e 94 00 0b 	call	0x1600	; 0x1600 <__gesf2>
     2fe:	18 16       	cp	r1, r24
     300:	4c f5       	brge	.+82     	; 0x354 <lcd_set_4bit+0x1fa>
     302:	20 e0       	ldi	r18, 0x00	; 0
     304:	30 e0       	ldi	r19, 0x00	; 0
     306:	40 e2       	ldi	r20, 0x20	; 32
     308:	51 e4       	ldi	r21, 0x41	; 65
     30a:	6f 85       	ldd	r22, Y+15	; 0x0f
     30c:	78 89       	ldd	r23, Y+16	; 0x10
     30e:	89 89       	ldd	r24, Y+17	; 0x11
     310:	9a 89       	ldd	r25, Y+18	; 0x12
     312:	0e 94 04 0b 	call	0x1608	; 0x1608 <__mulsf3>
     316:	dc 01       	movw	r26, r24
     318:	cb 01       	movw	r24, r22
     31a:	bc 01       	movw	r22, r24
     31c:	cd 01       	movw	r24, r26
     31e:	0e 94 5f 0a 	call	0x14be	; 0x14be <__fixunssfsi>
     322:	dc 01       	movw	r26, r24
     324:	cb 01       	movw	r24, r22
     326:	98 8f       	std	Y+24, r25	; 0x18
     328:	8f 8b       	std	Y+23, r24	; 0x17
     32a:	0f c0       	rjmp	.+30     	; 0x34a <lcd_set_4bit+0x1f0>
     32c:	80 e7       	ldi	r24, 0x70	; 112
     32e:	91 e0       	ldi	r25, 0x01	; 1
     330:	9a 8f       	std	Y+26, r25	; 0x1a
     332:	89 8f       	std	Y+25, r24	; 0x19
     334:	89 8d       	ldd	r24, Y+25	; 0x19
     336:	9a 8d       	ldd	r25, Y+26	; 0x1a
     338:	01 97       	sbiw	r24, 0x01	; 1
     33a:	f1 f7       	brne	.-4      	; 0x338 <lcd_set_4bit+0x1de>
     33c:	9a 8f       	std	Y+26, r25	; 0x1a
     33e:	89 8f       	std	Y+25, r24	; 0x19
     340:	8f 89       	ldd	r24, Y+23	; 0x17
     342:	98 8d       	ldd	r25, Y+24	; 0x18
     344:	01 97       	sbiw	r24, 0x01	; 1
     346:	98 8f       	std	Y+24, r25	; 0x18
     348:	8f 8b       	std	Y+23, r24	; 0x17
     34a:	8f 89       	ldd	r24, Y+23	; 0x17
     34c:	98 8d       	ldd	r25, Y+24	; 0x18
     34e:	00 97       	sbiw	r24, 0x00	; 0
     350:	69 f7       	brne	.-38     	; 0x32c <lcd_set_4bit+0x1d2>
     352:	14 c0       	rjmp	.+40     	; 0x37c <lcd_set_4bit+0x222>
     354:	6b 89       	ldd	r22, Y+19	; 0x13
     356:	7c 89       	ldd	r23, Y+20	; 0x14
     358:	8d 89       	ldd	r24, Y+21	; 0x15
     35a:	9e 89       	ldd	r25, Y+22	; 0x16
     35c:	0e 94 5f 0a 	call	0x14be	; 0x14be <__fixunssfsi>
     360:	dc 01       	movw	r26, r24
     362:	cb 01       	movw	r24, r22
     364:	98 8f       	std	Y+24, r25	; 0x18
     366:	8f 8b       	std	Y+23, r24	; 0x17
     368:	8f 89       	ldd	r24, Y+23	; 0x17
     36a:	98 8d       	ldd	r25, Y+24	; 0x18
     36c:	9c 8f       	std	Y+28, r25	; 0x1c
     36e:	8b 8f       	std	Y+27, r24	; 0x1b
     370:	8b 8d       	ldd	r24, Y+27	; 0x1b
     372:	9c 8d       	ldd	r25, Y+28	; 0x1c
     374:	01 97       	sbiw	r24, 0x01	; 1
     376:	f1 f7       	brne	.-4      	; 0x374 <lcd_set_4bit+0x21a>
     378:	9c 8f       	std	Y+28, r25	; 0x1c
     37a:	8b 8f       	std	Y+27, r24	; 0x1b
     37c:	88 e2       	ldi	r24, 0x28	; 40
     37e:	90 e0       	ldi	r25, 0x00	; 0
     380:	28 e2       	ldi	r18, 0x28	; 40
     382:	30 e0       	ldi	r19, 0x00	; 0
     384:	f9 01       	movw	r30, r18
     386:	20 81       	ld	r18, Z
     388:	2b 7f       	andi	r18, 0xFB	; 251
     38a:	fc 01       	movw	r30, r24
     38c:	20 83       	st	Z, r18
     38e:	80 e0       	ldi	r24, 0x00	; 0
     390:	90 e0       	ldi	r25, 0x00	; 0
     392:	a0 e8       	ldi	r26, 0x80	; 128
     394:	bf e3       	ldi	r27, 0x3F	; 63
     396:	8d 8f       	std	Y+29, r24	; 0x1d
     398:	9e 8f       	std	Y+30, r25	; 0x1e
     39a:	af 8f       	std	Y+31, r26	; 0x1f
     39c:	b8 a3       	std	Y+32, r27	; 0x20
     39e:	26 e6       	ldi	r18, 0x66	; 102
     3a0:	36 e6       	ldi	r19, 0x66	; 102
     3a2:	46 e6       	ldi	r20, 0x66	; 102
     3a4:	55 e4       	ldi	r21, 0x45	; 69
     3a6:	6d 8d       	ldd	r22, Y+29	; 0x1d
     3a8:	7e 8d       	ldd	r23, Y+30	; 0x1e
     3aa:	8f 8d       	ldd	r24, Y+31	; 0x1f
     3ac:	98 a1       	ldd	r25, Y+32	; 0x20
     3ae:	0e 94 04 0b 	call	0x1608	; 0x1608 <__mulsf3>
     3b2:	dc 01       	movw	r26, r24
     3b4:	cb 01       	movw	r24, r22
     3b6:	89 a3       	std	Y+33, r24	; 0x21
     3b8:	9a a3       	std	Y+34, r25	; 0x22
     3ba:	ab a3       	std	Y+35, r26	; 0x23
     3bc:	bc a3       	std	Y+36, r27	; 0x24
     3be:	20 e0       	ldi	r18, 0x00	; 0
     3c0:	30 e0       	ldi	r19, 0x00	; 0
     3c2:	40 e8       	ldi	r20, 0x80	; 128
     3c4:	5f e3       	ldi	r21, 0x3F	; 63
     3c6:	69 a1       	ldd	r22, Y+33	; 0x21
     3c8:	7a a1       	ldd	r23, Y+34	; 0x22
     3ca:	8b a1       	ldd	r24, Y+35	; 0x23
     3cc:	9c a1       	ldd	r25, Y+36	; 0x24
     3ce:	0e 94 5b 0a 	call	0x14b6	; 0x14b6 <__cmpsf2>
     3d2:	88 23       	and	r24, r24
     3d4:	2c f4       	brge	.+10     	; 0x3e0 <lcd_set_4bit+0x286>
     3d6:	81 e0       	ldi	r24, 0x01	; 1
     3d8:	90 e0       	ldi	r25, 0x00	; 0
     3da:	9e a3       	std	Y+38, r25	; 0x26
     3dc:	8d a3       	std	Y+37, r24	; 0x25
     3de:	3f c0       	rjmp	.+126    	; 0x45e <lcd_set_4bit+0x304>
     3e0:	20 e0       	ldi	r18, 0x00	; 0
     3e2:	3f ef       	ldi	r19, 0xFF	; 255
     3e4:	4f e7       	ldi	r20, 0x7F	; 127
     3e6:	57 e4       	ldi	r21, 0x47	; 71
     3e8:	69 a1       	ldd	r22, Y+33	; 0x21
     3ea:	7a a1       	ldd	r23, Y+34	; 0x22
     3ec:	8b a1       	ldd	r24, Y+35	; 0x23
     3ee:	9c a1       	ldd	r25, Y+36	; 0x24
     3f0:	0e 94 00 0b 	call	0x1600	; 0x1600 <__gesf2>
     3f4:	18 16       	cp	r1, r24
     3f6:	4c f5       	brge	.+82     	; 0x44a <lcd_set_4bit+0x2f0>
     3f8:	20 e0       	ldi	r18, 0x00	; 0
     3fa:	30 e0       	ldi	r19, 0x00	; 0
     3fc:	40 e2       	ldi	r20, 0x20	; 32
     3fe:	51 e4       	ldi	r21, 0x41	; 65
     400:	6d 8d       	ldd	r22, Y+29	; 0x1d
     402:	7e 8d       	ldd	r23, Y+30	; 0x1e
     404:	8f 8d       	ldd	r24, Y+31	; 0x1f
     406:	98 a1       	ldd	r25, Y+32	; 0x20
     408:	0e 94 04 0b 	call	0x1608	; 0x1608 <__mulsf3>
     40c:	dc 01       	movw	r26, r24
     40e:	cb 01       	movw	r24, r22
     410:	bc 01       	movw	r22, r24
     412:	cd 01       	movw	r24, r26
     414:	0e 94 5f 0a 	call	0x14be	; 0x14be <__fixunssfsi>
     418:	dc 01       	movw	r26, r24
     41a:	cb 01       	movw	r24, r22
     41c:	9e a3       	std	Y+38, r25	; 0x26
     41e:	8d a3       	std	Y+37, r24	; 0x25
     420:	0f c0       	rjmp	.+30     	; 0x440 <lcd_set_4bit+0x2e6>
     422:	80 e7       	ldi	r24, 0x70	; 112
     424:	91 e0       	ldi	r25, 0x01	; 1
     426:	98 a7       	std	Y+40, r25	; 0x28
     428:	8f a3       	std	Y+39, r24	; 0x27
     42a:	8f a1       	ldd	r24, Y+39	; 0x27
     42c:	98 a5       	ldd	r25, Y+40	; 0x28
     42e:	01 97       	sbiw	r24, 0x01	; 1
     430:	f1 f7       	brne	.-4      	; 0x42e <lcd_set_4bit+0x2d4>
     432:	98 a7       	std	Y+40, r25	; 0x28
     434:	8f a3       	std	Y+39, r24	; 0x27
     436:	8d a1       	ldd	r24, Y+37	; 0x25
     438:	9e a1       	ldd	r25, Y+38	; 0x26
     43a:	01 97       	sbiw	r24, 0x01	; 1
     43c:	9e a3       	std	Y+38, r25	; 0x26
     43e:	8d a3       	std	Y+37, r24	; 0x25
     440:	8d a1       	ldd	r24, Y+37	; 0x25
     442:	9e a1       	ldd	r25, Y+38	; 0x26
     444:	00 97       	sbiw	r24, 0x00	; 0
     446:	69 f7       	brne	.-38     	; 0x422 <lcd_set_4bit+0x2c8>
     448:	14 c0       	rjmp	.+40     	; 0x472 <lcd_set_4bit+0x318>
     44a:	69 a1       	ldd	r22, Y+33	; 0x21
     44c:	7a a1       	ldd	r23, Y+34	; 0x22
     44e:	8b a1       	ldd	r24, Y+35	; 0x23
     450:	9c a1       	ldd	r25, Y+36	; 0x24
     452:	0e 94 5f 0a 	call	0x14be	; 0x14be <__fixunssfsi>
     456:	dc 01       	movw	r26, r24
     458:	cb 01       	movw	r24, r22
     45a:	9e a3       	std	Y+38, r25	; 0x26
     45c:	8d a3       	std	Y+37, r24	; 0x25
     45e:	8d a1       	ldd	r24, Y+37	; 0x25
     460:	9e a1       	ldd	r25, Y+38	; 0x26
     462:	9a a7       	std	Y+42, r25	; 0x2a
     464:	89 a7       	std	Y+41, r24	; 0x29
     466:	89 a5       	ldd	r24, Y+41	; 0x29
     468:	9a a5       	ldd	r25, Y+42	; 0x2a
     46a:	01 97       	sbiw	r24, 0x01	; 1
     46c:	f1 f7       	brne	.-4      	; 0x46a <lcd_set_4bit+0x310>
     46e:	9a a7       	std	Y+42, r25	; 0x2a
     470:	89 a7       	std	Y+41, r24	; 0x29
     472:	88 e2       	ldi	r24, 0x28	; 40
     474:	90 e0       	ldi	r25, 0x00	; 0
     476:	28 e2       	ldi	r18, 0x28	; 40
     478:	30 e0       	ldi	r19, 0x00	; 0
     47a:	f9 01       	movw	r30, r18
     47c:	20 81       	ld	r18, Z
     47e:	2e 7f       	andi	r18, 0xFE	; 254
     480:	fc 01       	movw	r30, r24
     482:	20 83       	st	Z, r18
     484:	88 e2       	ldi	r24, 0x28	; 40
     486:	90 e0       	ldi	r25, 0x00	; 0
     488:	28 e2       	ldi	r18, 0x28	; 40
     48a:	30 e0       	ldi	r19, 0x00	; 0
     48c:	f9 01       	movw	r30, r18
     48e:	20 81       	ld	r18, Z
     490:	2d 7f       	andi	r18, 0xFD	; 253
     492:	fc 01       	movw	r30, r24
     494:	20 83       	st	Z, r18
     496:	88 e2       	ldi	r24, 0x28	; 40
     498:	90 e0       	ldi	r25, 0x00	; 0
     49a:	20 e3       	ldi	r18, 0x30	; 48
     49c:	fc 01       	movw	r30, r24
     49e:	20 83       	st	Z, r18
     4a0:	88 e2       	ldi	r24, 0x28	; 40
     4a2:	90 e0       	ldi	r25, 0x00	; 0
     4a4:	28 e2       	ldi	r18, 0x28	; 40
     4a6:	30 e0       	ldi	r19, 0x00	; 0
     4a8:	f9 01       	movw	r30, r18
     4aa:	20 81       	ld	r18, Z
     4ac:	24 60       	ori	r18, 0x04	; 4
     4ae:	fc 01       	movw	r30, r24
     4b0:	20 83       	st	Z, r18
     4b2:	80 e0       	ldi	r24, 0x00	; 0
     4b4:	90 e0       	ldi	r25, 0x00	; 0
     4b6:	a0 ea       	ldi	r26, 0xA0	; 160
     4b8:	b0 e4       	ldi	r27, 0x40	; 64
     4ba:	8b a7       	std	Y+43, r24	; 0x2b
     4bc:	9c a7       	std	Y+44, r25	; 0x2c
     4be:	ad a7       	std	Y+45, r26	; 0x2d
     4c0:	be a7       	std	Y+46, r27	; 0x2e
     4c2:	26 e6       	ldi	r18, 0x66	; 102
     4c4:	36 e6       	ldi	r19, 0x66	; 102
     4c6:	46 e6       	ldi	r20, 0x66	; 102
     4c8:	55 e4       	ldi	r21, 0x45	; 69
     4ca:	6b a5       	ldd	r22, Y+43	; 0x2b
     4cc:	7c a5       	ldd	r23, Y+44	; 0x2c
     4ce:	8d a5       	ldd	r24, Y+45	; 0x2d
     4d0:	9e a5       	ldd	r25, Y+46	; 0x2e
     4d2:	0e 94 04 0b 	call	0x1608	; 0x1608 <__mulsf3>
     4d6:	dc 01       	movw	r26, r24
     4d8:	cb 01       	movw	r24, r22
     4da:	8f a7       	std	Y+47, r24	; 0x2f
     4dc:	98 ab       	std	Y+48, r25	; 0x30
     4de:	a9 ab       	std	Y+49, r26	; 0x31
     4e0:	ba ab       	std	Y+50, r27	; 0x32
     4e2:	20 e0       	ldi	r18, 0x00	; 0
     4e4:	30 e0       	ldi	r19, 0x00	; 0
     4e6:	40 e8       	ldi	r20, 0x80	; 128
     4e8:	5f e3       	ldi	r21, 0x3F	; 63
     4ea:	6f a5       	ldd	r22, Y+47	; 0x2f
     4ec:	78 a9       	ldd	r23, Y+48	; 0x30
     4ee:	89 a9       	ldd	r24, Y+49	; 0x31
     4f0:	9a a9       	ldd	r25, Y+50	; 0x32
     4f2:	e1 d7       	rcall	.+4034   	; 0x14b6 <__cmpsf2>
     4f4:	88 23       	and	r24, r24
     4f6:	2c f4       	brge	.+10     	; 0x502 <lcd_set_4bit+0x3a8>
     4f8:	81 e0       	ldi	r24, 0x01	; 1
     4fa:	90 e0       	ldi	r25, 0x00	; 0
     4fc:	9c ab       	std	Y+52, r25	; 0x34
     4fe:	8b ab       	std	Y+51, r24	; 0x33
     500:	3d c0       	rjmp	.+122    	; 0x57c <lcd_set_4bit+0x422>
     502:	20 e0       	ldi	r18, 0x00	; 0
     504:	3f ef       	ldi	r19, 0xFF	; 255
     506:	4f e7       	ldi	r20, 0x7F	; 127
     508:	57 e4       	ldi	r21, 0x47	; 71
     50a:	6f a5       	ldd	r22, Y+47	; 0x2f
     50c:	78 a9       	ldd	r23, Y+48	; 0x30
     50e:	89 a9       	ldd	r24, Y+49	; 0x31
     510:	9a a9       	ldd	r25, Y+50	; 0x32
     512:	0e 94 00 0b 	call	0x1600	; 0x1600 <__gesf2>
     516:	18 16       	cp	r1, r24
     518:	44 f5       	brge	.+80     	; 0x56a <lcd_set_4bit+0x410>
     51a:	20 e0       	ldi	r18, 0x00	; 0
     51c:	30 e0       	ldi	r19, 0x00	; 0
     51e:	40 e2       	ldi	r20, 0x20	; 32
     520:	51 e4       	ldi	r21, 0x41	; 65
     522:	6b a5       	ldd	r22, Y+43	; 0x2b
     524:	7c a5       	ldd	r23, Y+44	; 0x2c
     526:	8d a5       	ldd	r24, Y+45	; 0x2d
     528:	9e a5       	ldd	r25, Y+46	; 0x2e
     52a:	0e 94 04 0b 	call	0x1608	; 0x1608 <__mulsf3>
     52e:	dc 01       	movw	r26, r24
     530:	cb 01       	movw	r24, r22
     532:	bc 01       	movw	r22, r24
     534:	cd 01       	movw	r24, r26
     536:	c3 d7       	rcall	.+3974   	; 0x14be <__fixunssfsi>
     538:	dc 01       	movw	r26, r24
     53a:	cb 01       	movw	r24, r22
     53c:	9c ab       	std	Y+52, r25	; 0x34
     53e:	8b ab       	std	Y+51, r24	; 0x33
     540:	0f c0       	rjmp	.+30     	; 0x560 <lcd_set_4bit+0x406>
     542:	80 e7       	ldi	r24, 0x70	; 112
     544:	91 e0       	ldi	r25, 0x01	; 1
     546:	9e ab       	std	Y+54, r25	; 0x36
     548:	8d ab       	std	Y+53, r24	; 0x35
     54a:	8d a9       	ldd	r24, Y+53	; 0x35
     54c:	9e a9       	ldd	r25, Y+54	; 0x36
     54e:	01 97       	sbiw	r24, 0x01	; 1
     550:	f1 f7       	brne	.-4      	; 0x54e <lcd_set_4bit+0x3f4>
     552:	9e ab       	std	Y+54, r25	; 0x36
     554:	8d ab       	std	Y+53, r24	; 0x35
     556:	8b a9       	ldd	r24, Y+51	; 0x33
     558:	9c a9       	ldd	r25, Y+52	; 0x34
     55a:	01 97       	sbiw	r24, 0x01	; 1
     55c:	9c ab       	std	Y+52, r25	; 0x34
     55e:	8b ab       	std	Y+51, r24	; 0x33
     560:	8b a9       	ldd	r24, Y+51	; 0x33
     562:	9c a9       	ldd	r25, Y+52	; 0x34
     564:	00 97       	sbiw	r24, 0x00	; 0
     566:	69 f7       	brne	.-38     	; 0x542 <lcd_set_4bit+0x3e8>
     568:	13 c0       	rjmp	.+38     	; 0x590 <lcd_set_4bit+0x436>
     56a:	6f a5       	ldd	r22, Y+47	; 0x2f
     56c:	78 a9       	ldd	r23, Y+48	; 0x30
     56e:	89 a9       	ldd	r24, Y+49	; 0x31
     570:	9a a9       	ldd	r25, Y+50	; 0x32
     572:	a5 d7       	rcall	.+3914   	; 0x14be <__fixunssfsi>
     574:	dc 01       	movw	r26, r24
     576:	cb 01       	movw	r24, r22
     578:	9c ab       	std	Y+52, r25	; 0x34
     57a:	8b ab       	std	Y+51, r24	; 0x33
     57c:	8b a9       	ldd	r24, Y+51	; 0x33
     57e:	9c a9       	ldd	r25, Y+52	; 0x34
     580:	98 af       	std	Y+56, r25	; 0x38
     582:	8f ab       	std	Y+55, r24	; 0x37
     584:	8f a9       	ldd	r24, Y+55	; 0x37
     586:	98 ad       	ldd	r25, Y+56	; 0x38
     588:	01 97       	sbiw	r24, 0x01	; 1
     58a:	f1 f7       	brne	.-4      	; 0x588 <lcd_set_4bit+0x42e>
     58c:	98 af       	std	Y+56, r25	; 0x38
     58e:	8f ab       	std	Y+55, r24	; 0x37
     590:	88 e2       	ldi	r24, 0x28	; 40
     592:	90 e0       	ldi	r25, 0x00	; 0
     594:	28 e2       	ldi	r18, 0x28	; 40
     596:	30 e0       	ldi	r19, 0x00	; 0
     598:	f9 01       	movw	r30, r18
     59a:	20 81       	ld	r18, Z
     59c:	2b 7f       	andi	r18, 0xFB	; 251
     59e:	fc 01       	movw	r30, r24
     5a0:	20 83       	st	Z, r18
     5a2:	80 e0       	ldi	r24, 0x00	; 0
     5a4:	90 e0       	ldi	r25, 0x00	; 0
     5a6:	a0 e8       	ldi	r26, 0x80	; 128
     5a8:	bf e3       	ldi	r27, 0x3F	; 63
     5aa:	89 af       	std	Y+57, r24	; 0x39
     5ac:	9a af       	std	Y+58, r25	; 0x3a
     5ae:	ab af       	std	Y+59, r26	; 0x3b
     5b0:	bc af       	std	Y+60, r27	; 0x3c
     5b2:	26 e6       	ldi	r18, 0x66	; 102
     5b4:	36 e6       	ldi	r19, 0x66	; 102
     5b6:	46 e6       	ldi	r20, 0x66	; 102
     5b8:	55 e4       	ldi	r21, 0x45	; 69
     5ba:	69 ad       	ldd	r22, Y+57	; 0x39
     5bc:	7a ad       	ldd	r23, Y+58	; 0x3a
     5be:	8b ad       	ldd	r24, Y+59	; 0x3b
     5c0:	9c ad       	ldd	r25, Y+60	; 0x3c
     5c2:	0e 94 04 0b 	call	0x1608	; 0x1608 <__mulsf3>
     5c6:	dc 01       	movw	r26, r24
     5c8:	cb 01       	movw	r24, r22
     5ca:	9e 01       	movw	r18, r28
     5cc:	23 5c       	subi	r18, 0xC3	; 195
     5ce:	3f 4f       	sbci	r19, 0xFF	; 255
     5d0:	f9 01       	movw	r30, r18
     5d2:	80 83       	st	Z, r24
     5d4:	91 83       	std	Z+1, r25	; 0x01
     5d6:	a2 83       	std	Z+2, r26	; 0x02
     5d8:	b3 83       	std	Z+3, r27	; 0x03
     5da:	20 e0       	ldi	r18, 0x00	; 0
     5dc:	30 e0       	ldi	r19, 0x00	; 0
     5de:	40 e8       	ldi	r20, 0x80	; 128
     5e0:	5f e3       	ldi	r21, 0x3F	; 63
     5e2:	ce 01       	movw	r24, r28
     5e4:	cd 96       	adiw	r24, 0x3d	; 61
     5e6:	fc 01       	movw	r30, r24
     5e8:	60 81       	ld	r22, Z
     5ea:	71 81       	ldd	r23, Z+1	; 0x01
     5ec:	82 81       	ldd	r24, Z+2	; 0x02
     5ee:	93 81       	ldd	r25, Z+3	; 0x03
     5f0:	62 d7       	rcall	.+3780   	; 0x14b6 <__cmpsf2>
     5f2:	88 23       	and	r24, r24
     5f4:	4c f4       	brge	.+18     	; 0x608 <lcd_set_4bit+0x4ae>
     5f6:	ce 01       	movw	r24, r28
     5f8:	8f 5b       	subi	r24, 0xBF	; 191
     5fa:	9f 4f       	sbci	r25, 0xFF	; 255
     5fc:	21 e0       	ldi	r18, 0x01	; 1
     5fe:	30 e0       	ldi	r19, 0x00	; 0
     600:	fc 01       	movw	r30, r24
     602:	31 83       	std	Z+1, r19	; 0x01
     604:	20 83       	st	Z, r18
     606:	63 c0       	rjmp	.+198    	; 0x6ce <lcd_set_4bit+0x574>
     608:	20 e0       	ldi	r18, 0x00	; 0
     60a:	3f ef       	ldi	r19, 0xFF	; 255
     60c:	4f e7       	ldi	r20, 0x7F	; 127
     60e:	57 e4       	ldi	r21, 0x47	; 71
     610:	ce 01       	movw	r24, r28
     612:	cd 96       	adiw	r24, 0x3d	; 61
     614:	fc 01       	movw	r30, r24
     616:	60 81       	ld	r22, Z
     618:	71 81       	ldd	r23, Z+1	; 0x01
     61a:	82 81       	ldd	r24, Z+2	; 0x02
     61c:	93 81       	ldd	r25, Z+3	; 0x03
     61e:	f0 d7       	rcall	.+4064   	; 0x1600 <__gesf2>
     620:	18 16       	cp	r1, r24
     622:	0c f0       	brlt	.+2      	; 0x626 <lcd_set_4bit+0x4cc>
     624:	44 c0       	rjmp	.+136    	; 0x6ae <lcd_set_4bit+0x554>
     626:	20 e0       	ldi	r18, 0x00	; 0
     628:	30 e0       	ldi	r19, 0x00	; 0
     62a:	40 e2       	ldi	r20, 0x20	; 32
     62c:	51 e4       	ldi	r21, 0x41	; 65
     62e:	69 ad       	ldd	r22, Y+57	; 0x39
     630:	7a ad       	ldd	r23, Y+58	; 0x3a
     632:	8b ad       	ldd	r24, Y+59	; 0x3b
     634:	9c ad       	ldd	r25, Y+60	; 0x3c
     636:	e8 d7       	rcall	.+4048   	; 0x1608 <__mulsf3>
     638:	dc 01       	movw	r26, r24
     63a:	cb 01       	movw	r24, r22
     63c:	8e 01       	movw	r16, r28
     63e:	0f 5b       	subi	r16, 0xBF	; 191
     640:	1f 4f       	sbci	r17, 0xFF	; 255
     642:	bc 01       	movw	r22, r24
     644:	cd 01       	movw	r24, r26
     646:	3b d7       	rcall	.+3702   	; 0x14be <__fixunssfsi>
     648:	dc 01       	movw	r26, r24
     64a:	cb 01       	movw	r24, r22
     64c:	f8 01       	movw	r30, r16
     64e:	91 83       	std	Z+1, r25	; 0x01
     650:	80 83       	st	Z, r24
     652:	24 c0       	rjmp	.+72     	; 0x69c <lcd_set_4bit+0x542>
     654:	ce 01       	movw	r24, r28
     656:	8d 5b       	subi	r24, 0xBD	; 189
     658:	9f 4f       	sbci	r25, 0xFF	; 255
     65a:	20 e7       	ldi	r18, 0x70	; 112
     65c:	31 e0       	ldi	r19, 0x01	; 1
     65e:	fc 01       	movw	r30, r24
     660:	31 83       	std	Z+1, r19	; 0x01
     662:	20 83       	st	Z, r18
     664:	ce 01       	movw	r24, r28
     666:	8d 5b       	subi	r24, 0xBD	; 189
     668:	9f 4f       	sbci	r25, 0xFF	; 255
     66a:	fc 01       	movw	r30, r24
     66c:	80 81       	ld	r24, Z
     66e:	91 81       	ldd	r25, Z+1	; 0x01
     670:	01 97       	sbiw	r24, 0x01	; 1
     672:	f1 f7       	brne	.-4      	; 0x670 <lcd_set_4bit+0x516>
     674:	9e 01       	movw	r18, r28
     676:	2d 5b       	subi	r18, 0xBD	; 189
     678:	3f 4f       	sbci	r19, 0xFF	; 255
     67a:	f9 01       	movw	r30, r18
     67c:	91 83       	std	Z+1, r25	; 0x01
     67e:	80 83       	st	Z, r24
     680:	ce 01       	movw	r24, r28
     682:	8f 5b       	subi	r24, 0xBF	; 191
     684:	9f 4f       	sbci	r25, 0xFF	; 255
     686:	9e 01       	movw	r18, r28
     688:	2f 5b       	subi	r18, 0xBF	; 191
     68a:	3f 4f       	sbci	r19, 0xFF	; 255
     68c:	f9 01       	movw	r30, r18
     68e:	20 81       	ld	r18, Z
     690:	31 81       	ldd	r19, Z+1	; 0x01
     692:	21 50       	subi	r18, 0x01	; 1
     694:	31 09       	sbc	r19, r1
     696:	fc 01       	movw	r30, r24
     698:	31 83       	std	Z+1, r19	; 0x01
     69a:	20 83       	st	Z, r18
     69c:	ce 01       	movw	r24, r28
     69e:	8f 5b       	subi	r24, 0xBF	; 191
     6a0:	9f 4f       	sbci	r25, 0xFF	; 255
     6a2:	fc 01       	movw	r30, r24
     6a4:	80 81       	ld	r24, Z
     6a6:	91 81       	ldd	r25, Z+1	; 0x01
     6a8:	00 97       	sbiw	r24, 0x00	; 0
     6aa:	a1 f6       	brne	.-88     	; 0x654 <lcd_set_4bit+0x4fa>
     6ac:	2a c0       	rjmp	.+84     	; 0x702 <lcd_set_4bit+0x5a8>
     6ae:	8e 01       	movw	r16, r28
     6b0:	0f 5b       	subi	r16, 0xBF	; 191
     6b2:	1f 4f       	sbci	r17, 0xFF	; 255
     6b4:	ce 01       	movw	r24, r28
     6b6:	cd 96       	adiw	r24, 0x3d	; 61
     6b8:	fc 01       	movw	r30, r24
     6ba:	60 81       	ld	r22, Z
     6bc:	71 81       	ldd	r23, Z+1	; 0x01
     6be:	82 81       	ldd	r24, Z+2	; 0x02
     6c0:	93 81       	ldd	r25, Z+3	; 0x03
     6c2:	fd d6       	rcall	.+3578   	; 0x14be <__fixunssfsi>
     6c4:	dc 01       	movw	r26, r24
     6c6:	cb 01       	movw	r24, r22
     6c8:	f8 01       	movw	r30, r16
     6ca:	91 83       	std	Z+1, r25	; 0x01
     6cc:	80 83       	st	Z, r24
     6ce:	ce 01       	movw	r24, r28
     6d0:	8b 5b       	subi	r24, 0xBB	; 187
     6d2:	9f 4f       	sbci	r25, 0xFF	; 255
     6d4:	9e 01       	movw	r18, r28
     6d6:	2f 5b       	subi	r18, 0xBF	; 191
     6d8:	3f 4f       	sbci	r19, 0xFF	; 255
     6da:	f9 01       	movw	r30, r18
     6dc:	20 81       	ld	r18, Z
     6de:	31 81       	ldd	r19, Z+1	; 0x01
     6e0:	fc 01       	movw	r30, r24
     6e2:	31 83       	std	Z+1, r19	; 0x01
     6e4:	20 83       	st	Z, r18
     6e6:	ce 01       	movw	r24, r28
     6e8:	8b 5b       	subi	r24, 0xBB	; 187
     6ea:	9f 4f       	sbci	r25, 0xFF	; 255
     6ec:	fc 01       	movw	r30, r24
     6ee:	80 81       	ld	r24, Z
     6f0:	91 81       	ldd	r25, Z+1	; 0x01
     6f2:	01 97       	sbiw	r24, 0x01	; 1
     6f4:	f1 f7       	brne	.-4      	; 0x6f2 <lcd_set_4bit+0x598>
     6f6:	9e 01       	movw	r18, r28
     6f8:	2b 5b       	subi	r18, 0xBB	; 187
     6fa:	3f 4f       	sbci	r19, 0xFF	; 255
     6fc:	f9 01       	movw	r30, r18
     6fe:	91 83       	std	Z+1, r25	; 0x01
     700:	80 83       	st	Z, r24
     702:	88 e2       	ldi	r24, 0x28	; 40
     704:	90 e0       	ldi	r25, 0x00	; 0
     706:	28 e2       	ldi	r18, 0x28	; 40
     708:	30 e0       	ldi	r19, 0x00	; 0
     70a:	f9 01       	movw	r30, r18
     70c:	20 81       	ld	r18, Z
     70e:	2e 7f       	andi	r18, 0xFE	; 254
     710:	fc 01       	movw	r30, r24
     712:	20 83       	st	Z, r18
     714:	88 e2       	ldi	r24, 0x28	; 40
     716:	90 e0       	ldi	r25, 0x00	; 0
     718:	28 e2       	ldi	r18, 0x28	; 40
     71a:	30 e0       	ldi	r19, 0x00	; 0
     71c:	f9 01       	movw	r30, r18
     71e:	20 81       	ld	r18, Z
     720:	2d 7f       	andi	r18, 0xFD	; 253
     722:	fc 01       	movw	r30, r24
     724:	20 83       	st	Z, r18
     726:	88 e2       	ldi	r24, 0x28	; 40
     728:	90 e0       	ldi	r25, 0x00	; 0
     72a:	20 e3       	ldi	r18, 0x30	; 48
     72c:	fc 01       	movw	r30, r24
     72e:	20 83       	st	Z, r18
     730:	88 e2       	ldi	r24, 0x28	; 40
     732:	90 e0       	ldi	r25, 0x00	; 0
     734:	28 e2       	ldi	r18, 0x28	; 40
     736:	30 e0       	ldi	r19, 0x00	; 0
     738:	f9 01       	movw	r30, r18
     73a:	20 81       	ld	r18, Z
     73c:	24 60       	ori	r18, 0x04	; 4
     73e:	fc 01       	movw	r30, r24
     740:	20 83       	st	Z, r18
     742:	9e 01       	movw	r18, r28
     744:	29 5b       	subi	r18, 0xB9	; 185
     746:	3f 4f       	sbci	r19, 0xFF	; 255
     748:	80 e0       	ldi	r24, 0x00	; 0
     74a:	90 e0       	ldi	r25, 0x00	; 0
     74c:	a0 ea       	ldi	r26, 0xA0	; 160
     74e:	b0 e4       	ldi	r27, 0x40	; 64
     750:	f9 01       	movw	r30, r18
     752:	80 83       	st	Z, r24
     754:	91 83       	std	Z+1, r25	; 0x01
     756:	a2 83       	std	Z+2, r26	; 0x02
     758:	b3 83       	std	Z+3, r27	; 0x03
     75a:	8e 01       	movw	r16, r28
     75c:	05 5b       	subi	r16, 0xB5	; 181
     75e:	1f 4f       	sbci	r17, 0xFF	; 255
     760:	ce 01       	movw	r24, r28
     762:	89 5b       	subi	r24, 0xB9	; 185
     764:	9f 4f       	sbci	r25, 0xFF	; 255
     766:	26 e6       	ldi	r18, 0x66	; 102
     768:	36 e6       	ldi	r19, 0x66	; 102
     76a:	46 e6       	ldi	r20, 0x66	; 102
     76c:	55 e4       	ldi	r21, 0x45	; 69
     76e:	fc 01       	movw	r30, r24
     770:	60 81       	ld	r22, Z
     772:	71 81       	ldd	r23, Z+1	; 0x01
     774:	82 81       	ldd	r24, Z+2	; 0x02
     776:	93 81       	ldd	r25, Z+3	; 0x03
     778:	47 d7       	rcall	.+3726   	; 0x1608 <__mulsf3>
     77a:	dc 01       	movw	r26, r24
     77c:	cb 01       	movw	r24, r22
     77e:	f8 01       	movw	r30, r16
     780:	80 83       	st	Z, r24
     782:	91 83       	std	Z+1, r25	; 0x01
     784:	a2 83       	std	Z+2, r26	; 0x02
     786:	b3 83       	std	Z+3, r27	; 0x03
     788:	ce 01       	movw	r24, r28
     78a:	85 5b       	subi	r24, 0xB5	; 181
     78c:	9f 4f       	sbci	r25, 0xFF	; 255
     78e:	20 e0       	ldi	r18, 0x00	; 0
     790:	30 e0       	ldi	r19, 0x00	; 0
     792:	40 e8       	ldi	r20, 0x80	; 128
     794:	5f e3       	ldi	r21, 0x3F	; 63
     796:	fc 01       	movw	r30, r24
     798:	60 81       	ld	r22, Z
     79a:	71 81       	ldd	r23, Z+1	; 0x01
     79c:	82 81       	ldd	r24, Z+2	; 0x02
     79e:	93 81       	ldd	r25, Z+3	; 0x03
     7a0:	8a d6       	rcall	.+3348   	; 0x14b6 <__cmpsf2>
     7a2:	88 23       	and	r24, r24
     7a4:	4c f4       	brge	.+18     	; 0x7b8 <lcd_set_4bit+0x65e>
     7a6:	ce 01       	movw	r24, r28
     7a8:	81 5b       	subi	r24, 0xB1	; 177
     7aa:	9f 4f       	sbci	r25, 0xFF	; 255
     7ac:	21 e0       	ldi	r18, 0x01	; 1
     7ae:	30 e0       	ldi	r19, 0x00	; 0
     7b0:	fc 01       	movw	r30, r24
     7b2:	31 83       	std	Z+1, r19	; 0x01
     7b4:	20 83       	st	Z, r18
     7b6:	69 c0       	rjmp	.+210    	; 0x88a <lcd_set_4bit+0x730>
     7b8:	ce 01       	movw	r24, r28
     7ba:	85 5b       	subi	r24, 0xB5	; 181
     7bc:	9f 4f       	sbci	r25, 0xFF	; 255
     7be:	20 e0       	ldi	r18, 0x00	; 0
     7c0:	3f ef       	ldi	r19, 0xFF	; 255
     7c2:	4f e7       	ldi	r20, 0x7F	; 127
     7c4:	57 e4       	ldi	r21, 0x47	; 71
     7c6:	fc 01       	movw	r30, r24
     7c8:	60 81       	ld	r22, Z
     7ca:	71 81       	ldd	r23, Z+1	; 0x01
     7cc:	82 81       	ldd	r24, Z+2	; 0x02
     7ce:	93 81       	ldd	r25, Z+3	; 0x03
     7d0:	17 d7       	rcall	.+3630   	; 0x1600 <__gesf2>
     7d2:	18 16       	cp	r1, r24
     7d4:	0c f0       	brlt	.+2      	; 0x7d8 <lcd_set_4bit+0x67e>
     7d6:	48 c0       	rjmp	.+144    	; 0x868 <lcd_set_4bit+0x70e>
     7d8:	ce 01       	movw	r24, r28
     7da:	89 5b       	subi	r24, 0xB9	; 185
     7dc:	9f 4f       	sbci	r25, 0xFF	; 255
     7de:	20 e0       	ldi	r18, 0x00	; 0
     7e0:	30 e0       	ldi	r19, 0x00	; 0
     7e2:	40 e2       	ldi	r20, 0x20	; 32
     7e4:	51 e4       	ldi	r21, 0x41	; 65
     7e6:	fc 01       	movw	r30, r24
     7e8:	60 81       	ld	r22, Z
     7ea:	71 81       	ldd	r23, Z+1	; 0x01
     7ec:	82 81       	ldd	r24, Z+2	; 0x02
     7ee:	93 81       	ldd	r25, Z+3	; 0x03
     7f0:	0b d7       	rcall	.+3606   	; 0x1608 <__mulsf3>
     7f2:	dc 01       	movw	r26, r24
     7f4:	cb 01       	movw	r24, r22
     7f6:	8e 01       	movw	r16, r28
     7f8:	01 5b       	subi	r16, 0xB1	; 177
     7fa:	1f 4f       	sbci	r17, 0xFF	; 255
     7fc:	bc 01       	movw	r22, r24
     7fe:	cd 01       	movw	r24, r26
     800:	5e d6       	rcall	.+3260   	; 0x14be <__fixunssfsi>
     802:	dc 01       	movw	r26, r24
     804:	cb 01       	movw	r24, r22
     806:	f8 01       	movw	r30, r16
     808:	91 83       	std	Z+1, r25	; 0x01
     80a:	80 83       	st	Z, r24
     80c:	24 c0       	rjmp	.+72     	; 0x856 <lcd_set_4bit+0x6fc>
     80e:	ce 01       	movw	r24, r28
     810:	8f 5a       	subi	r24, 0xAF	; 175
     812:	9f 4f       	sbci	r25, 0xFF	; 255
     814:	20 e7       	ldi	r18, 0x70	; 112
     816:	31 e0       	ldi	r19, 0x01	; 1
     818:	fc 01       	movw	r30, r24
     81a:	31 83       	std	Z+1, r19	; 0x01
     81c:	20 83       	st	Z, r18
     81e:	ce 01       	movw	r24, r28
     820:	8f 5a       	subi	r24, 0xAF	; 175
     822:	9f 4f       	sbci	r25, 0xFF	; 255
     824:	fc 01       	movw	r30, r24
     826:	80 81       	ld	r24, Z
     828:	91 81       	ldd	r25, Z+1	; 0x01
     82a:	01 97       	sbiw	r24, 0x01	; 1
     82c:	f1 f7       	brne	.-4      	; 0x82a <lcd_set_4bit+0x6d0>
     82e:	9e 01       	movw	r18, r28
     830:	2f 5a       	subi	r18, 0xAF	; 175
     832:	3f 4f       	sbci	r19, 0xFF	; 255
     834:	f9 01       	movw	r30, r18
     836:	91 83       	std	Z+1, r25	; 0x01
     838:	80 83       	st	Z, r24
     83a:	ce 01       	movw	r24, r28
     83c:	81 5b       	subi	r24, 0xB1	; 177
     83e:	9f 4f       	sbci	r25, 0xFF	; 255
     840:	9e 01       	movw	r18, r28
     842:	21 5b       	subi	r18, 0xB1	; 177
     844:	3f 4f       	sbci	r19, 0xFF	; 255
     846:	f9 01       	movw	r30, r18
     848:	20 81       	ld	r18, Z
     84a:	31 81       	ldd	r19, Z+1	; 0x01
     84c:	21 50       	subi	r18, 0x01	; 1
     84e:	31 09       	sbc	r19, r1
     850:	fc 01       	movw	r30, r24
     852:	31 83       	std	Z+1, r19	; 0x01
     854:	20 83       	st	Z, r18
     856:	ce 01       	movw	r24, r28
     858:	81 5b       	subi	r24, 0xB1	; 177
     85a:	9f 4f       	sbci	r25, 0xFF	; 255
     85c:	fc 01       	movw	r30, r24
     85e:	80 81       	ld	r24, Z
     860:	91 81       	ldd	r25, Z+1	; 0x01
     862:	00 97       	sbiw	r24, 0x00	; 0
     864:	a1 f6       	brne	.-88     	; 0x80e <lcd_set_4bit+0x6b4>
     866:	2b c0       	rjmp	.+86     	; 0x8be <lcd_set_4bit+0x764>
     868:	8e 01       	movw	r16, r28
     86a:	01 5b       	subi	r16, 0xB1	; 177
     86c:	1f 4f       	sbci	r17, 0xFF	; 255
     86e:	ce 01       	movw	r24, r28
     870:	85 5b       	subi	r24, 0xB5	; 181
     872:	9f 4f       	sbci	r25, 0xFF	; 255
     874:	fc 01       	movw	r30, r24
     876:	60 81       	ld	r22, Z
     878:	71 81       	ldd	r23, Z+1	; 0x01
     87a:	82 81       	ldd	r24, Z+2	; 0x02
     87c:	93 81       	ldd	r25, Z+3	; 0x03
     87e:	1f d6       	rcall	.+3134   	; 0x14be <__fixunssfsi>
     880:	dc 01       	movw	r26, r24
     882:	cb 01       	movw	r24, r22
     884:	f8 01       	movw	r30, r16
     886:	91 83       	std	Z+1, r25	; 0x01
     888:	80 83       	st	Z, r24
     88a:	ce 01       	movw	r24, r28
     88c:	8d 5a       	subi	r24, 0xAD	; 173
     88e:	9f 4f       	sbci	r25, 0xFF	; 255
     890:	9e 01       	movw	r18, r28
     892:	21 5b       	subi	r18, 0xB1	; 177
     894:	3f 4f       	sbci	r19, 0xFF	; 255
     896:	f9 01       	movw	r30, r18
     898:	20 81       	ld	r18, Z
     89a:	31 81       	ldd	r19, Z+1	; 0x01
     89c:	fc 01       	movw	r30, r24
     89e:	31 83       	std	Z+1, r19	; 0x01
     8a0:	20 83       	st	Z, r18
     8a2:	ce 01       	movw	r24, r28
     8a4:	8d 5a       	subi	r24, 0xAD	; 173
     8a6:	9f 4f       	sbci	r25, 0xFF	; 255
     8a8:	fc 01       	movw	r30, r24
     8aa:	80 81       	ld	r24, Z
     8ac:	91 81       	ldd	r25, Z+1	; 0x01
     8ae:	01 97       	sbiw	r24, 0x01	; 1
     8b0:	f1 f7       	brne	.-4      	; 0x8ae <lcd_set_4bit+0x754>
     8b2:	9e 01       	movw	r18, r28
     8b4:	2d 5a       	subi	r18, 0xAD	; 173
     8b6:	3f 4f       	sbci	r19, 0xFF	; 255
     8b8:	f9 01       	movw	r30, r18
     8ba:	91 83       	std	Z+1, r25	; 0x01
     8bc:	80 83       	st	Z, r24
     8be:	88 e2       	ldi	r24, 0x28	; 40
     8c0:	90 e0       	ldi	r25, 0x00	; 0
     8c2:	28 e2       	ldi	r18, 0x28	; 40
     8c4:	30 e0       	ldi	r19, 0x00	; 0
     8c6:	f9 01       	movw	r30, r18
     8c8:	20 81       	ld	r18, Z
     8ca:	2b 7f       	andi	r18, 0xFB	; 251
     8cc:	fc 01       	movw	r30, r24
     8ce:	20 83       	st	Z, r18
     8d0:	9e 01       	movw	r18, r28
     8d2:	2b 5a       	subi	r18, 0xAB	; 171
     8d4:	3f 4f       	sbci	r19, 0xFF	; 255
     8d6:	80 e0       	ldi	r24, 0x00	; 0
     8d8:	90 e0       	ldi	r25, 0x00	; 0
     8da:	a0 e8       	ldi	r26, 0x80	; 128
     8dc:	bf e3       	ldi	r27, 0x3F	; 63
     8de:	f9 01       	movw	r30, r18
     8e0:	80 83       	st	Z, r24
     8e2:	91 83       	std	Z+1, r25	; 0x01
     8e4:	a2 83       	std	Z+2, r26	; 0x02
     8e6:	b3 83       	std	Z+3, r27	; 0x03
     8e8:	8e 01       	movw	r16, r28
     8ea:	07 5a       	subi	r16, 0xA7	; 167
     8ec:	1f 4f       	sbci	r17, 0xFF	; 255
     8ee:	ce 01       	movw	r24, r28
     8f0:	8b 5a       	subi	r24, 0xAB	; 171
     8f2:	9f 4f       	sbci	r25, 0xFF	; 255
     8f4:	26 e6       	ldi	r18, 0x66	; 102
     8f6:	36 e6       	ldi	r19, 0x66	; 102
     8f8:	46 e6       	ldi	r20, 0x66	; 102
     8fa:	55 e4       	ldi	r21, 0x45	; 69
     8fc:	fc 01       	movw	r30, r24
     8fe:	60 81       	ld	r22, Z
     900:	71 81       	ldd	r23, Z+1	; 0x01
     902:	82 81       	ldd	r24, Z+2	; 0x02
     904:	93 81       	ldd	r25, Z+3	; 0x03
     906:	80 d6       	rcall	.+3328   	; 0x1608 <__mulsf3>
     908:	dc 01       	movw	r26, r24
     90a:	cb 01       	movw	r24, r22
     90c:	f8 01       	movw	r30, r16
     90e:	80 83       	st	Z, r24
     910:	91 83       	std	Z+1, r25	; 0x01
     912:	a2 83       	std	Z+2, r26	; 0x02
     914:	b3 83       	std	Z+3, r27	; 0x03
     916:	ce 01       	movw	r24, r28
     918:	87 5a       	subi	r24, 0xA7	; 167
     91a:	9f 4f       	sbci	r25, 0xFF	; 255
     91c:	20 e0       	ldi	r18, 0x00	; 0
     91e:	30 e0       	ldi	r19, 0x00	; 0
     920:	40 e8       	ldi	r20, 0x80	; 128
     922:	5f e3       	ldi	r21, 0x3F	; 63
     924:	fc 01       	movw	r30, r24
     926:	60 81       	ld	r22, Z
     928:	71 81       	ldd	r23, Z+1	; 0x01
     92a:	82 81       	ldd	r24, Z+2	; 0x02
     92c:	93 81       	ldd	r25, Z+3	; 0x03
     92e:	c3 d5       	rcall	.+2950   	; 0x14b6 <__cmpsf2>
     930:	88 23       	and	r24, r24
     932:	4c f4       	brge	.+18     	; 0x946 <lcd_set_4bit+0x7ec>
     934:	ce 01       	movw	r24, r28
     936:	83 5a       	subi	r24, 0xA3	; 163
     938:	9f 4f       	sbci	r25, 0xFF	; 255
     93a:	21 e0       	ldi	r18, 0x01	; 1
     93c:	30 e0       	ldi	r19, 0x00	; 0
     93e:	fc 01       	movw	r30, r24
     940:	31 83       	std	Z+1, r19	; 0x01
     942:	20 83       	st	Z, r18
     944:	69 c0       	rjmp	.+210    	; 0xa18 <lcd_set_4bit+0x8be>
     946:	ce 01       	movw	r24, r28
     948:	87 5a       	subi	r24, 0xA7	; 167
     94a:	9f 4f       	sbci	r25, 0xFF	; 255
     94c:	20 e0       	ldi	r18, 0x00	; 0
     94e:	3f ef       	ldi	r19, 0xFF	; 255
     950:	4f e7       	ldi	r20, 0x7F	; 127
     952:	57 e4       	ldi	r21, 0x47	; 71
     954:	fc 01       	movw	r30, r24
     956:	60 81       	ld	r22, Z
     958:	71 81       	ldd	r23, Z+1	; 0x01
     95a:	82 81       	ldd	r24, Z+2	; 0x02
     95c:	93 81       	ldd	r25, Z+3	; 0x03
     95e:	50 d6       	rcall	.+3232   	; 0x1600 <__gesf2>
     960:	18 16       	cp	r1, r24
     962:	0c f0       	brlt	.+2      	; 0x966 <lcd_set_4bit+0x80c>
     964:	48 c0       	rjmp	.+144    	; 0x9f6 <lcd_set_4bit+0x89c>
     966:	ce 01       	movw	r24, r28
     968:	8b 5a       	subi	r24, 0xAB	; 171
     96a:	9f 4f       	sbci	r25, 0xFF	; 255
     96c:	20 e0       	ldi	r18, 0x00	; 0
     96e:	30 e0       	ldi	r19, 0x00	; 0
     970:	40 e2       	ldi	r20, 0x20	; 32
     972:	51 e4       	ldi	r21, 0x41	; 65
     974:	fc 01       	movw	r30, r24
     976:	60 81       	ld	r22, Z
     978:	71 81       	ldd	r23, Z+1	; 0x01
     97a:	82 81       	ldd	r24, Z+2	; 0x02
     97c:	93 81       	ldd	r25, Z+3	; 0x03
     97e:	44 d6       	rcall	.+3208   	; 0x1608 <__mulsf3>
     980:	dc 01       	movw	r26, r24
     982:	cb 01       	movw	r24, r22
     984:	8e 01       	movw	r16, r28
     986:	03 5a       	subi	r16, 0xA3	; 163
     988:	1f 4f       	sbci	r17, 0xFF	; 255
     98a:	bc 01       	movw	r22, r24
     98c:	cd 01       	movw	r24, r26
     98e:	97 d5       	rcall	.+2862   	; 0x14be <__fixunssfsi>
     990:	dc 01       	movw	r26, r24
     992:	cb 01       	movw	r24, r22
     994:	f8 01       	movw	r30, r16
     996:	91 83       	std	Z+1, r25	; 0x01
     998:	80 83       	st	Z, r24
     99a:	24 c0       	rjmp	.+72     	; 0x9e4 <lcd_set_4bit+0x88a>
     99c:	ce 01       	movw	r24, r28
     99e:	81 5a       	subi	r24, 0xA1	; 161
     9a0:	9f 4f       	sbci	r25, 0xFF	; 255
     9a2:	20 e7       	ldi	r18, 0x70	; 112
     9a4:	31 e0       	ldi	r19, 0x01	; 1
     9a6:	fc 01       	movw	r30, r24
     9a8:	31 83       	std	Z+1, r19	; 0x01
     9aa:	20 83       	st	Z, r18
     9ac:	ce 01       	movw	r24, r28
     9ae:	81 5a       	subi	r24, 0xA1	; 161
     9b0:	9f 4f       	sbci	r25, 0xFF	; 255
     9b2:	fc 01       	movw	r30, r24
     9b4:	80 81       	ld	r24, Z
     9b6:	91 81       	ldd	r25, Z+1	; 0x01
     9b8:	01 97       	sbiw	r24, 0x01	; 1
     9ba:	f1 f7       	brne	.-4      	; 0x9b8 <lcd_set_4bit+0x85e>
     9bc:	9e 01       	movw	r18, r28
     9be:	21 5a       	subi	r18, 0xA1	; 161
     9c0:	3f 4f       	sbci	r19, 0xFF	; 255
     9c2:	f9 01       	movw	r30, r18
     9c4:	91 83       	std	Z+1, r25	; 0x01
     9c6:	80 83       	st	Z, r24
     9c8:	ce 01       	movw	r24, r28
     9ca:	83 5a       	subi	r24, 0xA3	; 163
     9cc:	9f 4f       	sbci	r25, 0xFF	; 255
     9ce:	9e 01       	movw	r18, r28
     9d0:	23 5a       	subi	r18, 0xA3	; 163
     9d2:	3f 4f       	sbci	r19, 0xFF	; 255
     9d4:	f9 01       	movw	r30, r18
     9d6:	20 81       	ld	r18, Z
     9d8:	31 81       	ldd	r19, Z+1	; 0x01
     9da:	21 50       	subi	r18, 0x01	; 1
     9dc:	31 09       	sbc	r19, r1
     9de:	fc 01       	movw	r30, r24
     9e0:	31 83       	std	Z+1, r19	; 0x01
     9e2:	20 83       	st	Z, r18
     9e4:	ce 01       	movw	r24, r28
     9e6:	83 5a       	subi	r24, 0xA3	; 163
     9e8:	9f 4f       	sbci	r25, 0xFF	; 255
     9ea:	fc 01       	movw	r30, r24
     9ec:	80 81       	ld	r24, Z
     9ee:	91 81       	ldd	r25, Z+1	; 0x01
     9f0:	00 97       	sbiw	r24, 0x00	; 0
     9f2:	a1 f6       	brne	.-88     	; 0x99c <lcd_set_4bit+0x842>
     9f4:	2b c0       	rjmp	.+86     	; 0xa4c <lcd_set_4bit+0x8f2>
     9f6:	8e 01       	movw	r16, r28
     9f8:	03 5a       	subi	r16, 0xA3	; 163
     9fa:	1f 4f       	sbci	r17, 0xFF	; 255
     9fc:	ce 01       	movw	r24, r28
     9fe:	87 5a       	subi	r24, 0xA7	; 167
     a00:	9f 4f       	sbci	r25, 0xFF	; 255
     a02:	fc 01       	movw	r30, r24
     a04:	60 81       	ld	r22, Z
     a06:	71 81       	ldd	r23, Z+1	; 0x01
     a08:	82 81       	ldd	r24, Z+2	; 0x02
     a0a:	93 81       	ldd	r25, Z+3	; 0x03
     a0c:	58 d5       	rcall	.+2736   	; 0x14be <__fixunssfsi>
     a0e:	dc 01       	movw	r26, r24
     a10:	cb 01       	movw	r24, r22
     a12:	f8 01       	movw	r30, r16
     a14:	91 83       	std	Z+1, r25	; 0x01
     a16:	80 83       	st	Z, r24
     a18:	ce 01       	movw	r24, r28
     a1a:	8f 59       	subi	r24, 0x9F	; 159
     a1c:	9f 4f       	sbci	r25, 0xFF	; 255
     a1e:	9e 01       	movw	r18, r28
     a20:	23 5a       	subi	r18, 0xA3	; 163
     a22:	3f 4f       	sbci	r19, 0xFF	; 255
     a24:	f9 01       	movw	r30, r18
     a26:	20 81       	ld	r18, Z
     a28:	31 81       	ldd	r19, Z+1	; 0x01
     a2a:	fc 01       	movw	r30, r24
     a2c:	31 83       	std	Z+1, r19	; 0x01
     a2e:	20 83       	st	Z, r18
     a30:	ce 01       	movw	r24, r28
     a32:	8f 59       	subi	r24, 0x9F	; 159
     a34:	9f 4f       	sbci	r25, 0xFF	; 255
     a36:	fc 01       	movw	r30, r24
     a38:	80 81       	ld	r24, Z
     a3a:	91 81       	ldd	r25, Z+1	; 0x01
     a3c:	01 97       	sbiw	r24, 0x01	; 1
     a3e:	f1 f7       	brne	.-4      	; 0xa3c <lcd_set_4bit+0x8e2>
     a40:	9e 01       	movw	r18, r28
     a42:	2f 59       	subi	r18, 0x9F	; 159
     a44:	3f 4f       	sbci	r19, 0xFF	; 255
     a46:	f9 01       	movw	r30, r18
     a48:	91 83       	std	Z+1, r25	; 0x01
     a4a:	80 83       	st	Z, r24
     a4c:	88 e2       	ldi	r24, 0x28	; 40
     a4e:	90 e0       	ldi	r25, 0x00	; 0
     a50:	28 e2       	ldi	r18, 0x28	; 40
     a52:	30 e0       	ldi	r19, 0x00	; 0
     a54:	f9 01       	movw	r30, r18
     a56:	20 81       	ld	r18, Z
     a58:	2e 7f       	andi	r18, 0xFE	; 254
     a5a:	fc 01       	movw	r30, r24
     a5c:	20 83       	st	Z, r18
     a5e:	88 e2       	ldi	r24, 0x28	; 40
     a60:	90 e0       	ldi	r25, 0x00	; 0
     a62:	28 e2       	ldi	r18, 0x28	; 40
     a64:	30 e0       	ldi	r19, 0x00	; 0
     a66:	f9 01       	movw	r30, r18
     a68:	20 81       	ld	r18, Z
     a6a:	2d 7f       	andi	r18, 0xFD	; 253
     a6c:	fc 01       	movw	r30, r24
     a6e:	20 83       	st	Z, r18
     a70:	88 e2       	ldi	r24, 0x28	; 40
     a72:	90 e0       	ldi	r25, 0x00	; 0
     a74:	20 e2       	ldi	r18, 0x20	; 32
     a76:	fc 01       	movw	r30, r24
     a78:	20 83       	st	Z, r18
     a7a:	88 e2       	ldi	r24, 0x28	; 40
     a7c:	90 e0       	ldi	r25, 0x00	; 0
     a7e:	28 e2       	ldi	r18, 0x28	; 40
     a80:	30 e0       	ldi	r19, 0x00	; 0
     a82:	f9 01       	movw	r30, r18
     a84:	20 81       	ld	r18, Z
     a86:	24 60       	ori	r18, 0x04	; 4
     a88:	fc 01       	movw	r30, r24
     a8a:	20 83       	st	Z, r18
     a8c:	9e 01       	movw	r18, r28
     a8e:	2d 59       	subi	r18, 0x9D	; 157
     a90:	3f 4f       	sbci	r19, 0xFF	; 255
     a92:	80 e0       	ldi	r24, 0x00	; 0
     a94:	90 e0       	ldi	r25, 0x00	; 0
     a96:	a0 ea       	ldi	r26, 0xA0	; 160
     a98:	b0 e4       	ldi	r27, 0x40	; 64
     a9a:	f9 01       	movw	r30, r18
     a9c:	80 83       	st	Z, r24
     a9e:	91 83       	std	Z+1, r25	; 0x01
     aa0:	a2 83       	std	Z+2, r26	; 0x02
     aa2:	b3 83       	std	Z+3, r27	; 0x03
     aa4:	8e 01       	movw	r16, r28
     aa6:	09 59       	subi	r16, 0x99	; 153
     aa8:	1f 4f       	sbci	r17, 0xFF	; 255
     aaa:	ce 01       	movw	r24, r28
     aac:	8d 59       	subi	r24, 0x9D	; 157
     aae:	9f 4f       	sbci	r25, 0xFF	; 255
     ab0:	26 e6       	ldi	r18, 0x66	; 102
     ab2:	36 e6       	ldi	r19, 0x66	; 102
     ab4:	46 e6       	ldi	r20, 0x66	; 102
     ab6:	55 e4       	ldi	r21, 0x45	; 69
     ab8:	fc 01       	movw	r30, r24
     aba:	60 81       	ld	r22, Z
     abc:	71 81       	ldd	r23, Z+1	; 0x01
     abe:	82 81       	ldd	r24, Z+2	; 0x02
     ac0:	93 81       	ldd	r25, Z+3	; 0x03
     ac2:	a2 d5       	rcall	.+2884   	; 0x1608 <__mulsf3>
     ac4:	dc 01       	movw	r26, r24
     ac6:	cb 01       	movw	r24, r22
     ac8:	f8 01       	movw	r30, r16
     aca:	80 83       	st	Z, r24
     acc:	91 83       	std	Z+1, r25	; 0x01
     ace:	a2 83       	std	Z+2, r26	; 0x02
     ad0:	b3 83       	std	Z+3, r27	; 0x03
     ad2:	ce 01       	movw	r24, r28
     ad4:	89 59       	subi	r24, 0x99	; 153
     ad6:	9f 4f       	sbci	r25, 0xFF	; 255
     ad8:	20 e0       	ldi	r18, 0x00	; 0
     ada:	30 e0       	ldi	r19, 0x00	; 0
     adc:	40 e8       	ldi	r20, 0x80	; 128
     ade:	5f e3       	ldi	r21, 0x3F	; 63
     ae0:	fc 01       	movw	r30, r24
     ae2:	60 81       	ld	r22, Z
     ae4:	71 81       	ldd	r23, Z+1	; 0x01
     ae6:	82 81       	ldd	r24, Z+2	; 0x02
     ae8:	93 81       	ldd	r25, Z+3	; 0x03
     aea:	e5 d4       	rcall	.+2506   	; 0x14b6 <__cmpsf2>
     aec:	88 23       	and	r24, r24
     aee:	4c f4       	brge	.+18     	; 0xb02 <lcd_set_4bit+0x9a8>
     af0:	ce 01       	movw	r24, r28
     af2:	85 59       	subi	r24, 0x95	; 149
     af4:	9f 4f       	sbci	r25, 0xFF	; 255
     af6:	21 e0       	ldi	r18, 0x01	; 1
     af8:	30 e0       	ldi	r19, 0x00	; 0
     afa:	fc 01       	movw	r30, r24
     afc:	31 83       	std	Z+1, r19	; 0x01
     afe:	20 83       	st	Z, r18
     b00:	69 c0       	rjmp	.+210    	; 0xbd4 <lcd_set_4bit+0xa7a>
     b02:	ce 01       	movw	r24, r28
     b04:	89 59       	subi	r24, 0x99	; 153
     b06:	9f 4f       	sbci	r25, 0xFF	; 255
     b08:	20 e0       	ldi	r18, 0x00	; 0
     b0a:	3f ef       	ldi	r19, 0xFF	; 255
     b0c:	4f e7       	ldi	r20, 0x7F	; 127
     b0e:	57 e4       	ldi	r21, 0x47	; 71
     b10:	fc 01       	movw	r30, r24
     b12:	60 81       	ld	r22, Z
     b14:	71 81       	ldd	r23, Z+1	; 0x01
     b16:	82 81       	ldd	r24, Z+2	; 0x02
     b18:	93 81       	ldd	r25, Z+3	; 0x03
     b1a:	72 d5       	rcall	.+2788   	; 0x1600 <__gesf2>
     b1c:	18 16       	cp	r1, r24
     b1e:	0c f0       	brlt	.+2      	; 0xb22 <lcd_set_4bit+0x9c8>
     b20:	48 c0       	rjmp	.+144    	; 0xbb2 <lcd_set_4bit+0xa58>
     b22:	ce 01       	movw	r24, r28
     b24:	8d 59       	subi	r24, 0x9D	; 157
     b26:	9f 4f       	sbci	r25, 0xFF	; 255
     b28:	20 e0       	ldi	r18, 0x00	; 0
     b2a:	30 e0       	ldi	r19, 0x00	; 0
     b2c:	40 e2       	ldi	r20, 0x20	; 32
     b2e:	51 e4       	ldi	r21, 0x41	; 65
     b30:	fc 01       	movw	r30, r24
     b32:	60 81       	ld	r22, Z
     b34:	71 81       	ldd	r23, Z+1	; 0x01
     b36:	82 81       	ldd	r24, Z+2	; 0x02
     b38:	93 81       	ldd	r25, Z+3	; 0x03
     b3a:	66 d5       	rcall	.+2764   	; 0x1608 <__mulsf3>
     b3c:	dc 01       	movw	r26, r24
     b3e:	cb 01       	movw	r24, r22
     b40:	8e 01       	movw	r16, r28
     b42:	05 59       	subi	r16, 0x95	; 149
     b44:	1f 4f       	sbci	r17, 0xFF	; 255
     b46:	bc 01       	movw	r22, r24
     b48:	cd 01       	movw	r24, r26
     b4a:	b9 d4       	rcall	.+2418   	; 0x14be <__fixunssfsi>
     b4c:	dc 01       	movw	r26, r24
     b4e:	cb 01       	movw	r24, r22
     b50:	f8 01       	movw	r30, r16
     b52:	91 83       	std	Z+1, r25	; 0x01
     b54:	80 83       	st	Z, r24
     b56:	24 c0       	rjmp	.+72     	; 0xba0 <lcd_set_4bit+0xa46>
     b58:	ce 01       	movw	r24, r28
     b5a:	83 59       	subi	r24, 0x93	; 147
     b5c:	9f 4f       	sbci	r25, 0xFF	; 255
     b5e:	20 e7       	ldi	r18, 0x70	; 112
     b60:	31 e0       	ldi	r19, 0x01	; 1
     b62:	fc 01       	movw	r30, r24
     b64:	31 83       	std	Z+1, r19	; 0x01
     b66:	20 83       	st	Z, r18
     b68:	ce 01       	movw	r24, r28
     b6a:	83 59       	subi	r24, 0x93	; 147
     b6c:	9f 4f       	sbci	r25, 0xFF	; 255
     b6e:	fc 01       	movw	r30, r24
     b70:	80 81       	ld	r24, Z
     b72:	91 81       	ldd	r25, Z+1	; 0x01
     b74:	01 97       	sbiw	r24, 0x01	; 1
     b76:	f1 f7       	brne	.-4      	; 0xb74 <lcd_set_4bit+0xa1a>
     b78:	9e 01       	movw	r18, r28
     b7a:	23 59       	subi	r18, 0x93	; 147
     b7c:	3f 4f       	sbci	r19, 0xFF	; 255
     b7e:	f9 01       	movw	r30, r18
     b80:	91 83       	std	Z+1, r25	; 0x01
     b82:	80 83       	st	Z, r24
     b84:	ce 01       	movw	r24, r28
     b86:	85 59       	subi	r24, 0x95	; 149
     b88:	9f 4f       	sbci	r25, 0xFF	; 255
     b8a:	9e 01       	movw	r18, r28
     b8c:	25 59       	subi	r18, 0x95	; 149
     b8e:	3f 4f       	sbci	r19, 0xFF	; 255
     b90:	f9 01       	movw	r30, r18
     b92:	20 81       	ld	r18, Z
     b94:	31 81       	ldd	r19, Z+1	; 0x01
     b96:	21 50       	subi	r18, 0x01	; 1
     b98:	31 09       	sbc	r19, r1
     b9a:	fc 01       	movw	r30, r24
     b9c:	31 83       	std	Z+1, r19	; 0x01
     b9e:	20 83       	st	Z, r18
     ba0:	ce 01       	movw	r24, r28
     ba2:	85 59       	subi	r24, 0x95	; 149
     ba4:	9f 4f       	sbci	r25, 0xFF	; 255
     ba6:	fc 01       	movw	r30, r24
     ba8:	80 81       	ld	r24, Z
     baa:	91 81       	ldd	r25, Z+1	; 0x01
     bac:	00 97       	sbiw	r24, 0x00	; 0
     bae:	a1 f6       	brne	.-88     	; 0xb58 <lcd_set_4bit+0x9fe>
     bb0:	2b c0       	rjmp	.+86     	; 0xc08 <lcd_set_4bit+0xaae>
     bb2:	8e 01       	movw	r16, r28
     bb4:	05 59       	subi	r16, 0x95	; 149
     bb6:	1f 4f       	sbci	r17, 0xFF	; 255
     bb8:	ce 01       	movw	r24, r28
     bba:	89 59       	subi	r24, 0x99	; 153
     bbc:	9f 4f       	sbci	r25, 0xFF	; 255
     bbe:	fc 01       	movw	r30, r24
     bc0:	60 81       	ld	r22, Z
     bc2:	71 81       	ldd	r23, Z+1	; 0x01
     bc4:	82 81       	ldd	r24, Z+2	; 0x02
     bc6:	93 81       	ldd	r25, Z+3	; 0x03
     bc8:	7a d4       	rcall	.+2292   	; 0x14be <__fixunssfsi>
     bca:	dc 01       	movw	r26, r24
     bcc:	cb 01       	movw	r24, r22
     bce:	f8 01       	movw	r30, r16
     bd0:	91 83       	std	Z+1, r25	; 0x01
     bd2:	80 83       	st	Z, r24
     bd4:	ce 01       	movw	r24, r28
     bd6:	81 59       	subi	r24, 0x91	; 145
     bd8:	9f 4f       	sbci	r25, 0xFF	; 255
     bda:	9e 01       	movw	r18, r28
     bdc:	25 59       	subi	r18, 0x95	; 149
     bde:	3f 4f       	sbci	r19, 0xFF	; 255
     be0:	f9 01       	movw	r30, r18
     be2:	20 81       	ld	r18, Z
     be4:	31 81       	ldd	r19, Z+1	; 0x01
     be6:	fc 01       	movw	r30, r24
     be8:	31 83       	std	Z+1, r19	; 0x01
     bea:	20 83       	st	Z, r18
     bec:	ce 01       	movw	r24, r28
     bee:	81 59       	subi	r24, 0x91	; 145
     bf0:	9f 4f       	sbci	r25, 0xFF	; 255
     bf2:	fc 01       	movw	r30, r24
     bf4:	80 81       	ld	r24, Z
     bf6:	91 81       	ldd	r25, Z+1	; 0x01
     bf8:	01 97       	sbiw	r24, 0x01	; 1
     bfa:	f1 f7       	brne	.-4      	; 0xbf8 <lcd_set_4bit+0xa9e>
     bfc:	9e 01       	movw	r18, r28
     bfe:	21 59       	subi	r18, 0x91	; 145
     c00:	3f 4f       	sbci	r19, 0xFF	; 255
     c02:	f9 01       	movw	r30, r18
     c04:	91 83       	std	Z+1, r25	; 0x01
     c06:	80 83       	st	Z, r24
     c08:	88 e2       	ldi	r24, 0x28	; 40
     c0a:	90 e0       	ldi	r25, 0x00	; 0
     c0c:	28 e2       	ldi	r18, 0x28	; 40
     c0e:	30 e0       	ldi	r19, 0x00	; 0
     c10:	f9 01       	movw	r30, r18
     c12:	20 81       	ld	r18, Z
     c14:	2b 7f       	andi	r18, 0xFB	; 251
     c16:	fc 01       	movw	r30, r24
     c18:	20 83       	st	Z, r18
     c1a:	c0 59       	subi	r28, 0x90	; 144
     c1c:	df 4f       	sbci	r29, 0xFF	; 255
     c1e:	0f b6       	in	r0, 0x3f	; 63
     c20:	f8 94       	cli
     c22:	de bf       	out	0x3e, r29	; 62
     c24:	0f be       	out	0x3f, r0	; 63
     c26:	cd bf       	out	0x3d, r28	; 61
     c28:	df 91       	pop	r29
     c2a:	cf 91       	pop	r28
     c2c:	1f 91       	pop	r17
     c2e:	0f 91       	pop	r16
     c30:	08 95       	ret

00000c32 <lcd_init>:
     c32:	cf 93       	push	r28
     c34:	df 93       	push	r29
     c36:	cd b7       	in	r28, 0x3d	; 61
     c38:	de b7       	in	r29, 0x3e	; 62
     c3a:	2e 97       	sbiw	r28, 0x0e	; 14
     c3c:	0f b6       	in	r0, 0x3f	; 63
     c3e:	f8 94       	cli
     c40:	de bf       	out	0x3e, r29	; 62
     c42:	0f be       	out	0x3f, r0	; 63
     c44:	cd bf       	out	0x3d, r28	; 61
     c46:	89 da       	rcall	.-2798   	; 0x15a <lcd_set_4bit>
     c48:	80 e0       	ldi	r24, 0x00	; 0
     c4a:	90 e0       	ldi	r25, 0x00	; 0
     c4c:	a0 e8       	ldi	r26, 0x80	; 128
     c4e:	bf e3       	ldi	r27, 0x3F	; 63
     c50:	89 83       	std	Y+1, r24	; 0x01
     c52:	9a 83       	std	Y+2, r25	; 0x02
     c54:	ab 83       	std	Y+3, r26	; 0x03
     c56:	bc 83       	std	Y+4, r27	; 0x04
     c58:	26 e6       	ldi	r18, 0x66	; 102
     c5a:	36 e6       	ldi	r19, 0x66	; 102
     c5c:	46 e6       	ldi	r20, 0x66	; 102
     c5e:	55 e4       	ldi	r21, 0x45	; 69
     c60:	69 81       	ldd	r22, Y+1	; 0x01
     c62:	7a 81       	ldd	r23, Y+2	; 0x02
     c64:	8b 81       	ldd	r24, Y+3	; 0x03
     c66:	9c 81       	ldd	r25, Y+4	; 0x04
     c68:	cf d4       	rcall	.+2462   	; 0x1608 <__mulsf3>
     c6a:	dc 01       	movw	r26, r24
     c6c:	cb 01       	movw	r24, r22
     c6e:	8d 83       	std	Y+5, r24	; 0x05
     c70:	9e 83       	std	Y+6, r25	; 0x06
     c72:	af 83       	std	Y+7, r26	; 0x07
     c74:	b8 87       	std	Y+8, r27	; 0x08
     c76:	20 e0       	ldi	r18, 0x00	; 0
     c78:	30 e0       	ldi	r19, 0x00	; 0
     c7a:	40 e8       	ldi	r20, 0x80	; 128
     c7c:	5f e3       	ldi	r21, 0x3F	; 63
     c7e:	6d 81       	ldd	r22, Y+5	; 0x05
     c80:	7e 81       	ldd	r23, Y+6	; 0x06
     c82:	8f 81       	ldd	r24, Y+7	; 0x07
     c84:	98 85       	ldd	r25, Y+8	; 0x08
     c86:	17 d4       	rcall	.+2094   	; 0x14b6 <__cmpsf2>
     c88:	88 23       	and	r24, r24
     c8a:	2c f4       	brge	.+10     	; 0xc96 <lcd_init+0x64>
     c8c:	81 e0       	ldi	r24, 0x01	; 1
     c8e:	90 e0       	ldi	r25, 0x00	; 0
     c90:	9a 87       	std	Y+10, r25	; 0x0a
     c92:	89 87       	std	Y+9, r24	; 0x09
     c94:	3b c0       	rjmp	.+118    	; 0xd0c <lcd_init+0xda>
     c96:	20 e0       	ldi	r18, 0x00	; 0
     c98:	3f ef       	ldi	r19, 0xFF	; 255
     c9a:	4f e7       	ldi	r20, 0x7F	; 127
     c9c:	57 e4       	ldi	r21, 0x47	; 71
     c9e:	6d 81       	ldd	r22, Y+5	; 0x05
     ca0:	7e 81       	ldd	r23, Y+6	; 0x06
     ca2:	8f 81       	ldd	r24, Y+7	; 0x07
     ca4:	98 85       	ldd	r25, Y+8	; 0x08
     ca6:	ac d4       	rcall	.+2392   	; 0x1600 <__gesf2>
     ca8:	18 16       	cp	r1, r24
     caa:	3c f5       	brge	.+78     	; 0xcfa <lcd_init+0xc8>
     cac:	20 e0       	ldi	r18, 0x00	; 0
     cae:	30 e0       	ldi	r19, 0x00	; 0
     cb0:	40 e2       	ldi	r20, 0x20	; 32
     cb2:	51 e4       	ldi	r21, 0x41	; 65
     cb4:	69 81       	ldd	r22, Y+1	; 0x01
     cb6:	7a 81       	ldd	r23, Y+2	; 0x02
     cb8:	8b 81       	ldd	r24, Y+3	; 0x03
     cba:	9c 81       	ldd	r25, Y+4	; 0x04
     cbc:	a5 d4       	rcall	.+2378   	; 0x1608 <__mulsf3>
     cbe:	dc 01       	movw	r26, r24
     cc0:	cb 01       	movw	r24, r22
     cc2:	bc 01       	movw	r22, r24
     cc4:	cd 01       	movw	r24, r26
     cc6:	fb d3       	rcall	.+2038   	; 0x14be <__fixunssfsi>
     cc8:	dc 01       	movw	r26, r24
     cca:	cb 01       	movw	r24, r22
     ccc:	9a 87       	std	Y+10, r25	; 0x0a
     cce:	89 87       	std	Y+9, r24	; 0x09
     cd0:	0f c0       	rjmp	.+30     	; 0xcf0 <lcd_init+0xbe>
     cd2:	80 e7       	ldi	r24, 0x70	; 112
     cd4:	91 e0       	ldi	r25, 0x01	; 1
     cd6:	9c 87       	std	Y+12, r25	; 0x0c
     cd8:	8b 87       	std	Y+11, r24	; 0x0b
     cda:	8b 85       	ldd	r24, Y+11	; 0x0b
     cdc:	9c 85       	ldd	r25, Y+12	; 0x0c
     cde:	01 97       	sbiw	r24, 0x01	; 1
     ce0:	f1 f7       	brne	.-4      	; 0xcde <lcd_init+0xac>
     ce2:	9c 87       	std	Y+12, r25	; 0x0c
     ce4:	8b 87       	std	Y+11, r24	; 0x0b
     ce6:	89 85       	ldd	r24, Y+9	; 0x09
     ce8:	9a 85       	ldd	r25, Y+10	; 0x0a
     cea:	01 97       	sbiw	r24, 0x01	; 1
     cec:	9a 87       	std	Y+10, r25	; 0x0a
     cee:	89 87       	std	Y+9, r24	; 0x09
     cf0:	89 85       	ldd	r24, Y+9	; 0x09
     cf2:	9a 85       	ldd	r25, Y+10	; 0x0a
     cf4:	00 97       	sbiw	r24, 0x00	; 0
     cf6:	69 f7       	brne	.-38     	; 0xcd2 <lcd_init+0xa0>
     cf8:	13 c0       	rjmp	.+38     	; 0xd20 <lcd_init+0xee>
     cfa:	6d 81       	ldd	r22, Y+5	; 0x05
     cfc:	7e 81       	ldd	r23, Y+6	; 0x06
     cfe:	8f 81       	ldd	r24, Y+7	; 0x07
     d00:	98 85       	ldd	r25, Y+8	; 0x08
     d02:	dd d3       	rcall	.+1978   	; 0x14be <__fixunssfsi>
     d04:	dc 01       	movw	r26, r24
     d06:	cb 01       	movw	r24, r22
     d08:	9a 87       	std	Y+10, r25	; 0x0a
     d0a:	89 87       	std	Y+9, r24	; 0x09
     d0c:	89 85       	ldd	r24, Y+9	; 0x09
     d0e:	9a 85       	ldd	r25, Y+10	; 0x0a
     d10:	9e 87       	std	Y+14, r25	; 0x0e
     d12:	8d 87       	std	Y+13, r24	; 0x0d
     d14:	8d 85       	ldd	r24, Y+13	; 0x0d
     d16:	9e 85       	ldd	r25, Y+14	; 0x0e
     d18:	01 97       	sbiw	r24, 0x01	; 1
     d1a:	f1 f7       	brne	.-4      	; 0xd18 <lcd_init+0xe6>
     d1c:	9e 87       	std	Y+14, r25	; 0x0e
     d1e:	8d 87       	std	Y+13, r24	; 0x0d
     d20:	88 e2       	ldi	r24, 0x28	; 40
     d22:	11 d0       	rcall	.+34     	; 0xd46 <lcd_wr_command>
     d24:	81 e0       	ldi	r24, 0x01	; 1
     d26:	0f d0       	rcall	.+30     	; 0xd46 <lcd_wr_command>
     d28:	86 e0       	ldi	r24, 0x06	; 6
     d2a:	0d d0       	rcall	.+26     	; 0xd46 <lcd_wr_command>
     d2c:	8e e0       	ldi	r24, 0x0E	; 14
     d2e:	0b d0       	rcall	.+22     	; 0xd46 <lcd_wr_command>
     d30:	80 e8       	ldi	r24, 0x80	; 128
     d32:	09 d0       	rcall	.+18     	; 0xd46 <lcd_wr_command>
     d34:	2e 96       	adiw	r28, 0x0e	; 14
     d36:	0f b6       	in	r0, 0x3f	; 63
     d38:	f8 94       	cli
     d3a:	de bf       	out	0x3e, r29	; 62
     d3c:	0f be       	out	0x3f, r0	; 63
     d3e:	cd bf       	out	0x3d, r28	; 61
     d40:	df 91       	pop	r29
     d42:	cf 91       	pop	r28
     d44:	08 95       	ret

00000d46 <lcd_wr_command>:
     d46:	cf 93       	push	r28
     d48:	df 93       	push	r29
     d4a:	cd b7       	in	r28, 0x3d	; 61
     d4c:	de b7       	in	r29, 0x3e	; 62
     d4e:	6e 97       	sbiw	r28, 0x1e	; 30
     d50:	0f b6       	in	r0, 0x3f	; 63
     d52:	f8 94       	cli
     d54:	de bf       	out	0x3e, r29	; 62
     d56:	0f be       	out	0x3f, r0	; 63
     d58:	cd bf       	out	0x3d, r28	; 61
     d5a:	8e 8f       	std	Y+30, r24	; 0x1e
     d5c:	8e 8d       	ldd	r24, Y+30	; 0x1e
     d5e:	89 83       	std	Y+1, r24	; 0x01
     d60:	89 81       	ldd	r24, Y+1	; 0x01
     d62:	80 7f       	andi	r24, 0xF0	; 240
     d64:	89 83       	std	Y+1, r24	; 0x01
     d66:	88 e2       	ldi	r24, 0x28	; 40
     d68:	90 e0       	ldi	r25, 0x00	; 0
     d6a:	28 e2       	ldi	r18, 0x28	; 40
     d6c:	30 e0       	ldi	r19, 0x00	; 0
     d6e:	f9 01       	movw	r30, r18
     d70:	20 81       	ld	r18, Z
     d72:	2f 70       	andi	r18, 0x0F	; 15
     d74:	fc 01       	movw	r30, r24
     d76:	20 83       	st	Z, r18
     d78:	88 e2       	ldi	r24, 0x28	; 40
     d7a:	90 e0       	ldi	r25, 0x00	; 0
     d7c:	28 e2       	ldi	r18, 0x28	; 40
     d7e:	30 e0       	ldi	r19, 0x00	; 0
     d80:	f9 01       	movw	r30, r18
     d82:	30 81       	ld	r19, Z
     d84:	29 81       	ldd	r18, Y+1	; 0x01
     d86:	23 2b       	or	r18, r19
     d88:	fc 01       	movw	r30, r24
     d8a:	20 83       	st	Z, r18
     d8c:	88 e2       	ldi	r24, 0x28	; 40
     d8e:	90 e0       	ldi	r25, 0x00	; 0
     d90:	28 e2       	ldi	r18, 0x28	; 40
     d92:	30 e0       	ldi	r19, 0x00	; 0
     d94:	f9 01       	movw	r30, r18
     d96:	20 81       	ld	r18, Z
     d98:	2e 7f       	andi	r18, 0xFE	; 254
     d9a:	fc 01       	movw	r30, r24
     d9c:	20 83       	st	Z, r18
     d9e:	88 e2       	ldi	r24, 0x28	; 40
     da0:	90 e0       	ldi	r25, 0x00	; 0
     da2:	28 e2       	ldi	r18, 0x28	; 40
     da4:	30 e0       	ldi	r19, 0x00	; 0
     da6:	f9 01       	movw	r30, r18
     da8:	20 81       	ld	r18, Z
     daa:	2d 7f       	andi	r18, 0xFD	; 253
     dac:	fc 01       	movw	r30, r24
     dae:	20 83       	st	Z, r18
     db0:	88 e2       	ldi	r24, 0x28	; 40
     db2:	90 e0       	ldi	r25, 0x00	; 0
     db4:	28 e2       	ldi	r18, 0x28	; 40
     db6:	30 e0       	ldi	r19, 0x00	; 0
     db8:	f9 01       	movw	r30, r18
     dba:	20 81       	ld	r18, Z
     dbc:	24 60       	ori	r18, 0x04	; 4
     dbe:	fc 01       	movw	r30, r24
     dc0:	20 83       	st	Z, r18
     dc2:	80 e0       	ldi	r24, 0x00	; 0
     dc4:	90 e0       	ldi	r25, 0x00	; 0
     dc6:	a0 ea       	ldi	r26, 0xA0	; 160
     dc8:	b0 e4       	ldi	r27, 0x40	; 64
     dca:	8a 83       	std	Y+2, r24	; 0x02
     dcc:	9b 83       	std	Y+3, r25	; 0x03
     dce:	ac 83       	std	Y+4, r26	; 0x04
     dd0:	bd 83       	std	Y+5, r27	; 0x05
     dd2:	26 e6       	ldi	r18, 0x66	; 102
     dd4:	36 e6       	ldi	r19, 0x66	; 102
     dd6:	46 e6       	ldi	r20, 0x66	; 102
     dd8:	55 e4       	ldi	r21, 0x45	; 69
     dda:	6a 81       	ldd	r22, Y+2	; 0x02
     ddc:	7b 81       	ldd	r23, Y+3	; 0x03
     dde:	8c 81       	ldd	r24, Y+4	; 0x04
     de0:	9d 81       	ldd	r25, Y+5	; 0x05
     de2:	12 d4       	rcall	.+2084   	; 0x1608 <__mulsf3>
     de4:	dc 01       	movw	r26, r24
     de6:	cb 01       	movw	r24, r22
     de8:	8e 83       	std	Y+6, r24	; 0x06
     dea:	9f 83       	std	Y+7, r25	; 0x07
     dec:	a8 87       	std	Y+8, r26	; 0x08
     dee:	b9 87       	std	Y+9, r27	; 0x09
     df0:	20 e0       	ldi	r18, 0x00	; 0
     df2:	30 e0       	ldi	r19, 0x00	; 0
     df4:	40 e8       	ldi	r20, 0x80	; 128
     df6:	5f e3       	ldi	r21, 0x3F	; 63
     df8:	6e 81       	ldd	r22, Y+6	; 0x06
     dfa:	7f 81       	ldd	r23, Y+7	; 0x07
     dfc:	88 85       	ldd	r24, Y+8	; 0x08
     dfe:	99 85       	ldd	r25, Y+9	; 0x09
     e00:	5a d3       	rcall	.+1716   	; 0x14b6 <__cmpsf2>
     e02:	88 23       	and	r24, r24
     e04:	2c f4       	brge	.+10     	; 0xe10 <lcd_wr_command+0xca>
     e06:	81 e0       	ldi	r24, 0x01	; 1
     e08:	90 e0       	ldi	r25, 0x00	; 0
     e0a:	9b 87       	std	Y+11, r25	; 0x0b
     e0c:	8a 87       	std	Y+10, r24	; 0x0a
     e0e:	3b c0       	rjmp	.+118    	; 0xe86 <lcd_wr_command+0x140>
     e10:	20 e0       	ldi	r18, 0x00	; 0
     e12:	3f ef       	ldi	r19, 0xFF	; 255
     e14:	4f e7       	ldi	r20, 0x7F	; 127
     e16:	57 e4       	ldi	r21, 0x47	; 71
     e18:	6e 81       	ldd	r22, Y+6	; 0x06
     e1a:	7f 81       	ldd	r23, Y+7	; 0x07
     e1c:	88 85       	ldd	r24, Y+8	; 0x08
     e1e:	99 85       	ldd	r25, Y+9	; 0x09
     e20:	ef d3       	rcall	.+2014   	; 0x1600 <__gesf2>
     e22:	18 16       	cp	r1, r24
     e24:	3c f5       	brge	.+78     	; 0xe74 <lcd_wr_command+0x12e>
     e26:	20 e0       	ldi	r18, 0x00	; 0
     e28:	30 e0       	ldi	r19, 0x00	; 0
     e2a:	40 e2       	ldi	r20, 0x20	; 32
     e2c:	51 e4       	ldi	r21, 0x41	; 65
     e2e:	6a 81       	ldd	r22, Y+2	; 0x02
     e30:	7b 81       	ldd	r23, Y+3	; 0x03
     e32:	8c 81       	ldd	r24, Y+4	; 0x04
     e34:	9d 81       	ldd	r25, Y+5	; 0x05
     e36:	e8 d3       	rcall	.+2000   	; 0x1608 <__mulsf3>
     e38:	dc 01       	movw	r26, r24
     e3a:	cb 01       	movw	r24, r22
     e3c:	bc 01       	movw	r22, r24
     e3e:	cd 01       	movw	r24, r26
     e40:	3e d3       	rcall	.+1660   	; 0x14be <__fixunssfsi>
     e42:	dc 01       	movw	r26, r24
     e44:	cb 01       	movw	r24, r22
     e46:	9b 87       	std	Y+11, r25	; 0x0b
     e48:	8a 87       	std	Y+10, r24	; 0x0a
     e4a:	0f c0       	rjmp	.+30     	; 0xe6a <lcd_wr_command+0x124>
     e4c:	80 e7       	ldi	r24, 0x70	; 112
     e4e:	91 e0       	ldi	r25, 0x01	; 1
     e50:	9d 87       	std	Y+13, r25	; 0x0d
     e52:	8c 87       	std	Y+12, r24	; 0x0c
     e54:	8c 85       	ldd	r24, Y+12	; 0x0c
     e56:	9d 85       	ldd	r25, Y+13	; 0x0d
     e58:	01 97       	sbiw	r24, 0x01	; 1
     e5a:	f1 f7       	brne	.-4      	; 0xe58 <lcd_wr_command+0x112>
     e5c:	9d 87       	std	Y+13, r25	; 0x0d
     e5e:	8c 87       	std	Y+12, r24	; 0x0c
     e60:	8a 85       	ldd	r24, Y+10	; 0x0a
     e62:	9b 85       	ldd	r25, Y+11	; 0x0b
     e64:	01 97       	sbiw	r24, 0x01	; 1
     e66:	9b 87       	std	Y+11, r25	; 0x0b
     e68:	8a 87       	std	Y+10, r24	; 0x0a
     e6a:	8a 85       	ldd	r24, Y+10	; 0x0a
     e6c:	9b 85       	ldd	r25, Y+11	; 0x0b
     e6e:	00 97       	sbiw	r24, 0x00	; 0
     e70:	69 f7       	brne	.-38     	; 0xe4c <lcd_wr_command+0x106>
     e72:	13 c0       	rjmp	.+38     	; 0xe9a <lcd_wr_command+0x154>
     e74:	6e 81       	ldd	r22, Y+6	; 0x06
     e76:	7f 81       	ldd	r23, Y+7	; 0x07
     e78:	88 85       	ldd	r24, Y+8	; 0x08
     e7a:	99 85       	ldd	r25, Y+9	; 0x09
     e7c:	20 d3       	rcall	.+1600   	; 0x14be <__fixunssfsi>
     e7e:	dc 01       	movw	r26, r24
     e80:	cb 01       	movw	r24, r22
     e82:	9b 87       	std	Y+11, r25	; 0x0b
     e84:	8a 87       	std	Y+10, r24	; 0x0a
     e86:	8a 85       	ldd	r24, Y+10	; 0x0a
     e88:	9b 85       	ldd	r25, Y+11	; 0x0b
     e8a:	9f 87       	std	Y+15, r25	; 0x0f
     e8c:	8e 87       	std	Y+14, r24	; 0x0e
     e8e:	8e 85       	ldd	r24, Y+14	; 0x0e
     e90:	9f 85       	ldd	r25, Y+15	; 0x0f
     e92:	01 97       	sbiw	r24, 0x01	; 1
     e94:	f1 f7       	brne	.-4      	; 0xe92 <lcd_wr_command+0x14c>
     e96:	9f 87       	std	Y+15, r25	; 0x0f
     e98:	8e 87       	std	Y+14, r24	; 0x0e
     e9a:	88 e2       	ldi	r24, 0x28	; 40
     e9c:	90 e0       	ldi	r25, 0x00	; 0
     e9e:	28 e2       	ldi	r18, 0x28	; 40
     ea0:	30 e0       	ldi	r19, 0x00	; 0
     ea2:	f9 01       	movw	r30, r18
     ea4:	20 81       	ld	r18, Z
     ea6:	2b 7f       	andi	r18, 0xFB	; 251
     ea8:	fc 01       	movw	r30, r24
     eaa:	20 83       	st	Z, r18
     eac:	8e 8d       	ldd	r24, Y+30	; 0x1e
     eae:	8f 70       	andi	r24, 0x0F	; 15
     eb0:	8e 8f       	std	Y+30, r24	; 0x1e
     eb2:	8e 8d       	ldd	r24, Y+30	; 0x1e
     eb4:	82 95       	swap	r24
     eb6:	80 7f       	andi	r24, 0xF0	; 240
     eb8:	8e 8f       	std	Y+30, r24	; 0x1e
     eba:	88 e2       	ldi	r24, 0x28	; 40
     ebc:	90 e0       	ldi	r25, 0x00	; 0
     ebe:	28 e2       	ldi	r18, 0x28	; 40
     ec0:	30 e0       	ldi	r19, 0x00	; 0
     ec2:	f9 01       	movw	r30, r18
     ec4:	20 81       	ld	r18, Z
     ec6:	2f 70       	andi	r18, 0x0F	; 15
     ec8:	fc 01       	movw	r30, r24
     eca:	20 83       	st	Z, r18
     ecc:	88 e2       	ldi	r24, 0x28	; 40
     ece:	90 e0       	ldi	r25, 0x00	; 0
     ed0:	28 e2       	ldi	r18, 0x28	; 40
     ed2:	30 e0       	ldi	r19, 0x00	; 0
     ed4:	f9 01       	movw	r30, r18
     ed6:	30 81       	ld	r19, Z
     ed8:	2e 8d       	ldd	r18, Y+30	; 0x1e
     eda:	23 2b       	or	r18, r19
     edc:	fc 01       	movw	r30, r24
     ede:	20 83       	st	Z, r18
     ee0:	88 e2       	ldi	r24, 0x28	; 40
     ee2:	90 e0       	ldi	r25, 0x00	; 0
     ee4:	28 e2       	ldi	r18, 0x28	; 40
     ee6:	30 e0       	ldi	r19, 0x00	; 0
     ee8:	f9 01       	movw	r30, r18
     eea:	20 81       	ld	r18, Z
     eec:	2e 7f       	andi	r18, 0xFE	; 254
     eee:	fc 01       	movw	r30, r24
     ef0:	20 83       	st	Z, r18
     ef2:	88 e2       	ldi	r24, 0x28	; 40
     ef4:	90 e0       	ldi	r25, 0x00	; 0
     ef6:	28 e2       	ldi	r18, 0x28	; 40
     ef8:	30 e0       	ldi	r19, 0x00	; 0
     efa:	f9 01       	movw	r30, r18
     efc:	20 81       	ld	r18, Z
     efe:	2d 7f       	andi	r18, 0xFD	; 253
     f00:	fc 01       	movw	r30, r24
     f02:	20 83       	st	Z, r18
     f04:	88 e2       	ldi	r24, 0x28	; 40
     f06:	90 e0       	ldi	r25, 0x00	; 0
     f08:	28 e2       	ldi	r18, 0x28	; 40
     f0a:	30 e0       	ldi	r19, 0x00	; 0
     f0c:	f9 01       	movw	r30, r18
     f0e:	20 81       	ld	r18, Z
     f10:	24 60       	ori	r18, 0x04	; 4
     f12:	fc 01       	movw	r30, r24
     f14:	20 83       	st	Z, r18
     f16:	80 e0       	ldi	r24, 0x00	; 0
     f18:	90 e0       	ldi	r25, 0x00	; 0
     f1a:	a0 ea       	ldi	r26, 0xA0	; 160
     f1c:	b0 e4       	ldi	r27, 0x40	; 64
     f1e:	88 8b       	std	Y+16, r24	; 0x10
     f20:	99 8b       	std	Y+17, r25	; 0x11
     f22:	aa 8b       	std	Y+18, r26	; 0x12
     f24:	bb 8b       	std	Y+19, r27	; 0x13
     f26:	26 e6       	ldi	r18, 0x66	; 102
     f28:	36 e6       	ldi	r19, 0x66	; 102
     f2a:	46 e6       	ldi	r20, 0x66	; 102
     f2c:	55 e4       	ldi	r21, 0x45	; 69
     f2e:	68 89       	ldd	r22, Y+16	; 0x10
     f30:	79 89       	ldd	r23, Y+17	; 0x11
     f32:	8a 89       	ldd	r24, Y+18	; 0x12
     f34:	9b 89       	ldd	r25, Y+19	; 0x13
     f36:	68 d3       	rcall	.+1744   	; 0x1608 <__mulsf3>
     f38:	dc 01       	movw	r26, r24
     f3a:	cb 01       	movw	r24, r22
     f3c:	8c 8b       	std	Y+20, r24	; 0x14
     f3e:	9d 8b       	std	Y+21, r25	; 0x15
     f40:	ae 8b       	std	Y+22, r26	; 0x16
     f42:	bf 8b       	std	Y+23, r27	; 0x17
     f44:	20 e0       	ldi	r18, 0x00	; 0
     f46:	30 e0       	ldi	r19, 0x00	; 0
     f48:	40 e8       	ldi	r20, 0x80	; 128
     f4a:	5f e3       	ldi	r21, 0x3F	; 63
     f4c:	6c 89       	ldd	r22, Y+20	; 0x14
     f4e:	7d 89       	ldd	r23, Y+21	; 0x15
     f50:	8e 89       	ldd	r24, Y+22	; 0x16
     f52:	9f 89       	ldd	r25, Y+23	; 0x17
     f54:	b0 d2       	rcall	.+1376   	; 0x14b6 <__cmpsf2>
     f56:	88 23       	and	r24, r24
     f58:	2c f4       	brge	.+10     	; 0xf64 <lcd_wr_command+0x21e>
     f5a:	81 e0       	ldi	r24, 0x01	; 1
     f5c:	90 e0       	ldi	r25, 0x00	; 0
     f5e:	99 8f       	std	Y+25, r25	; 0x19
     f60:	88 8f       	std	Y+24, r24	; 0x18
     f62:	3b c0       	rjmp	.+118    	; 0xfda <lcd_wr_command+0x294>
     f64:	20 e0       	ldi	r18, 0x00	; 0
     f66:	3f ef       	ldi	r19, 0xFF	; 255
     f68:	4f e7       	ldi	r20, 0x7F	; 127
     f6a:	57 e4       	ldi	r21, 0x47	; 71
     f6c:	6c 89       	ldd	r22, Y+20	; 0x14
     f6e:	7d 89       	ldd	r23, Y+21	; 0x15
     f70:	8e 89       	ldd	r24, Y+22	; 0x16
     f72:	9f 89       	ldd	r25, Y+23	; 0x17
     f74:	45 d3       	rcall	.+1674   	; 0x1600 <__gesf2>
     f76:	18 16       	cp	r1, r24
     f78:	3c f5       	brge	.+78     	; 0xfc8 <lcd_wr_command+0x282>
     f7a:	20 e0       	ldi	r18, 0x00	; 0
     f7c:	30 e0       	ldi	r19, 0x00	; 0
     f7e:	40 e2       	ldi	r20, 0x20	; 32
     f80:	51 e4       	ldi	r21, 0x41	; 65
     f82:	68 89       	ldd	r22, Y+16	; 0x10
     f84:	79 89       	ldd	r23, Y+17	; 0x11
     f86:	8a 89       	ldd	r24, Y+18	; 0x12
     f88:	9b 89       	ldd	r25, Y+19	; 0x13
     f8a:	3e d3       	rcall	.+1660   	; 0x1608 <__mulsf3>
     f8c:	dc 01       	movw	r26, r24
     f8e:	cb 01       	movw	r24, r22
     f90:	bc 01       	movw	r22, r24
     f92:	cd 01       	movw	r24, r26
     f94:	94 d2       	rcall	.+1320   	; 0x14be <__fixunssfsi>
     f96:	dc 01       	movw	r26, r24
     f98:	cb 01       	movw	r24, r22
     f9a:	99 8f       	std	Y+25, r25	; 0x19
     f9c:	88 8f       	std	Y+24, r24	; 0x18
     f9e:	0f c0       	rjmp	.+30     	; 0xfbe <lcd_wr_command+0x278>
     fa0:	80 e7       	ldi	r24, 0x70	; 112
     fa2:	91 e0       	ldi	r25, 0x01	; 1
     fa4:	9b 8f       	std	Y+27, r25	; 0x1b
     fa6:	8a 8f       	std	Y+26, r24	; 0x1a
     fa8:	8a 8d       	ldd	r24, Y+26	; 0x1a
     faa:	9b 8d       	ldd	r25, Y+27	; 0x1b
     fac:	01 97       	sbiw	r24, 0x01	; 1
     fae:	f1 f7       	brne	.-4      	; 0xfac <lcd_wr_command+0x266>
     fb0:	9b 8f       	std	Y+27, r25	; 0x1b
     fb2:	8a 8f       	std	Y+26, r24	; 0x1a
     fb4:	88 8d       	ldd	r24, Y+24	; 0x18
     fb6:	99 8d       	ldd	r25, Y+25	; 0x19
     fb8:	01 97       	sbiw	r24, 0x01	; 1
     fba:	99 8f       	std	Y+25, r25	; 0x19
     fbc:	88 8f       	std	Y+24, r24	; 0x18
     fbe:	88 8d       	ldd	r24, Y+24	; 0x18
     fc0:	99 8d       	ldd	r25, Y+25	; 0x19
     fc2:	00 97       	sbiw	r24, 0x00	; 0
     fc4:	69 f7       	brne	.-38     	; 0xfa0 <lcd_wr_command+0x25a>
     fc6:	13 c0       	rjmp	.+38     	; 0xfee <lcd_wr_command+0x2a8>
     fc8:	6c 89       	ldd	r22, Y+20	; 0x14
     fca:	7d 89       	ldd	r23, Y+21	; 0x15
     fcc:	8e 89       	ldd	r24, Y+22	; 0x16
     fce:	9f 89       	ldd	r25, Y+23	; 0x17
     fd0:	76 d2       	rcall	.+1260   	; 0x14be <__fixunssfsi>
     fd2:	dc 01       	movw	r26, r24
     fd4:	cb 01       	movw	r24, r22
     fd6:	99 8f       	std	Y+25, r25	; 0x19
     fd8:	88 8f       	std	Y+24, r24	; 0x18
     fda:	88 8d       	ldd	r24, Y+24	; 0x18
     fdc:	99 8d       	ldd	r25, Y+25	; 0x19
     fde:	9d 8f       	std	Y+29, r25	; 0x1d
     fe0:	8c 8f       	std	Y+28, r24	; 0x1c
     fe2:	8c 8d       	ldd	r24, Y+28	; 0x1c
     fe4:	9d 8d       	ldd	r25, Y+29	; 0x1d
     fe6:	01 97       	sbiw	r24, 0x01	; 1
     fe8:	f1 f7       	brne	.-4      	; 0xfe6 <lcd_wr_command+0x2a0>
     fea:	9d 8f       	std	Y+29, r25	; 0x1d
     fec:	8c 8f       	std	Y+28, r24	; 0x1c
     fee:	88 e2       	ldi	r24, 0x28	; 40
     ff0:	90 e0       	ldi	r25, 0x00	; 0
     ff2:	28 e2       	ldi	r18, 0x28	; 40
     ff4:	30 e0       	ldi	r19, 0x00	; 0
     ff6:	f9 01       	movw	r30, r18
     ff8:	20 81       	ld	r18, Z
     ffa:	2b 7f       	andi	r18, 0xFB	; 251
     ffc:	fc 01       	movw	r30, r24
     ffe:	20 83       	st	Z, r18
    1000:	6e 96       	adiw	r28, 0x1e	; 30
    1002:	0f b6       	in	r0, 0x3f	; 63
    1004:	f8 94       	cli
    1006:	de bf       	out	0x3e, r29	; 62
    1008:	0f be       	out	0x3f, r0	; 63
    100a:	cd bf       	out	0x3d, r28	; 61
    100c:	df 91       	pop	r29
    100e:	cf 91       	pop	r28
    1010:	08 95       	ret

00001012 <timer1_init>:
    1012:	cf 93       	push	r28
    1014:	df 93       	push	r29
    1016:	cd b7       	in	r28, 0x3d	; 61
    1018:	de b7       	in	r29, 0x3e	; 62
    101a:	81 e8       	ldi	r24, 0x81	; 129
    101c:	90 e0       	ldi	r25, 0x00	; 0
    101e:	fc 01       	movw	r30, r24
    1020:	10 82       	st	Z, r1
    1022:	85 e8       	ldi	r24, 0x85	; 133
    1024:	90 e0       	ldi	r25, 0x00	; 0
    1026:	2c ef       	ldi	r18, 0xFC	; 252
    1028:	fc 01       	movw	r30, r24
    102a:	20 83       	st	Z, r18
    102c:	84 e8       	ldi	r24, 0x84	; 132
    102e:	90 e0       	ldi	r25, 0x00	; 0
    1030:	21 e0       	ldi	r18, 0x01	; 1
    1032:	fc 01       	movw	r30, r24
    1034:	20 83       	st	Z, r18
    1036:	89 e8       	ldi	r24, 0x89	; 137
    1038:	90 e0       	ldi	r25, 0x00	; 0
    103a:	23 e0       	ldi	r18, 0x03	; 3
    103c:	fc 01       	movw	r30, r24
    103e:	20 83       	st	Z, r18
    1040:	88 e8       	ldi	r24, 0x88	; 136
    1042:	90 e0       	ldi	r25, 0x00	; 0
    1044:	2f ef       	ldi	r18, 0xFF	; 255
    1046:	fc 01       	movw	r30, r24
    1048:	20 83       	st	Z, r18
    104a:	8b e8       	ldi	r24, 0x8B	; 139
    104c:	90 e0       	ldi	r25, 0x00	; 0
    104e:	23 e0       	ldi	r18, 0x03	; 3
    1050:	fc 01       	movw	r30, r24
    1052:	20 83       	st	Z, r18
    1054:	8a e8       	ldi	r24, 0x8A	; 138
    1056:	90 e0       	ldi	r25, 0x00	; 0
    1058:	2f ef       	ldi	r18, 0xFF	; 255
    105a:	fc 01       	movw	r30, r24
    105c:	20 83       	st	Z, r18
    105e:	8d e8       	ldi	r24, 0x8D	; 141
    1060:	90 e0       	ldi	r25, 0x00	; 0
    1062:	23 e0       	ldi	r18, 0x03	; 3
    1064:	fc 01       	movw	r30, r24
    1066:	20 83       	st	Z, r18
    1068:	8c e8       	ldi	r24, 0x8C	; 140
    106a:	90 e0       	ldi	r25, 0x00	; 0
    106c:	2f ef       	ldi	r18, 0xFF	; 255
    106e:	fc 01       	movw	r30, r24
    1070:	20 83       	st	Z, r18
    1072:	87 e8       	ldi	r24, 0x87	; 135
    1074:	90 e0       	ldi	r25, 0x00	; 0
    1076:	23 e0       	ldi	r18, 0x03	; 3
    1078:	fc 01       	movw	r30, r24
    107a:	20 83       	st	Z, r18
    107c:	86 e8       	ldi	r24, 0x86	; 134
    107e:	90 e0       	ldi	r25, 0x00	; 0
    1080:	2f ef       	ldi	r18, 0xFF	; 255
    1082:	fc 01       	movw	r30, r24
    1084:	20 83       	st	Z, r18
    1086:	80 e8       	ldi	r24, 0x80	; 128
    1088:	90 e0       	ldi	r25, 0x00	; 0
    108a:	2b ea       	ldi	r18, 0xAB	; 171
    108c:	fc 01       	movw	r30, r24
    108e:	20 83       	st	Z, r18
    1090:	82 e8       	ldi	r24, 0x82	; 130
    1092:	90 e0       	ldi	r25, 0x00	; 0
    1094:	fc 01       	movw	r30, r24
    1096:	10 82       	st	Z, r1
    1098:	81 e8       	ldi	r24, 0x81	; 129
    109a:	90 e0       	ldi	r25, 0x00	; 0
    109c:	2c e0       	ldi	r18, 0x0C	; 12
    109e:	fc 01       	movw	r30, r24
    10a0:	20 83       	st	Z, r18
    10a2:	df 91       	pop	r29
    10a4:	cf 91       	pop	r28
    10a6:	08 95       	ret

000010a8 <timer5_init>:
    10a8:	cf 93       	push	r28
    10aa:	df 93       	push	r29
    10ac:	cd b7       	in	r28, 0x3d	; 61
    10ae:	de b7       	in	r29, 0x3e	; 62
    10b0:	81 e2       	ldi	r24, 0x21	; 33
    10b2:	91 e0       	ldi	r25, 0x01	; 1
    10b4:	fc 01       	movw	r30, r24
    10b6:	10 82       	st	Z, r1
    10b8:	85 e2       	ldi	r24, 0x25	; 37
    10ba:	91 e0       	ldi	r25, 0x01	; 1
    10bc:	2f ef       	ldi	r18, 0xFF	; 255
    10be:	fc 01       	movw	r30, r24
    10c0:	20 83       	st	Z, r18
    10c2:	84 e2       	ldi	r24, 0x24	; 36
    10c4:	91 e0       	ldi	r25, 0x01	; 1
    10c6:	21 e0       	ldi	r18, 0x01	; 1
    10c8:	fc 01       	movw	r30, r24
    10ca:	20 83       	st	Z, r18
    10cc:	89 e2       	ldi	r24, 0x29	; 41
    10ce:	91 e0       	ldi	r25, 0x01	; 1
    10d0:	fc 01       	movw	r30, r24
    10d2:	10 82       	st	Z, r1
    10d4:	88 e2       	ldi	r24, 0x28	; 40
    10d6:	91 e0       	ldi	r25, 0x01	; 1
    10d8:	2f ef       	ldi	r18, 0xFF	; 255
    10da:	fc 01       	movw	r30, r24
    10dc:	20 83       	st	Z, r18
    10de:	8b e2       	ldi	r24, 0x2B	; 43
    10e0:	91 e0       	ldi	r25, 0x01	; 1
    10e2:	fc 01       	movw	r30, r24
    10e4:	10 82       	st	Z, r1
    10e6:	8a e2       	ldi	r24, 0x2A	; 42
    10e8:	91 e0       	ldi	r25, 0x01	; 1
    10ea:	2f ef       	ldi	r18, 0xFF	; 255
    10ec:	fc 01       	movw	r30, r24
    10ee:	20 83       	st	Z, r18
    10f0:	8d e2       	ldi	r24, 0x2D	; 45
    10f2:	91 e0       	ldi	r25, 0x01	; 1
    10f4:	fc 01       	movw	r30, r24
    10f6:	10 82       	st	Z, r1
    10f8:	8c e2       	ldi	r24, 0x2C	; 44
    10fa:	91 e0       	ldi	r25, 0x01	; 1
    10fc:	2f ef       	ldi	r18, 0xFF	; 255
    10fe:	fc 01       	movw	r30, r24
    1100:	20 83       	st	Z, r18
    1102:	80 e2       	ldi	r24, 0x20	; 32
    1104:	91 e0       	ldi	r25, 0x01	; 1
    1106:	29 ea       	ldi	r18, 0xA9	; 169
    1108:	fc 01       	movw	r30, r24
    110a:	20 83       	st	Z, r18
    110c:	81 e2       	ldi	r24, 0x21	; 33
    110e:	91 e0       	ldi	r25, 0x01	; 1
    1110:	2b e0       	ldi	r18, 0x0B	; 11
    1112:	fc 01       	movw	r30, r24
    1114:	20 83       	st	Z, r18
    1116:	df 91       	pop	r29
    1118:	cf 91       	pop	r28
    111a:	08 95       	ret

0000111c <buzzer_pin_config>:
    111c:	cf 93       	push	r28
    111e:	df 93       	push	r29
    1120:	cd b7       	in	r28, 0x3d	; 61
    1122:	de b7       	in	r29, 0x3e	; 62
    1124:	83 e3       	ldi	r24, 0x33	; 51
    1126:	90 e0       	ldi	r25, 0x00	; 0
    1128:	23 e3       	ldi	r18, 0x33	; 51
    112a:	30 e0       	ldi	r19, 0x00	; 0
    112c:	f9 01       	movw	r30, r18
    112e:	20 81       	ld	r18, Z
    1130:	28 60       	ori	r18, 0x08	; 8
    1132:	fc 01       	movw	r30, r24
    1134:	20 83       	st	Z, r18
    1136:	84 e3       	ldi	r24, 0x34	; 52
    1138:	90 e0       	ldi	r25, 0x00	; 0
    113a:	24 e3       	ldi	r18, 0x34	; 52
    113c:	30 e0       	ldi	r19, 0x00	; 0
    113e:	f9 01       	movw	r30, r18
    1140:	20 81       	ld	r18, Z
    1142:	27 7f       	andi	r18, 0xF7	; 247
    1144:	fc 01       	movw	r30, r24
    1146:	20 83       	st	Z, r18
    1148:	df 91       	pop	r29
    114a:	cf 91       	pop	r28
    114c:	08 95       	ret

0000114e <motion_pin_config>:
    114e:	cf 93       	push	r28
    1150:	df 93       	push	r29
    1152:	cd b7       	in	r28, 0x3d	; 61
    1154:	de b7       	in	r29, 0x3e	; 62
    1156:	81 e2       	ldi	r24, 0x21	; 33
    1158:	90 e0       	ldi	r25, 0x00	; 0
    115a:	21 e2       	ldi	r18, 0x21	; 33
    115c:	30 e0       	ldi	r19, 0x00	; 0
    115e:	f9 01       	movw	r30, r18
    1160:	20 81       	ld	r18, Z
    1162:	2f 60       	ori	r18, 0x0F	; 15
    1164:	fc 01       	movw	r30, r24
    1166:	20 83       	st	Z, r18
    1168:	82 e2       	ldi	r24, 0x22	; 34
    116a:	90 e0       	ldi	r25, 0x00	; 0
    116c:	22 e2       	ldi	r18, 0x22	; 34
    116e:	30 e0       	ldi	r19, 0x00	; 0
    1170:	f9 01       	movw	r30, r18
    1172:	20 81       	ld	r18, Z
    1174:	20 7f       	andi	r18, 0xF0	; 240
    1176:	fc 01       	movw	r30, r24
    1178:	20 83       	st	Z, r18
    117a:	8a e0       	ldi	r24, 0x0A	; 10
    117c:	91 e0       	ldi	r25, 0x01	; 1
    117e:	2a e0       	ldi	r18, 0x0A	; 10
    1180:	31 e0       	ldi	r19, 0x01	; 1
    1182:	f9 01       	movw	r30, r18
    1184:	20 81       	ld	r18, Z
    1186:	28 61       	ori	r18, 0x18	; 24
    1188:	fc 01       	movw	r30, r24
    118a:	20 83       	st	Z, r18
    118c:	8b e0       	ldi	r24, 0x0B	; 11
    118e:	91 e0       	ldi	r25, 0x01	; 1
    1190:	2b e0       	ldi	r18, 0x0B	; 11
    1192:	31 e0       	ldi	r19, 0x01	; 1
    1194:	f9 01       	movw	r30, r18
    1196:	20 81       	ld	r18, Z
    1198:	28 61       	ori	r18, 0x18	; 24
    119a:	fc 01       	movw	r30, r24
    119c:	20 83       	st	Z, r18
    119e:	df 91       	pop	r29
    11a0:	cf 91       	pop	r28
    11a2:	08 95       	ret

000011a4 <left_encoder_pin_config>:
    11a4:	cf 93       	push	r28
    11a6:	df 93       	push	r29
    11a8:	cd b7       	in	r28, 0x3d	; 61
    11aa:	de b7       	in	r29, 0x3e	; 62
    11ac:	8d e2       	ldi	r24, 0x2D	; 45
    11ae:	90 e0       	ldi	r25, 0x00	; 0
    11b0:	2d e2       	ldi	r18, 0x2D	; 45
    11b2:	30 e0       	ldi	r19, 0x00	; 0
    11b4:	f9 01       	movw	r30, r18
    11b6:	20 81       	ld	r18, Z
    11b8:	2f 7e       	andi	r18, 0xEF	; 239
    11ba:	fc 01       	movw	r30, r24
    11bc:	20 83       	st	Z, r18
    11be:	8e e2       	ldi	r24, 0x2E	; 46
    11c0:	90 e0       	ldi	r25, 0x00	; 0
    11c2:	2e e2       	ldi	r18, 0x2E	; 46
    11c4:	30 e0       	ldi	r19, 0x00	; 0
    11c6:	f9 01       	movw	r30, r18
    11c8:	20 81       	ld	r18, Z
    11ca:	20 61       	ori	r18, 0x10	; 16
    11cc:	fc 01       	movw	r30, r24
    11ce:	20 83       	st	Z, r18
    11d0:	df 91       	pop	r29
    11d2:	cf 91       	pop	r28
    11d4:	08 95       	ret

000011d6 <right_encoder_pin_config>:
    11d6:	cf 93       	push	r28
    11d8:	df 93       	push	r29
    11da:	cd b7       	in	r28, 0x3d	; 61
    11dc:	de b7       	in	r29, 0x3e	; 62
    11de:	8d e2       	ldi	r24, 0x2D	; 45
    11e0:	90 e0       	ldi	r25, 0x00	; 0
    11e2:	2d e2       	ldi	r18, 0x2D	; 45
    11e4:	30 e0       	ldi	r19, 0x00	; 0
    11e6:	f9 01       	movw	r30, r18
    11e8:	20 81       	ld	r18, Z
    11ea:	2f 7d       	andi	r18, 0xDF	; 223
    11ec:	fc 01       	movw	r30, r24
    11ee:	20 83       	st	Z, r18
    11f0:	8e e2       	ldi	r24, 0x2E	; 46
    11f2:	90 e0       	ldi	r25, 0x00	; 0
    11f4:	2e e2       	ldi	r18, 0x2E	; 46
    11f6:	30 e0       	ldi	r19, 0x00	; 0
    11f8:	f9 01       	movw	r30, r18
    11fa:	20 81       	ld	r18, Z
    11fc:	20 62       	ori	r18, 0x20	; 32
    11fe:	fc 01       	movw	r30, r24
    1200:	20 83       	st	Z, r18
    1202:	df 91       	pop	r29
    1204:	cf 91       	pop	r28
    1206:	08 95       	ret

00001208 <left_position_encoder_interrupt_config>:
    1208:	cf 93       	push	r28
    120a:	df 93       	push	r29
    120c:	cd b7       	in	r28, 0x3d	; 61
    120e:	de b7       	in	r29, 0x3e	; 62
    1210:	f8 94       	cli
    1212:	8a e6       	ldi	r24, 0x6A	; 106
    1214:	90 e0       	ldi	r25, 0x00	; 0
    1216:	2a e6       	ldi	r18, 0x6A	; 106
    1218:	30 e0       	ldi	r19, 0x00	; 0
    121a:	f9 01       	movw	r30, r18
    121c:	20 81       	ld	r18, Z
    121e:	22 60       	ori	r18, 0x02	; 2
    1220:	fc 01       	movw	r30, r24
    1222:	20 83       	st	Z, r18
    1224:	8d e3       	ldi	r24, 0x3D	; 61
    1226:	90 e0       	ldi	r25, 0x00	; 0
    1228:	2d e3       	ldi	r18, 0x3D	; 61
    122a:	30 e0       	ldi	r19, 0x00	; 0
    122c:	f9 01       	movw	r30, r18
    122e:	20 81       	ld	r18, Z
    1230:	20 61       	ori	r18, 0x10	; 16
    1232:	fc 01       	movw	r30, r24
    1234:	20 83       	st	Z, r18
    1236:	78 94       	sei
    1238:	df 91       	pop	r29
    123a:	cf 91       	pop	r28
    123c:	08 95       	ret

0000123e <right_position_encoder_interrupt_config>:
    123e:	cf 93       	push	r28
    1240:	df 93       	push	r29
    1242:	cd b7       	in	r28, 0x3d	; 61
    1244:	de b7       	in	r29, 0x3e	; 62
    1246:	f8 94       	cli
    1248:	8a e6       	ldi	r24, 0x6A	; 106
    124a:	90 e0       	ldi	r25, 0x00	; 0
    124c:	2a e6       	ldi	r18, 0x6A	; 106
    124e:	30 e0       	ldi	r19, 0x00	; 0
    1250:	f9 01       	movw	r30, r18
    1252:	20 81       	ld	r18, Z
    1254:	28 60       	ori	r18, 0x08	; 8
    1256:	fc 01       	movw	r30, r24
    1258:	20 83       	st	Z, r18
    125a:	8d e3       	ldi	r24, 0x3D	; 61
    125c:	90 e0       	ldi	r25, 0x00	; 0
    125e:	2d e3       	ldi	r18, 0x3D	; 61
    1260:	30 e0       	ldi	r19, 0x00	; 0
    1262:	f9 01       	movw	r30, r18
    1264:	20 81       	ld	r18, Z
    1266:	20 62       	ori	r18, 0x20	; 32
    1268:	fc 01       	movw	r30, r24
    126a:	20 83       	st	Z, r18
    126c:	78 94       	sei
    126e:	df 91       	pop	r29
    1270:	cf 91       	pop	r28
    1272:	08 95       	ret

00001274 <servo1_pin_config>:
    1274:	cf 93       	push	r28
    1276:	df 93       	push	r29
    1278:	cd b7       	in	r28, 0x3d	; 61
    127a:	de b7       	in	r29, 0x3e	; 62
    127c:	84 e2       	ldi	r24, 0x24	; 36
    127e:	90 e0       	ldi	r25, 0x00	; 0
    1280:	24 e2       	ldi	r18, 0x24	; 36
    1282:	30 e0       	ldi	r19, 0x00	; 0
    1284:	f9 01       	movw	r30, r18
    1286:	20 81       	ld	r18, Z
    1288:	20 62       	ori	r18, 0x20	; 32
    128a:	fc 01       	movw	r30, r24
    128c:	20 83       	st	Z, r18
    128e:	85 e2       	ldi	r24, 0x25	; 37
    1290:	90 e0       	ldi	r25, 0x00	; 0
    1292:	25 e2       	ldi	r18, 0x25	; 37
    1294:	30 e0       	ldi	r19, 0x00	; 0
    1296:	f9 01       	movw	r30, r18
    1298:	20 81       	ld	r18, Z
    129a:	20 62       	ori	r18, 0x20	; 32
    129c:	fc 01       	movw	r30, r24
    129e:	20 83       	st	Z, r18
    12a0:	df 91       	pop	r29
    12a2:	cf 91       	pop	r28
    12a4:	08 95       	ret

000012a6 <servo2_pin_config>:
    12a6:	cf 93       	push	r28
    12a8:	df 93       	push	r29
    12aa:	cd b7       	in	r28, 0x3d	; 61
    12ac:	de b7       	in	r29, 0x3e	; 62
    12ae:	84 e2       	ldi	r24, 0x24	; 36
    12b0:	90 e0       	ldi	r25, 0x00	; 0
    12b2:	24 e2       	ldi	r18, 0x24	; 36
    12b4:	30 e0       	ldi	r19, 0x00	; 0
    12b6:	f9 01       	movw	r30, r18
    12b8:	20 81       	ld	r18, Z
    12ba:	20 64       	ori	r18, 0x40	; 64
    12bc:	fc 01       	movw	r30, r24
    12be:	20 83       	st	Z, r18
    12c0:	85 e2       	ldi	r24, 0x25	; 37
    12c2:	90 e0       	ldi	r25, 0x00	; 0
    12c4:	25 e2       	ldi	r18, 0x25	; 37
    12c6:	30 e0       	ldi	r19, 0x00	; 0
    12c8:	f9 01       	movw	r30, r18
    12ca:	20 81       	ld	r18, Z
    12cc:	20 64       	ori	r18, 0x40	; 64
    12ce:	fc 01       	movw	r30, r24
    12d0:	20 83       	st	Z, r18
    12d2:	df 91       	pop	r29
    12d4:	cf 91       	pop	r28
    12d6:	08 95       	ret

000012d8 <servo3_pin_config>:
    12d8:	cf 93       	push	r28
    12da:	df 93       	push	r29
    12dc:	cd b7       	in	r28, 0x3d	; 61
    12de:	de b7       	in	r29, 0x3e	; 62
    12e0:	84 e2       	ldi	r24, 0x24	; 36
    12e2:	90 e0       	ldi	r25, 0x00	; 0
    12e4:	24 e2       	ldi	r18, 0x24	; 36
    12e6:	30 e0       	ldi	r19, 0x00	; 0
    12e8:	f9 01       	movw	r30, r18
    12ea:	20 81       	ld	r18, Z
    12ec:	20 68       	ori	r18, 0x80	; 128
    12ee:	fc 01       	movw	r30, r24
    12f0:	20 83       	st	Z, r18
    12f2:	85 e2       	ldi	r24, 0x25	; 37
    12f4:	90 e0       	ldi	r25, 0x00	; 0
    12f6:	25 e2       	ldi	r18, 0x25	; 37
    12f8:	30 e0       	ldi	r19, 0x00	; 0
    12fa:	f9 01       	movw	r30, r18
    12fc:	20 81       	ld	r18, Z
    12fe:	20 68       	ori	r18, 0x80	; 128
    1300:	fc 01       	movw	r30, r24
    1302:	20 83       	st	Z, r18
    1304:	df 91       	pop	r29
    1306:	cf 91       	pop	r28
    1308:	08 95       	ret

0000130a <demux_pin_config>:
    130a:	cf 93       	push	r28
    130c:	df 93       	push	r29
    130e:	cd b7       	in	r28, 0x3d	; 61
    1310:	de b7       	in	r29, 0x3e	; 62
    1312:	81 e0       	ldi	r24, 0x01	; 1
    1314:	91 e0       	ldi	r25, 0x01	; 1
    1316:	fc 01       	movw	r30, r24
    1318:	80 81       	ld	r24, Z
    131a:	81 e0       	ldi	r24, 0x01	; 1
    131c:	91 e0       	ldi	r25, 0x01	; 1
    131e:	2f ef       	ldi	r18, 0xFF	; 255
    1320:	fc 01       	movw	r30, r24
    1322:	20 83       	st	Z, r18
    1324:	82 e0       	ldi	r24, 0x02	; 2
    1326:	91 e0       	ldi	r25, 0x01	; 1
    1328:	22 e0       	ldi	r18, 0x02	; 2
    132a:	31 e0       	ldi	r19, 0x01	; 1
    132c:	f9 01       	movw	r30, r18
    132e:	20 81       	ld	r18, Z
    1330:	2e 7f       	andi	r18, 0xFE	; 254
    1332:	fc 01       	movw	r30, r24
    1334:	20 83       	st	Z, r18
    1336:	df 91       	pop	r29
    1338:	cf 91       	pop	r28
    133a:	08 95       	ret

0000133c <adc_pin_config>:
    133c:	cf 93       	push	r28
    133e:	df 93       	push	r29
    1340:	cd b7       	in	r28, 0x3d	; 61
    1342:	de b7       	in	r29, 0x3e	; 62
    1344:	80 e3       	ldi	r24, 0x30	; 48
    1346:	90 e0       	ldi	r25, 0x00	; 0
    1348:	fc 01       	movw	r30, r24
    134a:	10 82       	st	Z, r1
    134c:	81 e3       	ldi	r24, 0x31	; 49
    134e:	90 e0       	ldi	r25, 0x00	; 0
    1350:	fc 01       	movw	r30, r24
    1352:	10 82       	st	Z, r1
    1354:	87 e0       	ldi	r24, 0x07	; 7
    1356:	91 e0       	ldi	r25, 0x01	; 1
    1358:	fc 01       	movw	r30, r24
    135a:	10 82       	st	Z, r1
    135c:	88 e0       	ldi	r24, 0x08	; 8
    135e:	91 e0       	ldi	r25, 0x01	; 1
    1360:	fc 01       	movw	r30, r24
    1362:	10 82       	st	Z, r1
    1364:	df 91       	pop	r29
    1366:	cf 91       	pop	r28
    1368:	08 95       	ret

0000136a <port_init>:
    136a:	cf 93       	push	r28
    136c:	df 93       	push	r29
    136e:	cd b7       	in	r28, 0x3d	; 61
    1370:	de b7       	in	r29, 0x3e	; 62
    1372:	d4 de       	rcall	.-600    	; 0x111c <buzzer_pin_config>
    1374:	ec de       	rcall	.-552    	; 0x114e <motion_pin_config>
    1376:	16 df       	rcall	.-468    	; 0x11a4 <left_encoder_pin_config>
    1378:	2e df       	rcall	.-420    	; 0x11d6 <right_encoder_pin_config>
    137a:	46 df       	rcall	.-372    	; 0x1208 <left_position_encoder_interrupt_config>
    137c:	60 df       	rcall	.-320    	; 0x123e <right_position_encoder_interrupt_config>
    137e:	7a df       	rcall	.-268    	; 0x1274 <servo1_pin_config>
    1380:	92 df       	rcall	.-220    	; 0x12a6 <servo2_pin_config>
    1382:	aa df       	rcall	.-172    	; 0x12d8 <servo3_pin_config>
    1384:	c2 df       	rcall	.-124    	; 0x130a <demux_pin_config>
    1386:	0e 94 94 00 	call	0x128	; 0x128 <lcd_port_config>
    138a:	d8 df       	rcall	.-80     	; 0x133c <adc_pin_config>
    138c:	df 91       	pop	r29
    138e:	cf 91       	pop	r28
    1390:	08 95       	ret

00001392 <__vector_6>:
    1392:	1f 92       	push	r1
    1394:	0f 92       	push	r0
    1396:	00 90 5f 00 	lds	r0, 0x005F
    139a:	0f 92       	push	r0
    139c:	11 24       	eor	r1, r1
    139e:	8f 93       	push	r24
    13a0:	9f 93       	push	r25
    13a2:	af 93       	push	r26
    13a4:	bf 93       	push	r27
    13a6:	cf 93       	push	r28
    13a8:	df 93       	push	r29
    13aa:	cd b7       	in	r28, 0x3d	; 61
    13ac:	de b7       	in	r29, 0x3e	; 62
    13ae:	80 91 04 02 	lds	r24, 0x0204
    13b2:	90 91 05 02 	lds	r25, 0x0205
    13b6:	a0 91 06 02 	lds	r26, 0x0206
    13ba:	b0 91 07 02 	lds	r27, 0x0207
    13be:	01 96       	adiw	r24, 0x01	; 1
    13c0:	a1 1d       	adc	r26, r1
    13c2:	b1 1d       	adc	r27, r1
    13c4:	80 93 04 02 	sts	0x0204, r24
    13c8:	90 93 05 02 	sts	0x0205, r25
    13cc:	a0 93 06 02 	sts	0x0206, r26
    13d0:	b0 93 07 02 	sts	0x0207, r27
    13d4:	df 91       	pop	r29
    13d6:	cf 91       	pop	r28
    13d8:	bf 91       	pop	r27
    13da:	af 91       	pop	r26
    13dc:	9f 91       	pop	r25
    13de:	8f 91       	pop	r24
    13e0:	0f 90       	pop	r0
    13e2:	00 92 5f 00 	sts	0x005F, r0
    13e6:	0f 90       	pop	r0
    13e8:	1f 90       	pop	r1
    13ea:	18 95       	reti

000013ec <__vector_5>:
    13ec:	1f 92       	push	r1
    13ee:	0f 92       	push	r0
    13f0:	00 90 5f 00 	lds	r0, 0x005F
    13f4:	0f 92       	push	r0
    13f6:	11 24       	eor	r1, r1
    13f8:	8f 93       	push	r24
    13fa:	9f 93       	push	r25
    13fc:	af 93       	push	r26
    13fe:	bf 93       	push	r27
    1400:	cf 93       	push	r28
    1402:	df 93       	push	r29
    1404:	cd b7       	in	r28, 0x3d	; 61
    1406:	de b7       	in	r29, 0x3e	; 62
    1408:	80 91 00 02 	lds	r24, 0x0200
    140c:	90 91 01 02 	lds	r25, 0x0201
    1410:	a0 91 02 02 	lds	r26, 0x0202
    1414:	b0 91 03 02 	lds	r27, 0x0203
    1418:	01 96       	adiw	r24, 0x01	; 1
    141a:	a1 1d       	adc	r26, r1
    141c:	b1 1d       	adc	r27, r1
    141e:	80 93 00 02 	sts	0x0200, r24
    1422:	90 93 01 02 	sts	0x0201, r25
    1426:	a0 93 02 02 	sts	0x0202, r26
    142a:	b0 93 03 02 	sts	0x0203, r27
    142e:	df 91       	pop	r29
    1430:	cf 91       	pop	r28
    1432:	bf 91       	pop	r27
    1434:	af 91       	pop	r26
    1436:	9f 91       	pop	r25
    1438:	8f 91       	pop	r24
    143a:	0f 90       	pop	r0
    143c:	00 92 5f 00 	sts	0x005F, r0
    1440:	0f 90       	pop	r0
    1442:	1f 90       	pop	r1
    1444:	18 95       	reti

00001446 <adc_init>:


/* -------------------------------------------------------------INITIALIZATION--------------------------------------------------*/

//Function to Initialize ADC
void adc_init() {
    1446:	cf 93       	push	r28
    1448:	df 93       	push	r29
    144a:	cd b7       	in	r28, 0x3d	; 61
    144c:	de b7       	in	r29, 0x3e	; 62
  ADCSRA = 0x00;
    144e:	8a e7       	ldi	r24, 0x7A	; 122
    1450:	90 e0       	ldi	r25, 0x00	; 0
    1452:	fc 01       	movw	r30, r24
    1454:	10 82       	st	Z, r1
  ADCSRB = 0x00; //MUX5 = 0
    1456:	8b e7       	ldi	r24, 0x7B	; 123
    1458:	90 e0       	ldi	r25, 0x00	; 0
    145a:	fc 01       	movw	r30, r24
    145c:	10 82       	st	Z, r1
  ADMUX = 0x20; //Vref=5V external --- ADLAR=1 --- MUX4:0 = 0000
    145e:	8c e7       	ldi	r24, 0x7C	; 124
    1460:	90 e0       	ldi	r25, 0x00	; 0
    1462:	20 e2       	ldi	r18, 0x20	; 32
    1464:	fc 01       	movw	r30, r24
    1466:	20 83       	st	Z, r18
  ACSR = 0x80;
    1468:	80 e5       	ldi	r24, 0x50	; 80
    146a:	90 e0       	ldi	r25, 0x00	; 0
    146c:	20 e8       	ldi	r18, 0x80	; 128
    146e:	fc 01       	movw	r30, r24
    1470:	20 83       	st	Z, r18
  ADCSRA = 0x86; //ADEN=1 --- ADIE=1 --- ADPS2:0 = 1 1 0
    1472:	8a e7       	ldi	r24, 0x7A	; 122
    1474:	90 e0       	ldi	r25, 0x00	; 0
    1476:	26 e8       	ldi	r18, 0x86	; 134
    1478:	fc 01       	movw	r30, r24
    147a:	20 83       	st	Z, r18
}
    147c:	df 91       	pop	r29
    147e:	cf 91       	pop	r28
    1480:	08 95       	ret

00001482 <init_devices>:

void init_devices(void) {
    1482:	cf 93       	push	r28
    1484:	df 93       	push	r29
    1486:	cd b7       	in	r28, 0x3d	; 61
    1488:	de b7       	in	r29, 0x3e	; 62
  cli(); //Clears the global interrupts
    148a:	f8 94       	cli
  port_init();
    148c:	6e df       	rcall	.-292    	; 0x136a <port_init>
  adc_init();
    148e:	db df       	rcall	.-74     	; 0x1446 <adc_init>
  timer5_init();
    1490:	0b de       	rcall	.-1002   	; 0x10a8 <timer5_init>
  timer1_init();
    1492:	bf dd       	rcall	.-1154   	; 0x1012 <timer1_init>
  sei(); //Enables the global interrupts
    1494:	78 94       	sei
  lcd_set_4bit(); //These functions need not to be inside interrupt blocked code
    1496:	0e 94 ad 00 	call	0x15a	; 0x15a <lcd_set_4bit>
  lcd_init();
    149a:	cb db       	rcall	.-2154   	; 0xc32 <lcd_init>
}
    149c:	df 91       	pop	r29
    149e:	cf 91       	pop	r28
    14a0:	08 95       	ret

000014a2 <main>:
/* --------------------------------------------------------------MAIN-----------------------------------------------------------*/


int main() 
{
    14a2:	cf 93       	push	r28
    14a4:	df 93       	push	r29
    14a6:	cd b7       	in	r28, 0x3d	; 61
    14a8:	de b7       	in	r29, 0x3e	; 62
  init_devices();
    14aa:	eb df       	rcall	.-42     	; 0x1482 <init_devices>
    14ac:	80 e0       	ldi	r24, 0x00	; 0
    14ae:	90 e0       	ldi	r25, 0x00	; 0
}
    14b0:	df 91       	pop	r29
    14b2:	cf 91       	pop	r28
    14b4:	08 95       	ret

000014b6 <__cmpsf2>:
    14b6:	2f d0       	rcall	.+94     	; 0x1516 <__fp_cmp>
    14b8:	08 f4       	brcc	.+2      	; 0x14bc <__cmpsf2+0x6>
    14ba:	81 e0       	ldi	r24, 0x01	; 1
    14bc:	08 95       	ret

000014be <__fixunssfsi>:
    14be:	7f d0       	rcall	.+254    	; 0x15be <__fp_splitA>
    14c0:	88 f0       	brcs	.+34     	; 0x14e4 <__fixunssfsi+0x26>
    14c2:	9f 57       	subi	r25, 0x7F	; 127
    14c4:	90 f0       	brcs	.+36     	; 0x14ea <__fixunssfsi+0x2c>
    14c6:	b9 2f       	mov	r27, r25
    14c8:	99 27       	eor	r25, r25
    14ca:	b7 51       	subi	r27, 0x17	; 23
    14cc:	a0 f0       	brcs	.+40     	; 0x14f6 <__fixunssfsi+0x38>
    14ce:	d1 f0       	breq	.+52     	; 0x1504 <__fixunssfsi+0x46>
    14d0:	66 0f       	add	r22, r22
    14d2:	77 1f       	adc	r23, r23
    14d4:	88 1f       	adc	r24, r24
    14d6:	99 1f       	adc	r25, r25
    14d8:	1a f0       	brmi	.+6      	; 0x14e0 <__fixunssfsi+0x22>
    14da:	ba 95       	dec	r27
    14dc:	c9 f7       	brne	.-14     	; 0x14d0 <__fixunssfsi+0x12>
    14de:	12 c0       	rjmp	.+36     	; 0x1504 <__fixunssfsi+0x46>
    14e0:	b1 30       	cpi	r27, 0x01	; 1
    14e2:	81 f0       	breq	.+32     	; 0x1504 <__fixunssfsi+0x46>
    14e4:	86 d0       	rcall	.+268    	; 0x15f2 <__fp_zero>
    14e6:	b1 e0       	ldi	r27, 0x01	; 1
    14e8:	08 95       	ret
    14ea:	83 c0       	rjmp	.+262    	; 0x15f2 <__fp_zero>
    14ec:	67 2f       	mov	r22, r23
    14ee:	78 2f       	mov	r23, r24
    14f0:	88 27       	eor	r24, r24
    14f2:	b8 5f       	subi	r27, 0xF8	; 248
    14f4:	39 f0       	breq	.+14     	; 0x1504 <__fixunssfsi+0x46>
    14f6:	b9 3f       	cpi	r27, 0xF9	; 249
    14f8:	cc f3       	brlt	.-14     	; 0x14ec <__fixunssfsi+0x2e>
    14fa:	86 95       	lsr	r24
    14fc:	77 95       	ror	r23
    14fe:	67 95       	ror	r22
    1500:	b3 95       	inc	r27
    1502:	d9 f7       	brne	.-10     	; 0x14fa <__fixunssfsi+0x3c>
    1504:	3e f4       	brtc	.+14     	; 0x1514 <__fixunssfsi+0x56>
    1506:	90 95       	com	r25
    1508:	80 95       	com	r24
    150a:	70 95       	com	r23
    150c:	61 95       	neg	r22
    150e:	7f 4f       	sbci	r23, 0xFF	; 255
    1510:	8f 4f       	sbci	r24, 0xFF	; 255
    1512:	9f 4f       	sbci	r25, 0xFF	; 255
    1514:	08 95       	ret

00001516 <__fp_cmp>:
    1516:	99 0f       	add	r25, r25
    1518:	00 08       	sbc	r0, r0
    151a:	55 0f       	add	r21, r21
    151c:	aa 0b       	sbc	r26, r26
    151e:	e0 e8       	ldi	r30, 0x80	; 128
    1520:	fe ef       	ldi	r31, 0xFE	; 254
    1522:	16 16       	cp	r1, r22
    1524:	17 06       	cpc	r1, r23
    1526:	e8 07       	cpc	r30, r24
    1528:	f9 07       	cpc	r31, r25
    152a:	c0 f0       	brcs	.+48     	; 0x155c <__fp_cmp+0x46>
    152c:	12 16       	cp	r1, r18
    152e:	13 06       	cpc	r1, r19
    1530:	e4 07       	cpc	r30, r20
    1532:	f5 07       	cpc	r31, r21
    1534:	98 f0       	brcs	.+38     	; 0x155c <__fp_cmp+0x46>
    1536:	62 1b       	sub	r22, r18
    1538:	73 0b       	sbc	r23, r19
    153a:	84 0b       	sbc	r24, r20
    153c:	95 0b       	sbc	r25, r21
    153e:	39 f4       	brne	.+14     	; 0x154e <__fp_cmp+0x38>
    1540:	0a 26       	eor	r0, r26
    1542:	61 f0       	breq	.+24     	; 0x155c <__fp_cmp+0x46>
    1544:	23 2b       	or	r18, r19
    1546:	24 2b       	or	r18, r20
    1548:	25 2b       	or	r18, r21
    154a:	21 f4       	brne	.+8      	; 0x1554 <__fp_cmp+0x3e>
    154c:	08 95       	ret
    154e:	0a 26       	eor	r0, r26
    1550:	09 f4       	brne	.+2      	; 0x1554 <__fp_cmp+0x3e>
    1552:	a1 40       	sbci	r26, 0x01	; 1
    1554:	a6 95       	lsr	r26
    1556:	8f ef       	ldi	r24, 0xFF	; 255
    1558:	81 1d       	adc	r24, r1
    155a:	81 1d       	adc	r24, r1
    155c:	08 95       	ret

0000155e <__fp_inf>:
    155e:	97 f9       	bld	r25, 7
    1560:	9f 67       	ori	r25, 0x7F	; 127
    1562:	80 e8       	ldi	r24, 0x80	; 128
    1564:	70 e0       	ldi	r23, 0x00	; 0
    1566:	60 e0       	ldi	r22, 0x00	; 0
    1568:	08 95       	ret

0000156a <__fp_nan>:
    156a:	9f ef       	ldi	r25, 0xFF	; 255
    156c:	80 ec       	ldi	r24, 0xC0	; 192
    156e:	08 95       	ret

00001570 <__fp_pscA>:
    1570:	00 24       	eor	r0, r0
    1572:	0a 94       	dec	r0
    1574:	16 16       	cp	r1, r22
    1576:	17 06       	cpc	r1, r23
    1578:	18 06       	cpc	r1, r24
    157a:	09 06       	cpc	r0, r25
    157c:	08 95       	ret

0000157e <__fp_pscB>:
    157e:	00 24       	eor	r0, r0
    1580:	0a 94       	dec	r0
    1582:	12 16       	cp	r1, r18
    1584:	13 06       	cpc	r1, r19
    1586:	14 06       	cpc	r1, r20
    1588:	05 06       	cpc	r0, r21
    158a:	08 95       	ret

0000158c <__fp_round>:
    158c:	09 2e       	mov	r0, r25
    158e:	03 94       	inc	r0
    1590:	00 0c       	add	r0, r0
    1592:	11 f4       	brne	.+4      	; 0x1598 <__fp_round+0xc>
    1594:	88 23       	and	r24, r24
    1596:	52 f0       	brmi	.+20     	; 0x15ac <__fp_round+0x20>
    1598:	bb 0f       	add	r27, r27
    159a:	40 f4       	brcc	.+16     	; 0x15ac <__fp_round+0x20>
    159c:	bf 2b       	or	r27, r31
    159e:	11 f4       	brne	.+4      	; 0x15a4 <__fp_round+0x18>
    15a0:	60 ff       	sbrs	r22, 0
    15a2:	04 c0       	rjmp	.+8      	; 0x15ac <__fp_round+0x20>
    15a4:	6f 5f       	subi	r22, 0xFF	; 255
    15a6:	7f 4f       	sbci	r23, 0xFF	; 255
    15a8:	8f 4f       	sbci	r24, 0xFF	; 255
    15aa:	9f 4f       	sbci	r25, 0xFF	; 255
    15ac:	08 95       	ret

000015ae <__fp_split3>:
    15ae:	57 fd       	sbrc	r21, 7
    15b0:	90 58       	subi	r25, 0x80	; 128
    15b2:	44 0f       	add	r20, r20
    15b4:	55 1f       	adc	r21, r21
    15b6:	59 f0       	breq	.+22     	; 0x15ce <__fp_splitA+0x10>
    15b8:	5f 3f       	cpi	r21, 0xFF	; 255
    15ba:	71 f0       	breq	.+28     	; 0x15d8 <__fp_splitA+0x1a>
    15bc:	47 95       	ror	r20

000015be <__fp_splitA>:
    15be:	88 0f       	add	r24, r24
    15c0:	97 fb       	bst	r25, 7
    15c2:	99 1f       	adc	r25, r25
    15c4:	61 f0       	breq	.+24     	; 0x15de <__fp_splitA+0x20>
    15c6:	9f 3f       	cpi	r25, 0xFF	; 255
    15c8:	79 f0       	breq	.+30     	; 0x15e8 <__fp_splitA+0x2a>
    15ca:	87 95       	ror	r24
    15cc:	08 95       	ret
    15ce:	12 16       	cp	r1, r18
    15d0:	13 06       	cpc	r1, r19
    15d2:	14 06       	cpc	r1, r20
    15d4:	55 1f       	adc	r21, r21
    15d6:	f2 cf       	rjmp	.-28     	; 0x15bc <__fp_split3+0xe>
    15d8:	46 95       	lsr	r20
    15da:	f1 df       	rcall	.-30     	; 0x15be <__fp_splitA>
    15dc:	08 c0       	rjmp	.+16     	; 0x15ee <__fp_splitA+0x30>
    15de:	16 16       	cp	r1, r22
    15e0:	17 06       	cpc	r1, r23
    15e2:	18 06       	cpc	r1, r24
    15e4:	99 1f       	adc	r25, r25
    15e6:	f1 cf       	rjmp	.-30     	; 0x15ca <__fp_splitA+0xc>
    15e8:	86 95       	lsr	r24
    15ea:	71 05       	cpc	r23, r1
    15ec:	61 05       	cpc	r22, r1
    15ee:	08 94       	sec
    15f0:	08 95       	ret

000015f2 <__fp_zero>:
    15f2:	e8 94       	clt

000015f4 <__fp_szero>:
    15f4:	bb 27       	eor	r27, r27
    15f6:	66 27       	eor	r22, r22
    15f8:	77 27       	eor	r23, r23
    15fa:	cb 01       	movw	r24, r22
    15fc:	97 f9       	bld	r25, 7
    15fe:	08 95       	ret

00001600 <__gesf2>:
    1600:	8a df       	rcall	.-236    	; 0x1516 <__fp_cmp>
    1602:	08 f4       	brcc	.+2      	; 0x1606 <__gesf2+0x6>
    1604:	8f ef       	ldi	r24, 0xFF	; 255
    1606:	08 95       	ret

00001608 <__mulsf3>:
    1608:	0b d0       	rcall	.+22     	; 0x1620 <__mulsf3x>
    160a:	c0 cf       	rjmp	.-128    	; 0x158c <__fp_round>
    160c:	b1 df       	rcall	.-158    	; 0x1570 <__fp_pscA>
    160e:	28 f0       	brcs	.+10     	; 0x161a <__mulsf3+0x12>
    1610:	b6 df       	rcall	.-148    	; 0x157e <__fp_pscB>
    1612:	18 f0       	brcs	.+6      	; 0x161a <__mulsf3+0x12>
    1614:	95 23       	and	r25, r21
    1616:	09 f0       	breq	.+2      	; 0x161a <__mulsf3+0x12>
    1618:	a2 cf       	rjmp	.-188    	; 0x155e <__fp_inf>
    161a:	a7 cf       	rjmp	.-178    	; 0x156a <__fp_nan>
    161c:	11 24       	eor	r1, r1
    161e:	ea cf       	rjmp	.-44     	; 0x15f4 <__fp_szero>

00001620 <__mulsf3x>:
    1620:	c6 df       	rcall	.-116    	; 0x15ae <__fp_split3>
    1622:	a0 f3       	brcs	.-24     	; 0x160c <__mulsf3+0x4>

00001624 <__mulsf3_pse>:
    1624:	95 9f       	mul	r25, r21
    1626:	d1 f3       	breq	.-12     	; 0x161c <__mulsf3+0x14>
    1628:	95 0f       	add	r25, r21
    162a:	50 e0       	ldi	r21, 0x00	; 0
    162c:	55 1f       	adc	r21, r21
    162e:	62 9f       	mul	r22, r18
    1630:	f0 01       	movw	r30, r0
    1632:	72 9f       	mul	r23, r18
    1634:	bb 27       	eor	r27, r27
    1636:	f0 0d       	add	r31, r0
    1638:	b1 1d       	adc	r27, r1
    163a:	63 9f       	mul	r22, r19
    163c:	aa 27       	eor	r26, r26
    163e:	f0 0d       	add	r31, r0
    1640:	b1 1d       	adc	r27, r1
    1642:	aa 1f       	adc	r26, r26
    1644:	64 9f       	mul	r22, r20
    1646:	66 27       	eor	r22, r22
    1648:	b0 0d       	add	r27, r0
    164a:	a1 1d       	adc	r26, r1
    164c:	66 1f       	adc	r22, r22
    164e:	82 9f       	mul	r24, r18
    1650:	22 27       	eor	r18, r18
    1652:	b0 0d       	add	r27, r0
    1654:	a1 1d       	adc	r26, r1
    1656:	62 1f       	adc	r22, r18
    1658:	73 9f       	mul	r23, r19
    165a:	b0 0d       	add	r27, r0
    165c:	a1 1d       	adc	r26, r1
    165e:	62 1f       	adc	r22, r18
    1660:	83 9f       	mul	r24, r19
    1662:	a0 0d       	add	r26, r0
    1664:	61 1d       	adc	r22, r1
    1666:	22 1f       	adc	r18, r18
    1668:	74 9f       	mul	r23, r20
    166a:	33 27       	eor	r19, r19
    166c:	a0 0d       	add	r26, r0
    166e:	61 1d       	adc	r22, r1
    1670:	23 1f       	adc	r18, r19
    1672:	84 9f       	mul	r24, r20
    1674:	60 0d       	add	r22, r0
    1676:	21 1d       	adc	r18, r1
    1678:	82 2f       	mov	r24, r18
    167a:	76 2f       	mov	r23, r22
    167c:	6a 2f       	mov	r22, r26
    167e:	11 24       	eor	r1, r1
    1680:	9f 57       	subi	r25, 0x7F	; 127
    1682:	50 40       	sbci	r21, 0x00	; 0
    1684:	8a f0       	brmi	.+34     	; 0x16a8 <__mulsf3_pse+0x84>
    1686:	e1 f0       	breq	.+56     	; 0x16c0 <__mulsf3_pse+0x9c>
    1688:	88 23       	and	r24, r24
    168a:	4a f0       	brmi	.+18     	; 0x169e <__mulsf3_pse+0x7a>
    168c:	ee 0f       	add	r30, r30
    168e:	ff 1f       	adc	r31, r31
    1690:	bb 1f       	adc	r27, r27
    1692:	66 1f       	adc	r22, r22
    1694:	77 1f       	adc	r23, r23
    1696:	88 1f       	adc	r24, r24
    1698:	91 50       	subi	r25, 0x01	; 1
    169a:	50 40       	sbci	r21, 0x00	; 0
    169c:	a9 f7       	brne	.-22     	; 0x1688 <__mulsf3_pse+0x64>
    169e:	9e 3f       	cpi	r25, 0xFE	; 254
    16a0:	51 05       	cpc	r21, r1
    16a2:	70 f0       	brcs	.+28     	; 0x16c0 <__mulsf3_pse+0x9c>
    16a4:	5c cf       	rjmp	.-328    	; 0x155e <__fp_inf>
    16a6:	a6 cf       	rjmp	.-180    	; 0x15f4 <__fp_szero>
    16a8:	5f 3f       	cpi	r21, 0xFF	; 255
    16aa:	ec f3       	brlt	.-6      	; 0x16a6 <__mulsf3_pse+0x82>
    16ac:	98 3e       	cpi	r25, 0xE8	; 232
    16ae:	dc f3       	brlt	.-10     	; 0x16a6 <__mulsf3_pse+0x82>
    16b0:	86 95       	lsr	r24
    16b2:	77 95       	ror	r23
    16b4:	67 95       	ror	r22
    16b6:	b7 95       	ror	r27
    16b8:	f7 95       	ror	r31
    16ba:	e7 95       	ror	r30
    16bc:	9f 5f       	subi	r25, 0xFF	; 255
    16be:	c1 f7       	brne	.-16     	; 0x16b0 <__mulsf3_pse+0x8c>
    16c0:	fe 2b       	or	r31, r30
    16c2:	88 0f       	add	r24, r24
    16c4:	91 1d       	adc	r25, r1
    16c6:	96 95       	lsr	r25
    16c8:	87 95       	ror	r24
    16ca:	97 f9       	bld	r25, 7
    16cc:	08 95       	ret

000016ce <_exit>:
    16ce:	f8 94       	cli

000016d0 <__stop_program>:
    16d0:	ff cf       	rjmp	.-2      	; 0x16d0 <__stop_program>
