
Task5.elf:     file format elf32-avr

Sections:
Idx Name          Size      VMA       LMA       File off  Algn
  0 .data         000000a8  00800200  000031ba  0000324e  2**0
                  CONTENTS, ALLOC, LOAD, DATA
  1 .text         000031ba  00000000  00000000  00000094  2**1
                  CONTENTS, ALLOC, LOAD, READONLY, CODE
  2 .bss          00000020  008002a8  008002a8  000032f6  2**0
                  ALLOC
  3 .comment      00000030  00000000  00000000  000032f6  2**0
                  CONTENTS, READONLY
  4 .debug_aranges 000002a8  00000000  00000000  00003326  2**0
                  CONTENTS, READONLY, DEBUGGING
  5 .debug_info   000031e7  00000000  00000000  000035ce  2**0
                  CONTENTS, READONLY, DEBUGGING
  6 .debug_abbrev 00000304  00000000  00000000  000067b5  2**0
                  CONTENTS, READONLY, DEBUGGING
  7 .debug_line   00003371  00000000  00000000  00006ab9  2**0
                  CONTENTS, READONLY, DEBUGGING
  8 .debug_frame  00000b1c  00000000  00000000  00009e2c  2**2
                  CONTENTS, READONLY, DEBUGGING
  9 .debug_str    000006e1  00000000  00000000  0000a948  2**0
                  CONTENTS, READONLY, DEBUGGING
 10 .debug_loc    00001708  00000000  00000000  0000b029  2**0
                  CONTENTS, READONLY, DEBUGGING
 11 .debug_ranges 00000460  00000000  00000000  0000c731  2**0
                  CONTENTS, READONLY, DEBUGGING

Disassembly of section .text:

00000000 <__vectors>:
       0:	7b c0       	rjmp	.+246    	; 0xf8 <__ctors_end>
       2:	00 00       	nop
       4:	9a c0       	rjmp	.+308    	; 0x13a <__bad_interrupt>
       6:	00 00       	nop
       8:	98 c0       	rjmp	.+304    	; 0x13a <__bad_interrupt>
       a:	00 00       	nop
       c:	96 c0       	rjmp	.+300    	; 0x13a <__bad_interrupt>
       e:	00 00       	nop
      10:	94 c0       	rjmp	.+296    	; 0x13a <__bad_interrupt>
      12:	00 00       	nop
      14:	0c 94 3f 0d 	jmp	0x1a7e	; 0x1a7e <__vector_5>
      18:	0c 94 12 0d 	jmp	0x1a24	; 0x1a24 <__vector_6>
      1c:	8e c0       	rjmp	.+284    	; 0x13a <__bad_interrupt>
      1e:	00 00       	nop
      20:	8c c0       	rjmp	.+280    	; 0x13a <__bad_interrupt>
      22:	00 00       	nop
      24:	8a c0       	rjmp	.+276    	; 0x13a <__bad_interrupt>
      26:	00 00       	nop
      28:	88 c0       	rjmp	.+272    	; 0x13a <__bad_interrupt>
      2a:	00 00       	nop
      2c:	86 c0       	rjmp	.+268    	; 0x13a <__bad_interrupt>
      2e:	00 00       	nop
      30:	84 c0       	rjmp	.+264    	; 0x13a <__bad_interrupt>
      32:	00 00       	nop
      34:	82 c0       	rjmp	.+260    	; 0x13a <__bad_interrupt>
      36:	00 00       	nop
      38:	80 c0       	rjmp	.+256    	; 0x13a <__bad_interrupt>
      3a:	00 00       	nop
      3c:	7e c0       	rjmp	.+252    	; 0x13a <__bad_interrupt>
      3e:	00 00       	nop
      40:	7c c0       	rjmp	.+248    	; 0x13a <__bad_interrupt>
      42:	00 00       	nop
      44:	7a c0       	rjmp	.+244    	; 0x13a <__bad_interrupt>
      46:	00 00       	nop
      48:	78 c0       	rjmp	.+240    	; 0x13a <__bad_interrupt>
      4a:	00 00       	nop
      4c:	76 c0       	rjmp	.+236    	; 0x13a <__bad_interrupt>
      4e:	00 00       	nop
      50:	74 c0       	rjmp	.+232    	; 0x13a <__bad_interrupt>
      52:	00 00       	nop
      54:	72 c0       	rjmp	.+228    	; 0x13a <__bad_interrupt>
      56:	00 00       	nop
      58:	70 c0       	rjmp	.+224    	; 0x13a <__bad_interrupt>
      5a:	00 00       	nop
      5c:	6e c0       	rjmp	.+220    	; 0x13a <__bad_interrupt>
      5e:	00 00       	nop
      60:	6c c0       	rjmp	.+216    	; 0x13a <__bad_interrupt>
      62:	00 00       	nop
      64:	6a c0       	rjmp	.+212    	; 0x13a <__bad_interrupt>
      66:	00 00       	nop
      68:	68 c0       	rjmp	.+208    	; 0x13a <__bad_interrupt>
      6a:	00 00       	nop
      6c:	66 c0       	rjmp	.+204    	; 0x13a <__bad_interrupt>
      6e:	00 00       	nop
      70:	64 c0       	rjmp	.+200    	; 0x13a <__bad_interrupt>
      72:	00 00       	nop
      74:	62 c0       	rjmp	.+196    	; 0x13a <__bad_interrupt>
      76:	00 00       	nop
      78:	60 c0       	rjmp	.+192    	; 0x13a <__bad_interrupt>
      7a:	00 00       	nop
      7c:	5e c0       	rjmp	.+188    	; 0x13a <__bad_interrupt>
      7e:	00 00       	nop
      80:	5c c0       	rjmp	.+184    	; 0x13a <__bad_interrupt>
      82:	00 00       	nop
      84:	5a c0       	rjmp	.+180    	; 0x13a <__bad_interrupt>
      86:	00 00       	nop
      88:	58 c0       	rjmp	.+176    	; 0x13a <__bad_interrupt>
      8a:	00 00       	nop
      8c:	56 c0       	rjmp	.+172    	; 0x13a <__bad_interrupt>
      8e:	00 00       	nop
      90:	54 c0       	rjmp	.+168    	; 0x13a <__bad_interrupt>
      92:	00 00       	nop
      94:	52 c0       	rjmp	.+164    	; 0x13a <__bad_interrupt>
      96:	00 00       	nop
      98:	50 c0       	rjmp	.+160    	; 0x13a <__bad_interrupt>
      9a:	00 00       	nop
      9c:	4e c0       	rjmp	.+156    	; 0x13a <__bad_interrupt>
      9e:	00 00       	nop
      a0:	4c c0       	rjmp	.+152    	; 0x13a <__bad_interrupt>
      a2:	00 00       	nop
      a4:	4a c0       	rjmp	.+148    	; 0x13a <__bad_interrupt>
      a6:	00 00       	nop
      a8:	48 c0       	rjmp	.+144    	; 0x13a <__bad_interrupt>
      aa:	00 00       	nop
      ac:	46 c0       	rjmp	.+140    	; 0x13a <__bad_interrupt>
      ae:	00 00       	nop
      b0:	44 c0       	rjmp	.+136    	; 0x13a <__bad_interrupt>
      b2:	00 00       	nop
      b4:	42 c0       	rjmp	.+132    	; 0x13a <__bad_interrupt>
      b6:	00 00       	nop
      b8:	40 c0       	rjmp	.+128    	; 0x13a <__bad_interrupt>
      ba:	00 00       	nop
      bc:	3e c0       	rjmp	.+124    	; 0x13a <__bad_interrupt>
      be:	00 00       	nop
      c0:	3c c0       	rjmp	.+120    	; 0x13a <__bad_interrupt>
      c2:	00 00       	nop
      c4:	3a c0       	rjmp	.+116    	; 0x13a <__bad_interrupt>
      c6:	00 00       	nop
      c8:	38 c0       	rjmp	.+112    	; 0x13a <__bad_interrupt>
      ca:	00 00       	nop
      cc:	36 c0       	rjmp	.+108    	; 0x13a <__bad_interrupt>
      ce:	00 00       	nop
      d0:	34 c0       	rjmp	.+104    	; 0x13a <__bad_interrupt>
      d2:	00 00       	nop
      d4:	32 c0       	rjmp	.+100    	; 0x13a <__bad_interrupt>
      d6:	00 00       	nop
      d8:	30 c0       	rjmp	.+96     	; 0x13a <__bad_interrupt>
      da:	00 00       	nop
      dc:	2e c0       	rjmp	.+92     	; 0x13a <__bad_interrupt>
      de:	00 00       	nop
      e0:	2c c0       	rjmp	.+88     	; 0x13a <__bad_interrupt>
      e2:	00 00       	nop
      e4:	33 0e       	add	r3, r19
      e6:	3a 0e       	add	r3, r26
      e8:	41 0e       	add	r4, r17
      ea:	48 0e       	add	r4, r24
      ec:	4f 0e       	add	r4, r31
      ee:	56 0e       	add	r5, r22
      f0:	5d 0e       	add	r5, r29
      f2:	64 0e       	add	r6, r20
      f4:	71 0e       	add	r7, r17
      f6:	7e 0e       	add	r7, r30

000000f8 <__ctors_end>:
      f8:	11 24       	eor	r1, r1
      fa:	1f be       	out	0x3f, r1	; 63
      fc:	cf ef       	ldi	r28, 0xFF	; 255
      fe:	d1 e2       	ldi	r29, 0x21	; 33
     100:	de bf       	out	0x3e, r29	; 62
     102:	cd bf       	out	0x3d, r28	; 61
     104:	00 e0       	ldi	r16, 0x00	; 0
     106:	0c bf       	out	0x3c, r16	; 60

00000108 <__do_copy_data>:
     108:	12 e0       	ldi	r17, 0x02	; 2
     10a:	a0 e0       	ldi	r26, 0x00	; 0
     10c:	b2 e0       	ldi	r27, 0x02	; 2
     10e:	ea eb       	ldi	r30, 0xBA	; 186
     110:	f1 e3       	ldi	r31, 0x31	; 49
     112:	00 e0       	ldi	r16, 0x00	; 0
     114:	0b bf       	out	0x3b, r16	; 59
     116:	02 c0       	rjmp	.+4      	; 0x11c <__do_copy_data+0x14>
     118:	07 90       	elpm	r0, Z+
     11a:	0d 92       	st	X+, r0
     11c:	a8 3a       	cpi	r26, 0xA8	; 168
     11e:	b1 07       	cpc	r27, r17
     120:	d9 f7       	brne	.-10     	; 0x118 <__do_copy_data+0x10>

00000122 <__do_clear_bss>:
     122:	22 e0       	ldi	r18, 0x02	; 2
     124:	a8 ea       	ldi	r26, 0xA8	; 168
     126:	b2 e0       	ldi	r27, 0x02	; 2
     128:	01 c0       	rjmp	.+2      	; 0x12c <.do_clear_bss_start>

0000012a <.do_clear_bss_loop>:
     12a:	1d 92       	st	X+, r1

0000012c <.do_clear_bss_start>:
     12c:	a8 3c       	cpi	r26, 0xC8	; 200
     12e:	b2 07       	cpc	r27, r18
     130:	e1 f7       	brne	.-8      	; 0x12a <.do_clear_bss_loop>
     132:	0e 94 fc 16 	call	0x2df8	; 0x2df8 <main>
     136:	0c 94 db 18 	jmp	0x31b6	; 0x31b6 <_exit>

0000013a <__bad_interrupt>:
     13a:	62 cf       	rjmp	.-316    	; 0x0 <__vectors>

0000013c <lcd_port_config>:
{
	// 176 pulses for 360 degrees rotation 2.045 degrees per count
	soft_right_2();  //Turn reverse soft right
	Degrees=Degrees*2;
	angle_rotate(Degrees);
}
     13c:	cf 93       	push	r28
     13e:	df 93       	push	r29
     140:	cd b7       	in	r28, 0x3d	; 61
     142:	de b7       	in	r29, 0x3e	; 62
     144:	87 e2       	ldi	r24, 0x27	; 39
     146:	90 e0       	ldi	r25, 0x00	; 0
     148:	27 e2       	ldi	r18, 0x27	; 39
     14a:	30 e0       	ldi	r19, 0x00	; 0
     14c:	f9 01       	movw	r30, r18
     14e:	20 81       	ld	r18, Z
     150:	27 6f       	ori	r18, 0xF7	; 247
     152:	fc 01       	movw	r30, r24
     154:	20 83       	st	Z, r18
     156:	88 e2       	ldi	r24, 0x28	; 40
     158:	90 e0       	ldi	r25, 0x00	; 0
     15a:	28 e2       	ldi	r18, 0x28	; 40
     15c:	30 e0       	ldi	r19, 0x00	; 0
     15e:	f9 01       	movw	r30, r18
     160:	20 81       	ld	r18, Z
     162:	28 70       	andi	r18, 0x08	; 8
     164:	fc 01       	movw	r30, r24
     166:	20 83       	st	Z, r18
     168:	df 91       	pop	r29
     16a:	cf 91       	pop	r28
     16c:	08 95       	ret

0000016e <lcd_set_4bit>:
     16e:	0f 93       	push	r16
     170:	1f 93       	push	r17
     172:	cf 93       	push	r28
     174:	df 93       	push	r29
     176:	cd b7       	in	r28, 0x3d	; 61
     178:	de b7       	in	r29, 0x3e	; 62
     17a:	c0 57       	subi	r28, 0x70	; 112
     17c:	d1 09       	sbc	r29, r1
     17e:	0f b6       	in	r0, 0x3f	; 63
     180:	f8 94       	cli
     182:	de bf       	out	0x3e, r29	; 62
     184:	0f be       	out	0x3f, r0	; 63
     186:	cd bf       	out	0x3d, r28	; 61
     188:	80 e0       	ldi	r24, 0x00	; 0
     18a:	90 e0       	ldi	r25, 0x00	; 0
     18c:	a0 e8       	ldi	r26, 0x80	; 128
     18e:	bf e3       	ldi	r27, 0x3F	; 63
     190:	89 83       	std	Y+1, r24	; 0x01
     192:	9a 83       	std	Y+2, r25	; 0x02
     194:	ab 83       	std	Y+3, r26	; 0x03
     196:	bc 83       	std	Y+4, r27	; 0x04
     198:	26 e6       	ldi	r18, 0x66	; 102
     19a:	36 e6       	ldi	r19, 0x66	; 102
     19c:	46 e6       	ldi	r20, 0x66	; 102
     19e:	55 e4       	ldi	r21, 0x45	; 69
     1a0:	69 81       	ldd	r22, Y+1	; 0x01
     1a2:	7a 81       	ldd	r23, Y+2	; 0x02
     1a4:	8b 81       	ldd	r24, Y+3	; 0x03
     1a6:	9c 81       	ldd	r25, Y+4	; 0x04
     1a8:	0e 94 63 18 	call	0x30c6	; 0x30c6 <__mulsf3>
     1ac:	dc 01       	movw	r26, r24
     1ae:	cb 01       	movw	r24, r22
     1b0:	8d 83       	std	Y+5, r24	; 0x05
     1b2:	9e 83       	std	Y+6, r25	; 0x06
     1b4:	af 83       	std	Y+7, r26	; 0x07
     1b6:	b8 87       	std	Y+8, r27	; 0x08
     1b8:	20 e0       	ldi	r18, 0x00	; 0
     1ba:	30 e0       	ldi	r19, 0x00	; 0
     1bc:	40 e8       	ldi	r20, 0x80	; 128
     1be:	5f e3       	ldi	r21, 0x3F	; 63
     1c0:	6d 81       	ldd	r22, Y+5	; 0x05
     1c2:	7e 81       	ldd	r23, Y+6	; 0x06
     1c4:	8f 81       	ldd	r24, Y+7	; 0x07
     1c6:	98 85       	ldd	r25, Y+8	; 0x08
     1c8:	0e 94 15 17 	call	0x2e2a	; 0x2e2a <__cmpsf2>
     1cc:	88 23       	and	r24, r24
     1ce:	2c f4       	brge	.+10     	; 0x1da <lcd_set_4bit+0x6c>
     1d0:	81 e0       	ldi	r24, 0x01	; 1
     1d2:	90 e0       	ldi	r25, 0x00	; 0
     1d4:	9a 87       	std	Y+10, r25	; 0x0a
     1d6:	89 87       	std	Y+9, r24	; 0x09
     1d8:	3f c0       	rjmp	.+126    	; 0x258 <lcd_set_4bit+0xea>
     1da:	20 e0       	ldi	r18, 0x00	; 0
     1dc:	3f ef       	ldi	r19, 0xFF	; 255
     1de:	4f e7       	ldi	r20, 0x7F	; 127
     1e0:	57 e4       	ldi	r21, 0x47	; 71
     1e2:	6d 81       	ldd	r22, Y+5	; 0x05
     1e4:	7e 81       	ldd	r23, Y+6	; 0x06
     1e6:	8f 81       	ldd	r24, Y+7	; 0x07
     1e8:	98 85       	ldd	r25, Y+8	; 0x08
     1ea:	0e 94 5f 18 	call	0x30be	; 0x30be <__gesf2>
     1ee:	18 16       	cp	r1, r24
     1f0:	4c f5       	brge	.+82     	; 0x244 <lcd_set_4bit+0xd6>
     1f2:	20 e0       	ldi	r18, 0x00	; 0
     1f4:	30 e0       	ldi	r19, 0x00	; 0
     1f6:	40 e2       	ldi	r20, 0x20	; 32
     1f8:	51 e4       	ldi	r21, 0x41	; 65
     1fa:	69 81       	ldd	r22, Y+1	; 0x01
     1fc:	7a 81       	ldd	r23, Y+2	; 0x02
     1fe:	8b 81       	ldd	r24, Y+3	; 0x03
     200:	9c 81       	ldd	r25, Y+4	; 0x04
     202:	0e 94 63 18 	call	0x30c6	; 0x30c6 <__mulsf3>
     206:	dc 01       	movw	r26, r24
     208:	cb 01       	movw	r24, r22
     20a:	bc 01       	movw	r22, r24
     20c:	cd 01       	movw	r24, r26
     20e:	0e 94 81 17 	call	0x2f02	; 0x2f02 <__fixunssfsi>
     212:	dc 01       	movw	r26, r24
     214:	cb 01       	movw	r24, r22
     216:	9a 87       	std	Y+10, r25	; 0x0a
     218:	89 87       	std	Y+9, r24	; 0x09
     21a:	0f c0       	rjmp	.+30     	; 0x23a <lcd_set_4bit+0xcc>
     21c:	80 e7       	ldi	r24, 0x70	; 112
     21e:	91 e0       	ldi	r25, 0x01	; 1
     220:	9c 87       	std	Y+12, r25	; 0x0c
     222:	8b 87       	std	Y+11, r24	; 0x0b
     224:	8b 85       	ldd	r24, Y+11	; 0x0b
     226:	9c 85       	ldd	r25, Y+12	; 0x0c
     228:	01 97       	sbiw	r24, 0x01	; 1
     22a:	f1 f7       	brne	.-4      	; 0x228 <lcd_set_4bit+0xba>
     22c:	9c 87       	std	Y+12, r25	; 0x0c
     22e:	8b 87       	std	Y+11, r24	; 0x0b
     230:	89 85       	ldd	r24, Y+9	; 0x09
     232:	9a 85       	ldd	r25, Y+10	; 0x0a
     234:	01 97       	sbiw	r24, 0x01	; 1
     236:	9a 87       	std	Y+10, r25	; 0x0a
     238:	89 87       	std	Y+9, r24	; 0x09
     23a:	89 85       	ldd	r24, Y+9	; 0x09
     23c:	9a 85       	ldd	r25, Y+10	; 0x0a
     23e:	00 97       	sbiw	r24, 0x00	; 0
     240:	69 f7       	brne	.-38     	; 0x21c <lcd_set_4bit+0xae>
     242:	14 c0       	rjmp	.+40     	; 0x26c <lcd_set_4bit+0xfe>
     244:	6d 81       	ldd	r22, Y+5	; 0x05
     246:	7e 81       	ldd	r23, Y+6	; 0x06
     248:	8f 81       	ldd	r24, Y+7	; 0x07
     24a:	98 85       	ldd	r25, Y+8	; 0x08
     24c:	0e 94 81 17 	call	0x2f02	; 0x2f02 <__fixunssfsi>
     250:	dc 01       	movw	r26, r24
     252:	cb 01       	movw	r24, r22
     254:	9a 87       	std	Y+10, r25	; 0x0a
     256:	89 87       	std	Y+9, r24	; 0x09
     258:	89 85       	ldd	r24, Y+9	; 0x09
     25a:	9a 85       	ldd	r25, Y+10	; 0x0a
     25c:	9e 87       	std	Y+14, r25	; 0x0e
     25e:	8d 87       	std	Y+13, r24	; 0x0d
     260:	8d 85       	ldd	r24, Y+13	; 0x0d
     262:	9e 85       	ldd	r25, Y+14	; 0x0e
     264:	01 97       	sbiw	r24, 0x01	; 1
     266:	f1 f7       	brne	.-4      	; 0x264 <lcd_set_4bit+0xf6>
     268:	9e 87       	std	Y+14, r25	; 0x0e
     26a:	8d 87       	std	Y+13, r24	; 0x0d
     26c:	88 e2       	ldi	r24, 0x28	; 40
     26e:	90 e0       	ldi	r25, 0x00	; 0
     270:	28 e2       	ldi	r18, 0x28	; 40
     272:	30 e0       	ldi	r19, 0x00	; 0
     274:	f9 01       	movw	r30, r18
     276:	20 81       	ld	r18, Z
     278:	2e 7f       	andi	r18, 0xFE	; 254
     27a:	fc 01       	movw	r30, r24
     27c:	20 83       	st	Z, r18
     27e:	88 e2       	ldi	r24, 0x28	; 40
     280:	90 e0       	ldi	r25, 0x00	; 0
     282:	28 e2       	ldi	r18, 0x28	; 40
     284:	30 e0       	ldi	r19, 0x00	; 0
     286:	f9 01       	movw	r30, r18
     288:	20 81       	ld	r18, Z
     28a:	2d 7f       	andi	r18, 0xFD	; 253
     28c:	fc 01       	movw	r30, r24
     28e:	20 83       	st	Z, r18
     290:	88 e2       	ldi	r24, 0x28	; 40
     292:	90 e0       	ldi	r25, 0x00	; 0
     294:	20 e3       	ldi	r18, 0x30	; 48
     296:	fc 01       	movw	r30, r24
     298:	20 83       	st	Z, r18
     29a:	88 e2       	ldi	r24, 0x28	; 40
     29c:	90 e0       	ldi	r25, 0x00	; 0
     29e:	28 e2       	ldi	r18, 0x28	; 40
     2a0:	30 e0       	ldi	r19, 0x00	; 0
     2a2:	f9 01       	movw	r30, r18
     2a4:	20 81       	ld	r18, Z
     2a6:	24 60       	ori	r18, 0x04	; 4
     2a8:	fc 01       	movw	r30, r24
     2aa:	20 83       	st	Z, r18
     2ac:	80 e0       	ldi	r24, 0x00	; 0
     2ae:	90 e0       	ldi	r25, 0x00	; 0
     2b0:	a0 ea       	ldi	r26, 0xA0	; 160
     2b2:	b0 e4       	ldi	r27, 0x40	; 64
     2b4:	8f 87       	std	Y+15, r24	; 0x0f
     2b6:	98 8b       	std	Y+16, r25	; 0x10
     2b8:	a9 8b       	std	Y+17, r26	; 0x11
     2ba:	ba 8b       	std	Y+18, r27	; 0x12
     2bc:	26 e6       	ldi	r18, 0x66	; 102
     2be:	36 e6       	ldi	r19, 0x66	; 102
     2c0:	46 e6       	ldi	r20, 0x66	; 102
     2c2:	55 e4       	ldi	r21, 0x45	; 69
     2c4:	6f 85       	ldd	r22, Y+15	; 0x0f
     2c6:	78 89       	ldd	r23, Y+16	; 0x10
     2c8:	89 89       	ldd	r24, Y+17	; 0x11
     2ca:	9a 89       	ldd	r25, Y+18	; 0x12
     2cc:	0e 94 63 18 	call	0x30c6	; 0x30c6 <__mulsf3>
     2d0:	dc 01       	movw	r26, r24
     2d2:	cb 01       	movw	r24, r22
     2d4:	8b 8b       	std	Y+19, r24	; 0x13
     2d6:	9c 8b       	std	Y+20, r25	; 0x14
     2d8:	ad 8b       	std	Y+21, r26	; 0x15
     2da:	be 8b       	std	Y+22, r27	; 0x16
     2dc:	20 e0       	ldi	r18, 0x00	; 0
     2de:	30 e0       	ldi	r19, 0x00	; 0
     2e0:	40 e8       	ldi	r20, 0x80	; 128
     2e2:	5f e3       	ldi	r21, 0x3F	; 63
     2e4:	6b 89       	ldd	r22, Y+19	; 0x13
     2e6:	7c 89       	ldd	r23, Y+20	; 0x14
     2e8:	8d 89       	ldd	r24, Y+21	; 0x15
     2ea:	9e 89       	ldd	r25, Y+22	; 0x16
     2ec:	0e 94 15 17 	call	0x2e2a	; 0x2e2a <__cmpsf2>
     2f0:	88 23       	and	r24, r24
     2f2:	2c f4       	brge	.+10     	; 0x2fe <lcd_set_4bit+0x190>
     2f4:	81 e0       	ldi	r24, 0x01	; 1
     2f6:	90 e0       	ldi	r25, 0x00	; 0
     2f8:	98 8f       	std	Y+24, r25	; 0x18
     2fa:	8f 8b       	std	Y+23, r24	; 0x17
     2fc:	3f c0       	rjmp	.+126    	; 0x37c <lcd_set_4bit+0x20e>
     2fe:	20 e0       	ldi	r18, 0x00	; 0
     300:	3f ef       	ldi	r19, 0xFF	; 255
     302:	4f e7       	ldi	r20, 0x7F	; 127
     304:	57 e4       	ldi	r21, 0x47	; 71
     306:	6b 89       	ldd	r22, Y+19	; 0x13
     308:	7c 89       	ldd	r23, Y+20	; 0x14
     30a:	8d 89       	ldd	r24, Y+21	; 0x15
     30c:	9e 89       	ldd	r25, Y+22	; 0x16
     30e:	0e 94 5f 18 	call	0x30be	; 0x30be <__gesf2>
     312:	18 16       	cp	r1, r24
     314:	4c f5       	brge	.+82     	; 0x368 <lcd_set_4bit+0x1fa>
     316:	20 e0       	ldi	r18, 0x00	; 0
     318:	30 e0       	ldi	r19, 0x00	; 0
     31a:	40 e2       	ldi	r20, 0x20	; 32
     31c:	51 e4       	ldi	r21, 0x41	; 65
     31e:	6f 85       	ldd	r22, Y+15	; 0x0f
     320:	78 89       	ldd	r23, Y+16	; 0x10
     322:	89 89       	ldd	r24, Y+17	; 0x11
     324:	9a 89       	ldd	r25, Y+18	; 0x12
     326:	0e 94 63 18 	call	0x30c6	; 0x30c6 <__mulsf3>
     32a:	dc 01       	movw	r26, r24
     32c:	cb 01       	movw	r24, r22
     32e:	bc 01       	movw	r22, r24
     330:	cd 01       	movw	r24, r26
     332:	0e 94 81 17 	call	0x2f02	; 0x2f02 <__fixunssfsi>
     336:	dc 01       	movw	r26, r24
     338:	cb 01       	movw	r24, r22
     33a:	98 8f       	std	Y+24, r25	; 0x18
     33c:	8f 8b       	std	Y+23, r24	; 0x17
     33e:	0f c0       	rjmp	.+30     	; 0x35e <lcd_set_4bit+0x1f0>
     340:	80 e7       	ldi	r24, 0x70	; 112
     342:	91 e0       	ldi	r25, 0x01	; 1
     344:	9a 8f       	std	Y+26, r25	; 0x1a
     346:	89 8f       	std	Y+25, r24	; 0x19
     348:	89 8d       	ldd	r24, Y+25	; 0x19
     34a:	9a 8d       	ldd	r25, Y+26	; 0x1a
     34c:	01 97       	sbiw	r24, 0x01	; 1
     34e:	f1 f7       	brne	.-4      	; 0x34c <lcd_set_4bit+0x1de>
     350:	9a 8f       	std	Y+26, r25	; 0x1a
     352:	89 8f       	std	Y+25, r24	; 0x19
     354:	8f 89       	ldd	r24, Y+23	; 0x17
     356:	98 8d       	ldd	r25, Y+24	; 0x18
     358:	01 97       	sbiw	r24, 0x01	; 1
     35a:	98 8f       	std	Y+24, r25	; 0x18
     35c:	8f 8b       	std	Y+23, r24	; 0x17
     35e:	8f 89       	ldd	r24, Y+23	; 0x17
     360:	98 8d       	ldd	r25, Y+24	; 0x18
     362:	00 97       	sbiw	r24, 0x00	; 0
     364:	69 f7       	brne	.-38     	; 0x340 <lcd_set_4bit+0x1d2>
     366:	14 c0       	rjmp	.+40     	; 0x390 <lcd_set_4bit+0x222>
     368:	6b 89       	ldd	r22, Y+19	; 0x13
     36a:	7c 89       	ldd	r23, Y+20	; 0x14
     36c:	8d 89       	ldd	r24, Y+21	; 0x15
     36e:	9e 89       	ldd	r25, Y+22	; 0x16
     370:	0e 94 81 17 	call	0x2f02	; 0x2f02 <__fixunssfsi>
     374:	dc 01       	movw	r26, r24
     376:	cb 01       	movw	r24, r22
     378:	98 8f       	std	Y+24, r25	; 0x18
     37a:	8f 8b       	std	Y+23, r24	; 0x17
     37c:	8f 89       	ldd	r24, Y+23	; 0x17
     37e:	98 8d       	ldd	r25, Y+24	; 0x18
     380:	9c 8f       	std	Y+28, r25	; 0x1c
     382:	8b 8f       	std	Y+27, r24	; 0x1b
     384:	8b 8d       	ldd	r24, Y+27	; 0x1b
     386:	9c 8d       	ldd	r25, Y+28	; 0x1c
     388:	01 97       	sbiw	r24, 0x01	; 1
     38a:	f1 f7       	brne	.-4      	; 0x388 <lcd_set_4bit+0x21a>
     38c:	9c 8f       	std	Y+28, r25	; 0x1c
     38e:	8b 8f       	std	Y+27, r24	; 0x1b
     390:	88 e2       	ldi	r24, 0x28	; 40
     392:	90 e0       	ldi	r25, 0x00	; 0
     394:	28 e2       	ldi	r18, 0x28	; 40
     396:	30 e0       	ldi	r19, 0x00	; 0
     398:	f9 01       	movw	r30, r18
     39a:	20 81       	ld	r18, Z
     39c:	2b 7f       	andi	r18, 0xFB	; 251
     39e:	fc 01       	movw	r30, r24
     3a0:	20 83       	st	Z, r18
     3a2:	80 e0       	ldi	r24, 0x00	; 0
     3a4:	90 e0       	ldi	r25, 0x00	; 0
     3a6:	a0 e8       	ldi	r26, 0x80	; 128
     3a8:	bf e3       	ldi	r27, 0x3F	; 63
     3aa:	8d 8f       	std	Y+29, r24	; 0x1d
     3ac:	9e 8f       	std	Y+30, r25	; 0x1e
     3ae:	af 8f       	std	Y+31, r26	; 0x1f
     3b0:	b8 a3       	std	Y+32, r27	; 0x20
     3b2:	26 e6       	ldi	r18, 0x66	; 102
     3b4:	36 e6       	ldi	r19, 0x66	; 102
     3b6:	46 e6       	ldi	r20, 0x66	; 102
     3b8:	55 e4       	ldi	r21, 0x45	; 69
     3ba:	6d 8d       	ldd	r22, Y+29	; 0x1d
     3bc:	7e 8d       	ldd	r23, Y+30	; 0x1e
     3be:	8f 8d       	ldd	r24, Y+31	; 0x1f
     3c0:	98 a1       	ldd	r25, Y+32	; 0x20
     3c2:	0e 94 63 18 	call	0x30c6	; 0x30c6 <__mulsf3>
     3c6:	dc 01       	movw	r26, r24
     3c8:	cb 01       	movw	r24, r22
     3ca:	89 a3       	std	Y+33, r24	; 0x21
     3cc:	9a a3       	std	Y+34, r25	; 0x22
     3ce:	ab a3       	std	Y+35, r26	; 0x23
     3d0:	bc a3       	std	Y+36, r27	; 0x24
     3d2:	20 e0       	ldi	r18, 0x00	; 0
     3d4:	30 e0       	ldi	r19, 0x00	; 0
     3d6:	40 e8       	ldi	r20, 0x80	; 128
     3d8:	5f e3       	ldi	r21, 0x3F	; 63
     3da:	69 a1       	ldd	r22, Y+33	; 0x21
     3dc:	7a a1       	ldd	r23, Y+34	; 0x22
     3de:	8b a1       	ldd	r24, Y+35	; 0x23
     3e0:	9c a1       	ldd	r25, Y+36	; 0x24
     3e2:	0e 94 15 17 	call	0x2e2a	; 0x2e2a <__cmpsf2>
     3e6:	88 23       	and	r24, r24
     3e8:	2c f4       	brge	.+10     	; 0x3f4 <lcd_set_4bit+0x286>
     3ea:	81 e0       	ldi	r24, 0x01	; 1
     3ec:	90 e0       	ldi	r25, 0x00	; 0
     3ee:	9e a3       	std	Y+38, r25	; 0x26
     3f0:	8d a3       	std	Y+37, r24	; 0x25
     3f2:	3f c0       	rjmp	.+126    	; 0x472 <lcd_set_4bit+0x304>
     3f4:	20 e0       	ldi	r18, 0x00	; 0
     3f6:	3f ef       	ldi	r19, 0xFF	; 255
     3f8:	4f e7       	ldi	r20, 0x7F	; 127
     3fa:	57 e4       	ldi	r21, 0x47	; 71
     3fc:	69 a1       	ldd	r22, Y+33	; 0x21
     3fe:	7a a1       	ldd	r23, Y+34	; 0x22
     400:	8b a1       	ldd	r24, Y+35	; 0x23
     402:	9c a1       	ldd	r25, Y+36	; 0x24
     404:	0e 94 5f 18 	call	0x30be	; 0x30be <__gesf2>
     408:	18 16       	cp	r1, r24
     40a:	4c f5       	brge	.+82     	; 0x45e <lcd_set_4bit+0x2f0>
     40c:	20 e0       	ldi	r18, 0x00	; 0
     40e:	30 e0       	ldi	r19, 0x00	; 0
     410:	40 e2       	ldi	r20, 0x20	; 32
     412:	51 e4       	ldi	r21, 0x41	; 65
     414:	6d 8d       	ldd	r22, Y+29	; 0x1d
     416:	7e 8d       	ldd	r23, Y+30	; 0x1e
     418:	8f 8d       	ldd	r24, Y+31	; 0x1f
     41a:	98 a1       	ldd	r25, Y+32	; 0x20
     41c:	0e 94 63 18 	call	0x30c6	; 0x30c6 <__mulsf3>
     420:	dc 01       	movw	r26, r24
     422:	cb 01       	movw	r24, r22
     424:	bc 01       	movw	r22, r24
     426:	cd 01       	movw	r24, r26
     428:	0e 94 81 17 	call	0x2f02	; 0x2f02 <__fixunssfsi>
     42c:	dc 01       	movw	r26, r24
     42e:	cb 01       	movw	r24, r22
     430:	9e a3       	std	Y+38, r25	; 0x26
     432:	8d a3       	std	Y+37, r24	; 0x25
     434:	0f c0       	rjmp	.+30     	; 0x454 <lcd_set_4bit+0x2e6>
     436:	80 e7       	ldi	r24, 0x70	; 112
     438:	91 e0       	ldi	r25, 0x01	; 1
     43a:	98 a7       	std	Y+40, r25	; 0x28
     43c:	8f a3       	std	Y+39, r24	; 0x27
     43e:	8f a1       	ldd	r24, Y+39	; 0x27
     440:	98 a5       	ldd	r25, Y+40	; 0x28
     442:	01 97       	sbiw	r24, 0x01	; 1
     444:	f1 f7       	brne	.-4      	; 0x442 <lcd_set_4bit+0x2d4>
     446:	98 a7       	std	Y+40, r25	; 0x28
     448:	8f a3       	std	Y+39, r24	; 0x27
     44a:	8d a1       	ldd	r24, Y+37	; 0x25
     44c:	9e a1       	ldd	r25, Y+38	; 0x26
     44e:	01 97       	sbiw	r24, 0x01	; 1
     450:	9e a3       	std	Y+38, r25	; 0x26
     452:	8d a3       	std	Y+37, r24	; 0x25
     454:	8d a1       	ldd	r24, Y+37	; 0x25
     456:	9e a1       	ldd	r25, Y+38	; 0x26
     458:	00 97       	sbiw	r24, 0x00	; 0
     45a:	69 f7       	brne	.-38     	; 0x436 <lcd_set_4bit+0x2c8>
     45c:	14 c0       	rjmp	.+40     	; 0x486 <lcd_set_4bit+0x318>
     45e:	69 a1       	ldd	r22, Y+33	; 0x21
     460:	7a a1       	ldd	r23, Y+34	; 0x22
     462:	8b a1       	ldd	r24, Y+35	; 0x23
     464:	9c a1       	ldd	r25, Y+36	; 0x24
     466:	0e 94 81 17 	call	0x2f02	; 0x2f02 <__fixunssfsi>
     46a:	dc 01       	movw	r26, r24
     46c:	cb 01       	movw	r24, r22
     46e:	9e a3       	std	Y+38, r25	; 0x26
     470:	8d a3       	std	Y+37, r24	; 0x25
     472:	8d a1       	ldd	r24, Y+37	; 0x25
     474:	9e a1       	ldd	r25, Y+38	; 0x26
     476:	9a a7       	std	Y+42, r25	; 0x2a
     478:	89 a7       	std	Y+41, r24	; 0x29
     47a:	89 a5       	ldd	r24, Y+41	; 0x29
     47c:	9a a5       	ldd	r25, Y+42	; 0x2a
     47e:	01 97       	sbiw	r24, 0x01	; 1
     480:	f1 f7       	brne	.-4      	; 0x47e <lcd_set_4bit+0x310>
     482:	9a a7       	std	Y+42, r25	; 0x2a
     484:	89 a7       	std	Y+41, r24	; 0x29
     486:	88 e2       	ldi	r24, 0x28	; 40
     488:	90 e0       	ldi	r25, 0x00	; 0
     48a:	28 e2       	ldi	r18, 0x28	; 40
     48c:	30 e0       	ldi	r19, 0x00	; 0
     48e:	f9 01       	movw	r30, r18
     490:	20 81       	ld	r18, Z
     492:	2e 7f       	andi	r18, 0xFE	; 254
     494:	fc 01       	movw	r30, r24
     496:	20 83       	st	Z, r18
     498:	88 e2       	ldi	r24, 0x28	; 40
     49a:	90 e0       	ldi	r25, 0x00	; 0
     49c:	28 e2       	ldi	r18, 0x28	; 40
     49e:	30 e0       	ldi	r19, 0x00	; 0
     4a0:	f9 01       	movw	r30, r18
     4a2:	20 81       	ld	r18, Z
     4a4:	2d 7f       	andi	r18, 0xFD	; 253
     4a6:	fc 01       	movw	r30, r24
     4a8:	20 83       	st	Z, r18
     4aa:	88 e2       	ldi	r24, 0x28	; 40
     4ac:	90 e0       	ldi	r25, 0x00	; 0
     4ae:	20 e3       	ldi	r18, 0x30	; 48
     4b0:	fc 01       	movw	r30, r24
     4b2:	20 83       	st	Z, r18
     4b4:	88 e2       	ldi	r24, 0x28	; 40
     4b6:	90 e0       	ldi	r25, 0x00	; 0
     4b8:	28 e2       	ldi	r18, 0x28	; 40
     4ba:	30 e0       	ldi	r19, 0x00	; 0
     4bc:	f9 01       	movw	r30, r18
     4be:	20 81       	ld	r18, Z
     4c0:	24 60       	ori	r18, 0x04	; 4
     4c2:	fc 01       	movw	r30, r24
     4c4:	20 83       	st	Z, r18
     4c6:	80 e0       	ldi	r24, 0x00	; 0
     4c8:	90 e0       	ldi	r25, 0x00	; 0
     4ca:	a0 ea       	ldi	r26, 0xA0	; 160
     4cc:	b0 e4       	ldi	r27, 0x40	; 64
     4ce:	8b a7       	std	Y+43, r24	; 0x2b
     4d0:	9c a7       	std	Y+44, r25	; 0x2c
     4d2:	ad a7       	std	Y+45, r26	; 0x2d
     4d4:	be a7       	std	Y+46, r27	; 0x2e
     4d6:	26 e6       	ldi	r18, 0x66	; 102
     4d8:	36 e6       	ldi	r19, 0x66	; 102
     4da:	46 e6       	ldi	r20, 0x66	; 102
     4dc:	55 e4       	ldi	r21, 0x45	; 69
     4de:	6b a5       	ldd	r22, Y+43	; 0x2b
     4e0:	7c a5       	ldd	r23, Y+44	; 0x2c
     4e2:	8d a5       	ldd	r24, Y+45	; 0x2d
     4e4:	9e a5       	ldd	r25, Y+46	; 0x2e
     4e6:	0e 94 63 18 	call	0x30c6	; 0x30c6 <__mulsf3>
     4ea:	dc 01       	movw	r26, r24
     4ec:	cb 01       	movw	r24, r22
     4ee:	8f a7       	std	Y+47, r24	; 0x2f
     4f0:	98 ab       	std	Y+48, r25	; 0x30
     4f2:	a9 ab       	std	Y+49, r26	; 0x31
     4f4:	ba ab       	std	Y+50, r27	; 0x32
     4f6:	20 e0       	ldi	r18, 0x00	; 0
     4f8:	30 e0       	ldi	r19, 0x00	; 0
     4fa:	40 e8       	ldi	r20, 0x80	; 128
     4fc:	5f e3       	ldi	r21, 0x3F	; 63
     4fe:	6f a5       	ldd	r22, Y+47	; 0x2f
     500:	78 a9       	ldd	r23, Y+48	; 0x30
     502:	89 a9       	ldd	r24, Y+49	; 0x31
     504:	9a a9       	ldd	r25, Y+50	; 0x32
     506:	0e 94 15 17 	call	0x2e2a	; 0x2e2a <__cmpsf2>
     50a:	88 23       	and	r24, r24
     50c:	2c f4       	brge	.+10     	; 0x518 <lcd_set_4bit+0x3aa>
     50e:	81 e0       	ldi	r24, 0x01	; 1
     510:	90 e0       	ldi	r25, 0x00	; 0
     512:	9c ab       	std	Y+52, r25	; 0x34
     514:	8b ab       	std	Y+51, r24	; 0x33
     516:	3f c0       	rjmp	.+126    	; 0x596 <lcd_set_4bit+0x428>
     518:	20 e0       	ldi	r18, 0x00	; 0
     51a:	3f ef       	ldi	r19, 0xFF	; 255
     51c:	4f e7       	ldi	r20, 0x7F	; 127
     51e:	57 e4       	ldi	r21, 0x47	; 71
     520:	6f a5       	ldd	r22, Y+47	; 0x2f
     522:	78 a9       	ldd	r23, Y+48	; 0x30
     524:	89 a9       	ldd	r24, Y+49	; 0x31
     526:	9a a9       	ldd	r25, Y+50	; 0x32
     528:	0e 94 5f 18 	call	0x30be	; 0x30be <__gesf2>
     52c:	18 16       	cp	r1, r24
     52e:	4c f5       	brge	.+82     	; 0x582 <lcd_set_4bit+0x414>
     530:	20 e0       	ldi	r18, 0x00	; 0
     532:	30 e0       	ldi	r19, 0x00	; 0
     534:	40 e2       	ldi	r20, 0x20	; 32
     536:	51 e4       	ldi	r21, 0x41	; 65
     538:	6b a5       	ldd	r22, Y+43	; 0x2b
     53a:	7c a5       	ldd	r23, Y+44	; 0x2c
     53c:	8d a5       	ldd	r24, Y+45	; 0x2d
     53e:	9e a5       	ldd	r25, Y+46	; 0x2e
     540:	0e 94 63 18 	call	0x30c6	; 0x30c6 <__mulsf3>
     544:	dc 01       	movw	r26, r24
     546:	cb 01       	movw	r24, r22
     548:	bc 01       	movw	r22, r24
     54a:	cd 01       	movw	r24, r26
     54c:	0e 94 81 17 	call	0x2f02	; 0x2f02 <__fixunssfsi>
     550:	dc 01       	movw	r26, r24
     552:	cb 01       	movw	r24, r22
     554:	9c ab       	std	Y+52, r25	; 0x34
     556:	8b ab       	std	Y+51, r24	; 0x33
     558:	0f c0       	rjmp	.+30     	; 0x578 <lcd_set_4bit+0x40a>
     55a:	80 e7       	ldi	r24, 0x70	; 112
     55c:	91 e0       	ldi	r25, 0x01	; 1
     55e:	9e ab       	std	Y+54, r25	; 0x36
     560:	8d ab       	std	Y+53, r24	; 0x35
     562:	8d a9       	ldd	r24, Y+53	; 0x35
     564:	9e a9       	ldd	r25, Y+54	; 0x36
     566:	01 97       	sbiw	r24, 0x01	; 1
     568:	f1 f7       	brne	.-4      	; 0x566 <lcd_set_4bit+0x3f8>
     56a:	9e ab       	std	Y+54, r25	; 0x36
     56c:	8d ab       	std	Y+53, r24	; 0x35
     56e:	8b a9       	ldd	r24, Y+51	; 0x33
     570:	9c a9       	ldd	r25, Y+52	; 0x34
     572:	01 97       	sbiw	r24, 0x01	; 1
     574:	9c ab       	std	Y+52, r25	; 0x34
     576:	8b ab       	std	Y+51, r24	; 0x33
     578:	8b a9       	ldd	r24, Y+51	; 0x33
     57a:	9c a9       	ldd	r25, Y+52	; 0x34
     57c:	00 97       	sbiw	r24, 0x00	; 0
     57e:	69 f7       	brne	.-38     	; 0x55a <lcd_set_4bit+0x3ec>
     580:	14 c0       	rjmp	.+40     	; 0x5aa <lcd_set_4bit+0x43c>
     582:	6f a5       	ldd	r22, Y+47	; 0x2f
     584:	78 a9       	ldd	r23, Y+48	; 0x30
     586:	89 a9       	ldd	r24, Y+49	; 0x31
     588:	9a a9       	ldd	r25, Y+50	; 0x32
     58a:	0e 94 81 17 	call	0x2f02	; 0x2f02 <__fixunssfsi>
     58e:	dc 01       	movw	r26, r24
     590:	cb 01       	movw	r24, r22
     592:	9c ab       	std	Y+52, r25	; 0x34
     594:	8b ab       	std	Y+51, r24	; 0x33
     596:	8b a9       	ldd	r24, Y+51	; 0x33
     598:	9c a9       	ldd	r25, Y+52	; 0x34
     59a:	98 af       	std	Y+56, r25	; 0x38
     59c:	8f ab       	std	Y+55, r24	; 0x37
     59e:	8f a9       	ldd	r24, Y+55	; 0x37
     5a0:	98 ad       	ldd	r25, Y+56	; 0x38
     5a2:	01 97       	sbiw	r24, 0x01	; 1
     5a4:	f1 f7       	brne	.-4      	; 0x5a2 <lcd_set_4bit+0x434>
     5a6:	98 af       	std	Y+56, r25	; 0x38
     5a8:	8f ab       	std	Y+55, r24	; 0x37
     5aa:	88 e2       	ldi	r24, 0x28	; 40
     5ac:	90 e0       	ldi	r25, 0x00	; 0
     5ae:	28 e2       	ldi	r18, 0x28	; 40
     5b0:	30 e0       	ldi	r19, 0x00	; 0
     5b2:	f9 01       	movw	r30, r18
     5b4:	20 81       	ld	r18, Z
     5b6:	2b 7f       	andi	r18, 0xFB	; 251
     5b8:	fc 01       	movw	r30, r24
     5ba:	20 83       	st	Z, r18
     5bc:	80 e0       	ldi	r24, 0x00	; 0
     5be:	90 e0       	ldi	r25, 0x00	; 0
     5c0:	a0 e8       	ldi	r26, 0x80	; 128
     5c2:	bf e3       	ldi	r27, 0x3F	; 63
     5c4:	89 af       	std	Y+57, r24	; 0x39
     5c6:	9a af       	std	Y+58, r25	; 0x3a
     5c8:	ab af       	std	Y+59, r26	; 0x3b
     5ca:	bc af       	std	Y+60, r27	; 0x3c
     5cc:	26 e6       	ldi	r18, 0x66	; 102
     5ce:	36 e6       	ldi	r19, 0x66	; 102
     5d0:	46 e6       	ldi	r20, 0x66	; 102
     5d2:	55 e4       	ldi	r21, 0x45	; 69
     5d4:	69 ad       	ldd	r22, Y+57	; 0x39
     5d6:	7a ad       	ldd	r23, Y+58	; 0x3a
     5d8:	8b ad       	ldd	r24, Y+59	; 0x3b
     5da:	9c ad       	ldd	r25, Y+60	; 0x3c
     5dc:	0e 94 63 18 	call	0x30c6	; 0x30c6 <__mulsf3>
     5e0:	dc 01       	movw	r26, r24
     5e2:	cb 01       	movw	r24, r22
     5e4:	9e 01       	movw	r18, r28
     5e6:	23 5c       	subi	r18, 0xC3	; 195
     5e8:	3f 4f       	sbci	r19, 0xFF	; 255
     5ea:	f9 01       	movw	r30, r18
     5ec:	80 83       	st	Z, r24
     5ee:	91 83       	std	Z+1, r25	; 0x01
     5f0:	a2 83       	std	Z+2, r26	; 0x02
     5f2:	b3 83       	std	Z+3, r27	; 0x03
     5f4:	20 e0       	ldi	r18, 0x00	; 0
     5f6:	30 e0       	ldi	r19, 0x00	; 0
     5f8:	40 e8       	ldi	r20, 0x80	; 128
     5fa:	5f e3       	ldi	r21, 0x3F	; 63
     5fc:	ce 01       	movw	r24, r28
     5fe:	cd 96       	adiw	r24, 0x3d	; 61
     600:	fc 01       	movw	r30, r24
     602:	60 81       	ld	r22, Z
     604:	71 81       	ldd	r23, Z+1	; 0x01
     606:	82 81       	ldd	r24, Z+2	; 0x02
     608:	93 81       	ldd	r25, Z+3	; 0x03
     60a:	0e 94 15 17 	call	0x2e2a	; 0x2e2a <__cmpsf2>
     60e:	88 23       	and	r24, r24
     610:	4c f4       	brge	.+18     	; 0x624 <lcd_set_4bit+0x4b6>
     612:	ce 01       	movw	r24, r28
     614:	8f 5b       	subi	r24, 0xBF	; 191
     616:	9f 4f       	sbci	r25, 0xFF	; 255
     618:	21 e0       	ldi	r18, 0x01	; 1
     61a:	30 e0       	ldi	r19, 0x00	; 0
     61c:	fc 01       	movw	r30, r24
     61e:	31 83       	std	Z+1, r19	; 0x01
     620:	20 83       	st	Z, r18
     622:	67 c0       	rjmp	.+206    	; 0x6f2 <lcd_set_4bit+0x584>
     624:	20 e0       	ldi	r18, 0x00	; 0
     626:	3f ef       	ldi	r19, 0xFF	; 255
     628:	4f e7       	ldi	r20, 0x7F	; 127
     62a:	57 e4       	ldi	r21, 0x47	; 71
     62c:	ce 01       	movw	r24, r28
     62e:	cd 96       	adiw	r24, 0x3d	; 61
     630:	fc 01       	movw	r30, r24
     632:	60 81       	ld	r22, Z
     634:	71 81       	ldd	r23, Z+1	; 0x01
     636:	82 81       	ldd	r24, Z+2	; 0x02
     638:	93 81       	ldd	r25, Z+3	; 0x03
     63a:	0e 94 5f 18 	call	0x30be	; 0x30be <__gesf2>
     63e:	18 16       	cp	r1, r24
     640:	0c f0       	brlt	.+2      	; 0x644 <lcd_set_4bit+0x4d6>
     642:	46 c0       	rjmp	.+140    	; 0x6d0 <lcd_set_4bit+0x562>
     644:	20 e0       	ldi	r18, 0x00	; 0
     646:	30 e0       	ldi	r19, 0x00	; 0
     648:	40 e2       	ldi	r20, 0x20	; 32
     64a:	51 e4       	ldi	r21, 0x41	; 65
     64c:	69 ad       	ldd	r22, Y+57	; 0x39
     64e:	7a ad       	ldd	r23, Y+58	; 0x3a
     650:	8b ad       	ldd	r24, Y+59	; 0x3b
     652:	9c ad       	ldd	r25, Y+60	; 0x3c
     654:	0e 94 63 18 	call	0x30c6	; 0x30c6 <__mulsf3>
     658:	dc 01       	movw	r26, r24
     65a:	cb 01       	movw	r24, r22
     65c:	8e 01       	movw	r16, r28
     65e:	0f 5b       	subi	r16, 0xBF	; 191
     660:	1f 4f       	sbci	r17, 0xFF	; 255
     662:	bc 01       	movw	r22, r24
     664:	cd 01       	movw	r24, r26
     666:	0e 94 81 17 	call	0x2f02	; 0x2f02 <__fixunssfsi>
     66a:	dc 01       	movw	r26, r24
     66c:	cb 01       	movw	r24, r22
     66e:	f8 01       	movw	r30, r16
     670:	91 83       	std	Z+1, r25	; 0x01
     672:	80 83       	st	Z, r24
     674:	24 c0       	rjmp	.+72     	; 0x6be <lcd_set_4bit+0x550>
     676:	ce 01       	movw	r24, r28
     678:	8d 5b       	subi	r24, 0xBD	; 189
     67a:	9f 4f       	sbci	r25, 0xFF	; 255
     67c:	20 e7       	ldi	r18, 0x70	; 112
     67e:	31 e0       	ldi	r19, 0x01	; 1
     680:	fc 01       	movw	r30, r24
     682:	31 83       	std	Z+1, r19	; 0x01
     684:	20 83       	st	Z, r18
     686:	ce 01       	movw	r24, r28
     688:	8d 5b       	subi	r24, 0xBD	; 189
     68a:	9f 4f       	sbci	r25, 0xFF	; 255
     68c:	fc 01       	movw	r30, r24
     68e:	80 81       	ld	r24, Z
     690:	91 81       	ldd	r25, Z+1	; 0x01
     692:	01 97       	sbiw	r24, 0x01	; 1
     694:	f1 f7       	brne	.-4      	; 0x692 <lcd_set_4bit+0x524>
     696:	9e 01       	movw	r18, r28
     698:	2d 5b       	subi	r18, 0xBD	; 189
     69a:	3f 4f       	sbci	r19, 0xFF	; 255
     69c:	f9 01       	movw	r30, r18
     69e:	91 83       	std	Z+1, r25	; 0x01
     6a0:	80 83       	st	Z, r24
     6a2:	ce 01       	movw	r24, r28
     6a4:	8f 5b       	subi	r24, 0xBF	; 191
     6a6:	9f 4f       	sbci	r25, 0xFF	; 255
     6a8:	9e 01       	movw	r18, r28
     6aa:	2f 5b       	subi	r18, 0xBF	; 191
     6ac:	3f 4f       	sbci	r19, 0xFF	; 255
     6ae:	f9 01       	movw	r30, r18
     6b0:	20 81       	ld	r18, Z
     6b2:	31 81       	ldd	r19, Z+1	; 0x01
     6b4:	21 50       	subi	r18, 0x01	; 1
     6b6:	31 09       	sbc	r19, r1
     6b8:	fc 01       	movw	r30, r24
     6ba:	31 83       	std	Z+1, r19	; 0x01
     6bc:	20 83       	st	Z, r18
     6be:	ce 01       	movw	r24, r28
     6c0:	8f 5b       	subi	r24, 0xBF	; 191
     6c2:	9f 4f       	sbci	r25, 0xFF	; 255
     6c4:	fc 01       	movw	r30, r24
     6c6:	80 81       	ld	r24, Z
     6c8:	91 81       	ldd	r25, Z+1	; 0x01
     6ca:	00 97       	sbiw	r24, 0x00	; 0
     6cc:	a1 f6       	brne	.-88     	; 0x676 <lcd_set_4bit+0x508>
     6ce:	2b c0       	rjmp	.+86     	; 0x726 <lcd_set_4bit+0x5b8>
     6d0:	8e 01       	movw	r16, r28
     6d2:	0f 5b       	subi	r16, 0xBF	; 191
     6d4:	1f 4f       	sbci	r17, 0xFF	; 255
     6d6:	ce 01       	movw	r24, r28
     6d8:	cd 96       	adiw	r24, 0x3d	; 61
     6da:	fc 01       	movw	r30, r24
     6dc:	60 81       	ld	r22, Z
     6de:	71 81       	ldd	r23, Z+1	; 0x01
     6e0:	82 81       	ldd	r24, Z+2	; 0x02
     6e2:	93 81       	ldd	r25, Z+3	; 0x03
     6e4:	0e 94 81 17 	call	0x2f02	; 0x2f02 <__fixunssfsi>
     6e8:	dc 01       	movw	r26, r24
     6ea:	cb 01       	movw	r24, r22
     6ec:	f8 01       	movw	r30, r16
     6ee:	91 83       	std	Z+1, r25	; 0x01
     6f0:	80 83       	st	Z, r24
     6f2:	ce 01       	movw	r24, r28
     6f4:	8b 5b       	subi	r24, 0xBB	; 187
     6f6:	9f 4f       	sbci	r25, 0xFF	; 255
     6f8:	9e 01       	movw	r18, r28
     6fa:	2f 5b       	subi	r18, 0xBF	; 191
     6fc:	3f 4f       	sbci	r19, 0xFF	; 255
     6fe:	f9 01       	movw	r30, r18
     700:	20 81       	ld	r18, Z
     702:	31 81       	ldd	r19, Z+1	; 0x01
     704:	fc 01       	movw	r30, r24
     706:	31 83       	std	Z+1, r19	; 0x01
     708:	20 83       	st	Z, r18
     70a:	ce 01       	movw	r24, r28
     70c:	8b 5b       	subi	r24, 0xBB	; 187
     70e:	9f 4f       	sbci	r25, 0xFF	; 255
     710:	fc 01       	movw	r30, r24
     712:	80 81       	ld	r24, Z
     714:	91 81       	ldd	r25, Z+1	; 0x01
     716:	01 97       	sbiw	r24, 0x01	; 1
     718:	f1 f7       	brne	.-4      	; 0x716 <lcd_set_4bit+0x5a8>
     71a:	9e 01       	movw	r18, r28
     71c:	2b 5b       	subi	r18, 0xBB	; 187
     71e:	3f 4f       	sbci	r19, 0xFF	; 255
     720:	f9 01       	movw	r30, r18
     722:	91 83       	std	Z+1, r25	; 0x01
     724:	80 83       	st	Z, r24
     726:	88 e2       	ldi	r24, 0x28	; 40
     728:	90 e0       	ldi	r25, 0x00	; 0
     72a:	28 e2       	ldi	r18, 0x28	; 40
     72c:	30 e0       	ldi	r19, 0x00	; 0
     72e:	f9 01       	movw	r30, r18
     730:	20 81       	ld	r18, Z
     732:	2e 7f       	andi	r18, 0xFE	; 254
     734:	fc 01       	movw	r30, r24
     736:	20 83       	st	Z, r18
     738:	88 e2       	ldi	r24, 0x28	; 40
     73a:	90 e0       	ldi	r25, 0x00	; 0
     73c:	28 e2       	ldi	r18, 0x28	; 40
     73e:	30 e0       	ldi	r19, 0x00	; 0
     740:	f9 01       	movw	r30, r18
     742:	20 81       	ld	r18, Z
     744:	2d 7f       	andi	r18, 0xFD	; 253
     746:	fc 01       	movw	r30, r24
     748:	20 83       	st	Z, r18
     74a:	88 e2       	ldi	r24, 0x28	; 40
     74c:	90 e0       	ldi	r25, 0x00	; 0
     74e:	20 e3       	ldi	r18, 0x30	; 48
     750:	fc 01       	movw	r30, r24
     752:	20 83       	st	Z, r18
     754:	88 e2       	ldi	r24, 0x28	; 40
     756:	90 e0       	ldi	r25, 0x00	; 0
     758:	28 e2       	ldi	r18, 0x28	; 40
     75a:	30 e0       	ldi	r19, 0x00	; 0
     75c:	f9 01       	movw	r30, r18
     75e:	20 81       	ld	r18, Z
     760:	24 60       	ori	r18, 0x04	; 4
     762:	fc 01       	movw	r30, r24
     764:	20 83       	st	Z, r18
     766:	9e 01       	movw	r18, r28
     768:	29 5b       	subi	r18, 0xB9	; 185
     76a:	3f 4f       	sbci	r19, 0xFF	; 255
     76c:	80 e0       	ldi	r24, 0x00	; 0
     76e:	90 e0       	ldi	r25, 0x00	; 0
     770:	a0 ea       	ldi	r26, 0xA0	; 160
     772:	b0 e4       	ldi	r27, 0x40	; 64
     774:	f9 01       	movw	r30, r18
     776:	80 83       	st	Z, r24
     778:	91 83       	std	Z+1, r25	; 0x01
     77a:	a2 83       	std	Z+2, r26	; 0x02
     77c:	b3 83       	std	Z+3, r27	; 0x03
     77e:	8e 01       	movw	r16, r28
     780:	05 5b       	subi	r16, 0xB5	; 181
     782:	1f 4f       	sbci	r17, 0xFF	; 255
     784:	ce 01       	movw	r24, r28
     786:	89 5b       	subi	r24, 0xB9	; 185
     788:	9f 4f       	sbci	r25, 0xFF	; 255
     78a:	26 e6       	ldi	r18, 0x66	; 102
     78c:	36 e6       	ldi	r19, 0x66	; 102
     78e:	46 e6       	ldi	r20, 0x66	; 102
     790:	55 e4       	ldi	r21, 0x45	; 69
     792:	fc 01       	movw	r30, r24
     794:	60 81       	ld	r22, Z
     796:	71 81       	ldd	r23, Z+1	; 0x01
     798:	82 81       	ldd	r24, Z+2	; 0x02
     79a:	93 81       	ldd	r25, Z+3	; 0x03
     79c:	0e 94 63 18 	call	0x30c6	; 0x30c6 <__mulsf3>
     7a0:	dc 01       	movw	r26, r24
     7a2:	cb 01       	movw	r24, r22
     7a4:	f8 01       	movw	r30, r16
     7a6:	80 83       	st	Z, r24
     7a8:	91 83       	std	Z+1, r25	; 0x01
     7aa:	a2 83       	std	Z+2, r26	; 0x02
     7ac:	b3 83       	std	Z+3, r27	; 0x03
     7ae:	ce 01       	movw	r24, r28
     7b0:	85 5b       	subi	r24, 0xB5	; 181
     7b2:	9f 4f       	sbci	r25, 0xFF	; 255
     7b4:	20 e0       	ldi	r18, 0x00	; 0
     7b6:	30 e0       	ldi	r19, 0x00	; 0
     7b8:	40 e8       	ldi	r20, 0x80	; 128
     7ba:	5f e3       	ldi	r21, 0x3F	; 63
     7bc:	fc 01       	movw	r30, r24
     7be:	60 81       	ld	r22, Z
     7c0:	71 81       	ldd	r23, Z+1	; 0x01
     7c2:	82 81       	ldd	r24, Z+2	; 0x02
     7c4:	93 81       	ldd	r25, Z+3	; 0x03
     7c6:	0e 94 15 17 	call	0x2e2a	; 0x2e2a <__cmpsf2>
     7ca:	88 23       	and	r24, r24
     7cc:	4c f4       	brge	.+18     	; 0x7e0 <lcd_set_4bit+0x672>
     7ce:	ce 01       	movw	r24, r28
     7d0:	81 5b       	subi	r24, 0xB1	; 177
     7d2:	9f 4f       	sbci	r25, 0xFF	; 255
     7d4:	21 e0       	ldi	r18, 0x01	; 1
     7d6:	30 e0       	ldi	r19, 0x00	; 0
     7d8:	fc 01       	movw	r30, r24
     7da:	31 83       	std	Z+1, r19	; 0x01
     7dc:	20 83       	st	Z, r18
     7de:	6d c0       	rjmp	.+218    	; 0x8ba <lcd_set_4bit+0x74c>
     7e0:	ce 01       	movw	r24, r28
     7e2:	85 5b       	subi	r24, 0xB5	; 181
     7e4:	9f 4f       	sbci	r25, 0xFF	; 255
     7e6:	20 e0       	ldi	r18, 0x00	; 0
     7e8:	3f ef       	ldi	r19, 0xFF	; 255
     7ea:	4f e7       	ldi	r20, 0x7F	; 127
     7ec:	57 e4       	ldi	r21, 0x47	; 71
     7ee:	fc 01       	movw	r30, r24
     7f0:	60 81       	ld	r22, Z
     7f2:	71 81       	ldd	r23, Z+1	; 0x01
     7f4:	82 81       	ldd	r24, Z+2	; 0x02
     7f6:	93 81       	ldd	r25, Z+3	; 0x03
     7f8:	0e 94 5f 18 	call	0x30be	; 0x30be <__gesf2>
     7fc:	18 16       	cp	r1, r24
     7fe:	0c f0       	brlt	.+2      	; 0x802 <lcd_set_4bit+0x694>
     800:	4a c0       	rjmp	.+148    	; 0x896 <lcd_set_4bit+0x728>
     802:	ce 01       	movw	r24, r28
     804:	89 5b       	subi	r24, 0xB9	; 185
     806:	9f 4f       	sbci	r25, 0xFF	; 255
     808:	20 e0       	ldi	r18, 0x00	; 0
     80a:	30 e0       	ldi	r19, 0x00	; 0
     80c:	40 e2       	ldi	r20, 0x20	; 32
     80e:	51 e4       	ldi	r21, 0x41	; 65
     810:	fc 01       	movw	r30, r24
     812:	60 81       	ld	r22, Z
     814:	71 81       	ldd	r23, Z+1	; 0x01
     816:	82 81       	ldd	r24, Z+2	; 0x02
     818:	93 81       	ldd	r25, Z+3	; 0x03
     81a:	0e 94 63 18 	call	0x30c6	; 0x30c6 <__mulsf3>
     81e:	dc 01       	movw	r26, r24
     820:	cb 01       	movw	r24, r22
     822:	8e 01       	movw	r16, r28
     824:	01 5b       	subi	r16, 0xB1	; 177
     826:	1f 4f       	sbci	r17, 0xFF	; 255
     828:	bc 01       	movw	r22, r24
     82a:	cd 01       	movw	r24, r26
     82c:	0e 94 81 17 	call	0x2f02	; 0x2f02 <__fixunssfsi>
     830:	dc 01       	movw	r26, r24
     832:	cb 01       	movw	r24, r22
     834:	f8 01       	movw	r30, r16
     836:	91 83       	std	Z+1, r25	; 0x01
     838:	80 83       	st	Z, r24
     83a:	24 c0       	rjmp	.+72     	; 0x884 <lcd_set_4bit+0x716>
     83c:	ce 01       	movw	r24, r28
     83e:	8f 5a       	subi	r24, 0xAF	; 175
     840:	9f 4f       	sbci	r25, 0xFF	; 255
     842:	20 e7       	ldi	r18, 0x70	; 112
     844:	31 e0       	ldi	r19, 0x01	; 1
     846:	fc 01       	movw	r30, r24
     848:	31 83       	std	Z+1, r19	; 0x01
     84a:	20 83       	st	Z, r18
     84c:	ce 01       	movw	r24, r28
     84e:	8f 5a       	subi	r24, 0xAF	; 175
     850:	9f 4f       	sbci	r25, 0xFF	; 255
     852:	fc 01       	movw	r30, r24
     854:	80 81       	ld	r24, Z
     856:	91 81       	ldd	r25, Z+1	; 0x01
     858:	01 97       	sbiw	r24, 0x01	; 1
     85a:	f1 f7       	brne	.-4      	; 0x858 <lcd_set_4bit+0x6ea>
     85c:	9e 01       	movw	r18, r28
     85e:	2f 5a       	subi	r18, 0xAF	; 175
     860:	3f 4f       	sbci	r19, 0xFF	; 255
     862:	f9 01       	movw	r30, r18
     864:	91 83       	std	Z+1, r25	; 0x01
     866:	80 83       	st	Z, r24
     868:	ce 01       	movw	r24, r28
     86a:	81 5b       	subi	r24, 0xB1	; 177
     86c:	9f 4f       	sbci	r25, 0xFF	; 255
     86e:	9e 01       	movw	r18, r28
     870:	21 5b       	subi	r18, 0xB1	; 177
     872:	3f 4f       	sbci	r19, 0xFF	; 255
     874:	f9 01       	movw	r30, r18
     876:	20 81       	ld	r18, Z
     878:	31 81       	ldd	r19, Z+1	; 0x01
     87a:	21 50       	subi	r18, 0x01	; 1
     87c:	31 09       	sbc	r19, r1
     87e:	fc 01       	movw	r30, r24
     880:	31 83       	std	Z+1, r19	; 0x01
     882:	20 83       	st	Z, r18
     884:	ce 01       	movw	r24, r28
     886:	81 5b       	subi	r24, 0xB1	; 177
     888:	9f 4f       	sbci	r25, 0xFF	; 255
     88a:	fc 01       	movw	r30, r24
     88c:	80 81       	ld	r24, Z
     88e:	91 81       	ldd	r25, Z+1	; 0x01
     890:	00 97       	sbiw	r24, 0x00	; 0
     892:	a1 f6       	brne	.-88     	; 0x83c <lcd_set_4bit+0x6ce>
     894:	2c c0       	rjmp	.+88     	; 0x8ee <lcd_set_4bit+0x780>
     896:	8e 01       	movw	r16, r28
     898:	01 5b       	subi	r16, 0xB1	; 177
     89a:	1f 4f       	sbci	r17, 0xFF	; 255
     89c:	ce 01       	movw	r24, r28
     89e:	85 5b       	subi	r24, 0xB5	; 181
     8a0:	9f 4f       	sbci	r25, 0xFF	; 255
     8a2:	fc 01       	movw	r30, r24
     8a4:	60 81       	ld	r22, Z
     8a6:	71 81       	ldd	r23, Z+1	; 0x01
     8a8:	82 81       	ldd	r24, Z+2	; 0x02
     8aa:	93 81       	ldd	r25, Z+3	; 0x03
     8ac:	0e 94 81 17 	call	0x2f02	; 0x2f02 <__fixunssfsi>
     8b0:	dc 01       	movw	r26, r24
     8b2:	cb 01       	movw	r24, r22
     8b4:	f8 01       	movw	r30, r16
     8b6:	91 83       	std	Z+1, r25	; 0x01
     8b8:	80 83       	st	Z, r24
     8ba:	ce 01       	movw	r24, r28
     8bc:	8d 5a       	subi	r24, 0xAD	; 173
     8be:	9f 4f       	sbci	r25, 0xFF	; 255
     8c0:	9e 01       	movw	r18, r28
     8c2:	21 5b       	subi	r18, 0xB1	; 177
     8c4:	3f 4f       	sbci	r19, 0xFF	; 255
     8c6:	f9 01       	movw	r30, r18
     8c8:	20 81       	ld	r18, Z
     8ca:	31 81       	ldd	r19, Z+1	; 0x01
     8cc:	fc 01       	movw	r30, r24
     8ce:	31 83       	std	Z+1, r19	; 0x01
     8d0:	20 83       	st	Z, r18
     8d2:	ce 01       	movw	r24, r28
     8d4:	8d 5a       	subi	r24, 0xAD	; 173
     8d6:	9f 4f       	sbci	r25, 0xFF	; 255
     8d8:	fc 01       	movw	r30, r24
     8da:	80 81       	ld	r24, Z
     8dc:	91 81       	ldd	r25, Z+1	; 0x01
     8de:	01 97       	sbiw	r24, 0x01	; 1
     8e0:	f1 f7       	brne	.-4      	; 0x8de <lcd_set_4bit+0x770>
     8e2:	9e 01       	movw	r18, r28
     8e4:	2d 5a       	subi	r18, 0xAD	; 173
     8e6:	3f 4f       	sbci	r19, 0xFF	; 255
     8e8:	f9 01       	movw	r30, r18
     8ea:	91 83       	std	Z+1, r25	; 0x01
     8ec:	80 83       	st	Z, r24
     8ee:	88 e2       	ldi	r24, 0x28	; 40
     8f0:	90 e0       	ldi	r25, 0x00	; 0
     8f2:	28 e2       	ldi	r18, 0x28	; 40
     8f4:	30 e0       	ldi	r19, 0x00	; 0
     8f6:	f9 01       	movw	r30, r18
     8f8:	20 81       	ld	r18, Z
     8fa:	2b 7f       	andi	r18, 0xFB	; 251
     8fc:	fc 01       	movw	r30, r24
     8fe:	20 83       	st	Z, r18
     900:	9e 01       	movw	r18, r28
     902:	2b 5a       	subi	r18, 0xAB	; 171
     904:	3f 4f       	sbci	r19, 0xFF	; 255
     906:	80 e0       	ldi	r24, 0x00	; 0
     908:	90 e0       	ldi	r25, 0x00	; 0
     90a:	a0 e8       	ldi	r26, 0x80	; 128
     90c:	bf e3       	ldi	r27, 0x3F	; 63
     90e:	f9 01       	movw	r30, r18
     910:	80 83       	st	Z, r24
     912:	91 83       	std	Z+1, r25	; 0x01
     914:	a2 83       	std	Z+2, r26	; 0x02
     916:	b3 83       	std	Z+3, r27	; 0x03
     918:	8e 01       	movw	r16, r28
     91a:	07 5a       	subi	r16, 0xA7	; 167
     91c:	1f 4f       	sbci	r17, 0xFF	; 255
     91e:	ce 01       	movw	r24, r28
     920:	8b 5a       	subi	r24, 0xAB	; 171
     922:	9f 4f       	sbci	r25, 0xFF	; 255
     924:	26 e6       	ldi	r18, 0x66	; 102
     926:	36 e6       	ldi	r19, 0x66	; 102
     928:	46 e6       	ldi	r20, 0x66	; 102
     92a:	55 e4       	ldi	r21, 0x45	; 69
     92c:	fc 01       	movw	r30, r24
     92e:	60 81       	ld	r22, Z
     930:	71 81       	ldd	r23, Z+1	; 0x01
     932:	82 81       	ldd	r24, Z+2	; 0x02
     934:	93 81       	ldd	r25, Z+3	; 0x03
     936:	0e 94 63 18 	call	0x30c6	; 0x30c6 <__mulsf3>
     93a:	dc 01       	movw	r26, r24
     93c:	cb 01       	movw	r24, r22
     93e:	f8 01       	movw	r30, r16
     940:	80 83       	st	Z, r24
     942:	91 83       	std	Z+1, r25	; 0x01
     944:	a2 83       	std	Z+2, r26	; 0x02
     946:	b3 83       	std	Z+3, r27	; 0x03
     948:	ce 01       	movw	r24, r28
     94a:	87 5a       	subi	r24, 0xA7	; 167
     94c:	9f 4f       	sbci	r25, 0xFF	; 255
     94e:	20 e0       	ldi	r18, 0x00	; 0
     950:	30 e0       	ldi	r19, 0x00	; 0
     952:	40 e8       	ldi	r20, 0x80	; 128
     954:	5f e3       	ldi	r21, 0x3F	; 63
     956:	fc 01       	movw	r30, r24
     958:	60 81       	ld	r22, Z
     95a:	71 81       	ldd	r23, Z+1	; 0x01
     95c:	82 81       	ldd	r24, Z+2	; 0x02
     95e:	93 81       	ldd	r25, Z+3	; 0x03
     960:	0e 94 15 17 	call	0x2e2a	; 0x2e2a <__cmpsf2>
     964:	88 23       	and	r24, r24
     966:	4c f4       	brge	.+18     	; 0x97a <lcd_set_4bit+0x80c>
     968:	ce 01       	movw	r24, r28
     96a:	83 5a       	subi	r24, 0xA3	; 163
     96c:	9f 4f       	sbci	r25, 0xFF	; 255
     96e:	21 e0       	ldi	r18, 0x01	; 1
     970:	30 e0       	ldi	r19, 0x00	; 0
     972:	fc 01       	movw	r30, r24
     974:	31 83       	std	Z+1, r19	; 0x01
     976:	20 83       	st	Z, r18
     978:	6d c0       	rjmp	.+218    	; 0xa54 <lcd_set_4bit+0x8e6>
     97a:	ce 01       	movw	r24, r28
     97c:	87 5a       	subi	r24, 0xA7	; 167
     97e:	9f 4f       	sbci	r25, 0xFF	; 255
     980:	20 e0       	ldi	r18, 0x00	; 0
     982:	3f ef       	ldi	r19, 0xFF	; 255
     984:	4f e7       	ldi	r20, 0x7F	; 127
     986:	57 e4       	ldi	r21, 0x47	; 71
     988:	fc 01       	movw	r30, r24
     98a:	60 81       	ld	r22, Z
     98c:	71 81       	ldd	r23, Z+1	; 0x01
     98e:	82 81       	ldd	r24, Z+2	; 0x02
     990:	93 81       	ldd	r25, Z+3	; 0x03
     992:	0e 94 5f 18 	call	0x30be	; 0x30be <__gesf2>
     996:	18 16       	cp	r1, r24
     998:	0c f0       	brlt	.+2      	; 0x99c <lcd_set_4bit+0x82e>
     99a:	4a c0       	rjmp	.+148    	; 0xa30 <lcd_set_4bit+0x8c2>
     99c:	ce 01       	movw	r24, r28
     99e:	8b 5a       	subi	r24, 0xAB	; 171
     9a0:	9f 4f       	sbci	r25, 0xFF	; 255
     9a2:	20 e0       	ldi	r18, 0x00	; 0
     9a4:	30 e0       	ldi	r19, 0x00	; 0
     9a6:	40 e2       	ldi	r20, 0x20	; 32
     9a8:	51 e4       	ldi	r21, 0x41	; 65
     9aa:	fc 01       	movw	r30, r24
     9ac:	60 81       	ld	r22, Z
     9ae:	71 81       	ldd	r23, Z+1	; 0x01
     9b0:	82 81       	ldd	r24, Z+2	; 0x02
     9b2:	93 81       	ldd	r25, Z+3	; 0x03
     9b4:	0e 94 63 18 	call	0x30c6	; 0x30c6 <__mulsf3>
     9b8:	dc 01       	movw	r26, r24
     9ba:	cb 01       	movw	r24, r22
     9bc:	8e 01       	movw	r16, r28
     9be:	03 5a       	subi	r16, 0xA3	; 163
     9c0:	1f 4f       	sbci	r17, 0xFF	; 255
     9c2:	bc 01       	movw	r22, r24
     9c4:	cd 01       	movw	r24, r26
     9c6:	0e 94 81 17 	call	0x2f02	; 0x2f02 <__fixunssfsi>
     9ca:	dc 01       	movw	r26, r24
     9cc:	cb 01       	movw	r24, r22
     9ce:	f8 01       	movw	r30, r16
     9d0:	91 83       	std	Z+1, r25	; 0x01
     9d2:	80 83       	st	Z, r24
     9d4:	24 c0       	rjmp	.+72     	; 0xa1e <lcd_set_4bit+0x8b0>
     9d6:	ce 01       	movw	r24, r28
     9d8:	81 5a       	subi	r24, 0xA1	; 161
     9da:	9f 4f       	sbci	r25, 0xFF	; 255
     9dc:	20 e7       	ldi	r18, 0x70	; 112
     9de:	31 e0       	ldi	r19, 0x01	; 1
     9e0:	fc 01       	movw	r30, r24
     9e2:	31 83       	std	Z+1, r19	; 0x01
     9e4:	20 83       	st	Z, r18
     9e6:	ce 01       	movw	r24, r28
     9e8:	81 5a       	subi	r24, 0xA1	; 161
     9ea:	9f 4f       	sbci	r25, 0xFF	; 255
     9ec:	fc 01       	movw	r30, r24
     9ee:	80 81       	ld	r24, Z
     9f0:	91 81       	ldd	r25, Z+1	; 0x01
     9f2:	01 97       	sbiw	r24, 0x01	; 1
     9f4:	f1 f7       	brne	.-4      	; 0x9f2 <lcd_set_4bit+0x884>
     9f6:	9e 01       	movw	r18, r28
     9f8:	21 5a       	subi	r18, 0xA1	; 161
     9fa:	3f 4f       	sbci	r19, 0xFF	; 255
     9fc:	f9 01       	movw	r30, r18
     9fe:	91 83       	std	Z+1, r25	; 0x01
     a00:	80 83       	st	Z, r24
     a02:	ce 01       	movw	r24, r28
     a04:	83 5a       	subi	r24, 0xA3	; 163
     a06:	9f 4f       	sbci	r25, 0xFF	; 255
     a08:	9e 01       	movw	r18, r28
     a0a:	23 5a       	subi	r18, 0xA3	; 163
     a0c:	3f 4f       	sbci	r19, 0xFF	; 255
     a0e:	f9 01       	movw	r30, r18
     a10:	20 81       	ld	r18, Z
     a12:	31 81       	ldd	r19, Z+1	; 0x01
     a14:	21 50       	subi	r18, 0x01	; 1
     a16:	31 09       	sbc	r19, r1
     a18:	fc 01       	movw	r30, r24
     a1a:	31 83       	std	Z+1, r19	; 0x01
     a1c:	20 83       	st	Z, r18
     a1e:	ce 01       	movw	r24, r28
     a20:	83 5a       	subi	r24, 0xA3	; 163
     a22:	9f 4f       	sbci	r25, 0xFF	; 255
     a24:	fc 01       	movw	r30, r24
     a26:	80 81       	ld	r24, Z
     a28:	91 81       	ldd	r25, Z+1	; 0x01
     a2a:	00 97       	sbiw	r24, 0x00	; 0
     a2c:	a1 f6       	brne	.-88     	; 0x9d6 <lcd_set_4bit+0x868>
     a2e:	2c c0       	rjmp	.+88     	; 0xa88 <lcd_set_4bit+0x91a>
     a30:	8e 01       	movw	r16, r28
     a32:	03 5a       	subi	r16, 0xA3	; 163
     a34:	1f 4f       	sbci	r17, 0xFF	; 255
     a36:	ce 01       	movw	r24, r28
     a38:	87 5a       	subi	r24, 0xA7	; 167
     a3a:	9f 4f       	sbci	r25, 0xFF	; 255
     a3c:	fc 01       	movw	r30, r24
     a3e:	60 81       	ld	r22, Z
     a40:	71 81       	ldd	r23, Z+1	; 0x01
     a42:	82 81       	ldd	r24, Z+2	; 0x02
     a44:	93 81       	ldd	r25, Z+3	; 0x03
     a46:	0e 94 81 17 	call	0x2f02	; 0x2f02 <__fixunssfsi>
     a4a:	dc 01       	movw	r26, r24
     a4c:	cb 01       	movw	r24, r22
     a4e:	f8 01       	movw	r30, r16
     a50:	91 83       	std	Z+1, r25	; 0x01
     a52:	80 83       	st	Z, r24
     a54:	ce 01       	movw	r24, r28
     a56:	8f 59       	subi	r24, 0x9F	; 159
     a58:	9f 4f       	sbci	r25, 0xFF	; 255
     a5a:	9e 01       	movw	r18, r28
     a5c:	23 5a       	subi	r18, 0xA3	; 163
     a5e:	3f 4f       	sbci	r19, 0xFF	; 255
     a60:	f9 01       	movw	r30, r18
     a62:	20 81       	ld	r18, Z
     a64:	31 81       	ldd	r19, Z+1	; 0x01
     a66:	fc 01       	movw	r30, r24
     a68:	31 83       	std	Z+1, r19	; 0x01
     a6a:	20 83       	st	Z, r18
     a6c:	ce 01       	movw	r24, r28
     a6e:	8f 59       	subi	r24, 0x9F	; 159
     a70:	9f 4f       	sbci	r25, 0xFF	; 255
     a72:	fc 01       	movw	r30, r24
     a74:	80 81       	ld	r24, Z
     a76:	91 81       	ldd	r25, Z+1	; 0x01
     a78:	01 97       	sbiw	r24, 0x01	; 1
     a7a:	f1 f7       	brne	.-4      	; 0xa78 <lcd_set_4bit+0x90a>
     a7c:	9e 01       	movw	r18, r28
     a7e:	2f 59       	subi	r18, 0x9F	; 159
     a80:	3f 4f       	sbci	r19, 0xFF	; 255
     a82:	f9 01       	movw	r30, r18
     a84:	91 83       	std	Z+1, r25	; 0x01
     a86:	80 83       	st	Z, r24
     a88:	88 e2       	ldi	r24, 0x28	; 40
     a8a:	90 e0       	ldi	r25, 0x00	; 0
     a8c:	28 e2       	ldi	r18, 0x28	; 40
     a8e:	30 e0       	ldi	r19, 0x00	; 0
     a90:	f9 01       	movw	r30, r18
     a92:	20 81       	ld	r18, Z
     a94:	2e 7f       	andi	r18, 0xFE	; 254
     a96:	fc 01       	movw	r30, r24
     a98:	20 83       	st	Z, r18
     a9a:	88 e2       	ldi	r24, 0x28	; 40
     a9c:	90 e0       	ldi	r25, 0x00	; 0
     a9e:	28 e2       	ldi	r18, 0x28	; 40
     aa0:	30 e0       	ldi	r19, 0x00	; 0
     aa2:	f9 01       	movw	r30, r18
     aa4:	20 81       	ld	r18, Z
     aa6:	2d 7f       	andi	r18, 0xFD	; 253
     aa8:	fc 01       	movw	r30, r24
     aaa:	20 83       	st	Z, r18
     aac:	88 e2       	ldi	r24, 0x28	; 40
     aae:	90 e0       	ldi	r25, 0x00	; 0
     ab0:	20 e2       	ldi	r18, 0x20	; 32
     ab2:	fc 01       	movw	r30, r24
     ab4:	20 83       	st	Z, r18
     ab6:	88 e2       	ldi	r24, 0x28	; 40
     ab8:	90 e0       	ldi	r25, 0x00	; 0
     aba:	28 e2       	ldi	r18, 0x28	; 40
     abc:	30 e0       	ldi	r19, 0x00	; 0
     abe:	f9 01       	movw	r30, r18
     ac0:	20 81       	ld	r18, Z
     ac2:	24 60       	ori	r18, 0x04	; 4
     ac4:	fc 01       	movw	r30, r24
     ac6:	20 83       	st	Z, r18
     ac8:	9e 01       	movw	r18, r28
     aca:	2d 59       	subi	r18, 0x9D	; 157
     acc:	3f 4f       	sbci	r19, 0xFF	; 255
     ace:	80 e0       	ldi	r24, 0x00	; 0
     ad0:	90 e0       	ldi	r25, 0x00	; 0
     ad2:	a0 ea       	ldi	r26, 0xA0	; 160
     ad4:	b0 e4       	ldi	r27, 0x40	; 64
     ad6:	f9 01       	movw	r30, r18
     ad8:	80 83       	st	Z, r24
     ada:	91 83       	std	Z+1, r25	; 0x01
     adc:	a2 83       	std	Z+2, r26	; 0x02
     ade:	b3 83       	std	Z+3, r27	; 0x03
     ae0:	8e 01       	movw	r16, r28
     ae2:	09 59       	subi	r16, 0x99	; 153
     ae4:	1f 4f       	sbci	r17, 0xFF	; 255
     ae6:	ce 01       	movw	r24, r28
     ae8:	8d 59       	subi	r24, 0x9D	; 157
     aea:	9f 4f       	sbci	r25, 0xFF	; 255
     aec:	26 e6       	ldi	r18, 0x66	; 102
     aee:	36 e6       	ldi	r19, 0x66	; 102
     af0:	46 e6       	ldi	r20, 0x66	; 102
     af2:	55 e4       	ldi	r21, 0x45	; 69
     af4:	fc 01       	movw	r30, r24
     af6:	60 81       	ld	r22, Z
     af8:	71 81       	ldd	r23, Z+1	; 0x01
     afa:	82 81       	ldd	r24, Z+2	; 0x02
     afc:	93 81       	ldd	r25, Z+3	; 0x03
     afe:	0e 94 63 18 	call	0x30c6	; 0x30c6 <__mulsf3>
     b02:	dc 01       	movw	r26, r24
     b04:	cb 01       	movw	r24, r22
     b06:	f8 01       	movw	r30, r16
     b08:	80 83       	st	Z, r24
     b0a:	91 83       	std	Z+1, r25	; 0x01
     b0c:	a2 83       	std	Z+2, r26	; 0x02
     b0e:	b3 83       	std	Z+3, r27	; 0x03
     b10:	ce 01       	movw	r24, r28
     b12:	89 59       	subi	r24, 0x99	; 153
     b14:	9f 4f       	sbci	r25, 0xFF	; 255
     b16:	20 e0       	ldi	r18, 0x00	; 0
     b18:	30 e0       	ldi	r19, 0x00	; 0
     b1a:	40 e8       	ldi	r20, 0x80	; 128
     b1c:	5f e3       	ldi	r21, 0x3F	; 63
     b1e:	fc 01       	movw	r30, r24
     b20:	60 81       	ld	r22, Z
     b22:	71 81       	ldd	r23, Z+1	; 0x01
     b24:	82 81       	ldd	r24, Z+2	; 0x02
     b26:	93 81       	ldd	r25, Z+3	; 0x03
     b28:	0e 94 15 17 	call	0x2e2a	; 0x2e2a <__cmpsf2>
     b2c:	88 23       	and	r24, r24
     b2e:	4c f4       	brge	.+18     	; 0xb42 <lcd_set_4bit+0x9d4>
     b30:	ce 01       	movw	r24, r28
     b32:	85 59       	subi	r24, 0x95	; 149
     b34:	9f 4f       	sbci	r25, 0xFF	; 255
     b36:	21 e0       	ldi	r18, 0x01	; 1
     b38:	30 e0       	ldi	r19, 0x00	; 0
     b3a:	fc 01       	movw	r30, r24
     b3c:	31 83       	std	Z+1, r19	; 0x01
     b3e:	20 83       	st	Z, r18
     b40:	6d c0       	rjmp	.+218    	; 0xc1c <lcd_set_4bit+0xaae>
     b42:	ce 01       	movw	r24, r28
     b44:	89 59       	subi	r24, 0x99	; 153
     b46:	9f 4f       	sbci	r25, 0xFF	; 255
     b48:	20 e0       	ldi	r18, 0x00	; 0
     b4a:	3f ef       	ldi	r19, 0xFF	; 255
     b4c:	4f e7       	ldi	r20, 0x7F	; 127
     b4e:	57 e4       	ldi	r21, 0x47	; 71
     b50:	fc 01       	movw	r30, r24
     b52:	60 81       	ld	r22, Z
     b54:	71 81       	ldd	r23, Z+1	; 0x01
     b56:	82 81       	ldd	r24, Z+2	; 0x02
     b58:	93 81       	ldd	r25, Z+3	; 0x03
     b5a:	0e 94 5f 18 	call	0x30be	; 0x30be <__gesf2>
     b5e:	18 16       	cp	r1, r24
     b60:	0c f0       	brlt	.+2      	; 0xb64 <lcd_set_4bit+0x9f6>
     b62:	4a c0       	rjmp	.+148    	; 0xbf8 <lcd_set_4bit+0xa8a>
     b64:	ce 01       	movw	r24, r28
     b66:	8d 59       	subi	r24, 0x9D	; 157
     b68:	9f 4f       	sbci	r25, 0xFF	; 255
     b6a:	20 e0       	ldi	r18, 0x00	; 0
     b6c:	30 e0       	ldi	r19, 0x00	; 0
     b6e:	40 e2       	ldi	r20, 0x20	; 32
     b70:	51 e4       	ldi	r21, 0x41	; 65
     b72:	fc 01       	movw	r30, r24
     b74:	60 81       	ld	r22, Z
     b76:	71 81       	ldd	r23, Z+1	; 0x01
     b78:	82 81       	ldd	r24, Z+2	; 0x02
     b7a:	93 81       	ldd	r25, Z+3	; 0x03
     b7c:	0e 94 63 18 	call	0x30c6	; 0x30c6 <__mulsf3>
     b80:	dc 01       	movw	r26, r24
     b82:	cb 01       	movw	r24, r22
     b84:	8e 01       	movw	r16, r28
     b86:	05 59       	subi	r16, 0x95	; 149
     b88:	1f 4f       	sbci	r17, 0xFF	; 255
     b8a:	bc 01       	movw	r22, r24
     b8c:	cd 01       	movw	r24, r26
     b8e:	0e 94 81 17 	call	0x2f02	; 0x2f02 <__fixunssfsi>
     b92:	dc 01       	movw	r26, r24
     b94:	cb 01       	movw	r24, r22
     b96:	f8 01       	movw	r30, r16
     b98:	91 83       	std	Z+1, r25	; 0x01
     b9a:	80 83       	st	Z, r24
     b9c:	24 c0       	rjmp	.+72     	; 0xbe6 <lcd_set_4bit+0xa78>
     b9e:	ce 01       	movw	r24, r28
     ba0:	83 59       	subi	r24, 0x93	; 147
     ba2:	9f 4f       	sbci	r25, 0xFF	; 255
     ba4:	20 e7       	ldi	r18, 0x70	; 112
     ba6:	31 e0       	ldi	r19, 0x01	; 1
     ba8:	fc 01       	movw	r30, r24
     baa:	31 83       	std	Z+1, r19	; 0x01
     bac:	20 83       	st	Z, r18
     bae:	ce 01       	movw	r24, r28
     bb0:	83 59       	subi	r24, 0x93	; 147
     bb2:	9f 4f       	sbci	r25, 0xFF	; 255
     bb4:	fc 01       	movw	r30, r24
     bb6:	80 81       	ld	r24, Z
     bb8:	91 81       	ldd	r25, Z+1	; 0x01
     bba:	01 97       	sbiw	r24, 0x01	; 1
     bbc:	f1 f7       	brne	.-4      	; 0xbba <lcd_set_4bit+0xa4c>
     bbe:	9e 01       	movw	r18, r28
     bc0:	23 59       	subi	r18, 0x93	; 147
     bc2:	3f 4f       	sbci	r19, 0xFF	; 255
     bc4:	f9 01       	movw	r30, r18
     bc6:	91 83       	std	Z+1, r25	; 0x01
     bc8:	80 83       	st	Z, r24
     bca:	ce 01       	movw	r24, r28
     bcc:	85 59       	subi	r24, 0x95	; 149
     bce:	9f 4f       	sbci	r25, 0xFF	; 255
     bd0:	9e 01       	movw	r18, r28
     bd2:	25 59       	subi	r18, 0x95	; 149
     bd4:	3f 4f       	sbci	r19, 0xFF	; 255
     bd6:	f9 01       	movw	r30, r18
     bd8:	20 81       	ld	r18, Z
     bda:	31 81       	ldd	r19, Z+1	; 0x01
     bdc:	21 50       	subi	r18, 0x01	; 1
     bde:	31 09       	sbc	r19, r1
     be0:	fc 01       	movw	r30, r24
     be2:	31 83       	std	Z+1, r19	; 0x01
     be4:	20 83       	st	Z, r18
     be6:	ce 01       	movw	r24, r28
     be8:	85 59       	subi	r24, 0x95	; 149
     bea:	9f 4f       	sbci	r25, 0xFF	; 255
     bec:	fc 01       	movw	r30, r24
     bee:	80 81       	ld	r24, Z
     bf0:	91 81       	ldd	r25, Z+1	; 0x01
     bf2:	00 97       	sbiw	r24, 0x00	; 0
     bf4:	a1 f6       	brne	.-88     	; 0xb9e <lcd_set_4bit+0xa30>
     bf6:	2c c0       	rjmp	.+88     	; 0xc50 <lcd_set_4bit+0xae2>
     bf8:	8e 01       	movw	r16, r28
     bfa:	05 59       	subi	r16, 0x95	; 149
     bfc:	1f 4f       	sbci	r17, 0xFF	; 255
     bfe:	ce 01       	movw	r24, r28
     c00:	89 59       	subi	r24, 0x99	; 153
     c02:	9f 4f       	sbci	r25, 0xFF	; 255
     c04:	fc 01       	movw	r30, r24
     c06:	60 81       	ld	r22, Z
     c08:	71 81       	ldd	r23, Z+1	; 0x01
     c0a:	82 81       	ldd	r24, Z+2	; 0x02
     c0c:	93 81       	ldd	r25, Z+3	; 0x03
     c0e:	0e 94 81 17 	call	0x2f02	; 0x2f02 <__fixunssfsi>
     c12:	dc 01       	movw	r26, r24
     c14:	cb 01       	movw	r24, r22
     c16:	f8 01       	movw	r30, r16
     c18:	91 83       	std	Z+1, r25	; 0x01
     c1a:	80 83       	st	Z, r24
     c1c:	ce 01       	movw	r24, r28
     c1e:	81 59       	subi	r24, 0x91	; 145
     c20:	9f 4f       	sbci	r25, 0xFF	; 255
     c22:	9e 01       	movw	r18, r28
     c24:	25 59       	subi	r18, 0x95	; 149
     c26:	3f 4f       	sbci	r19, 0xFF	; 255
     c28:	f9 01       	movw	r30, r18
     c2a:	20 81       	ld	r18, Z
     c2c:	31 81       	ldd	r19, Z+1	; 0x01
     c2e:	fc 01       	movw	r30, r24
     c30:	31 83       	std	Z+1, r19	; 0x01
     c32:	20 83       	st	Z, r18
     c34:	ce 01       	movw	r24, r28
     c36:	81 59       	subi	r24, 0x91	; 145
     c38:	9f 4f       	sbci	r25, 0xFF	; 255
     c3a:	fc 01       	movw	r30, r24
     c3c:	80 81       	ld	r24, Z
     c3e:	91 81       	ldd	r25, Z+1	; 0x01
     c40:	01 97       	sbiw	r24, 0x01	; 1
     c42:	f1 f7       	brne	.-4      	; 0xc40 <lcd_set_4bit+0xad2>
     c44:	9e 01       	movw	r18, r28
     c46:	21 59       	subi	r18, 0x91	; 145
     c48:	3f 4f       	sbci	r19, 0xFF	; 255
     c4a:	f9 01       	movw	r30, r18
     c4c:	91 83       	std	Z+1, r25	; 0x01
     c4e:	80 83       	st	Z, r24
     c50:	88 e2       	ldi	r24, 0x28	; 40
     c52:	90 e0       	ldi	r25, 0x00	; 0
     c54:	28 e2       	ldi	r18, 0x28	; 40
     c56:	30 e0       	ldi	r19, 0x00	; 0
     c58:	f9 01       	movw	r30, r18
     c5a:	20 81       	ld	r18, Z
     c5c:	2b 7f       	andi	r18, 0xFB	; 251
     c5e:	fc 01       	movw	r30, r24
     c60:	20 83       	st	Z, r18
     c62:	c0 59       	subi	r28, 0x90	; 144
     c64:	df 4f       	sbci	r29, 0xFF	; 255
     c66:	0f b6       	in	r0, 0x3f	; 63
     c68:	f8 94       	cli
     c6a:	de bf       	out	0x3e, r29	; 62
     c6c:	0f be       	out	0x3f, r0	; 63
     c6e:	cd bf       	out	0x3d, r28	; 61
     c70:	df 91       	pop	r29
     c72:	cf 91       	pop	r28
     c74:	1f 91       	pop	r17
     c76:	0f 91       	pop	r16
     c78:	08 95       	ret

00000c7a <lcd_init>:
     c7a:	cf 93       	push	r28
     c7c:	df 93       	push	r29
     c7e:	cd b7       	in	r28, 0x3d	; 61
     c80:	de b7       	in	r29, 0x3e	; 62
     c82:	2e 97       	sbiw	r28, 0x0e	; 14
     c84:	0f b6       	in	r0, 0x3f	; 63
     c86:	f8 94       	cli
     c88:	de bf       	out	0x3e, r29	; 62
     c8a:	0f be       	out	0x3f, r0	; 63
     c8c:	cd bf       	out	0x3d, r28	; 61
     c8e:	6f da       	rcall	.-2850   	; 0x16e <lcd_set_4bit>
     c90:	80 e0       	ldi	r24, 0x00	; 0
     c92:	90 e0       	ldi	r25, 0x00	; 0
     c94:	a0 e8       	ldi	r26, 0x80	; 128
     c96:	bf e3       	ldi	r27, 0x3F	; 63
     c98:	89 83       	std	Y+1, r24	; 0x01
     c9a:	9a 83       	std	Y+2, r25	; 0x02
     c9c:	ab 83       	std	Y+3, r26	; 0x03
     c9e:	bc 83       	std	Y+4, r27	; 0x04
     ca0:	26 e6       	ldi	r18, 0x66	; 102
     ca2:	36 e6       	ldi	r19, 0x66	; 102
     ca4:	46 e6       	ldi	r20, 0x66	; 102
     ca6:	55 e4       	ldi	r21, 0x45	; 69
     ca8:	69 81       	ldd	r22, Y+1	; 0x01
     caa:	7a 81       	ldd	r23, Y+2	; 0x02
     cac:	8b 81       	ldd	r24, Y+3	; 0x03
     cae:	9c 81       	ldd	r25, Y+4	; 0x04
     cb0:	0e 94 63 18 	call	0x30c6	; 0x30c6 <__mulsf3>
     cb4:	dc 01       	movw	r26, r24
     cb6:	cb 01       	movw	r24, r22
     cb8:	8d 83       	std	Y+5, r24	; 0x05
     cba:	9e 83       	std	Y+6, r25	; 0x06
     cbc:	af 83       	std	Y+7, r26	; 0x07
     cbe:	b8 87       	std	Y+8, r27	; 0x08
     cc0:	20 e0       	ldi	r18, 0x00	; 0
     cc2:	30 e0       	ldi	r19, 0x00	; 0
     cc4:	40 e8       	ldi	r20, 0x80	; 128
     cc6:	5f e3       	ldi	r21, 0x3F	; 63
     cc8:	6d 81       	ldd	r22, Y+5	; 0x05
     cca:	7e 81       	ldd	r23, Y+6	; 0x06
     ccc:	8f 81       	ldd	r24, Y+7	; 0x07
     cce:	98 85       	ldd	r25, Y+8	; 0x08
     cd0:	0e 94 15 17 	call	0x2e2a	; 0x2e2a <__cmpsf2>
     cd4:	88 23       	and	r24, r24
     cd6:	2c f4       	brge	.+10     	; 0xce2 <lcd_init+0x68>
     cd8:	81 e0       	ldi	r24, 0x01	; 1
     cda:	90 e0       	ldi	r25, 0x00	; 0
     cdc:	9a 87       	std	Y+10, r25	; 0x0a
     cde:	89 87       	std	Y+9, r24	; 0x09
     ce0:	3f c0       	rjmp	.+126    	; 0xd60 <lcd_init+0xe6>
     ce2:	20 e0       	ldi	r18, 0x00	; 0
     ce4:	3f ef       	ldi	r19, 0xFF	; 255
     ce6:	4f e7       	ldi	r20, 0x7F	; 127
     ce8:	57 e4       	ldi	r21, 0x47	; 71
     cea:	6d 81       	ldd	r22, Y+5	; 0x05
     cec:	7e 81       	ldd	r23, Y+6	; 0x06
     cee:	8f 81       	ldd	r24, Y+7	; 0x07
     cf0:	98 85       	ldd	r25, Y+8	; 0x08
     cf2:	0e 94 5f 18 	call	0x30be	; 0x30be <__gesf2>
     cf6:	18 16       	cp	r1, r24
     cf8:	4c f5       	brge	.+82     	; 0xd4c <lcd_init+0xd2>
     cfa:	20 e0       	ldi	r18, 0x00	; 0
     cfc:	30 e0       	ldi	r19, 0x00	; 0
     cfe:	40 e2       	ldi	r20, 0x20	; 32
     d00:	51 e4       	ldi	r21, 0x41	; 65
     d02:	69 81       	ldd	r22, Y+1	; 0x01
     d04:	7a 81       	ldd	r23, Y+2	; 0x02
     d06:	8b 81       	ldd	r24, Y+3	; 0x03
     d08:	9c 81       	ldd	r25, Y+4	; 0x04
     d0a:	0e 94 63 18 	call	0x30c6	; 0x30c6 <__mulsf3>
     d0e:	dc 01       	movw	r26, r24
     d10:	cb 01       	movw	r24, r22
     d12:	bc 01       	movw	r22, r24
     d14:	cd 01       	movw	r24, r26
     d16:	0e 94 81 17 	call	0x2f02	; 0x2f02 <__fixunssfsi>
     d1a:	dc 01       	movw	r26, r24
     d1c:	cb 01       	movw	r24, r22
     d1e:	9a 87       	std	Y+10, r25	; 0x0a
     d20:	89 87       	std	Y+9, r24	; 0x09
     d22:	0f c0       	rjmp	.+30     	; 0xd42 <lcd_init+0xc8>
     d24:	80 e7       	ldi	r24, 0x70	; 112
     d26:	91 e0       	ldi	r25, 0x01	; 1
     d28:	9c 87       	std	Y+12, r25	; 0x0c
     d2a:	8b 87       	std	Y+11, r24	; 0x0b
     d2c:	8b 85       	ldd	r24, Y+11	; 0x0b
     d2e:	9c 85       	ldd	r25, Y+12	; 0x0c
     d30:	01 97       	sbiw	r24, 0x01	; 1
     d32:	f1 f7       	brne	.-4      	; 0xd30 <lcd_init+0xb6>
     d34:	9c 87       	std	Y+12, r25	; 0x0c
     d36:	8b 87       	std	Y+11, r24	; 0x0b
     d38:	89 85       	ldd	r24, Y+9	; 0x09
     d3a:	9a 85       	ldd	r25, Y+10	; 0x0a
     d3c:	01 97       	sbiw	r24, 0x01	; 1
     d3e:	9a 87       	std	Y+10, r25	; 0x0a
     d40:	89 87       	std	Y+9, r24	; 0x09
     d42:	89 85       	ldd	r24, Y+9	; 0x09
     d44:	9a 85       	ldd	r25, Y+10	; 0x0a
     d46:	00 97       	sbiw	r24, 0x00	; 0
     d48:	69 f7       	brne	.-38     	; 0xd24 <lcd_init+0xaa>
     d4a:	14 c0       	rjmp	.+40     	; 0xd74 <lcd_init+0xfa>
     d4c:	6d 81       	ldd	r22, Y+5	; 0x05
     d4e:	7e 81       	ldd	r23, Y+6	; 0x06
     d50:	8f 81       	ldd	r24, Y+7	; 0x07
     d52:	98 85       	ldd	r25, Y+8	; 0x08
     d54:	0e 94 81 17 	call	0x2f02	; 0x2f02 <__fixunssfsi>
     d58:	dc 01       	movw	r26, r24
     d5a:	cb 01       	movw	r24, r22
     d5c:	9a 87       	std	Y+10, r25	; 0x0a
     d5e:	89 87       	std	Y+9, r24	; 0x09
     d60:	89 85       	ldd	r24, Y+9	; 0x09
     d62:	9a 85       	ldd	r25, Y+10	; 0x0a
     d64:	9e 87       	std	Y+14, r25	; 0x0e
     d66:	8d 87       	std	Y+13, r24	; 0x0d
     d68:	8d 85       	ldd	r24, Y+13	; 0x0d
     d6a:	9e 85       	ldd	r25, Y+14	; 0x0e
     d6c:	01 97       	sbiw	r24, 0x01	; 1
     d6e:	f1 f7       	brne	.-4      	; 0xd6c <lcd_init+0xf2>
     d70:	9e 87       	std	Y+14, r25	; 0x0e
     d72:	8d 87       	std	Y+13, r24	; 0x0d
     d74:	88 e2       	ldi	r24, 0x28	; 40
     d76:	11 d0       	rcall	.+34     	; 0xd9a <lcd_wr_command>
     d78:	81 e0       	ldi	r24, 0x01	; 1
     d7a:	0f d0       	rcall	.+30     	; 0xd9a <lcd_wr_command>
     d7c:	86 e0       	ldi	r24, 0x06	; 6
     d7e:	0d d0       	rcall	.+26     	; 0xd9a <lcd_wr_command>
     d80:	8e e0       	ldi	r24, 0x0E	; 14
     d82:	0b d0       	rcall	.+22     	; 0xd9a <lcd_wr_command>
     d84:	80 e8       	ldi	r24, 0x80	; 128
     d86:	09 d0       	rcall	.+18     	; 0xd9a <lcd_wr_command>
     d88:	2e 96       	adiw	r28, 0x0e	; 14
     d8a:	0f b6       	in	r0, 0x3f	; 63
     d8c:	f8 94       	cli
     d8e:	de bf       	out	0x3e, r29	; 62
     d90:	0f be       	out	0x3f, r0	; 63
     d92:	cd bf       	out	0x3d, r28	; 61
     d94:	df 91       	pop	r29
     d96:	cf 91       	pop	r28
     d98:	08 95       	ret

00000d9a <lcd_wr_command>:
     d9a:	cf 93       	push	r28
     d9c:	df 93       	push	r29
     d9e:	cd b7       	in	r28, 0x3d	; 61
     da0:	de b7       	in	r29, 0x3e	; 62
     da2:	6e 97       	sbiw	r28, 0x1e	; 30
     da4:	0f b6       	in	r0, 0x3f	; 63
     da6:	f8 94       	cli
     da8:	de bf       	out	0x3e, r29	; 62
     daa:	0f be       	out	0x3f, r0	; 63
     dac:	cd bf       	out	0x3d, r28	; 61
     dae:	8e 8f       	std	Y+30, r24	; 0x1e
     db0:	8e 8d       	ldd	r24, Y+30	; 0x1e
     db2:	89 83       	std	Y+1, r24	; 0x01
     db4:	89 81       	ldd	r24, Y+1	; 0x01
     db6:	80 7f       	andi	r24, 0xF0	; 240
     db8:	89 83       	std	Y+1, r24	; 0x01
     dba:	88 e2       	ldi	r24, 0x28	; 40
     dbc:	90 e0       	ldi	r25, 0x00	; 0
     dbe:	28 e2       	ldi	r18, 0x28	; 40
     dc0:	30 e0       	ldi	r19, 0x00	; 0
     dc2:	f9 01       	movw	r30, r18
     dc4:	20 81       	ld	r18, Z
     dc6:	2f 70       	andi	r18, 0x0F	; 15
     dc8:	fc 01       	movw	r30, r24
     dca:	20 83       	st	Z, r18
     dcc:	88 e2       	ldi	r24, 0x28	; 40
     dce:	90 e0       	ldi	r25, 0x00	; 0
     dd0:	28 e2       	ldi	r18, 0x28	; 40
     dd2:	30 e0       	ldi	r19, 0x00	; 0
     dd4:	f9 01       	movw	r30, r18
     dd6:	30 81       	ld	r19, Z
     dd8:	29 81       	ldd	r18, Y+1	; 0x01
     dda:	23 2b       	or	r18, r19
     ddc:	fc 01       	movw	r30, r24
     dde:	20 83       	st	Z, r18
     de0:	88 e2       	ldi	r24, 0x28	; 40
     de2:	90 e0       	ldi	r25, 0x00	; 0
     de4:	28 e2       	ldi	r18, 0x28	; 40
     de6:	30 e0       	ldi	r19, 0x00	; 0
     de8:	f9 01       	movw	r30, r18
     dea:	20 81       	ld	r18, Z
     dec:	2e 7f       	andi	r18, 0xFE	; 254
     dee:	fc 01       	movw	r30, r24
     df0:	20 83       	st	Z, r18
     df2:	88 e2       	ldi	r24, 0x28	; 40
     df4:	90 e0       	ldi	r25, 0x00	; 0
     df6:	28 e2       	ldi	r18, 0x28	; 40
     df8:	30 e0       	ldi	r19, 0x00	; 0
     dfa:	f9 01       	movw	r30, r18
     dfc:	20 81       	ld	r18, Z
     dfe:	2d 7f       	andi	r18, 0xFD	; 253
     e00:	fc 01       	movw	r30, r24
     e02:	20 83       	st	Z, r18
     e04:	88 e2       	ldi	r24, 0x28	; 40
     e06:	90 e0       	ldi	r25, 0x00	; 0
     e08:	28 e2       	ldi	r18, 0x28	; 40
     e0a:	30 e0       	ldi	r19, 0x00	; 0
     e0c:	f9 01       	movw	r30, r18
     e0e:	20 81       	ld	r18, Z
     e10:	24 60       	ori	r18, 0x04	; 4
     e12:	fc 01       	movw	r30, r24
     e14:	20 83       	st	Z, r18
     e16:	80 e0       	ldi	r24, 0x00	; 0
     e18:	90 e0       	ldi	r25, 0x00	; 0
     e1a:	a0 ea       	ldi	r26, 0xA0	; 160
     e1c:	b0 e4       	ldi	r27, 0x40	; 64
     e1e:	8a 83       	std	Y+2, r24	; 0x02
     e20:	9b 83       	std	Y+3, r25	; 0x03
     e22:	ac 83       	std	Y+4, r26	; 0x04
     e24:	bd 83       	std	Y+5, r27	; 0x05
     e26:	26 e6       	ldi	r18, 0x66	; 102
     e28:	36 e6       	ldi	r19, 0x66	; 102
     e2a:	46 e6       	ldi	r20, 0x66	; 102
     e2c:	55 e4       	ldi	r21, 0x45	; 69
     e2e:	6a 81       	ldd	r22, Y+2	; 0x02
     e30:	7b 81       	ldd	r23, Y+3	; 0x03
     e32:	8c 81       	ldd	r24, Y+4	; 0x04
     e34:	9d 81       	ldd	r25, Y+5	; 0x05
     e36:	0e 94 63 18 	call	0x30c6	; 0x30c6 <__mulsf3>
     e3a:	dc 01       	movw	r26, r24
     e3c:	cb 01       	movw	r24, r22
     e3e:	8e 83       	std	Y+6, r24	; 0x06
     e40:	9f 83       	std	Y+7, r25	; 0x07
     e42:	a8 87       	std	Y+8, r26	; 0x08
     e44:	b9 87       	std	Y+9, r27	; 0x09
     e46:	20 e0       	ldi	r18, 0x00	; 0
     e48:	30 e0       	ldi	r19, 0x00	; 0
     e4a:	40 e8       	ldi	r20, 0x80	; 128
     e4c:	5f e3       	ldi	r21, 0x3F	; 63
     e4e:	6e 81       	ldd	r22, Y+6	; 0x06
     e50:	7f 81       	ldd	r23, Y+7	; 0x07
     e52:	88 85       	ldd	r24, Y+8	; 0x08
     e54:	99 85       	ldd	r25, Y+9	; 0x09
     e56:	0e 94 15 17 	call	0x2e2a	; 0x2e2a <__cmpsf2>
     e5a:	88 23       	and	r24, r24
     e5c:	2c f4       	brge	.+10     	; 0xe68 <lcd_wr_command+0xce>
     e5e:	81 e0       	ldi	r24, 0x01	; 1
     e60:	90 e0       	ldi	r25, 0x00	; 0
     e62:	9b 87       	std	Y+11, r25	; 0x0b
     e64:	8a 87       	std	Y+10, r24	; 0x0a
     e66:	3f c0       	rjmp	.+126    	; 0xee6 <lcd_wr_command+0x14c>
     e68:	20 e0       	ldi	r18, 0x00	; 0
     e6a:	3f ef       	ldi	r19, 0xFF	; 255
     e6c:	4f e7       	ldi	r20, 0x7F	; 127
     e6e:	57 e4       	ldi	r21, 0x47	; 71
     e70:	6e 81       	ldd	r22, Y+6	; 0x06
     e72:	7f 81       	ldd	r23, Y+7	; 0x07
     e74:	88 85       	ldd	r24, Y+8	; 0x08
     e76:	99 85       	ldd	r25, Y+9	; 0x09
     e78:	0e 94 5f 18 	call	0x30be	; 0x30be <__gesf2>
     e7c:	18 16       	cp	r1, r24
     e7e:	4c f5       	brge	.+82     	; 0xed2 <lcd_wr_command+0x138>
     e80:	20 e0       	ldi	r18, 0x00	; 0
     e82:	30 e0       	ldi	r19, 0x00	; 0
     e84:	40 e2       	ldi	r20, 0x20	; 32
     e86:	51 e4       	ldi	r21, 0x41	; 65
     e88:	6a 81       	ldd	r22, Y+2	; 0x02
     e8a:	7b 81       	ldd	r23, Y+3	; 0x03
     e8c:	8c 81       	ldd	r24, Y+4	; 0x04
     e8e:	9d 81       	ldd	r25, Y+5	; 0x05
     e90:	0e 94 63 18 	call	0x30c6	; 0x30c6 <__mulsf3>
     e94:	dc 01       	movw	r26, r24
     e96:	cb 01       	movw	r24, r22
     e98:	bc 01       	movw	r22, r24
     e9a:	cd 01       	movw	r24, r26
     e9c:	0e 94 81 17 	call	0x2f02	; 0x2f02 <__fixunssfsi>
     ea0:	dc 01       	movw	r26, r24
     ea2:	cb 01       	movw	r24, r22
     ea4:	9b 87       	std	Y+11, r25	; 0x0b
     ea6:	8a 87       	std	Y+10, r24	; 0x0a
     ea8:	0f c0       	rjmp	.+30     	; 0xec8 <lcd_wr_command+0x12e>
     eaa:	80 e7       	ldi	r24, 0x70	; 112
     eac:	91 e0       	ldi	r25, 0x01	; 1
     eae:	9d 87       	std	Y+13, r25	; 0x0d
     eb0:	8c 87       	std	Y+12, r24	; 0x0c
     eb2:	8c 85       	ldd	r24, Y+12	; 0x0c
     eb4:	9d 85       	ldd	r25, Y+13	; 0x0d
     eb6:	01 97       	sbiw	r24, 0x01	; 1
     eb8:	f1 f7       	brne	.-4      	; 0xeb6 <lcd_wr_command+0x11c>
     eba:	9d 87       	std	Y+13, r25	; 0x0d
     ebc:	8c 87       	std	Y+12, r24	; 0x0c
     ebe:	8a 85       	ldd	r24, Y+10	; 0x0a
     ec0:	9b 85       	ldd	r25, Y+11	; 0x0b
     ec2:	01 97       	sbiw	r24, 0x01	; 1
     ec4:	9b 87       	std	Y+11, r25	; 0x0b
     ec6:	8a 87       	std	Y+10, r24	; 0x0a
     ec8:	8a 85       	ldd	r24, Y+10	; 0x0a
     eca:	9b 85       	ldd	r25, Y+11	; 0x0b
     ecc:	00 97       	sbiw	r24, 0x00	; 0
     ece:	69 f7       	brne	.-38     	; 0xeaa <lcd_wr_command+0x110>
     ed0:	14 c0       	rjmp	.+40     	; 0xefa <lcd_wr_command+0x160>
     ed2:	6e 81       	ldd	r22, Y+6	; 0x06
     ed4:	7f 81       	ldd	r23, Y+7	; 0x07
     ed6:	88 85       	ldd	r24, Y+8	; 0x08
     ed8:	99 85       	ldd	r25, Y+9	; 0x09
     eda:	0e 94 81 17 	call	0x2f02	; 0x2f02 <__fixunssfsi>
     ede:	dc 01       	movw	r26, r24
     ee0:	cb 01       	movw	r24, r22
     ee2:	9b 87       	std	Y+11, r25	; 0x0b
     ee4:	8a 87       	std	Y+10, r24	; 0x0a
     ee6:	8a 85       	ldd	r24, Y+10	; 0x0a
     ee8:	9b 85       	ldd	r25, Y+11	; 0x0b
     eea:	9f 87       	std	Y+15, r25	; 0x0f
     eec:	8e 87       	std	Y+14, r24	; 0x0e
     eee:	8e 85       	ldd	r24, Y+14	; 0x0e
     ef0:	9f 85       	ldd	r25, Y+15	; 0x0f
     ef2:	01 97       	sbiw	r24, 0x01	; 1
     ef4:	f1 f7       	brne	.-4      	; 0xef2 <lcd_wr_command+0x158>
     ef6:	9f 87       	std	Y+15, r25	; 0x0f
     ef8:	8e 87       	std	Y+14, r24	; 0x0e
     efa:	88 e2       	ldi	r24, 0x28	; 40
     efc:	90 e0       	ldi	r25, 0x00	; 0
     efe:	28 e2       	ldi	r18, 0x28	; 40
     f00:	30 e0       	ldi	r19, 0x00	; 0
     f02:	f9 01       	movw	r30, r18
     f04:	20 81       	ld	r18, Z
     f06:	2b 7f       	andi	r18, 0xFB	; 251
     f08:	fc 01       	movw	r30, r24
     f0a:	20 83       	st	Z, r18
     f0c:	8e 8d       	ldd	r24, Y+30	; 0x1e
     f0e:	8f 70       	andi	r24, 0x0F	; 15
     f10:	8e 8f       	std	Y+30, r24	; 0x1e
     f12:	8e 8d       	ldd	r24, Y+30	; 0x1e
     f14:	82 95       	swap	r24
     f16:	80 7f       	andi	r24, 0xF0	; 240
     f18:	8e 8f       	std	Y+30, r24	; 0x1e
     f1a:	88 e2       	ldi	r24, 0x28	; 40
     f1c:	90 e0       	ldi	r25, 0x00	; 0
     f1e:	28 e2       	ldi	r18, 0x28	; 40
     f20:	30 e0       	ldi	r19, 0x00	; 0
     f22:	f9 01       	movw	r30, r18
     f24:	20 81       	ld	r18, Z
     f26:	2f 70       	andi	r18, 0x0F	; 15
     f28:	fc 01       	movw	r30, r24
     f2a:	20 83       	st	Z, r18
     f2c:	88 e2       	ldi	r24, 0x28	; 40
     f2e:	90 e0       	ldi	r25, 0x00	; 0
     f30:	28 e2       	ldi	r18, 0x28	; 40
     f32:	30 e0       	ldi	r19, 0x00	; 0
     f34:	f9 01       	movw	r30, r18
     f36:	30 81       	ld	r19, Z
     f38:	2e 8d       	ldd	r18, Y+30	; 0x1e
     f3a:	23 2b       	or	r18, r19
     f3c:	fc 01       	movw	r30, r24
     f3e:	20 83       	st	Z, r18
     f40:	88 e2       	ldi	r24, 0x28	; 40
     f42:	90 e0       	ldi	r25, 0x00	; 0
     f44:	28 e2       	ldi	r18, 0x28	; 40
     f46:	30 e0       	ldi	r19, 0x00	; 0
     f48:	f9 01       	movw	r30, r18
     f4a:	20 81       	ld	r18, Z
     f4c:	2e 7f       	andi	r18, 0xFE	; 254
     f4e:	fc 01       	movw	r30, r24
     f50:	20 83       	st	Z, r18
     f52:	88 e2       	ldi	r24, 0x28	; 40
     f54:	90 e0       	ldi	r25, 0x00	; 0
     f56:	28 e2       	ldi	r18, 0x28	; 40
     f58:	30 e0       	ldi	r19, 0x00	; 0
     f5a:	f9 01       	movw	r30, r18
     f5c:	20 81       	ld	r18, Z
     f5e:	2d 7f       	andi	r18, 0xFD	; 253
     f60:	fc 01       	movw	r30, r24
     f62:	20 83       	st	Z, r18
     f64:	88 e2       	ldi	r24, 0x28	; 40
     f66:	90 e0       	ldi	r25, 0x00	; 0
     f68:	28 e2       	ldi	r18, 0x28	; 40
     f6a:	30 e0       	ldi	r19, 0x00	; 0
     f6c:	f9 01       	movw	r30, r18
     f6e:	20 81       	ld	r18, Z
     f70:	24 60       	ori	r18, 0x04	; 4
     f72:	fc 01       	movw	r30, r24
     f74:	20 83       	st	Z, r18
     f76:	80 e0       	ldi	r24, 0x00	; 0
     f78:	90 e0       	ldi	r25, 0x00	; 0
     f7a:	a0 ea       	ldi	r26, 0xA0	; 160
     f7c:	b0 e4       	ldi	r27, 0x40	; 64
     f7e:	88 8b       	std	Y+16, r24	; 0x10
     f80:	99 8b       	std	Y+17, r25	; 0x11
     f82:	aa 8b       	std	Y+18, r26	; 0x12
     f84:	bb 8b       	std	Y+19, r27	; 0x13
     f86:	26 e6       	ldi	r18, 0x66	; 102
     f88:	36 e6       	ldi	r19, 0x66	; 102
     f8a:	46 e6       	ldi	r20, 0x66	; 102
     f8c:	55 e4       	ldi	r21, 0x45	; 69
     f8e:	68 89       	ldd	r22, Y+16	; 0x10
     f90:	79 89       	ldd	r23, Y+17	; 0x11
     f92:	8a 89       	ldd	r24, Y+18	; 0x12
     f94:	9b 89       	ldd	r25, Y+19	; 0x13
     f96:	0e 94 63 18 	call	0x30c6	; 0x30c6 <__mulsf3>
     f9a:	dc 01       	movw	r26, r24
     f9c:	cb 01       	movw	r24, r22
     f9e:	8c 8b       	std	Y+20, r24	; 0x14
     fa0:	9d 8b       	std	Y+21, r25	; 0x15
     fa2:	ae 8b       	std	Y+22, r26	; 0x16
     fa4:	bf 8b       	std	Y+23, r27	; 0x17
     fa6:	20 e0       	ldi	r18, 0x00	; 0
     fa8:	30 e0       	ldi	r19, 0x00	; 0
     faa:	40 e8       	ldi	r20, 0x80	; 128
     fac:	5f e3       	ldi	r21, 0x3F	; 63
     fae:	6c 89       	ldd	r22, Y+20	; 0x14
     fb0:	7d 89       	ldd	r23, Y+21	; 0x15
     fb2:	8e 89       	ldd	r24, Y+22	; 0x16
     fb4:	9f 89       	ldd	r25, Y+23	; 0x17
     fb6:	0e 94 15 17 	call	0x2e2a	; 0x2e2a <__cmpsf2>
     fba:	88 23       	and	r24, r24
     fbc:	2c f4       	brge	.+10     	; 0xfc8 <lcd_wr_command+0x22e>
     fbe:	81 e0       	ldi	r24, 0x01	; 1
     fc0:	90 e0       	ldi	r25, 0x00	; 0
     fc2:	99 8f       	std	Y+25, r25	; 0x19
     fc4:	88 8f       	std	Y+24, r24	; 0x18
     fc6:	3f c0       	rjmp	.+126    	; 0x1046 <lcd_wr_command+0x2ac>
     fc8:	20 e0       	ldi	r18, 0x00	; 0
     fca:	3f ef       	ldi	r19, 0xFF	; 255
     fcc:	4f e7       	ldi	r20, 0x7F	; 127
     fce:	57 e4       	ldi	r21, 0x47	; 71
     fd0:	6c 89       	ldd	r22, Y+20	; 0x14
     fd2:	7d 89       	ldd	r23, Y+21	; 0x15
     fd4:	8e 89       	ldd	r24, Y+22	; 0x16
     fd6:	9f 89       	ldd	r25, Y+23	; 0x17
     fd8:	0e 94 5f 18 	call	0x30be	; 0x30be <__gesf2>
     fdc:	18 16       	cp	r1, r24
     fde:	4c f5       	brge	.+82     	; 0x1032 <lcd_wr_command+0x298>
     fe0:	20 e0       	ldi	r18, 0x00	; 0
     fe2:	30 e0       	ldi	r19, 0x00	; 0
     fe4:	40 e2       	ldi	r20, 0x20	; 32
     fe6:	51 e4       	ldi	r21, 0x41	; 65
     fe8:	68 89       	ldd	r22, Y+16	; 0x10
     fea:	79 89       	ldd	r23, Y+17	; 0x11
     fec:	8a 89       	ldd	r24, Y+18	; 0x12
     fee:	9b 89       	ldd	r25, Y+19	; 0x13
     ff0:	0e 94 63 18 	call	0x30c6	; 0x30c6 <__mulsf3>
     ff4:	dc 01       	movw	r26, r24
     ff6:	cb 01       	movw	r24, r22
     ff8:	bc 01       	movw	r22, r24
     ffa:	cd 01       	movw	r24, r26
     ffc:	0e 94 81 17 	call	0x2f02	; 0x2f02 <__fixunssfsi>
    1000:	dc 01       	movw	r26, r24
    1002:	cb 01       	movw	r24, r22
    1004:	99 8f       	std	Y+25, r25	; 0x19
    1006:	88 8f       	std	Y+24, r24	; 0x18
    1008:	0f c0       	rjmp	.+30     	; 0x1028 <lcd_wr_command+0x28e>
    100a:	80 e7       	ldi	r24, 0x70	; 112
    100c:	91 e0       	ldi	r25, 0x01	; 1
    100e:	9b 8f       	std	Y+27, r25	; 0x1b
    1010:	8a 8f       	std	Y+26, r24	; 0x1a
    1012:	8a 8d       	ldd	r24, Y+26	; 0x1a
    1014:	9b 8d       	ldd	r25, Y+27	; 0x1b
    1016:	01 97       	sbiw	r24, 0x01	; 1
    1018:	f1 f7       	brne	.-4      	; 0x1016 <lcd_wr_command+0x27c>
    101a:	9b 8f       	std	Y+27, r25	; 0x1b
    101c:	8a 8f       	std	Y+26, r24	; 0x1a
    101e:	88 8d       	ldd	r24, Y+24	; 0x18
    1020:	99 8d       	ldd	r25, Y+25	; 0x19
    1022:	01 97       	sbiw	r24, 0x01	; 1
    1024:	99 8f       	std	Y+25, r25	; 0x19
    1026:	88 8f       	std	Y+24, r24	; 0x18
    1028:	88 8d       	ldd	r24, Y+24	; 0x18
    102a:	99 8d       	ldd	r25, Y+25	; 0x19
    102c:	00 97       	sbiw	r24, 0x00	; 0
    102e:	69 f7       	brne	.-38     	; 0x100a <lcd_wr_command+0x270>
    1030:	14 c0       	rjmp	.+40     	; 0x105a <lcd_wr_command+0x2c0>
    1032:	6c 89       	ldd	r22, Y+20	; 0x14
    1034:	7d 89       	ldd	r23, Y+21	; 0x15
    1036:	8e 89       	ldd	r24, Y+22	; 0x16
    1038:	9f 89       	ldd	r25, Y+23	; 0x17
    103a:	0e 94 81 17 	call	0x2f02	; 0x2f02 <__fixunssfsi>
    103e:	dc 01       	movw	r26, r24
    1040:	cb 01       	movw	r24, r22
    1042:	99 8f       	std	Y+25, r25	; 0x19
    1044:	88 8f       	std	Y+24, r24	; 0x18
    1046:	88 8d       	ldd	r24, Y+24	; 0x18
    1048:	99 8d       	ldd	r25, Y+25	; 0x19
    104a:	9d 8f       	std	Y+29, r25	; 0x1d
    104c:	8c 8f       	std	Y+28, r24	; 0x1c
    104e:	8c 8d       	ldd	r24, Y+28	; 0x1c
    1050:	9d 8d       	ldd	r25, Y+29	; 0x1d
    1052:	01 97       	sbiw	r24, 0x01	; 1
    1054:	f1 f7       	brne	.-4      	; 0x1052 <lcd_wr_command+0x2b8>
    1056:	9d 8f       	std	Y+29, r25	; 0x1d
    1058:	8c 8f       	std	Y+28, r24	; 0x1c
    105a:	88 e2       	ldi	r24, 0x28	; 40
    105c:	90 e0       	ldi	r25, 0x00	; 0
    105e:	28 e2       	ldi	r18, 0x28	; 40
    1060:	30 e0       	ldi	r19, 0x00	; 0
    1062:	f9 01       	movw	r30, r18
    1064:	20 81       	ld	r18, Z
    1066:	2b 7f       	andi	r18, 0xFB	; 251
    1068:	fc 01       	movw	r30, r24
    106a:	20 83       	st	Z, r18
    106c:	6e 96       	adiw	r28, 0x1e	; 30
    106e:	0f b6       	in	r0, 0x3f	; 63
    1070:	f8 94       	cli
    1072:	de bf       	out	0x3e, r29	; 62
    1074:	0f be       	out	0x3f, r0	; 63
    1076:	cd bf       	out	0x3d, r28	; 61
    1078:	df 91       	pop	r29
    107a:	cf 91       	pop	r28
    107c:	08 95       	ret

0000107e <lcd_wr_char>:
    107e:	cf 93       	push	r28
    1080:	df 93       	push	r29
    1082:	cd b7       	in	r28, 0x3d	; 61
    1084:	de b7       	in	r29, 0x3e	; 62
    1086:	6e 97       	sbiw	r28, 0x1e	; 30
    1088:	0f b6       	in	r0, 0x3f	; 63
    108a:	f8 94       	cli
    108c:	de bf       	out	0x3e, r29	; 62
    108e:	0f be       	out	0x3f, r0	; 63
    1090:	cd bf       	out	0x3d, r28	; 61
    1092:	8e 8f       	std	Y+30, r24	; 0x1e
    1094:	8e 8d       	ldd	r24, Y+30	; 0x1e
    1096:	89 83       	std	Y+1, r24	; 0x01
    1098:	89 81       	ldd	r24, Y+1	; 0x01
    109a:	80 7f       	andi	r24, 0xF0	; 240
    109c:	89 83       	std	Y+1, r24	; 0x01
    109e:	88 e2       	ldi	r24, 0x28	; 40
    10a0:	90 e0       	ldi	r25, 0x00	; 0
    10a2:	28 e2       	ldi	r18, 0x28	; 40
    10a4:	30 e0       	ldi	r19, 0x00	; 0
    10a6:	f9 01       	movw	r30, r18
    10a8:	20 81       	ld	r18, Z
    10aa:	2f 70       	andi	r18, 0x0F	; 15
    10ac:	fc 01       	movw	r30, r24
    10ae:	20 83       	st	Z, r18
    10b0:	88 e2       	ldi	r24, 0x28	; 40
    10b2:	90 e0       	ldi	r25, 0x00	; 0
    10b4:	28 e2       	ldi	r18, 0x28	; 40
    10b6:	30 e0       	ldi	r19, 0x00	; 0
    10b8:	f9 01       	movw	r30, r18
    10ba:	30 81       	ld	r19, Z
    10bc:	29 81       	ldd	r18, Y+1	; 0x01
    10be:	23 2b       	or	r18, r19
    10c0:	fc 01       	movw	r30, r24
    10c2:	20 83       	st	Z, r18
    10c4:	88 e2       	ldi	r24, 0x28	; 40
    10c6:	90 e0       	ldi	r25, 0x00	; 0
    10c8:	28 e2       	ldi	r18, 0x28	; 40
    10ca:	30 e0       	ldi	r19, 0x00	; 0
    10cc:	f9 01       	movw	r30, r18
    10ce:	20 81       	ld	r18, Z
    10d0:	21 60       	ori	r18, 0x01	; 1
    10d2:	fc 01       	movw	r30, r24
    10d4:	20 83       	st	Z, r18
    10d6:	88 e2       	ldi	r24, 0x28	; 40
    10d8:	90 e0       	ldi	r25, 0x00	; 0
    10da:	28 e2       	ldi	r18, 0x28	; 40
    10dc:	30 e0       	ldi	r19, 0x00	; 0
    10de:	f9 01       	movw	r30, r18
    10e0:	20 81       	ld	r18, Z
    10e2:	2d 7f       	andi	r18, 0xFD	; 253
    10e4:	fc 01       	movw	r30, r24
    10e6:	20 83       	st	Z, r18
    10e8:	88 e2       	ldi	r24, 0x28	; 40
    10ea:	90 e0       	ldi	r25, 0x00	; 0
    10ec:	28 e2       	ldi	r18, 0x28	; 40
    10ee:	30 e0       	ldi	r19, 0x00	; 0
    10f0:	f9 01       	movw	r30, r18
    10f2:	20 81       	ld	r18, Z
    10f4:	24 60       	ori	r18, 0x04	; 4
    10f6:	fc 01       	movw	r30, r24
    10f8:	20 83       	st	Z, r18
    10fa:	80 e0       	ldi	r24, 0x00	; 0
    10fc:	90 e0       	ldi	r25, 0x00	; 0
    10fe:	a0 ea       	ldi	r26, 0xA0	; 160
    1100:	b0 e4       	ldi	r27, 0x40	; 64
    1102:	8a 83       	std	Y+2, r24	; 0x02
    1104:	9b 83       	std	Y+3, r25	; 0x03
    1106:	ac 83       	std	Y+4, r26	; 0x04
    1108:	bd 83       	std	Y+5, r27	; 0x05
    110a:	26 e6       	ldi	r18, 0x66	; 102
    110c:	36 e6       	ldi	r19, 0x66	; 102
    110e:	46 e6       	ldi	r20, 0x66	; 102
    1110:	55 e4       	ldi	r21, 0x45	; 69
    1112:	6a 81       	ldd	r22, Y+2	; 0x02
    1114:	7b 81       	ldd	r23, Y+3	; 0x03
    1116:	8c 81       	ldd	r24, Y+4	; 0x04
    1118:	9d 81       	ldd	r25, Y+5	; 0x05
    111a:	0e 94 63 18 	call	0x30c6	; 0x30c6 <__mulsf3>
    111e:	dc 01       	movw	r26, r24
    1120:	cb 01       	movw	r24, r22
    1122:	8e 83       	std	Y+6, r24	; 0x06
    1124:	9f 83       	std	Y+7, r25	; 0x07
    1126:	a8 87       	std	Y+8, r26	; 0x08
    1128:	b9 87       	std	Y+9, r27	; 0x09
    112a:	20 e0       	ldi	r18, 0x00	; 0
    112c:	30 e0       	ldi	r19, 0x00	; 0
    112e:	40 e8       	ldi	r20, 0x80	; 128
    1130:	5f e3       	ldi	r21, 0x3F	; 63
    1132:	6e 81       	ldd	r22, Y+6	; 0x06
    1134:	7f 81       	ldd	r23, Y+7	; 0x07
    1136:	88 85       	ldd	r24, Y+8	; 0x08
    1138:	99 85       	ldd	r25, Y+9	; 0x09
    113a:	0e 94 15 17 	call	0x2e2a	; 0x2e2a <__cmpsf2>
    113e:	88 23       	and	r24, r24
    1140:	2c f4       	brge	.+10     	; 0x114c <lcd_wr_char+0xce>
    1142:	81 e0       	ldi	r24, 0x01	; 1
    1144:	90 e0       	ldi	r25, 0x00	; 0
    1146:	9b 87       	std	Y+11, r25	; 0x0b
    1148:	8a 87       	std	Y+10, r24	; 0x0a
    114a:	3f c0       	rjmp	.+126    	; 0x11ca <lcd_wr_char+0x14c>
    114c:	20 e0       	ldi	r18, 0x00	; 0
    114e:	3f ef       	ldi	r19, 0xFF	; 255
    1150:	4f e7       	ldi	r20, 0x7F	; 127
    1152:	57 e4       	ldi	r21, 0x47	; 71
    1154:	6e 81       	ldd	r22, Y+6	; 0x06
    1156:	7f 81       	ldd	r23, Y+7	; 0x07
    1158:	88 85       	ldd	r24, Y+8	; 0x08
    115a:	99 85       	ldd	r25, Y+9	; 0x09
    115c:	0e 94 5f 18 	call	0x30be	; 0x30be <__gesf2>
    1160:	18 16       	cp	r1, r24
    1162:	4c f5       	brge	.+82     	; 0x11b6 <lcd_wr_char+0x138>
    1164:	20 e0       	ldi	r18, 0x00	; 0
    1166:	30 e0       	ldi	r19, 0x00	; 0
    1168:	40 e2       	ldi	r20, 0x20	; 32
    116a:	51 e4       	ldi	r21, 0x41	; 65
    116c:	6a 81       	ldd	r22, Y+2	; 0x02
    116e:	7b 81       	ldd	r23, Y+3	; 0x03
    1170:	8c 81       	ldd	r24, Y+4	; 0x04
    1172:	9d 81       	ldd	r25, Y+5	; 0x05
    1174:	0e 94 63 18 	call	0x30c6	; 0x30c6 <__mulsf3>
    1178:	dc 01       	movw	r26, r24
    117a:	cb 01       	movw	r24, r22
    117c:	bc 01       	movw	r22, r24
    117e:	cd 01       	movw	r24, r26
    1180:	0e 94 81 17 	call	0x2f02	; 0x2f02 <__fixunssfsi>
    1184:	dc 01       	movw	r26, r24
    1186:	cb 01       	movw	r24, r22
    1188:	9b 87       	std	Y+11, r25	; 0x0b
    118a:	8a 87       	std	Y+10, r24	; 0x0a
    118c:	0f c0       	rjmp	.+30     	; 0x11ac <lcd_wr_char+0x12e>
    118e:	80 e7       	ldi	r24, 0x70	; 112
    1190:	91 e0       	ldi	r25, 0x01	; 1
    1192:	9d 87       	std	Y+13, r25	; 0x0d
    1194:	8c 87       	std	Y+12, r24	; 0x0c
    1196:	8c 85       	ldd	r24, Y+12	; 0x0c
    1198:	9d 85       	ldd	r25, Y+13	; 0x0d
    119a:	01 97       	sbiw	r24, 0x01	; 1
    119c:	f1 f7       	brne	.-4      	; 0x119a <lcd_wr_char+0x11c>
    119e:	9d 87       	std	Y+13, r25	; 0x0d
    11a0:	8c 87       	std	Y+12, r24	; 0x0c
    11a2:	8a 85       	ldd	r24, Y+10	; 0x0a
    11a4:	9b 85       	ldd	r25, Y+11	; 0x0b
    11a6:	01 97       	sbiw	r24, 0x01	; 1
    11a8:	9b 87       	std	Y+11, r25	; 0x0b
    11aa:	8a 87       	std	Y+10, r24	; 0x0a
    11ac:	8a 85       	ldd	r24, Y+10	; 0x0a
    11ae:	9b 85       	ldd	r25, Y+11	; 0x0b
    11b0:	00 97       	sbiw	r24, 0x00	; 0
    11b2:	69 f7       	brne	.-38     	; 0x118e <lcd_wr_char+0x110>
    11b4:	14 c0       	rjmp	.+40     	; 0x11de <lcd_wr_char+0x160>
    11b6:	6e 81       	ldd	r22, Y+6	; 0x06
    11b8:	7f 81       	ldd	r23, Y+7	; 0x07
    11ba:	88 85       	ldd	r24, Y+8	; 0x08
    11bc:	99 85       	ldd	r25, Y+9	; 0x09
    11be:	0e 94 81 17 	call	0x2f02	; 0x2f02 <__fixunssfsi>
    11c2:	dc 01       	movw	r26, r24
    11c4:	cb 01       	movw	r24, r22
    11c6:	9b 87       	std	Y+11, r25	; 0x0b
    11c8:	8a 87       	std	Y+10, r24	; 0x0a
    11ca:	8a 85       	ldd	r24, Y+10	; 0x0a
    11cc:	9b 85       	ldd	r25, Y+11	; 0x0b
    11ce:	9f 87       	std	Y+15, r25	; 0x0f
    11d0:	8e 87       	std	Y+14, r24	; 0x0e
    11d2:	8e 85       	ldd	r24, Y+14	; 0x0e
    11d4:	9f 85       	ldd	r25, Y+15	; 0x0f
    11d6:	01 97       	sbiw	r24, 0x01	; 1
    11d8:	f1 f7       	brne	.-4      	; 0x11d6 <lcd_wr_char+0x158>
    11da:	9f 87       	std	Y+15, r25	; 0x0f
    11dc:	8e 87       	std	Y+14, r24	; 0x0e
    11de:	88 e2       	ldi	r24, 0x28	; 40
    11e0:	90 e0       	ldi	r25, 0x00	; 0
    11e2:	28 e2       	ldi	r18, 0x28	; 40
    11e4:	30 e0       	ldi	r19, 0x00	; 0
    11e6:	f9 01       	movw	r30, r18
    11e8:	20 81       	ld	r18, Z
    11ea:	2b 7f       	andi	r18, 0xFB	; 251
    11ec:	fc 01       	movw	r30, r24
    11ee:	20 83       	st	Z, r18
    11f0:	8e 8d       	ldd	r24, Y+30	; 0x1e
    11f2:	8f 70       	andi	r24, 0x0F	; 15
    11f4:	8e 8f       	std	Y+30, r24	; 0x1e
    11f6:	8e 8d       	ldd	r24, Y+30	; 0x1e
    11f8:	82 95       	swap	r24
    11fa:	80 7f       	andi	r24, 0xF0	; 240
    11fc:	8e 8f       	std	Y+30, r24	; 0x1e
    11fe:	88 e2       	ldi	r24, 0x28	; 40
    1200:	90 e0       	ldi	r25, 0x00	; 0
    1202:	28 e2       	ldi	r18, 0x28	; 40
    1204:	30 e0       	ldi	r19, 0x00	; 0
    1206:	f9 01       	movw	r30, r18
    1208:	20 81       	ld	r18, Z
    120a:	2f 70       	andi	r18, 0x0F	; 15
    120c:	fc 01       	movw	r30, r24
    120e:	20 83       	st	Z, r18
    1210:	88 e2       	ldi	r24, 0x28	; 40
    1212:	90 e0       	ldi	r25, 0x00	; 0
    1214:	28 e2       	ldi	r18, 0x28	; 40
    1216:	30 e0       	ldi	r19, 0x00	; 0
    1218:	f9 01       	movw	r30, r18
    121a:	30 81       	ld	r19, Z
    121c:	2e 8d       	ldd	r18, Y+30	; 0x1e
    121e:	23 2b       	or	r18, r19
    1220:	fc 01       	movw	r30, r24
    1222:	20 83       	st	Z, r18
    1224:	88 e2       	ldi	r24, 0x28	; 40
    1226:	90 e0       	ldi	r25, 0x00	; 0
    1228:	28 e2       	ldi	r18, 0x28	; 40
    122a:	30 e0       	ldi	r19, 0x00	; 0
    122c:	f9 01       	movw	r30, r18
    122e:	20 81       	ld	r18, Z
    1230:	21 60       	ori	r18, 0x01	; 1
    1232:	fc 01       	movw	r30, r24
    1234:	20 83       	st	Z, r18
    1236:	88 e2       	ldi	r24, 0x28	; 40
    1238:	90 e0       	ldi	r25, 0x00	; 0
    123a:	28 e2       	ldi	r18, 0x28	; 40
    123c:	30 e0       	ldi	r19, 0x00	; 0
    123e:	f9 01       	movw	r30, r18
    1240:	20 81       	ld	r18, Z
    1242:	2d 7f       	andi	r18, 0xFD	; 253
    1244:	fc 01       	movw	r30, r24
    1246:	20 83       	st	Z, r18
    1248:	88 e2       	ldi	r24, 0x28	; 40
    124a:	90 e0       	ldi	r25, 0x00	; 0
    124c:	28 e2       	ldi	r18, 0x28	; 40
    124e:	30 e0       	ldi	r19, 0x00	; 0
    1250:	f9 01       	movw	r30, r18
    1252:	20 81       	ld	r18, Z
    1254:	24 60       	ori	r18, 0x04	; 4
    1256:	fc 01       	movw	r30, r24
    1258:	20 83       	st	Z, r18
    125a:	80 e0       	ldi	r24, 0x00	; 0
    125c:	90 e0       	ldi	r25, 0x00	; 0
    125e:	a0 ea       	ldi	r26, 0xA0	; 160
    1260:	b0 e4       	ldi	r27, 0x40	; 64
    1262:	88 8b       	std	Y+16, r24	; 0x10
    1264:	99 8b       	std	Y+17, r25	; 0x11
    1266:	aa 8b       	std	Y+18, r26	; 0x12
    1268:	bb 8b       	std	Y+19, r27	; 0x13
    126a:	26 e6       	ldi	r18, 0x66	; 102
    126c:	36 e6       	ldi	r19, 0x66	; 102
    126e:	46 e6       	ldi	r20, 0x66	; 102
    1270:	55 e4       	ldi	r21, 0x45	; 69
    1272:	68 89       	ldd	r22, Y+16	; 0x10
    1274:	79 89       	ldd	r23, Y+17	; 0x11
    1276:	8a 89       	ldd	r24, Y+18	; 0x12
    1278:	9b 89       	ldd	r25, Y+19	; 0x13
    127a:	0e 94 63 18 	call	0x30c6	; 0x30c6 <__mulsf3>
    127e:	dc 01       	movw	r26, r24
    1280:	cb 01       	movw	r24, r22
    1282:	8c 8b       	std	Y+20, r24	; 0x14
    1284:	9d 8b       	std	Y+21, r25	; 0x15
    1286:	ae 8b       	std	Y+22, r26	; 0x16
    1288:	bf 8b       	std	Y+23, r27	; 0x17
    128a:	20 e0       	ldi	r18, 0x00	; 0
    128c:	30 e0       	ldi	r19, 0x00	; 0
    128e:	40 e8       	ldi	r20, 0x80	; 128
    1290:	5f e3       	ldi	r21, 0x3F	; 63
    1292:	6c 89       	ldd	r22, Y+20	; 0x14
    1294:	7d 89       	ldd	r23, Y+21	; 0x15
    1296:	8e 89       	ldd	r24, Y+22	; 0x16
    1298:	9f 89       	ldd	r25, Y+23	; 0x17
    129a:	0e 94 15 17 	call	0x2e2a	; 0x2e2a <__cmpsf2>
    129e:	88 23       	and	r24, r24
    12a0:	2c f4       	brge	.+10     	; 0x12ac <lcd_wr_char+0x22e>
    12a2:	81 e0       	ldi	r24, 0x01	; 1
    12a4:	90 e0       	ldi	r25, 0x00	; 0
    12a6:	99 8f       	std	Y+25, r25	; 0x19
    12a8:	88 8f       	std	Y+24, r24	; 0x18
    12aa:	3f c0       	rjmp	.+126    	; 0x132a <lcd_wr_char+0x2ac>
    12ac:	20 e0       	ldi	r18, 0x00	; 0
    12ae:	3f ef       	ldi	r19, 0xFF	; 255
    12b0:	4f e7       	ldi	r20, 0x7F	; 127
    12b2:	57 e4       	ldi	r21, 0x47	; 71
    12b4:	6c 89       	ldd	r22, Y+20	; 0x14
    12b6:	7d 89       	ldd	r23, Y+21	; 0x15
    12b8:	8e 89       	ldd	r24, Y+22	; 0x16
    12ba:	9f 89       	ldd	r25, Y+23	; 0x17
    12bc:	0e 94 5f 18 	call	0x30be	; 0x30be <__gesf2>
    12c0:	18 16       	cp	r1, r24
    12c2:	4c f5       	brge	.+82     	; 0x1316 <lcd_wr_char+0x298>
    12c4:	20 e0       	ldi	r18, 0x00	; 0
    12c6:	30 e0       	ldi	r19, 0x00	; 0
    12c8:	40 e2       	ldi	r20, 0x20	; 32
    12ca:	51 e4       	ldi	r21, 0x41	; 65
    12cc:	68 89       	ldd	r22, Y+16	; 0x10
    12ce:	79 89       	ldd	r23, Y+17	; 0x11
    12d0:	8a 89       	ldd	r24, Y+18	; 0x12
    12d2:	9b 89       	ldd	r25, Y+19	; 0x13
    12d4:	0e 94 63 18 	call	0x30c6	; 0x30c6 <__mulsf3>
    12d8:	dc 01       	movw	r26, r24
    12da:	cb 01       	movw	r24, r22
    12dc:	bc 01       	movw	r22, r24
    12de:	cd 01       	movw	r24, r26
    12e0:	0e 94 81 17 	call	0x2f02	; 0x2f02 <__fixunssfsi>
    12e4:	dc 01       	movw	r26, r24
    12e6:	cb 01       	movw	r24, r22
    12e8:	99 8f       	std	Y+25, r25	; 0x19
    12ea:	88 8f       	std	Y+24, r24	; 0x18
    12ec:	0f c0       	rjmp	.+30     	; 0x130c <lcd_wr_char+0x28e>
    12ee:	80 e7       	ldi	r24, 0x70	; 112
    12f0:	91 e0       	ldi	r25, 0x01	; 1
    12f2:	9b 8f       	std	Y+27, r25	; 0x1b
    12f4:	8a 8f       	std	Y+26, r24	; 0x1a
    12f6:	8a 8d       	ldd	r24, Y+26	; 0x1a
    12f8:	9b 8d       	ldd	r25, Y+27	; 0x1b
    12fa:	01 97       	sbiw	r24, 0x01	; 1
    12fc:	f1 f7       	brne	.-4      	; 0x12fa <lcd_wr_char+0x27c>
    12fe:	9b 8f       	std	Y+27, r25	; 0x1b
    1300:	8a 8f       	std	Y+26, r24	; 0x1a
    1302:	88 8d       	ldd	r24, Y+24	; 0x18
    1304:	99 8d       	ldd	r25, Y+25	; 0x19
    1306:	01 97       	sbiw	r24, 0x01	; 1
    1308:	99 8f       	std	Y+25, r25	; 0x19
    130a:	88 8f       	std	Y+24, r24	; 0x18
    130c:	88 8d       	ldd	r24, Y+24	; 0x18
    130e:	99 8d       	ldd	r25, Y+25	; 0x19
    1310:	00 97       	sbiw	r24, 0x00	; 0
    1312:	69 f7       	brne	.-38     	; 0x12ee <lcd_wr_char+0x270>
    1314:	14 c0       	rjmp	.+40     	; 0x133e <lcd_wr_char+0x2c0>
    1316:	6c 89       	ldd	r22, Y+20	; 0x14
    1318:	7d 89       	ldd	r23, Y+21	; 0x15
    131a:	8e 89       	ldd	r24, Y+22	; 0x16
    131c:	9f 89       	ldd	r25, Y+23	; 0x17
    131e:	0e 94 81 17 	call	0x2f02	; 0x2f02 <__fixunssfsi>
    1322:	dc 01       	movw	r26, r24
    1324:	cb 01       	movw	r24, r22
    1326:	99 8f       	std	Y+25, r25	; 0x19
    1328:	88 8f       	std	Y+24, r24	; 0x18
    132a:	88 8d       	ldd	r24, Y+24	; 0x18
    132c:	99 8d       	ldd	r25, Y+25	; 0x19
    132e:	9d 8f       	std	Y+29, r25	; 0x1d
    1330:	8c 8f       	std	Y+28, r24	; 0x1c
    1332:	8c 8d       	ldd	r24, Y+28	; 0x1c
    1334:	9d 8d       	ldd	r25, Y+29	; 0x1d
    1336:	01 97       	sbiw	r24, 0x01	; 1
    1338:	f1 f7       	brne	.-4      	; 0x1336 <lcd_wr_char+0x2b8>
    133a:	9d 8f       	std	Y+29, r25	; 0x1d
    133c:	8c 8f       	std	Y+28, r24	; 0x1c
    133e:	88 e2       	ldi	r24, 0x28	; 40
    1340:	90 e0       	ldi	r25, 0x00	; 0
    1342:	28 e2       	ldi	r18, 0x28	; 40
    1344:	30 e0       	ldi	r19, 0x00	; 0
    1346:	f9 01       	movw	r30, r18
    1348:	20 81       	ld	r18, Z
    134a:	2b 7f       	andi	r18, 0xFB	; 251
    134c:	fc 01       	movw	r30, r24
    134e:	20 83       	st	Z, r18
    1350:	6e 96       	adiw	r28, 0x1e	; 30
    1352:	0f b6       	in	r0, 0x3f	; 63
    1354:	f8 94       	cli
    1356:	de bf       	out	0x3e, r29	; 62
    1358:	0f be       	out	0x3f, r0	; 63
    135a:	cd bf       	out	0x3d, r28	; 61
    135c:	df 91       	pop	r29
    135e:	cf 91       	pop	r28
    1360:	08 95       	ret

00001362 <lcd_home>:
    1362:	cf 93       	push	r28
    1364:	df 93       	push	r29
    1366:	cd b7       	in	r28, 0x3d	; 61
    1368:	de b7       	in	r29, 0x3e	; 62
    136a:	80 e8       	ldi	r24, 0x80	; 128
    136c:	16 dd       	rcall	.-1492   	; 0xd9a <lcd_wr_command>
    136e:	df 91       	pop	r29
    1370:	cf 91       	pop	r28
    1372:	08 95       	ret

00001374 <lcd_string>:
    1374:	cf 93       	push	r28
    1376:	df 93       	push	r29
    1378:	1f 92       	push	r1
    137a:	1f 92       	push	r1
    137c:	cd b7       	in	r28, 0x3d	; 61
    137e:	de b7       	in	r29, 0x3e	; 62
    1380:	9a 83       	std	Y+2, r25	; 0x02
    1382:	89 83       	std	Y+1, r24	; 0x01
    1384:	0a c0       	rjmp	.+20     	; 0x139a <lcd_string+0x26>
    1386:	89 81       	ldd	r24, Y+1	; 0x01
    1388:	9a 81       	ldd	r25, Y+2	; 0x02
    138a:	fc 01       	movw	r30, r24
    138c:	80 81       	ld	r24, Z
    138e:	77 de       	rcall	.-786    	; 0x107e <lcd_wr_char>
    1390:	89 81       	ldd	r24, Y+1	; 0x01
    1392:	9a 81       	ldd	r25, Y+2	; 0x02
    1394:	01 96       	adiw	r24, 0x01	; 1
    1396:	9a 83       	std	Y+2, r25	; 0x02
    1398:	89 83       	std	Y+1, r24	; 0x01
    139a:	89 81       	ldd	r24, Y+1	; 0x01
    139c:	9a 81       	ldd	r25, Y+2	; 0x02
    139e:	fc 01       	movw	r30, r24
    13a0:	80 81       	ld	r24, Z
    13a2:	88 23       	and	r24, r24
    13a4:	81 f7       	brne	.-32     	; 0x1386 <lcd_string+0x12>
    13a6:	0f 90       	pop	r0
    13a8:	0f 90       	pop	r0
    13aa:	df 91       	pop	r29
    13ac:	cf 91       	pop	r28
    13ae:	08 95       	ret

000013b0 <lcd_cursor>:
    13b0:	cf 93       	push	r28
    13b2:	df 93       	push	r29
    13b4:	1f 92       	push	r1
    13b6:	1f 92       	push	r1
    13b8:	cd b7       	in	r28, 0x3d	; 61
    13ba:	de b7       	in	r29, 0x3e	; 62
    13bc:	89 83       	std	Y+1, r24	; 0x01
    13be:	6a 83       	std	Y+2, r22	; 0x02
    13c0:	89 81       	ldd	r24, Y+1	; 0x01
    13c2:	88 2f       	mov	r24, r24
    13c4:	90 e0       	ldi	r25, 0x00	; 0
    13c6:	82 30       	cpi	r24, 0x02	; 2
    13c8:	91 05       	cpc	r25, r1
    13ca:	91 f0       	breq	.+36     	; 0x13f0 <lcd_cursor+0x40>
    13cc:	83 30       	cpi	r24, 0x03	; 3
    13ce:	91 05       	cpc	r25, r1
    13d0:	24 f4       	brge	.+8      	; 0x13da <lcd_cursor+0x2a>
    13d2:	81 30       	cpi	r24, 0x01	; 1
    13d4:	91 05       	cpc	r25, r1
    13d6:	41 f0       	breq	.+16     	; 0x13e8 <lcd_cursor+0x38>
    13d8:	17 c0       	rjmp	.+46     	; 0x1408 <lcd_cursor+0x58>
    13da:	83 30       	cpi	r24, 0x03	; 3
    13dc:	91 05       	cpc	r25, r1
    13de:	61 f0       	breq	.+24     	; 0x13f8 <lcd_cursor+0x48>
    13e0:	84 30       	cpi	r24, 0x04	; 4
    13e2:	91 05       	cpc	r25, r1
    13e4:	69 f0       	breq	.+26     	; 0x1400 <lcd_cursor+0x50>
    13e6:	10 c0       	rjmp	.+32     	; 0x1408 <lcd_cursor+0x58>
    13e8:	8a 81       	ldd	r24, Y+2	; 0x02
    13ea:	81 58       	subi	r24, 0x81	; 129
    13ec:	d6 dc       	rcall	.-1620   	; 0xd9a <lcd_wr_command>
    13ee:	0c c0       	rjmp	.+24     	; 0x1408 <lcd_cursor+0x58>
    13f0:	8a 81       	ldd	r24, Y+2	; 0x02
    13f2:	81 54       	subi	r24, 0x41	; 65
    13f4:	d2 dc       	rcall	.-1628   	; 0xd9a <lcd_wr_command>
    13f6:	08 c0       	rjmp	.+16     	; 0x1408 <lcd_cursor+0x58>
    13f8:	8a 81       	ldd	r24, Y+2	; 0x02
    13fa:	8d 56       	subi	r24, 0x6D	; 109
    13fc:	ce dc       	rcall	.-1636   	; 0xd9a <lcd_wr_command>
    13fe:	04 c0       	rjmp	.+8      	; 0x1408 <lcd_cursor+0x58>
    1400:	8a 81       	ldd	r24, Y+2	; 0x02
    1402:	8d 52       	subi	r24, 0x2D	; 45
    1404:	ca dc       	rcall	.-1644   	; 0xd9a <lcd_wr_command>
    1406:	00 00       	nop
    1408:	0f 90       	pop	r0
    140a:	0f 90       	pop	r0
    140c:	df 91       	pop	r29
    140e:	cf 91       	pop	r28
    1410:	08 95       	ret

00001412 <lcd_print>:
    1412:	cf 93       	push	r28
    1414:	df 93       	push	r29
    1416:	cd b7       	in	r28, 0x3d	; 61
    1418:	de b7       	in	r29, 0x3e	; 62
    141a:	27 97       	sbiw	r28, 0x07	; 7
    141c:	0f b6       	in	r0, 0x3f	; 63
    141e:	f8 94       	cli
    1420:	de bf       	out	0x3e, r29	; 62
    1422:	0f be       	out	0x3f, r0	; 63
    1424:	cd bf       	out	0x3d, r28	; 61
    1426:	8a 83       	std	Y+2, r24	; 0x02
    1428:	6b 83       	std	Y+3, r22	; 0x03
    142a:	5d 83       	std	Y+5, r21	; 0x05
    142c:	4c 83       	std	Y+4, r20	; 0x04
    142e:	3f 83       	std	Y+7, r19	; 0x07
    1430:	2e 83       	std	Y+6, r18	; 0x06
    1432:	19 82       	std	Y+1, r1	; 0x01
    1434:	8a 81       	ldd	r24, Y+2	; 0x02
    1436:	88 23       	and	r24, r24
    1438:	19 f0       	breq	.+6      	; 0x1440 <lcd_print+0x2e>
    143a:	8b 81       	ldd	r24, Y+3	; 0x03
    143c:	88 23       	and	r24, r24
    143e:	11 f4       	brne	.+4      	; 0x1444 <lcd_print+0x32>
    1440:	90 df       	rcall	.-224    	; 0x1362 <lcd_home>
    1442:	03 c0       	rjmp	.+6      	; 0x144a <lcd_print+0x38>
    1444:	6b 81       	ldd	r22, Y+3	; 0x03
    1446:	8a 81       	ldd	r24, Y+2	; 0x02
    1448:	b3 df       	rcall	.-154    	; 0x13b0 <lcd_cursor>
    144a:	8e 81       	ldd	r24, Y+6	; 0x06
    144c:	9f 81       	ldd	r25, Y+7	; 0x07
    144e:	85 30       	cpi	r24, 0x05	; 5
    1450:	91 05       	cpc	r25, r1
    1452:	19 f0       	breq	.+6      	; 0x145a <lcd_print+0x48>
    1454:	89 81       	ldd	r24, Y+1	; 0x01
    1456:	81 30       	cpi	r24, 0x01	; 1
    1458:	f9 f4       	brne	.+62     	; 0x1498 <lcd_print+0x86>
    145a:	8c 81       	ldd	r24, Y+4	; 0x04
    145c:	9d 81       	ldd	r25, Y+5	; 0x05
    145e:	92 95       	swap	r25
    1460:	82 95       	swap	r24
    1462:	8f 70       	andi	r24, 0x0F	; 15
    1464:	89 27       	eor	r24, r25
    1466:	9f 70       	andi	r25, 0x0F	; 15
    1468:	89 27       	eor	r24, r25
    146a:	9c 01       	movw	r18, r24
    146c:	a7 e4       	ldi	r26, 0x47	; 71
    146e:	b3 e0       	ldi	r27, 0x03	; 3
    1470:	0e 94 cc 18 	call	0x3198	; 0x3198 <__umulhisi3>
    1474:	96 95       	lsr	r25
    1476:	87 95       	ror	r24
    1478:	96 95       	lsr	r25
    147a:	87 95       	ror	r24
    147c:	96 95       	lsr	r25
    147e:	87 95       	ror	r24
    1480:	c0 96       	adiw	r24, 0x30	; 48
    1482:	90 93 b3 02 	sts	0x02B3, r25
    1486:	80 93 b2 02 	sts	0x02B2, r24
    148a:	80 91 b2 02 	lds	r24, 0x02B2
    148e:	90 91 b3 02 	lds	r25, 0x02B3
    1492:	f5 dd       	rcall	.-1046   	; 0x107e <lcd_wr_char>
    1494:	81 e0       	ldi	r24, 0x01	; 1
    1496:	89 83       	std	Y+1, r24	; 0x01
    1498:	8e 81       	ldd	r24, Y+6	; 0x06
    149a:	9f 81       	ldd	r25, Y+7	; 0x07
    149c:	84 30       	cpi	r24, 0x04	; 4
    149e:	91 05       	cpc	r25, r1
    14a0:	21 f0       	breq	.+8      	; 0x14aa <lcd_print+0x98>
    14a2:	89 81       	ldd	r24, Y+1	; 0x01
    14a4:	81 30       	cpi	r24, 0x01	; 1
    14a6:	09 f0       	breq	.+2      	; 0x14aa <lcd_print+0x98>
    14a8:	3f c0       	rjmp	.+126    	; 0x1528 <lcd_print+0x116>
    14aa:	8c 81       	ldd	r24, Y+4	; 0x04
    14ac:	9d 81       	ldd	r25, Y+5	; 0x05
    14ae:	96 95       	lsr	r25
    14b0:	87 95       	ror	r24
    14b2:	96 95       	lsr	r25
    14b4:	87 95       	ror	r24
    14b6:	96 95       	lsr	r25
    14b8:	87 95       	ror	r24
    14ba:	9c 01       	movw	r18, r24
    14bc:	a5 ec       	ldi	r26, 0xC5	; 197
    14be:	b0 e2       	ldi	r27, 0x20	; 32
    14c0:	0e 94 cc 18 	call	0x3198	; 0x3198 <__umulhisi3>
    14c4:	92 95       	swap	r25
    14c6:	82 95       	swap	r24
    14c8:	8f 70       	andi	r24, 0x0F	; 15
    14ca:	89 27       	eor	r24, r25
    14cc:	9f 70       	andi	r25, 0x0F	; 15
    14ce:	89 27       	eor	r24, r25
    14d0:	90 93 b7 02 	sts	0x02B7, r25
    14d4:	80 93 b6 02 	sts	0x02B6, r24
    14d8:	40 91 b6 02 	lds	r20, 0x02B6
    14dc:	50 91 b7 02 	lds	r21, 0x02B7
    14e0:	9a 01       	movw	r18, r20
    14e2:	ad ec       	ldi	r26, 0xCD	; 205
    14e4:	bc ec       	ldi	r27, 0xCC	; 204
    14e6:	0e 94 cc 18 	call	0x3198	; 0x3198 <__umulhisi3>
    14ea:	96 95       	lsr	r25
    14ec:	87 95       	ror	r24
    14ee:	96 95       	lsr	r25
    14f0:	87 95       	ror	r24
    14f2:	96 95       	lsr	r25
    14f4:	87 95       	ror	r24
    14f6:	88 0f       	add	r24, r24
    14f8:	99 1f       	adc	r25, r25
    14fa:	9c 01       	movw	r18, r24
    14fc:	22 0f       	add	r18, r18
    14fe:	33 1f       	adc	r19, r19
    1500:	22 0f       	add	r18, r18
    1502:	33 1f       	adc	r19, r19
    1504:	82 0f       	add	r24, r18
    1506:	93 1f       	adc	r25, r19
    1508:	9a 01       	movw	r18, r20
    150a:	28 1b       	sub	r18, r24
    150c:	39 0b       	sbc	r19, r25
    150e:	c9 01       	movw	r24, r18
    1510:	c0 96       	adiw	r24, 0x30	; 48
    1512:	90 93 c5 02 	sts	0x02C5, r25
    1516:	80 93 c4 02 	sts	0x02C4, r24
    151a:	80 91 c4 02 	lds	r24, 0x02C4
    151e:	90 91 c5 02 	lds	r25, 0x02C5
    1522:	ad dd       	rcall	.-1190   	; 0x107e <lcd_wr_char>
    1524:	81 e0       	ldi	r24, 0x01	; 1
    1526:	89 83       	std	Y+1, r24	; 0x01
    1528:	8e 81       	ldd	r24, Y+6	; 0x06
    152a:	9f 81       	ldd	r25, Y+7	; 0x07
    152c:	83 30       	cpi	r24, 0x03	; 3
    152e:	91 05       	cpc	r25, r1
    1530:	19 f0       	breq	.+6      	; 0x1538 <lcd_print+0x126>
    1532:	89 81       	ldd	r24, Y+1	; 0x01
    1534:	81 30       	cpi	r24, 0x01	; 1
    1536:	c9 f5       	brne	.+114    	; 0x15aa <lcd_print+0x198>
    1538:	8c 81       	ldd	r24, Y+4	; 0x04
    153a:	9d 81       	ldd	r25, Y+5	; 0x05
    153c:	96 95       	lsr	r25
    153e:	87 95       	ror	r24
    1540:	96 95       	lsr	r25
    1542:	87 95       	ror	r24
    1544:	9c 01       	movw	r18, r24
    1546:	ab e7       	ldi	r26, 0x7B	; 123
    1548:	b4 e1       	ldi	r27, 0x14	; 20
    154a:	0e 94 cc 18 	call	0x3198	; 0x3198 <__umulhisi3>
    154e:	96 95       	lsr	r25
    1550:	87 95       	ror	r24
    1552:	90 93 b7 02 	sts	0x02B7, r25
    1556:	80 93 b6 02 	sts	0x02B6, r24
    155a:	40 91 b6 02 	lds	r20, 0x02B6
    155e:	50 91 b7 02 	lds	r21, 0x02B7
    1562:	9a 01       	movw	r18, r20
    1564:	ad ec       	ldi	r26, 0xCD	; 205
    1566:	bc ec       	ldi	r27, 0xCC	; 204
    1568:	0e 94 cc 18 	call	0x3198	; 0x3198 <__umulhisi3>
    156c:	96 95       	lsr	r25
    156e:	87 95       	ror	r24
    1570:	96 95       	lsr	r25
    1572:	87 95       	ror	r24
    1574:	96 95       	lsr	r25
    1576:	87 95       	ror	r24
    1578:	88 0f       	add	r24, r24
    157a:	99 1f       	adc	r25, r25
    157c:	9c 01       	movw	r18, r24
    157e:	22 0f       	add	r18, r18
    1580:	33 1f       	adc	r19, r19
    1582:	22 0f       	add	r18, r18
    1584:	33 1f       	adc	r19, r19
    1586:	82 0f       	add	r24, r18
    1588:	93 1f       	adc	r25, r19
    158a:	9a 01       	movw	r18, r20
    158c:	28 1b       	sub	r18, r24
    158e:	39 0b       	sbc	r19, r25
    1590:	c9 01       	movw	r24, r18
    1592:	c0 96       	adiw	r24, 0x30	; 48
    1594:	90 93 be 02 	sts	0x02BE, r25
    1598:	80 93 bd 02 	sts	0x02BD, r24
    159c:	80 91 bd 02 	lds	r24, 0x02BD
    15a0:	90 91 be 02 	lds	r25, 0x02BE
    15a4:	6c dd       	rcall	.-1320   	; 0x107e <lcd_wr_char>
    15a6:	81 e0       	ldi	r24, 0x01	; 1
    15a8:	89 83       	std	Y+1, r24	; 0x01
    15aa:	8e 81       	ldd	r24, Y+6	; 0x06
    15ac:	9f 81       	ldd	r25, Y+7	; 0x07
    15ae:	82 30       	cpi	r24, 0x02	; 2
    15b0:	91 05       	cpc	r25, r1
    15b2:	19 f0       	breq	.+6      	; 0x15ba <lcd_print+0x1a8>
    15b4:	89 81       	ldd	r24, Y+1	; 0x01
    15b6:	81 30       	cpi	r24, 0x01	; 1
    15b8:	c9 f5       	brne	.+114    	; 0x162c <lcd_print+0x21a>
    15ba:	8c 81       	ldd	r24, Y+4	; 0x04
    15bc:	9d 81       	ldd	r25, Y+5	; 0x05
    15be:	9c 01       	movw	r18, r24
    15c0:	ad ec       	ldi	r26, 0xCD	; 205
    15c2:	bc ec       	ldi	r27, 0xCC	; 204
    15c4:	0e 94 cc 18 	call	0x3198	; 0x3198 <__umulhisi3>
    15c8:	96 95       	lsr	r25
    15ca:	87 95       	ror	r24
    15cc:	96 95       	lsr	r25
    15ce:	87 95       	ror	r24
    15d0:	96 95       	lsr	r25
    15d2:	87 95       	ror	r24
    15d4:	90 93 b7 02 	sts	0x02B7, r25
    15d8:	80 93 b6 02 	sts	0x02B6, r24
    15dc:	40 91 b6 02 	lds	r20, 0x02B6
    15e0:	50 91 b7 02 	lds	r21, 0x02B7
    15e4:	9a 01       	movw	r18, r20
    15e6:	ad ec       	ldi	r26, 0xCD	; 205
    15e8:	bc ec       	ldi	r27, 0xCC	; 204
    15ea:	0e 94 cc 18 	call	0x3198	; 0x3198 <__umulhisi3>
    15ee:	96 95       	lsr	r25
    15f0:	87 95       	ror	r24
    15f2:	96 95       	lsr	r25
    15f4:	87 95       	ror	r24
    15f6:	96 95       	lsr	r25
    15f8:	87 95       	ror	r24
    15fa:	88 0f       	add	r24, r24
    15fc:	99 1f       	adc	r25, r25
    15fe:	9c 01       	movw	r18, r24
    1600:	22 0f       	add	r18, r18
    1602:	33 1f       	adc	r19, r19
    1604:	22 0f       	add	r18, r18
    1606:	33 1f       	adc	r19, r19
    1608:	82 0f       	add	r24, r18
    160a:	93 1f       	adc	r25, r19
    160c:	9a 01       	movw	r18, r20
    160e:	28 1b       	sub	r18, r24
    1610:	39 0b       	sbc	r19, r25
    1612:	c9 01       	movw	r24, r18
    1614:	c0 96       	adiw	r24, 0x30	; 48
    1616:	90 93 bc 02 	sts	0x02BC, r25
    161a:	80 93 bb 02 	sts	0x02BB, r24
    161e:	80 91 bb 02 	lds	r24, 0x02BB
    1622:	90 91 bc 02 	lds	r25, 0x02BC
    1626:	2b dd       	rcall	.-1450   	; 0x107e <lcd_wr_char>
    1628:	81 e0       	ldi	r24, 0x01	; 1
    162a:	89 83       	std	Y+1, r24	; 0x01
    162c:	8e 81       	ldd	r24, Y+6	; 0x06
    162e:	9f 81       	ldd	r25, Y+7	; 0x07
    1630:	81 30       	cpi	r24, 0x01	; 1
    1632:	91 05       	cpc	r25, r1
    1634:	19 f0       	breq	.+6      	; 0x163c <lcd_print+0x22a>
    1636:	89 81       	ldd	r24, Y+1	; 0x01
    1638:	81 30       	cpi	r24, 0x01	; 1
    163a:	21 f5       	brne	.+72     	; 0x1684 <lcd_print+0x272>
    163c:	4c 81       	ldd	r20, Y+4	; 0x04
    163e:	5d 81       	ldd	r21, Y+5	; 0x05
    1640:	9a 01       	movw	r18, r20
    1642:	ad ec       	ldi	r26, 0xCD	; 205
    1644:	bc ec       	ldi	r27, 0xCC	; 204
    1646:	0e 94 cc 18 	call	0x3198	; 0x3198 <__umulhisi3>
    164a:	96 95       	lsr	r25
    164c:	87 95       	ror	r24
    164e:	96 95       	lsr	r25
    1650:	87 95       	ror	r24
    1652:	96 95       	lsr	r25
    1654:	87 95       	ror	r24
    1656:	88 0f       	add	r24, r24
    1658:	99 1f       	adc	r25, r25
    165a:	9c 01       	movw	r18, r24
    165c:	22 0f       	add	r18, r18
    165e:	33 1f       	adc	r19, r19
    1660:	22 0f       	add	r18, r18
    1662:	33 1f       	adc	r19, r19
    1664:	82 0f       	add	r24, r18
    1666:	93 1f       	adc	r25, r19
    1668:	9a 01       	movw	r18, r20
    166a:	28 1b       	sub	r18, r24
    166c:	39 0b       	sbc	r19, r25
    166e:	c9 01       	movw	r24, r18
    1670:	c0 96       	adiw	r24, 0x30	; 48
    1672:	90 93 c3 02 	sts	0x02C3, r25
    1676:	80 93 c2 02 	sts	0x02C2, r24
    167a:	80 91 c2 02 	lds	r24, 0x02C2
    167e:	90 91 c3 02 	lds	r25, 0x02C3
    1682:	fd dc       	rcall	.-1542   	; 0x107e <lcd_wr_char>
    1684:	8e 81       	ldd	r24, Y+6	; 0x06
    1686:	9f 81       	ldd	r25, Y+7	; 0x07
    1688:	86 30       	cpi	r24, 0x06	; 6
    168a:	91 05       	cpc	r25, r1
    168c:	14 f0       	brlt	.+4      	; 0x1692 <lcd_print+0x280>
    168e:	85 e4       	ldi	r24, 0x45	; 69
    1690:	f6 dc       	rcall	.-1556   	; 0x107e <lcd_wr_char>
    1692:	27 96       	adiw	r28, 0x07	; 7
    1694:	0f b6       	in	r0, 0x3f	; 63
    1696:	f8 94       	cli
    1698:	de bf       	out	0x3e, r29	; 62
    169a:	0f be       	out	0x3f, r0	; 63
    169c:	cd bf       	out	0x3d, r28	; 61
    169e:	df 91       	pop	r29
    16a0:	cf 91       	pop	r28
    16a2:	08 95       	ret

000016a4 <timer1_init>:
    16a4:	cf 93       	push	r28
    16a6:	df 93       	push	r29
    16a8:	cd b7       	in	r28, 0x3d	; 61
    16aa:	de b7       	in	r29, 0x3e	; 62
    16ac:	81 e8       	ldi	r24, 0x81	; 129
    16ae:	90 e0       	ldi	r25, 0x00	; 0
    16b0:	fc 01       	movw	r30, r24
    16b2:	10 82       	st	Z, r1
    16b4:	85 e8       	ldi	r24, 0x85	; 133
    16b6:	90 e0       	ldi	r25, 0x00	; 0
    16b8:	2c ef       	ldi	r18, 0xFC	; 252
    16ba:	fc 01       	movw	r30, r24
    16bc:	20 83       	st	Z, r18
    16be:	84 e8       	ldi	r24, 0x84	; 132
    16c0:	90 e0       	ldi	r25, 0x00	; 0
    16c2:	21 e0       	ldi	r18, 0x01	; 1
    16c4:	fc 01       	movw	r30, r24
    16c6:	20 83       	st	Z, r18
    16c8:	89 e8       	ldi	r24, 0x89	; 137
    16ca:	90 e0       	ldi	r25, 0x00	; 0
    16cc:	23 e0       	ldi	r18, 0x03	; 3
    16ce:	fc 01       	movw	r30, r24
    16d0:	20 83       	st	Z, r18
    16d2:	88 e8       	ldi	r24, 0x88	; 136
    16d4:	90 e0       	ldi	r25, 0x00	; 0
    16d6:	2f ef       	ldi	r18, 0xFF	; 255
    16d8:	fc 01       	movw	r30, r24
    16da:	20 83       	st	Z, r18
    16dc:	8b e8       	ldi	r24, 0x8B	; 139
    16de:	90 e0       	ldi	r25, 0x00	; 0
    16e0:	23 e0       	ldi	r18, 0x03	; 3
    16e2:	fc 01       	movw	r30, r24
    16e4:	20 83       	st	Z, r18
    16e6:	8a e8       	ldi	r24, 0x8A	; 138
    16e8:	90 e0       	ldi	r25, 0x00	; 0
    16ea:	2f ef       	ldi	r18, 0xFF	; 255
    16ec:	fc 01       	movw	r30, r24
    16ee:	20 83       	st	Z, r18
    16f0:	8d e8       	ldi	r24, 0x8D	; 141
    16f2:	90 e0       	ldi	r25, 0x00	; 0
    16f4:	23 e0       	ldi	r18, 0x03	; 3
    16f6:	fc 01       	movw	r30, r24
    16f8:	20 83       	st	Z, r18
    16fa:	8c e8       	ldi	r24, 0x8C	; 140
    16fc:	90 e0       	ldi	r25, 0x00	; 0
    16fe:	2f ef       	ldi	r18, 0xFF	; 255
    1700:	fc 01       	movw	r30, r24
    1702:	20 83       	st	Z, r18
    1704:	87 e8       	ldi	r24, 0x87	; 135
    1706:	90 e0       	ldi	r25, 0x00	; 0
    1708:	23 e0       	ldi	r18, 0x03	; 3
    170a:	fc 01       	movw	r30, r24
    170c:	20 83       	st	Z, r18
    170e:	86 e8       	ldi	r24, 0x86	; 134
    1710:	90 e0       	ldi	r25, 0x00	; 0
    1712:	2f ef       	ldi	r18, 0xFF	; 255
    1714:	fc 01       	movw	r30, r24
    1716:	20 83       	st	Z, r18
    1718:	80 e8       	ldi	r24, 0x80	; 128
    171a:	90 e0       	ldi	r25, 0x00	; 0
    171c:	2b ea       	ldi	r18, 0xAB	; 171
    171e:	fc 01       	movw	r30, r24
    1720:	20 83       	st	Z, r18
    1722:	82 e8       	ldi	r24, 0x82	; 130
    1724:	90 e0       	ldi	r25, 0x00	; 0
    1726:	fc 01       	movw	r30, r24
    1728:	10 82       	st	Z, r1
    172a:	81 e8       	ldi	r24, 0x81	; 129
    172c:	90 e0       	ldi	r25, 0x00	; 0
    172e:	2c e0       	ldi	r18, 0x0C	; 12
    1730:	fc 01       	movw	r30, r24
    1732:	20 83       	st	Z, r18
    1734:	df 91       	pop	r29
    1736:	cf 91       	pop	r28
    1738:	08 95       	ret

0000173a <timer5_init>:
    173a:	cf 93       	push	r28
    173c:	df 93       	push	r29
    173e:	cd b7       	in	r28, 0x3d	; 61
    1740:	de b7       	in	r29, 0x3e	; 62
    1742:	81 e2       	ldi	r24, 0x21	; 33
    1744:	91 e0       	ldi	r25, 0x01	; 1
    1746:	fc 01       	movw	r30, r24
    1748:	10 82       	st	Z, r1
    174a:	85 e2       	ldi	r24, 0x25	; 37
    174c:	91 e0       	ldi	r25, 0x01	; 1
    174e:	2f ef       	ldi	r18, 0xFF	; 255
    1750:	fc 01       	movw	r30, r24
    1752:	20 83       	st	Z, r18
    1754:	84 e2       	ldi	r24, 0x24	; 36
    1756:	91 e0       	ldi	r25, 0x01	; 1
    1758:	21 e0       	ldi	r18, 0x01	; 1
    175a:	fc 01       	movw	r30, r24
    175c:	20 83       	st	Z, r18
    175e:	89 e2       	ldi	r24, 0x29	; 41
    1760:	91 e0       	ldi	r25, 0x01	; 1
    1762:	fc 01       	movw	r30, r24
    1764:	10 82       	st	Z, r1
    1766:	88 e2       	ldi	r24, 0x28	; 40
    1768:	91 e0       	ldi	r25, 0x01	; 1
    176a:	2f ef       	ldi	r18, 0xFF	; 255
    176c:	fc 01       	movw	r30, r24
    176e:	20 83       	st	Z, r18
    1770:	8b e2       	ldi	r24, 0x2B	; 43
    1772:	91 e0       	ldi	r25, 0x01	; 1
    1774:	fc 01       	movw	r30, r24
    1776:	10 82       	st	Z, r1
    1778:	8a e2       	ldi	r24, 0x2A	; 42
    177a:	91 e0       	ldi	r25, 0x01	; 1
    177c:	2f ef       	ldi	r18, 0xFF	; 255
    177e:	fc 01       	movw	r30, r24
    1780:	20 83       	st	Z, r18
    1782:	8d e2       	ldi	r24, 0x2D	; 45
    1784:	91 e0       	ldi	r25, 0x01	; 1
    1786:	fc 01       	movw	r30, r24
    1788:	10 82       	st	Z, r1
    178a:	8c e2       	ldi	r24, 0x2C	; 44
    178c:	91 e0       	ldi	r25, 0x01	; 1
    178e:	2f ef       	ldi	r18, 0xFF	; 255
    1790:	fc 01       	movw	r30, r24
    1792:	20 83       	st	Z, r18
    1794:	80 e2       	ldi	r24, 0x20	; 32
    1796:	91 e0       	ldi	r25, 0x01	; 1
    1798:	29 ea       	ldi	r18, 0xA9	; 169
    179a:	fc 01       	movw	r30, r24
    179c:	20 83       	st	Z, r18
    179e:	81 e2       	ldi	r24, 0x21	; 33
    17a0:	91 e0       	ldi	r25, 0x01	; 1
    17a2:	2b e0       	ldi	r18, 0x0B	; 11
    17a4:	fc 01       	movw	r30, r24
    17a6:	20 83       	st	Z, r18
    17a8:	df 91       	pop	r29
    17aa:	cf 91       	pop	r28
    17ac:	08 95       	ret

000017ae <buzzer_pin_config>:
    17ae:	cf 93       	push	r28
    17b0:	df 93       	push	r29
    17b2:	cd b7       	in	r28, 0x3d	; 61
    17b4:	de b7       	in	r29, 0x3e	; 62
    17b6:	83 e3       	ldi	r24, 0x33	; 51
    17b8:	90 e0       	ldi	r25, 0x00	; 0
    17ba:	23 e3       	ldi	r18, 0x33	; 51
    17bc:	30 e0       	ldi	r19, 0x00	; 0
    17be:	f9 01       	movw	r30, r18
    17c0:	20 81       	ld	r18, Z
    17c2:	28 60       	ori	r18, 0x08	; 8
    17c4:	fc 01       	movw	r30, r24
    17c6:	20 83       	st	Z, r18
    17c8:	84 e3       	ldi	r24, 0x34	; 52
    17ca:	90 e0       	ldi	r25, 0x00	; 0
    17cc:	24 e3       	ldi	r18, 0x34	; 52
    17ce:	30 e0       	ldi	r19, 0x00	; 0
    17d0:	f9 01       	movw	r30, r18
    17d2:	20 81       	ld	r18, Z
    17d4:	27 7f       	andi	r18, 0xF7	; 247
    17d6:	fc 01       	movw	r30, r24
    17d8:	20 83       	st	Z, r18
    17da:	df 91       	pop	r29
    17dc:	cf 91       	pop	r28
    17de:	08 95       	ret

000017e0 <motion_pin_config>:
    17e0:	cf 93       	push	r28
    17e2:	df 93       	push	r29
    17e4:	cd b7       	in	r28, 0x3d	; 61
    17e6:	de b7       	in	r29, 0x3e	; 62
    17e8:	81 e2       	ldi	r24, 0x21	; 33
    17ea:	90 e0       	ldi	r25, 0x00	; 0
    17ec:	21 e2       	ldi	r18, 0x21	; 33
    17ee:	30 e0       	ldi	r19, 0x00	; 0
    17f0:	f9 01       	movw	r30, r18
    17f2:	20 81       	ld	r18, Z
    17f4:	2f 60       	ori	r18, 0x0F	; 15
    17f6:	fc 01       	movw	r30, r24
    17f8:	20 83       	st	Z, r18
    17fa:	82 e2       	ldi	r24, 0x22	; 34
    17fc:	90 e0       	ldi	r25, 0x00	; 0
    17fe:	22 e2       	ldi	r18, 0x22	; 34
    1800:	30 e0       	ldi	r19, 0x00	; 0
    1802:	f9 01       	movw	r30, r18
    1804:	20 81       	ld	r18, Z
    1806:	20 7f       	andi	r18, 0xF0	; 240
    1808:	fc 01       	movw	r30, r24
    180a:	20 83       	st	Z, r18
    180c:	8a e0       	ldi	r24, 0x0A	; 10
    180e:	91 e0       	ldi	r25, 0x01	; 1
    1810:	2a e0       	ldi	r18, 0x0A	; 10
    1812:	31 e0       	ldi	r19, 0x01	; 1
    1814:	f9 01       	movw	r30, r18
    1816:	20 81       	ld	r18, Z
    1818:	28 61       	ori	r18, 0x18	; 24
    181a:	fc 01       	movw	r30, r24
    181c:	20 83       	st	Z, r18
    181e:	8b e0       	ldi	r24, 0x0B	; 11
    1820:	91 e0       	ldi	r25, 0x01	; 1
    1822:	2b e0       	ldi	r18, 0x0B	; 11
    1824:	31 e0       	ldi	r19, 0x01	; 1
    1826:	f9 01       	movw	r30, r18
    1828:	20 81       	ld	r18, Z
    182a:	28 61       	ori	r18, 0x18	; 24
    182c:	fc 01       	movw	r30, r24
    182e:	20 83       	st	Z, r18
    1830:	df 91       	pop	r29
    1832:	cf 91       	pop	r28
    1834:	08 95       	ret

00001836 <left_encoder_pin_config>:
    1836:	cf 93       	push	r28
    1838:	df 93       	push	r29
    183a:	cd b7       	in	r28, 0x3d	; 61
    183c:	de b7       	in	r29, 0x3e	; 62
    183e:	8d e2       	ldi	r24, 0x2D	; 45
    1840:	90 e0       	ldi	r25, 0x00	; 0
    1842:	2d e2       	ldi	r18, 0x2D	; 45
    1844:	30 e0       	ldi	r19, 0x00	; 0
    1846:	f9 01       	movw	r30, r18
    1848:	20 81       	ld	r18, Z
    184a:	2f 7e       	andi	r18, 0xEF	; 239
    184c:	fc 01       	movw	r30, r24
    184e:	20 83       	st	Z, r18
    1850:	8e e2       	ldi	r24, 0x2E	; 46
    1852:	90 e0       	ldi	r25, 0x00	; 0
    1854:	2e e2       	ldi	r18, 0x2E	; 46
    1856:	30 e0       	ldi	r19, 0x00	; 0
    1858:	f9 01       	movw	r30, r18
    185a:	20 81       	ld	r18, Z
    185c:	20 61       	ori	r18, 0x10	; 16
    185e:	fc 01       	movw	r30, r24
    1860:	20 83       	st	Z, r18
    1862:	df 91       	pop	r29
    1864:	cf 91       	pop	r28
    1866:	08 95       	ret

00001868 <right_encoder_pin_config>:
    1868:	cf 93       	push	r28
    186a:	df 93       	push	r29
    186c:	cd b7       	in	r28, 0x3d	; 61
    186e:	de b7       	in	r29, 0x3e	; 62
    1870:	8d e2       	ldi	r24, 0x2D	; 45
    1872:	90 e0       	ldi	r25, 0x00	; 0
    1874:	2d e2       	ldi	r18, 0x2D	; 45
    1876:	30 e0       	ldi	r19, 0x00	; 0
    1878:	f9 01       	movw	r30, r18
    187a:	20 81       	ld	r18, Z
    187c:	2f 7d       	andi	r18, 0xDF	; 223
    187e:	fc 01       	movw	r30, r24
    1880:	20 83       	st	Z, r18
    1882:	8e e2       	ldi	r24, 0x2E	; 46
    1884:	90 e0       	ldi	r25, 0x00	; 0
    1886:	2e e2       	ldi	r18, 0x2E	; 46
    1888:	30 e0       	ldi	r19, 0x00	; 0
    188a:	f9 01       	movw	r30, r18
    188c:	20 81       	ld	r18, Z
    188e:	20 62       	ori	r18, 0x20	; 32
    1890:	fc 01       	movw	r30, r24
    1892:	20 83       	st	Z, r18
    1894:	df 91       	pop	r29
    1896:	cf 91       	pop	r28
    1898:	08 95       	ret

0000189a <left_position_encoder_interrupt_config>:
    189a:	cf 93       	push	r28
    189c:	df 93       	push	r29
    189e:	cd b7       	in	r28, 0x3d	; 61
    18a0:	de b7       	in	r29, 0x3e	; 62
    18a2:	f8 94       	cli
    18a4:	8a e6       	ldi	r24, 0x6A	; 106
    18a6:	90 e0       	ldi	r25, 0x00	; 0
    18a8:	2a e6       	ldi	r18, 0x6A	; 106
    18aa:	30 e0       	ldi	r19, 0x00	; 0
    18ac:	f9 01       	movw	r30, r18
    18ae:	20 81       	ld	r18, Z
    18b0:	22 60       	ori	r18, 0x02	; 2
    18b2:	fc 01       	movw	r30, r24
    18b4:	20 83       	st	Z, r18
    18b6:	8d e3       	ldi	r24, 0x3D	; 61
    18b8:	90 e0       	ldi	r25, 0x00	; 0
    18ba:	2d e3       	ldi	r18, 0x3D	; 61
    18bc:	30 e0       	ldi	r19, 0x00	; 0
    18be:	f9 01       	movw	r30, r18
    18c0:	20 81       	ld	r18, Z
    18c2:	20 61       	ori	r18, 0x10	; 16
    18c4:	fc 01       	movw	r30, r24
    18c6:	20 83       	st	Z, r18
    18c8:	78 94       	sei
    18ca:	df 91       	pop	r29
    18cc:	cf 91       	pop	r28
    18ce:	08 95       	ret

000018d0 <right_position_encoder_interrupt_config>:
    18d0:	cf 93       	push	r28
    18d2:	df 93       	push	r29
    18d4:	cd b7       	in	r28, 0x3d	; 61
    18d6:	de b7       	in	r29, 0x3e	; 62
    18d8:	f8 94       	cli
    18da:	8a e6       	ldi	r24, 0x6A	; 106
    18dc:	90 e0       	ldi	r25, 0x00	; 0
    18de:	2a e6       	ldi	r18, 0x6A	; 106
    18e0:	30 e0       	ldi	r19, 0x00	; 0
    18e2:	f9 01       	movw	r30, r18
    18e4:	20 81       	ld	r18, Z
    18e6:	28 60       	ori	r18, 0x08	; 8
    18e8:	fc 01       	movw	r30, r24
    18ea:	20 83       	st	Z, r18
    18ec:	8d e3       	ldi	r24, 0x3D	; 61
    18ee:	90 e0       	ldi	r25, 0x00	; 0
    18f0:	2d e3       	ldi	r18, 0x3D	; 61
    18f2:	30 e0       	ldi	r19, 0x00	; 0
    18f4:	f9 01       	movw	r30, r18
    18f6:	20 81       	ld	r18, Z
    18f8:	20 62       	ori	r18, 0x20	; 32
    18fa:	fc 01       	movw	r30, r24
    18fc:	20 83       	st	Z, r18
    18fe:	78 94       	sei
    1900:	df 91       	pop	r29
    1902:	cf 91       	pop	r28
    1904:	08 95       	ret

00001906 <servo1_pin_config>:
    1906:	cf 93       	push	r28
    1908:	df 93       	push	r29
    190a:	cd b7       	in	r28, 0x3d	; 61
    190c:	de b7       	in	r29, 0x3e	; 62
    190e:	84 e2       	ldi	r24, 0x24	; 36
    1910:	90 e0       	ldi	r25, 0x00	; 0
    1912:	24 e2       	ldi	r18, 0x24	; 36
    1914:	30 e0       	ldi	r19, 0x00	; 0
    1916:	f9 01       	movw	r30, r18
    1918:	20 81       	ld	r18, Z
    191a:	20 62       	ori	r18, 0x20	; 32
    191c:	fc 01       	movw	r30, r24
    191e:	20 83       	st	Z, r18
    1920:	85 e2       	ldi	r24, 0x25	; 37
    1922:	90 e0       	ldi	r25, 0x00	; 0
    1924:	25 e2       	ldi	r18, 0x25	; 37
    1926:	30 e0       	ldi	r19, 0x00	; 0
    1928:	f9 01       	movw	r30, r18
    192a:	20 81       	ld	r18, Z
    192c:	20 62       	ori	r18, 0x20	; 32
    192e:	fc 01       	movw	r30, r24
    1930:	20 83       	st	Z, r18
    1932:	df 91       	pop	r29
    1934:	cf 91       	pop	r28
    1936:	08 95       	ret

00001938 <servo2_pin_config>:
    1938:	cf 93       	push	r28
    193a:	df 93       	push	r29
    193c:	cd b7       	in	r28, 0x3d	; 61
    193e:	de b7       	in	r29, 0x3e	; 62
    1940:	84 e2       	ldi	r24, 0x24	; 36
    1942:	90 e0       	ldi	r25, 0x00	; 0
    1944:	24 e2       	ldi	r18, 0x24	; 36
    1946:	30 e0       	ldi	r19, 0x00	; 0
    1948:	f9 01       	movw	r30, r18
    194a:	20 81       	ld	r18, Z
    194c:	20 64       	ori	r18, 0x40	; 64
    194e:	fc 01       	movw	r30, r24
    1950:	20 83       	st	Z, r18
    1952:	85 e2       	ldi	r24, 0x25	; 37
    1954:	90 e0       	ldi	r25, 0x00	; 0
    1956:	25 e2       	ldi	r18, 0x25	; 37
    1958:	30 e0       	ldi	r19, 0x00	; 0
    195a:	f9 01       	movw	r30, r18
    195c:	20 81       	ld	r18, Z
    195e:	20 64       	ori	r18, 0x40	; 64
    1960:	fc 01       	movw	r30, r24
    1962:	20 83       	st	Z, r18
    1964:	df 91       	pop	r29
    1966:	cf 91       	pop	r28
    1968:	08 95       	ret

0000196a <servo3_pin_config>:
    196a:	cf 93       	push	r28
    196c:	df 93       	push	r29
    196e:	cd b7       	in	r28, 0x3d	; 61
    1970:	de b7       	in	r29, 0x3e	; 62
    1972:	84 e2       	ldi	r24, 0x24	; 36
    1974:	90 e0       	ldi	r25, 0x00	; 0
    1976:	24 e2       	ldi	r18, 0x24	; 36
    1978:	30 e0       	ldi	r19, 0x00	; 0
    197a:	f9 01       	movw	r30, r18
    197c:	20 81       	ld	r18, Z
    197e:	20 68       	ori	r18, 0x80	; 128
    1980:	fc 01       	movw	r30, r24
    1982:	20 83       	st	Z, r18
    1984:	85 e2       	ldi	r24, 0x25	; 37
    1986:	90 e0       	ldi	r25, 0x00	; 0
    1988:	25 e2       	ldi	r18, 0x25	; 37
    198a:	30 e0       	ldi	r19, 0x00	; 0
    198c:	f9 01       	movw	r30, r18
    198e:	20 81       	ld	r18, Z
    1990:	20 68       	ori	r18, 0x80	; 128
    1992:	fc 01       	movw	r30, r24
    1994:	20 83       	st	Z, r18
    1996:	df 91       	pop	r29
    1998:	cf 91       	pop	r28
    199a:	08 95       	ret

0000199c <demux_pin_config>:
    199c:	cf 93       	push	r28
    199e:	df 93       	push	r29
    19a0:	cd b7       	in	r28, 0x3d	; 61
    19a2:	de b7       	in	r29, 0x3e	; 62
    19a4:	81 e0       	ldi	r24, 0x01	; 1
    19a6:	91 e0       	ldi	r25, 0x01	; 1
    19a8:	fc 01       	movw	r30, r24
    19aa:	80 81       	ld	r24, Z
    19ac:	81 e0       	ldi	r24, 0x01	; 1
    19ae:	91 e0       	ldi	r25, 0x01	; 1
    19b0:	2f ef       	ldi	r18, 0xFF	; 255
    19b2:	fc 01       	movw	r30, r24
    19b4:	20 83       	st	Z, r18
    19b6:	82 e0       	ldi	r24, 0x02	; 2
    19b8:	91 e0       	ldi	r25, 0x01	; 1
    19ba:	22 e0       	ldi	r18, 0x02	; 2
    19bc:	31 e0       	ldi	r19, 0x01	; 1
    19be:	f9 01       	movw	r30, r18
    19c0:	20 81       	ld	r18, Z
    19c2:	2e 7f       	andi	r18, 0xFE	; 254
    19c4:	fc 01       	movw	r30, r24
    19c6:	20 83       	st	Z, r18
    19c8:	df 91       	pop	r29
    19ca:	cf 91       	pop	r28
    19cc:	08 95       	ret

000019ce <adc_pin_config>:
    19ce:	cf 93       	push	r28
    19d0:	df 93       	push	r29
    19d2:	cd b7       	in	r28, 0x3d	; 61
    19d4:	de b7       	in	r29, 0x3e	; 62
    19d6:	80 e3       	ldi	r24, 0x30	; 48
    19d8:	90 e0       	ldi	r25, 0x00	; 0
    19da:	fc 01       	movw	r30, r24
    19dc:	10 82       	st	Z, r1
    19de:	81 e3       	ldi	r24, 0x31	; 49
    19e0:	90 e0       	ldi	r25, 0x00	; 0
    19e2:	fc 01       	movw	r30, r24
    19e4:	10 82       	st	Z, r1
    19e6:	87 e0       	ldi	r24, 0x07	; 7
    19e8:	91 e0       	ldi	r25, 0x01	; 1
    19ea:	fc 01       	movw	r30, r24
    19ec:	10 82       	st	Z, r1
    19ee:	88 e0       	ldi	r24, 0x08	; 8
    19f0:	91 e0       	ldi	r25, 0x01	; 1
    19f2:	fc 01       	movw	r30, r24
    19f4:	10 82       	st	Z, r1
    19f6:	df 91       	pop	r29
    19f8:	cf 91       	pop	r28
    19fa:	08 95       	ret

000019fc <port_init>:
    19fc:	cf 93       	push	r28
    19fe:	df 93       	push	r29
    1a00:	cd b7       	in	r28, 0x3d	; 61
    1a02:	de b7       	in	r29, 0x3e	; 62
    1a04:	d4 de       	rcall	.-600    	; 0x17ae <buzzer_pin_config>
    1a06:	ec de       	rcall	.-552    	; 0x17e0 <motion_pin_config>
    1a08:	16 df       	rcall	.-468    	; 0x1836 <left_encoder_pin_config>
    1a0a:	2e df       	rcall	.-420    	; 0x1868 <right_encoder_pin_config>
    1a0c:	46 df       	rcall	.-372    	; 0x189a <left_position_encoder_interrupt_config>
    1a0e:	60 df       	rcall	.-320    	; 0x18d0 <right_position_encoder_interrupt_config>
    1a10:	7a df       	rcall	.-268    	; 0x1906 <servo1_pin_config>
    1a12:	92 df       	rcall	.-220    	; 0x1938 <servo2_pin_config>
    1a14:	aa df       	rcall	.-172    	; 0x196a <servo3_pin_config>
    1a16:	c2 df       	rcall	.-124    	; 0x199c <demux_pin_config>
    1a18:	0e 94 9e 00 	call	0x13c	; 0x13c <lcd_port_config>
    1a1c:	d8 df       	rcall	.-80     	; 0x19ce <adc_pin_config>
    1a1e:	df 91       	pop	r29
    1a20:	cf 91       	pop	r28
    1a22:	08 95       	ret

00001a24 <__vector_6>:
    1a24:	1f 92       	push	r1
    1a26:	0f 92       	push	r0
    1a28:	00 90 5f 00 	lds	r0, 0x005F
    1a2c:	0f 92       	push	r0
    1a2e:	11 24       	eor	r1, r1
    1a30:	8f 93       	push	r24
    1a32:	9f 93       	push	r25
    1a34:	af 93       	push	r26
    1a36:	bf 93       	push	r27
    1a38:	cf 93       	push	r28
    1a3a:	df 93       	push	r29
    1a3c:	cd b7       	in	r28, 0x3d	; 61
    1a3e:	de b7       	in	r29, 0x3e	; 62
    1a40:	80 91 ac 02 	lds	r24, 0x02AC
    1a44:	90 91 ad 02 	lds	r25, 0x02AD
    1a48:	a0 91 ae 02 	lds	r26, 0x02AE
    1a4c:	b0 91 af 02 	lds	r27, 0x02AF
    1a50:	01 96       	adiw	r24, 0x01	; 1
    1a52:	a1 1d       	adc	r26, r1
    1a54:	b1 1d       	adc	r27, r1
    1a56:	80 93 ac 02 	sts	0x02AC, r24
    1a5a:	90 93 ad 02 	sts	0x02AD, r25
    1a5e:	a0 93 ae 02 	sts	0x02AE, r26
    1a62:	b0 93 af 02 	sts	0x02AF, r27
    1a66:	df 91       	pop	r29
    1a68:	cf 91       	pop	r28
    1a6a:	bf 91       	pop	r27
    1a6c:	af 91       	pop	r26
    1a6e:	9f 91       	pop	r25
    1a70:	8f 91       	pop	r24
    1a72:	0f 90       	pop	r0
    1a74:	00 92 5f 00 	sts	0x005F, r0
    1a78:	0f 90       	pop	r0
    1a7a:	1f 90       	pop	r1
    1a7c:	18 95       	reti

00001a7e <__vector_5>:
    1a7e:	1f 92       	push	r1
    1a80:	0f 92       	push	r0
    1a82:	00 90 5f 00 	lds	r0, 0x005F
    1a86:	0f 92       	push	r0
    1a88:	11 24       	eor	r1, r1
    1a8a:	8f 93       	push	r24
    1a8c:	9f 93       	push	r25
    1a8e:	af 93       	push	r26
    1a90:	bf 93       	push	r27
    1a92:	cf 93       	push	r28
    1a94:	df 93       	push	r29
    1a96:	cd b7       	in	r28, 0x3d	; 61
    1a98:	de b7       	in	r29, 0x3e	; 62
    1a9a:	80 91 a8 02 	lds	r24, 0x02A8
    1a9e:	90 91 a9 02 	lds	r25, 0x02A9
    1aa2:	a0 91 aa 02 	lds	r26, 0x02AA
    1aa6:	b0 91 ab 02 	lds	r27, 0x02AB
    1aaa:	01 96       	adiw	r24, 0x01	; 1
    1aac:	a1 1d       	adc	r26, r1
    1aae:	b1 1d       	adc	r27, r1
    1ab0:	80 93 a8 02 	sts	0x02A8, r24
    1ab4:	90 93 a9 02 	sts	0x02A9, r25
    1ab8:	a0 93 aa 02 	sts	0x02AA, r26
    1abc:	b0 93 ab 02 	sts	0x02AB, r27
    1ac0:	df 91       	pop	r29
    1ac2:	cf 91       	pop	r28
    1ac4:	bf 91       	pop	r27
    1ac6:	af 91       	pop	r26
    1ac8:	9f 91       	pop	r25
    1aca:	8f 91       	pop	r24
    1acc:	0f 90       	pop	r0
    1ace:	00 92 5f 00 	sts	0x005F, r0
    1ad2:	0f 90       	pop	r0
    1ad4:	1f 90       	pop	r1
    1ad6:	18 95       	reti

00001ad8 <motion_set>:
    1ad8:	cf 93       	push	r28
    1ada:	df 93       	push	r29
    1adc:	1f 92       	push	r1
    1ade:	1f 92       	push	r1
    1ae0:	cd b7       	in	r28, 0x3d	; 61
    1ae2:	de b7       	in	r29, 0x3e	; 62
    1ae4:	8a 83       	std	Y+2, r24	; 0x02
    1ae6:	19 82       	std	Y+1, r1	; 0x01
    1ae8:	8a 81       	ldd	r24, Y+2	; 0x02
    1aea:	8f 70       	andi	r24, 0x0F	; 15
    1aec:	8a 83       	std	Y+2, r24	; 0x02
    1aee:	82 e2       	ldi	r24, 0x22	; 34
    1af0:	90 e0       	ldi	r25, 0x00	; 0
    1af2:	fc 01       	movw	r30, r24
    1af4:	80 81       	ld	r24, Z
    1af6:	89 83       	std	Y+1, r24	; 0x01
    1af8:	89 81       	ldd	r24, Y+1	; 0x01
    1afa:	80 7f       	andi	r24, 0xF0	; 240
    1afc:	89 83       	std	Y+1, r24	; 0x01
    1afe:	99 81       	ldd	r25, Y+1	; 0x01
    1b00:	8a 81       	ldd	r24, Y+2	; 0x02
    1b02:	89 2b       	or	r24, r25
    1b04:	89 83       	std	Y+1, r24	; 0x01
    1b06:	82 e2       	ldi	r24, 0x22	; 34
    1b08:	90 e0       	ldi	r25, 0x00	; 0
    1b0a:	29 81       	ldd	r18, Y+1	; 0x01
    1b0c:	fc 01       	movw	r30, r24
    1b0e:	20 83       	st	Z, r18
    1b10:	0f 90       	pop	r0
    1b12:	0f 90       	pop	r0
    1b14:	df 91       	pop	r29
    1b16:	cf 91       	pop	r28
    1b18:	08 95       	ret

00001b1a <forward>:
    1b1a:	cf 93       	push	r28
    1b1c:	df 93       	push	r29
    1b1e:	cd b7       	in	r28, 0x3d	; 61
    1b20:	de b7       	in	r29, 0x3e	; 62
    1b22:	89 e0       	ldi	r24, 0x09	; 9
    1b24:	d9 df       	rcall	.-78     	; 0x1ad8 <motion_set>
    1b26:	df 91       	pop	r29
    1b28:	cf 91       	pop	r28
    1b2a:	08 95       	ret

00001b2c <left>:
    1b2c:	cf 93       	push	r28
    1b2e:	df 93       	push	r29
    1b30:	cd b7       	in	r28, 0x3d	; 61
    1b32:	de b7       	in	r29, 0x3e	; 62
    1b34:	8a e0       	ldi	r24, 0x0A	; 10
    1b36:	d0 df       	rcall	.-96     	; 0x1ad8 <motion_set>
    1b38:	df 91       	pop	r29
    1b3a:	cf 91       	pop	r28
    1b3c:	08 95       	ret

00001b3e <soft_right>:
    1b3e:	cf 93       	push	r28
    1b40:	df 93       	push	r29
    1b42:	cd b7       	in	r28, 0x3d	; 61
    1b44:	de b7       	in	r29, 0x3e	; 62
    1b46:	84 e0       	ldi	r24, 0x04	; 4
    1b48:	c7 df       	rcall	.-114    	; 0x1ad8 <motion_set>
    1b4a:	df 91       	pop	r29
    1b4c:	cf 91       	pop	r28
    1b4e:	08 95       	ret

00001b50 <soft_left>:
    1b50:	cf 93       	push	r28
    1b52:	df 93       	push	r29
    1b54:	cd b7       	in	r28, 0x3d	; 61
    1b56:	de b7       	in	r29, 0x3e	; 62
    1b58:	82 e0       	ldi	r24, 0x02	; 2
    1b5a:	be df       	rcall	.-132    	; 0x1ad8 <motion_set>
    1b5c:	df 91       	pop	r29
    1b5e:	cf 91       	pop	r28
    1b60:	08 95       	ret

00001b62 <stop>:
    1b62:	cf 93       	push	r28
    1b64:	df 93       	push	r29
    1b66:	cd b7       	in	r28, 0x3d	; 61
    1b68:	de b7       	in	r29, 0x3e	; 62
    1b6a:	80 e0       	ldi	r24, 0x00	; 0
    1b6c:	b5 df       	rcall	.-150    	; 0x1ad8 <motion_set>
    1b6e:	df 91       	pop	r29
    1b70:	cf 91       	pop	r28
    1b72:	08 95       	ret

00001b74 <velocity>:
    1b74:	cf 93       	push	r28
    1b76:	df 93       	push	r29
    1b78:	1f 92       	push	r1
    1b7a:	1f 92       	push	r1
    1b7c:	cd b7       	in	r28, 0x3d	; 61
    1b7e:	de b7       	in	r29, 0x3e	; 62
    1b80:	89 83       	std	Y+1, r24	; 0x01
    1b82:	6a 83       	std	Y+2, r22	; 0x02
    1b84:	88 e2       	ldi	r24, 0x28	; 40
    1b86:	91 e0       	ldi	r25, 0x01	; 1
    1b88:	29 81       	ldd	r18, Y+1	; 0x01
    1b8a:	fc 01       	movw	r30, r24
    1b8c:	20 83       	st	Z, r18
    1b8e:	8a e2       	ldi	r24, 0x2A	; 42
    1b90:	91 e0       	ldi	r25, 0x01	; 1
    1b92:	2a 81       	ldd	r18, Y+2	; 0x02
    1b94:	fc 01       	movw	r30, r24
    1b96:	20 83       	st	Z, r18
    1b98:	0f 90       	pop	r0
    1b9a:	0f 90       	pop	r0
    1b9c:	df 91       	pop	r29
    1b9e:	cf 91       	pop	r28
    1ba0:	08 95       	ret

00001ba2 <ADC_Conversion>:
    1ba2:	cf 93       	push	r28
    1ba4:	df 93       	push	r29
    1ba6:	1f 92       	push	r1
    1ba8:	1f 92       	push	r1
    1baa:	cd b7       	in	r28, 0x3d	; 61
    1bac:	de b7       	in	r29, 0x3e	; 62
    1bae:	8a 83       	std	Y+2, r24	; 0x02
    1bb0:	8a 81       	ldd	r24, Y+2	; 0x02
    1bb2:	88 30       	cpi	r24, 0x08	; 8
    1bb4:	28 f0       	brcs	.+10     	; 0x1bc0 <ADC_Conversion+0x1e>
    1bb6:	8b e7       	ldi	r24, 0x7B	; 123
    1bb8:	90 e0       	ldi	r25, 0x00	; 0
    1bba:	28 e0       	ldi	r18, 0x08	; 8
    1bbc:	fc 01       	movw	r30, r24
    1bbe:	20 83       	st	Z, r18
    1bc0:	8a 81       	ldd	r24, Y+2	; 0x02
    1bc2:	87 70       	andi	r24, 0x07	; 7
    1bc4:	8a 83       	std	Y+2, r24	; 0x02
    1bc6:	8c e7       	ldi	r24, 0x7C	; 124
    1bc8:	90 e0       	ldi	r25, 0x00	; 0
    1bca:	2a 81       	ldd	r18, Y+2	; 0x02
    1bcc:	20 62       	ori	r18, 0x20	; 32
    1bce:	fc 01       	movw	r30, r24
    1bd0:	20 83       	st	Z, r18
    1bd2:	8a e7       	ldi	r24, 0x7A	; 122
    1bd4:	90 e0       	ldi	r25, 0x00	; 0
    1bd6:	2a e7       	ldi	r18, 0x7A	; 122
    1bd8:	30 e0       	ldi	r19, 0x00	; 0
    1bda:	f9 01       	movw	r30, r18
    1bdc:	20 81       	ld	r18, Z
    1bde:	20 64       	ori	r18, 0x40	; 64
    1be0:	fc 01       	movw	r30, r24
    1be2:	20 83       	st	Z, r18
    1be4:	00 00       	nop
    1be6:	8a e7       	ldi	r24, 0x7A	; 122
    1be8:	90 e0       	ldi	r25, 0x00	; 0
    1bea:	fc 01       	movw	r30, r24
    1bec:	80 81       	ld	r24, Z
    1bee:	88 2f       	mov	r24, r24
    1bf0:	90 e0       	ldi	r25, 0x00	; 0
    1bf2:	80 71       	andi	r24, 0x10	; 16
    1bf4:	99 27       	eor	r25, r25
    1bf6:	00 97       	sbiw	r24, 0x00	; 0
    1bf8:	b1 f3       	breq	.-20     	; 0x1be6 <ADC_Conversion+0x44>
    1bfa:	89 e7       	ldi	r24, 0x79	; 121
    1bfc:	90 e0       	ldi	r25, 0x00	; 0
    1bfe:	fc 01       	movw	r30, r24
    1c00:	80 81       	ld	r24, Z
    1c02:	89 83       	std	Y+1, r24	; 0x01
    1c04:	8a e7       	ldi	r24, 0x7A	; 122
    1c06:	90 e0       	ldi	r25, 0x00	; 0
    1c08:	2a e7       	ldi	r18, 0x7A	; 122
    1c0a:	30 e0       	ldi	r19, 0x00	; 0
    1c0c:	f9 01       	movw	r30, r18
    1c0e:	20 81       	ld	r18, Z
    1c10:	20 61       	ori	r18, 0x10	; 16
    1c12:	fc 01       	movw	r30, r24
    1c14:	20 83       	st	Z, r18
    1c16:	8b e7       	ldi	r24, 0x7B	; 123
    1c18:	90 e0       	ldi	r25, 0x00	; 0
    1c1a:	fc 01       	movw	r30, r24
    1c1c:	10 82       	st	Z, r1
    1c1e:	89 81       	ldd	r24, Y+1	; 0x01
    1c20:	0f 90       	pop	r0
    1c22:	0f 90       	pop	r0
    1c24:	df 91       	pop	r29
    1c26:	cf 91       	pop	r28
    1c28:	08 95       	ret

00001c2a <LCD_Function>:
    1c2a:	cf 93       	push	r28
    1c2c:	df 93       	push	r29
    1c2e:	1f 92       	push	r1
    1c30:	1f 92       	push	r1
    1c32:	cd b7       	in	r28, 0x3d	; 61
    1c34:	de b7       	in	r29, 0x3e	; 62
    1c36:	9a 83       	std	Y+2, r25	; 0x02
    1c38:	89 83       	std	Y+1, r24	; 0x01
    1c3a:	1f d8       	rcall	.-4034   	; 0xc7a <lcd_init>
    1c3c:	89 81       	ldd	r24, Y+1	; 0x01
    1c3e:	9a 81       	ldd	r25, Y+2	; 0x02
    1c40:	aa 27       	eor	r26, r26
    1c42:	97 fd       	sbrc	r25, 7
    1c44:	a0 95       	com	r26
    1c46:	ba 2f       	mov	r27, r26
    1c48:	41 e0       	ldi	r20, 0x01	; 1
    1c4a:	50 e0       	ldi	r21, 0x00	; 0
    1c4c:	29 e0       	ldi	r18, 0x09	; 9
    1c4e:	30 e0       	ldi	r19, 0x00	; 0
    1c50:	84 1b       	sub	r24, r20
    1c52:	95 0b       	sbc	r25, r21
    1c54:	28 17       	cp	r18, r24
    1c56:	39 07       	cpc	r19, r25
    1c58:	08 f4       	brcc	.+2      	; 0x1c5c <LCD_Function+0x32>
    1c5a:	56 c0       	rjmp	.+172    	; 0x1d08 <LCD_Function+0xde>
    1c5c:	8e 58       	subi	r24, 0x8E	; 142
    1c5e:	9f 4f       	sbci	r25, 0xFF	; 255
    1c60:	fc 01       	movw	r30, r24
    1c62:	0c 94 c6 18 	jmp	0x318c	; 0x318c <__tablejump2__>
    1c66:	63 e0       	ldi	r22, 0x03	; 3
    1c68:	81 e0       	ldi	r24, 0x01	; 1
    1c6a:	a2 db       	rcall	.-2236   	; 0x13b0 <lcd_cursor>
    1c6c:	83 e0       	ldi	r24, 0x03	; 3
    1c6e:	92 e0       	ldi	r25, 0x02	; 2
    1c70:	81 db       	rcall	.-2302   	; 0x1374 <lcd_string>
    1c72:	4a c0       	rjmp	.+148    	; 0x1d08 <LCD_Function+0xde>
    1c74:	63 e0       	ldi	r22, 0x03	; 3
    1c76:	81 e0       	ldi	r24, 0x01	; 1
    1c78:	9b db       	rcall	.-2250   	; 0x13b0 <lcd_cursor>
    1c7a:	81 e1       	ldi	r24, 0x11	; 17
    1c7c:	92 e0       	ldi	r25, 0x02	; 2
    1c7e:	7a db       	rcall	.-2316   	; 0x1374 <lcd_string>
    1c80:	43 c0       	rjmp	.+134    	; 0x1d08 <LCD_Function+0xde>
    1c82:	63 e0       	ldi	r22, 0x03	; 3
    1c84:	81 e0       	ldi	r24, 0x01	; 1
    1c86:	94 db       	rcall	.-2264   	; 0x13b0 <lcd_cursor>
    1c88:	8f e1       	ldi	r24, 0x1F	; 31
    1c8a:	92 e0       	ldi	r25, 0x02	; 2
    1c8c:	73 db       	rcall	.-2330   	; 0x1374 <lcd_string>
    1c8e:	3c c0       	rjmp	.+120    	; 0x1d08 <LCD_Function+0xde>
    1c90:	63 e0       	ldi	r22, 0x03	; 3
    1c92:	81 e0       	ldi	r24, 0x01	; 1
    1c94:	8d db       	rcall	.-2278   	; 0x13b0 <lcd_cursor>
    1c96:	87 e2       	ldi	r24, 0x27	; 39
    1c98:	92 e0       	ldi	r25, 0x02	; 2
    1c9a:	6c db       	rcall	.-2344   	; 0x1374 <lcd_string>
    1c9c:	35 c0       	rjmp	.+106    	; 0x1d08 <LCD_Function+0xde>
    1c9e:	63 e0       	ldi	r22, 0x03	; 3
    1ca0:	81 e0       	ldi	r24, 0x01	; 1
    1ca2:	86 db       	rcall	.-2292   	; 0x13b0 <lcd_cursor>
    1ca4:	8b e3       	ldi	r24, 0x3B	; 59
    1ca6:	92 e0       	ldi	r25, 0x02	; 2
    1ca8:	65 db       	rcall	.-2358   	; 0x1374 <lcd_string>
    1caa:	2e c0       	rjmp	.+92     	; 0x1d08 <LCD_Function+0xde>
    1cac:	63 e0       	ldi	r22, 0x03	; 3
    1cae:	81 e0       	ldi	r24, 0x01	; 1
    1cb0:	7f db       	rcall	.-2306   	; 0x13b0 <lcd_cursor>
    1cb2:	8e e4       	ldi	r24, 0x4E	; 78
    1cb4:	92 e0       	ldi	r25, 0x02	; 2
    1cb6:	5e db       	rcall	.-2372   	; 0x1374 <lcd_string>
    1cb8:	27 c0       	rjmp	.+78     	; 0x1d08 <LCD_Function+0xde>
    1cba:	63 e0       	ldi	r22, 0x03	; 3
    1cbc:	81 e0       	ldi	r24, 0x01	; 1
    1cbe:	78 db       	rcall	.-2320   	; 0x13b0 <lcd_cursor>
    1cc0:	84 e6       	ldi	r24, 0x64	; 100
    1cc2:	92 e0       	ldi	r25, 0x02	; 2
    1cc4:	57 db       	rcall	.-2386   	; 0x1374 <lcd_string>
    1cc6:	20 c0       	rjmp	.+64     	; 0x1d08 <LCD_Function+0xde>
    1cc8:	67 e0       	ldi	r22, 0x07	; 7
    1cca:	81 e0       	ldi	r24, 0x01	; 1
    1ccc:	71 db       	rcall	.-2334   	; 0x13b0 <lcd_cursor>
    1cce:	89 e7       	ldi	r24, 0x79	; 121
    1cd0:	92 e0       	ldi	r25, 0x02	; 2
    1cd2:	50 db       	rcall	.-2400   	; 0x1374 <lcd_string>
    1cd4:	63 e0       	ldi	r22, 0x03	; 3
    1cd6:	82 e0       	ldi	r24, 0x02	; 2
    1cd8:	6b db       	rcall	.-2346   	; 0x13b0 <lcd_cursor>
    1cda:	8f e7       	ldi	r24, 0x7F	; 127
    1cdc:	92 e0       	ldi	r25, 0x02	; 2
    1cde:	4a db       	rcall	.-2412   	; 0x1374 <lcd_string>
    1ce0:	13 c0       	rjmp	.+38     	; 0x1d08 <LCD_Function+0xde>
    1ce2:	66 e0       	ldi	r22, 0x06	; 6
    1ce4:	81 e0       	ldi	r24, 0x01	; 1
    1ce6:	64 db       	rcall	.-2360   	; 0x13b0 <lcd_cursor>
    1ce8:	89 e8       	ldi	r24, 0x89	; 137
    1cea:	92 e0       	ldi	r25, 0x02	; 2
    1cec:	43 db       	rcall	.-2426   	; 0x1374 <lcd_string>
    1cee:	63 e0       	ldi	r22, 0x03	; 3
    1cf0:	82 e0       	ldi	r24, 0x02	; 2
    1cf2:	5e db       	rcall	.-2372   	; 0x13b0 <lcd_cursor>
    1cf4:	80 e9       	ldi	r24, 0x90	; 144
    1cf6:	92 e0       	ldi	r25, 0x02	; 2
    1cf8:	3d db       	rcall	.-2438   	; 0x1374 <lcd_string>
    1cfa:	06 c0       	rjmp	.+12     	; 0x1d08 <LCD_Function+0xde>
    1cfc:	63 e0       	ldi	r22, 0x03	; 3
    1cfe:	81 e0       	ldi	r24, 0x01	; 1
    1d00:	57 db       	rcall	.-2386   	; 0x13b0 <lcd_cursor>
    1d02:	8e e9       	ldi	r24, 0x9E	; 158
    1d04:	92 e0       	ldi	r25, 0x02	; 2
    1d06:	36 db       	rcall	.-2452   	; 0x1374 <lcd_string>
    1d08:	0f 90       	pop	r0
    1d0a:	0f 90       	pop	r0
    1d0c:	df 91       	pop	r29
    1d0e:	cf 91       	pop	r28
    1d10:	08 95       	ret

00001d12 <forward_walls>:
    1d12:	cf 93       	push	r28
    1d14:	df 93       	push	r29
    1d16:	cd b7       	in	r28, 0x3d	; 61
    1d18:	de b7       	in	r29, 0x3e	; 62
    1d1a:	e8 97       	sbiw	r28, 0x38	; 56
    1d1c:	0f b6       	in	r0, 0x3f	; 63
    1d1e:	f8 94       	cli
    1d20:	de bf       	out	0x3e, r29	; 62
    1d22:	0f be       	out	0x3f, r0	; 63
    1d24:	cd bf       	out	0x3d, r28	; 61
    1d26:	82 e0       	ldi	r24, 0x02	; 2
    1d28:	90 e0       	ldi	r25, 0x00	; 0
    1d2a:	7f df       	rcall	.-258    	; 0x1c2a <LCD_Function>
    1d2c:	f6 de       	rcall	.-532    	; 0x1b1a <forward>
    1d2e:	90 91 00 02 	lds	r25, 0x0200
    1d32:	80 91 00 02 	lds	r24, 0x0200
    1d36:	69 2f       	mov	r22, r25
    1d38:	1d df       	rcall	.-454    	; 0x1b74 <velocity>
    1d3a:	80 e0       	ldi	r24, 0x00	; 0
    1d3c:	90 e0       	ldi	r25, 0x00	; 0
    1d3e:	aa ef       	ldi	r26, 0xFA	; 250
    1d40:	b3 e4       	ldi	r27, 0x43	; 67
    1d42:	89 83       	std	Y+1, r24	; 0x01
    1d44:	9a 83       	std	Y+2, r25	; 0x02
    1d46:	ab 83       	std	Y+3, r26	; 0x03
    1d48:	bc 83       	std	Y+4, r27	; 0x04
    1d4a:	26 e6       	ldi	r18, 0x66	; 102
    1d4c:	36 e6       	ldi	r19, 0x66	; 102
    1d4e:	46 e6       	ldi	r20, 0x66	; 102
    1d50:	55 e4       	ldi	r21, 0x45	; 69
    1d52:	69 81       	ldd	r22, Y+1	; 0x01
    1d54:	7a 81       	ldd	r23, Y+2	; 0x02
    1d56:	8b 81       	ldd	r24, Y+3	; 0x03
    1d58:	9c 81       	ldd	r25, Y+4	; 0x04
    1d5a:	0e 94 63 18 	call	0x30c6	; 0x30c6 <__mulsf3>
    1d5e:	dc 01       	movw	r26, r24
    1d60:	cb 01       	movw	r24, r22
    1d62:	8d 83       	std	Y+5, r24	; 0x05
    1d64:	9e 83       	std	Y+6, r25	; 0x06
    1d66:	af 83       	std	Y+7, r26	; 0x07
    1d68:	b8 87       	std	Y+8, r27	; 0x08
    1d6a:	20 e0       	ldi	r18, 0x00	; 0
    1d6c:	30 e0       	ldi	r19, 0x00	; 0
    1d6e:	40 e8       	ldi	r20, 0x80	; 128
    1d70:	5f e3       	ldi	r21, 0x3F	; 63
    1d72:	6d 81       	ldd	r22, Y+5	; 0x05
    1d74:	7e 81       	ldd	r23, Y+6	; 0x06
    1d76:	8f 81       	ldd	r24, Y+7	; 0x07
    1d78:	98 85       	ldd	r25, Y+8	; 0x08
    1d7a:	0e 94 15 17 	call	0x2e2a	; 0x2e2a <__cmpsf2>
    1d7e:	88 23       	and	r24, r24
    1d80:	2c f4       	brge	.+10     	; 0x1d8c <forward_walls+0x7a>
    1d82:	81 e0       	ldi	r24, 0x01	; 1
    1d84:	90 e0       	ldi	r25, 0x00	; 0
    1d86:	9a 87       	std	Y+10, r25	; 0x0a
    1d88:	89 87       	std	Y+9, r24	; 0x09
    1d8a:	3f c0       	rjmp	.+126    	; 0x1e0a <forward_walls+0xf8>
    1d8c:	20 e0       	ldi	r18, 0x00	; 0
    1d8e:	3f ef       	ldi	r19, 0xFF	; 255
    1d90:	4f e7       	ldi	r20, 0x7F	; 127
    1d92:	57 e4       	ldi	r21, 0x47	; 71
    1d94:	6d 81       	ldd	r22, Y+5	; 0x05
    1d96:	7e 81       	ldd	r23, Y+6	; 0x06
    1d98:	8f 81       	ldd	r24, Y+7	; 0x07
    1d9a:	98 85       	ldd	r25, Y+8	; 0x08
    1d9c:	0e 94 5f 18 	call	0x30be	; 0x30be <__gesf2>
    1da0:	18 16       	cp	r1, r24
    1da2:	4c f5       	brge	.+82     	; 0x1df6 <forward_walls+0xe4>
    1da4:	20 e0       	ldi	r18, 0x00	; 0
    1da6:	30 e0       	ldi	r19, 0x00	; 0
    1da8:	40 e2       	ldi	r20, 0x20	; 32
    1daa:	51 e4       	ldi	r21, 0x41	; 65
    1dac:	69 81       	ldd	r22, Y+1	; 0x01
    1dae:	7a 81       	ldd	r23, Y+2	; 0x02
    1db0:	8b 81       	ldd	r24, Y+3	; 0x03
    1db2:	9c 81       	ldd	r25, Y+4	; 0x04
    1db4:	0e 94 63 18 	call	0x30c6	; 0x30c6 <__mulsf3>
    1db8:	dc 01       	movw	r26, r24
    1dba:	cb 01       	movw	r24, r22
    1dbc:	bc 01       	movw	r22, r24
    1dbe:	cd 01       	movw	r24, r26
    1dc0:	0e 94 81 17 	call	0x2f02	; 0x2f02 <__fixunssfsi>
    1dc4:	dc 01       	movw	r26, r24
    1dc6:	cb 01       	movw	r24, r22
    1dc8:	9a 87       	std	Y+10, r25	; 0x0a
    1dca:	89 87       	std	Y+9, r24	; 0x09
    1dcc:	0f c0       	rjmp	.+30     	; 0x1dec <forward_walls+0xda>
    1dce:	80 e7       	ldi	r24, 0x70	; 112
    1dd0:	91 e0       	ldi	r25, 0x01	; 1
    1dd2:	9c 87       	std	Y+12, r25	; 0x0c
    1dd4:	8b 87       	std	Y+11, r24	; 0x0b
    1dd6:	8b 85       	ldd	r24, Y+11	; 0x0b
    1dd8:	9c 85       	ldd	r25, Y+12	; 0x0c
    1dda:	01 97       	sbiw	r24, 0x01	; 1
    1ddc:	f1 f7       	brne	.-4      	; 0x1dda <forward_walls+0xc8>
    1dde:	9c 87       	std	Y+12, r25	; 0x0c
    1de0:	8b 87       	std	Y+11, r24	; 0x0b
    1de2:	89 85       	ldd	r24, Y+9	; 0x09
    1de4:	9a 85       	ldd	r25, Y+10	; 0x0a
    1de6:	01 97       	sbiw	r24, 0x01	; 1
    1de8:	9a 87       	std	Y+10, r25	; 0x0a
    1dea:	89 87       	std	Y+9, r24	; 0x09
    1dec:	89 85       	ldd	r24, Y+9	; 0x09
    1dee:	9a 85       	ldd	r25, Y+10	; 0x0a
    1df0:	00 97       	sbiw	r24, 0x00	; 0
    1df2:	69 f7       	brne	.-38     	; 0x1dce <forward_walls+0xbc>
    1df4:	14 c0       	rjmp	.+40     	; 0x1e1e <forward_walls+0x10c>
    1df6:	6d 81       	ldd	r22, Y+5	; 0x05
    1df8:	7e 81       	ldd	r23, Y+6	; 0x06
    1dfa:	8f 81       	ldd	r24, Y+7	; 0x07
    1dfc:	98 85       	ldd	r25, Y+8	; 0x08
    1dfe:	0e 94 81 17 	call	0x2f02	; 0x2f02 <__fixunssfsi>
    1e02:	dc 01       	movw	r26, r24
    1e04:	cb 01       	movw	r24, r22
    1e06:	9a 87       	std	Y+10, r25	; 0x0a
    1e08:	89 87       	std	Y+9, r24	; 0x09
    1e0a:	89 85       	ldd	r24, Y+9	; 0x09
    1e0c:	9a 85       	ldd	r25, Y+10	; 0x0a
    1e0e:	9e 87       	std	Y+14, r25	; 0x0e
    1e10:	8d 87       	std	Y+13, r24	; 0x0d
    1e12:	8d 85       	ldd	r24, Y+13	; 0x0d
    1e14:	9e 85       	ldd	r25, Y+14	; 0x0e
    1e16:	01 97       	sbiw	r24, 0x01	; 1
    1e18:	f1 f7       	brne	.-4      	; 0x1e16 <forward_walls+0x104>
    1e1a:	9e 87       	std	Y+14, r25	; 0x0e
    1e1c:	8d 87       	std	Y+13, r24	; 0x0d
    1e1e:	8b e0       	ldi	r24, 0x0B	; 11
    1e20:	c0 de       	rcall	.-640    	; 0x1ba2 <ADC_Conversion>
    1e22:	80 93 bf 02 	sts	0x02BF, r24
    1e26:	80 91 bf 02 	lds	r24, 0x02BF
    1e2a:	83 37       	cpi	r24, 0x73	; 115
    1e2c:	08 f4       	brcc	.+2      	; 0x1e30 <forward_walls+0x11e>
    1e2e:	81 c0       	rjmp	.+258    	; 0x1f32 <forward_walls+0x220>
    1e30:	80 91 bf 02 	lds	r24, 0x02BF
    1e34:	83 38       	cpi	r24, 0x83	; 131
    1e36:	08 f0       	brcs	.+2      	; 0x1e3a <forward_walls+0x128>
    1e38:	7c c0       	rjmp	.+248    	; 0x1f32 <forward_walls+0x220>
    1e3a:	6f de       	rcall	.-802    	; 0x1b1a <forward>
    1e3c:	88 e2       	ldi	r24, 0x28	; 40
    1e3e:	91 e0       	ldi	r25, 0x01	; 1
    1e40:	2c ed       	ldi	r18, 0xDC	; 220
    1e42:	fc 01       	movw	r30, r24
    1e44:	20 83       	st	Z, r18
    1e46:	8a e2       	ldi	r24, 0x2A	; 42
    1e48:	91 e0       	ldi	r25, 0x01	; 1
    1e4a:	2c ed       	ldi	r18, 0xDC	; 220
    1e4c:	fc 01       	movw	r30, r24
    1e4e:	20 83       	st	Z, r18
    1e50:	80 e0       	ldi	r24, 0x00	; 0
    1e52:	90 e0       	ldi	r25, 0x00	; 0
    1e54:	a4 e3       	ldi	r26, 0x34	; 52
    1e56:	b2 e4       	ldi	r27, 0x42	; 66
    1e58:	8f 87       	std	Y+15, r24	; 0x0f
    1e5a:	98 8b       	std	Y+16, r25	; 0x10
    1e5c:	a9 8b       	std	Y+17, r26	; 0x11
    1e5e:	ba 8b       	std	Y+18, r27	; 0x12
    1e60:	26 e6       	ldi	r18, 0x66	; 102
    1e62:	36 e6       	ldi	r19, 0x66	; 102
    1e64:	46 e6       	ldi	r20, 0x66	; 102
    1e66:	55 e4       	ldi	r21, 0x45	; 69
    1e68:	6f 85       	ldd	r22, Y+15	; 0x0f
    1e6a:	78 89       	ldd	r23, Y+16	; 0x10
    1e6c:	89 89       	ldd	r24, Y+17	; 0x11
    1e6e:	9a 89       	ldd	r25, Y+18	; 0x12
    1e70:	0e 94 63 18 	call	0x30c6	; 0x30c6 <__mulsf3>
    1e74:	dc 01       	movw	r26, r24
    1e76:	cb 01       	movw	r24, r22
    1e78:	8b 8b       	std	Y+19, r24	; 0x13
    1e7a:	9c 8b       	std	Y+20, r25	; 0x14
    1e7c:	ad 8b       	std	Y+21, r26	; 0x15
    1e7e:	be 8b       	std	Y+22, r27	; 0x16
    1e80:	20 e0       	ldi	r18, 0x00	; 0
    1e82:	30 e0       	ldi	r19, 0x00	; 0
    1e84:	40 e8       	ldi	r20, 0x80	; 128
    1e86:	5f e3       	ldi	r21, 0x3F	; 63
    1e88:	6b 89       	ldd	r22, Y+19	; 0x13
    1e8a:	7c 89       	ldd	r23, Y+20	; 0x14
    1e8c:	8d 89       	ldd	r24, Y+21	; 0x15
    1e8e:	9e 89       	ldd	r25, Y+22	; 0x16
    1e90:	cc d7       	rcall	.+3992   	; 0x2e2a <__cmpsf2>
    1e92:	88 23       	and	r24, r24
    1e94:	2c f4       	brge	.+10     	; 0x1ea0 <forward_walls+0x18e>
    1e96:	81 e0       	ldi	r24, 0x01	; 1
    1e98:	90 e0       	ldi	r25, 0x00	; 0
    1e9a:	98 8f       	std	Y+24, r25	; 0x18
    1e9c:	8f 8b       	std	Y+23, r24	; 0x17
    1e9e:	3e c0       	rjmp	.+124    	; 0x1f1c <forward_walls+0x20a>
    1ea0:	20 e0       	ldi	r18, 0x00	; 0
    1ea2:	3f ef       	ldi	r19, 0xFF	; 255
    1ea4:	4f e7       	ldi	r20, 0x7F	; 127
    1ea6:	57 e4       	ldi	r21, 0x47	; 71
    1ea8:	6b 89       	ldd	r22, Y+19	; 0x13
    1eaa:	7c 89       	ldd	r23, Y+20	; 0x14
    1eac:	8d 89       	ldd	r24, Y+21	; 0x15
    1eae:	9e 89       	ldd	r25, Y+22	; 0x16
    1eb0:	0e 94 5f 18 	call	0x30be	; 0x30be <__gesf2>
    1eb4:	18 16       	cp	r1, r24
    1eb6:	4c f5       	brge	.+82     	; 0x1f0a <forward_walls+0x1f8>
    1eb8:	20 e0       	ldi	r18, 0x00	; 0
    1eba:	30 e0       	ldi	r19, 0x00	; 0
    1ebc:	40 e2       	ldi	r20, 0x20	; 32
    1ebe:	51 e4       	ldi	r21, 0x41	; 65
    1ec0:	6f 85       	ldd	r22, Y+15	; 0x0f
    1ec2:	78 89       	ldd	r23, Y+16	; 0x10
    1ec4:	89 89       	ldd	r24, Y+17	; 0x11
    1ec6:	9a 89       	ldd	r25, Y+18	; 0x12
    1ec8:	0e 94 63 18 	call	0x30c6	; 0x30c6 <__mulsf3>
    1ecc:	dc 01       	movw	r26, r24
    1ece:	cb 01       	movw	r24, r22
    1ed0:	bc 01       	movw	r22, r24
    1ed2:	cd 01       	movw	r24, r26
    1ed4:	0e 94 81 17 	call	0x2f02	; 0x2f02 <__fixunssfsi>
    1ed8:	dc 01       	movw	r26, r24
    1eda:	cb 01       	movw	r24, r22
    1edc:	98 8f       	std	Y+24, r25	; 0x18
    1ede:	8f 8b       	std	Y+23, r24	; 0x17
    1ee0:	0f c0       	rjmp	.+30     	; 0x1f00 <forward_walls+0x1ee>
    1ee2:	80 e7       	ldi	r24, 0x70	; 112
    1ee4:	91 e0       	ldi	r25, 0x01	; 1
    1ee6:	9a 8f       	std	Y+26, r25	; 0x1a
    1ee8:	89 8f       	std	Y+25, r24	; 0x19
    1eea:	89 8d       	ldd	r24, Y+25	; 0x19
    1eec:	9a 8d       	ldd	r25, Y+26	; 0x1a
    1eee:	01 97       	sbiw	r24, 0x01	; 1
    1ef0:	f1 f7       	brne	.-4      	; 0x1eee <forward_walls+0x1dc>
    1ef2:	9a 8f       	std	Y+26, r25	; 0x1a
    1ef4:	89 8f       	std	Y+25, r24	; 0x19
    1ef6:	8f 89       	ldd	r24, Y+23	; 0x17
    1ef8:	98 8d       	ldd	r25, Y+24	; 0x18
    1efa:	01 97       	sbiw	r24, 0x01	; 1
    1efc:	98 8f       	std	Y+24, r25	; 0x18
    1efe:	8f 8b       	std	Y+23, r24	; 0x17
    1f00:	8f 89       	ldd	r24, Y+23	; 0x17
    1f02:	98 8d       	ldd	r25, Y+24	; 0x18
    1f04:	00 97       	sbiw	r24, 0x00	; 0
    1f06:	69 f7       	brne	.-38     	; 0x1ee2 <forward_walls+0x1d0>
    1f08:	1d c1       	rjmp	.+570    	; 0x2144 <forward_walls+0x432>
    1f0a:	6b 89       	ldd	r22, Y+19	; 0x13
    1f0c:	7c 89       	ldd	r23, Y+20	; 0x14
    1f0e:	8d 89       	ldd	r24, Y+21	; 0x15
    1f10:	9e 89       	ldd	r25, Y+22	; 0x16
    1f12:	f7 d7       	rcall	.+4078   	; 0x2f02 <__fixunssfsi>
    1f14:	dc 01       	movw	r26, r24
    1f16:	cb 01       	movw	r24, r22
    1f18:	98 8f       	std	Y+24, r25	; 0x18
    1f1a:	8f 8b       	std	Y+23, r24	; 0x17
    1f1c:	8f 89       	ldd	r24, Y+23	; 0x17
    1f1e:	98 8d       	ldd	r25, Y+24	; 0x18
    1f20:	9c 8f       	std	Y+28, r25	; 0x1c
    1f22:	8b 8f       	std	Y+27, r24	; 0x1b
    1f24:	8b 8d       	ldd	r24, Y+27	; 0x1b
    1f26:	9c 8d       	ldd	r25, Y+28	; 0x1c
    1f28:	01 97       	sbiw	r24, 0x01	; 1
    1f2a:	f1 f7       	brne	.-4      	; 0x1f28 <forward_walls+0x216>
    1f2c:	9c 8f       	std	Y+28, r25	; 0x1c
    1f2e:	8b 8f       	std	Y+27, r24	; 0x1b
    1f30:	09 c1       	rjmp	.+530    	; 0x2144 <forward_walls+0x432>
    1f32:	80 91 bf 02 	lds	r24, 0x02BF
    1f36:	83 38       	cpi	r24, 0x83	; 131
    1f38:	08 f4       	brcc	.+2      	; 0x1f3c <forward_walls+0x22a>
    1f3a:	7b c0       	rjmp	.+246    	; 0x2032 <forward_walls+0x320>
    1f3c:	00 de       	rcall	.-1024   	; 0x1b3e <soft_right>
    1f3e:	88 e2       	ldi	r24, 0x28	; 40
    1f40:	91 e0       	ldi	r25, 0x01	; 1
    1f42:	25 e7       	ldi	r18, 0x75	; 117
    1f44:	fc 01       	movw	r30, r24
    1f46:	20 83       	st	Z, r18
    1f48:	8a e2       	ldi	r24, 0x2A	; 42
    1f4a:	91 e0       	ldi	r25, 0x01	; 1
    1f4c:	2f e6       	ldi	r18, 0x6F	; 111
    1f4e:	fc 01       	movw	r30, r24
    1f50:	20 83       	st	Z, r18
    1f52:	80 e0       	ldi	r24, 0x00	; 0
    1f54:	90 e0       	ldi	r25, 0x00	; 0
    1f56:	a0 e0       	ldi	r26, 0x00	; 0
    1f58:	b0 e4       	ldi	r27, 0x40	; 64
    1f5a:	8d 8f       	std	Y+29, r24	; 0x1d
    1f5c:	9e 8f       	std	Y+30, r25	; 0x1e
    1f5e:	af 8f       	std	Y+31, r26	; 0x1f
    1f60:	b8 a3       	std	Y+32, r27	; 0x20
    1f62:	26 e6       	ldi	r18, 0x66	; 102
    1f64:	36 e6       	ldi	r19, 0x66	; 102
    1f66:	46 e6       	ldi	r20, 0x66	; 102
    1f68:	55 e4       	ldi	r21, 0x45	; 69
    1f6a:	6d 8d       	ldd	r22, Y+29	; 0x1d
    1f6c:	7e 8d       	ldd	r23, Y+30	; 0x1e
    1f6e:	8f 8d       	ldd	r24, Y+31	; 0x1f
    1f70:	98 a1       	ldd	r25, Y+32	; 0x20
    1f72:	0e 94 63 18 	call	0x30c6	; 0x30c6 <__mulsf3>
    1f76:	dc 01       	movw	r26, r24
    1f78:	cb 01       	movw	r24, r22
    1f7a:	89 a3       	std	Y+33, r24	; 0x21
    1f7c:	9a a3       	std	Y+34, r25	; 0x22
    1f7e:	ab a3       	std	Y+35, r26	; 0x23
    1f80:	bc a3       	std	Y+36, r27	; 0x24
    1f82:	20 e0       	ldi	r18, 0x00	; 0
    1f84:	30 e0       	ldi	r19, 0x00	; 0
    1f86:	40 e8       	ldi	r20, 0x80	; 128
    1f88:	5f e3       	ldi	r21, 0x3F	; 63
    1f8a:	69 a1       	ldd	r22, Y+33	; 0x21
    1f8c:	7a a1       	ldd	r23, Y+34	; 0x22
    1f8e:	8b a1       	ldd	r24, Y+35	; 0x23
    1f90:	9c a1       	ldd	r25, Y+36	; 0x24
    1f92:	4b d7       	rcall	.+3734   	; 0x2e2a <__cmpsf2>
    1f94:	88 23       	and	r24, r24
    1f96:	2c f4       	brge	.+10     	; 0x1fa2 <forward_walls+0x290>
    1f98:	81 e0       	ldi	r24, 0x01	; 1
    1f9a:	90 e0       	ldi	r25, 0x00	; 0
    1f9c:	9e a3       	std	Y+38, r25	; 0x26
    1f9e:	8d a3       	std	Y+37, r24	; 0x25
    1fa0:	3d c0       	rjmp	.+122    	; 0x201c <forward_walls+0x30a>
    1fa2:	20 e0       	ldi	r18, 0x00	; 0
    1fa4:	3f ef       	ldi	r19, 0xFF	; 255
    1fa6:	4f e7       	ldi	r20, 0x7F	; 127
    1fa8:	57 e4       	ldi	r21, 0x47	; 71
    1faa:	69 a1       	ldd	r22, Y+33	; 0x21
    1fac:	7a a1       	ldd	r23, Y+34	; 0x22
    1fae:	8b a1       	ldd	r24, Y+35	; 0x23
    1fb0:	9c a1       	ldd	r25, Y+36	; 0x24
    1fb2:	0e 94 5f 18 	call	0x30be	; 0x30be <__gesf2>
    1fb6:	18 16       	cp	r1, r24
    1fb8:	44 f5       	brge	.+80     	; 0x200a <forward_walls+0x2f8>
    1fba:	20 e0       	ldi	r18, 0x00	; 0
    1fbc:	30 e0       	ldi	r19, 0x00	; 0
    1fbe:	40 e2       	ldi	r20, 0x20	; 32
    1fc0:	51 e4       	ldi	r21, 0x41	; 65
    1fc2:	6d 8d       	ldd	r22, Y+29	; 0x1d
    1fc4:	7e 8d       	ldd	r23, Y+30	; 0x1e
    1fc6:	8f 8d       	ldd	r24, Y+31	; 0x1f
    1fc8:	98 a1       	ldd	r25, Y+32	; 0x20
    1fca:	0e 94 63 18 	call	0x30c6	; 0x30c6 <__mulsf3>
    1fce:	dc 01       	movw	r26, r24
    1fd0:	cb 01       	movw	r24, r22
    1fd2:	bc 01       	movw	r22, r24
    1fd4:	cd 01       	movw	r24, r26
    1fd6:	95 d7       	rcall	.+3882   	; 0x2f02 <__fixunssfsi>
    1fd8:	dc 01       	movw	r26, r24
    1fda:	cb 01       	movw	r24, r22
    1fdc:	9e a3       	std	Y+38, r25	; 0x26
    1fde:	8d a3       	std	Y+37, r24	; 0x25
    1fe0:	0f c0       	rjmp	.+30     	; 0x2000 <forward_walls+0x2ee>
    1fe2:	80 e7       	ldi	r24, 0x70	; 112
    1fe4:	91 e0       	ldi	r25, 0x01	; 1
    1fe6:	98 a7       	std	Y+40, r25	; 0x28
    1fe8:	8f a3       	std	Y+39, r24	; 0x27
    1fea:	8f a1       	ldd	r24, Y+39	; 0x27
    1fec:	98 a5       	ldd	r25, Y+40	; 0x28
    1fee:	01 97       	sbiw	r24, 0x01	; 1
    1ff0:	f1 f7       	brne	.-4      	; 0x1fee <forward_walls+0x2dc>
    1ff2:	98 a7       	std	Y+40, r25	; 0x28
    1ff4:	8f a3       	std	Y+39, r24	; 0x27
    1ff6:	8d a1       	ldd	r24, Y+37	; 0x25
    1ff8:	9e a1       	ldd	r25, Y+38	; 0x26
    1ffa:	01 97       	sbiw	r24, 0x01	; 1
    1ffc:	9e a3       	std	Y+38, r25	; 0x26
    1ffe:	8d a3       	std	Y+37, r24	; 0x25
    2000:	8d a1       	ldd	r24, Y+37	; 0x25
    2002:	9e a1       	ldd	r25, Y+38	; 0x26
    2004:	00 97       	sbiw	r24, 0x00	; 0
    2006:	69 f7       	brne	.-38     	; 0x1fe2 <forward_walls+0x2d0>
    2008:	9d c0       	rjmp	.+314    	; 0x2144 <forward_walls+0x432>
    200a:	69 a1       	ldd	r22, Y+33	; 0x21
    200c:	7a a1       	ldd	r23, Y+34	; 0x22
    200e:	8b a1       	ldd	r24, Y+35	; 0x23
    2010:	9c a1       	ldd	r25, Y+36	; 0x24
    2012:	77 d7       	rcall	.+3822   	; 0x2f02 <__fixunssfsi>
    2014:	dc 01       	movw	r26, r24
    2016:	cb 01       	movw	r24, r22
    2018:	9e a3       	std	Y+38, r25	; 0x26
    201a:	8d a3       	std	Y+37, r24	; 0x25
    201c:	8d a1       	ldd	r24, Y+37	; 0x25
    201e:	9e a1       	ldd	r25, Y+38	; 0x26
    2020:	9a a7       	std	Y+42, r25	; 0x2a
    2022:	89 a7       	std	Y+41, r24	; 0x29
    2024:	89 a5       	ldd	r24, Y+41	; 0x29
    2026:	9a a5       	ldd	r25, Y+42	; 0x2a
    2028:	01 97       	sbiw	r24, 0x01	; 1
    202a:	f1 f7       	brne	.-4      	; 0x2028 <forward_walls+0x316>
    202c:	9a a7       	std	Y+42, r25	; 0x2a
    202e:	89 a7       	std	Y+41, r24	; 0x29
    2030:	f6 ce       	rjmp	.-532    	; 0x1e1e <forward_walls+0x10c>
    2032:	80 91 bf 02 	lds	r24, 0x02BF
    2036:	83 37       	cpi	r24, 0x73	; 115
    2038:	08 f0       	brcs	.+2      	; 0x203c <forward_walls+0x32a>
    203a:	7f c0       	rjmp	.+254    	; 0x213a <forward_walls+0x428>
    203c:	80 91 bf 02 	lds	r24, 0x02BF
    2040:	81 35       	cpi	r24, 0x51	; 81
    2042:	08 f4       	brcc	.+2      	; 0x2046 <forward_walls+0x334>
    2044:	7a c0       	rjmp	.+244    	; 0x213a <forward_walls+0x428>
    2046:	84 dd       	rcall	.-1272   	; 0x1b50 <soft_left>
    2048:	88 e2       	ldi	r24, 0x28	; 40
    204a:	91 e0       	ldi	r25, 0x01	; 1
    204c:	22 e7       	ldi	r18, 0x72	; 114
    204e:	fc 01       	movw	r30, r24
    2050:	20 83       	st	Z, r18
    2052:	8a e2       	ldi	r24, 0x2A	; 42
    2054:	91 e0       	ldi	r25, 0x01	; 1
    2056:	25 e7       	ldi	r18, 0x75	; 117
    2058:	fc 01       	movw	r30, r24
    205a:	20 83       	st	Z, r18
    205c:	80 e0       	ldi	r24, 0x00	; 0
    205e:	90 e0       	ldi	r25, 0x00	; 0
    2060:	a0 e0       	ldi	r26, 0x00	; 0
    2062:	b0 e4       	ldi	r27, 0x40	; 64
    2064:	8b a7       	std	Y+43, r24	; 0x2b
    2066:	9c a7       	std	Y+44, r25	; 0x2c
    2068:	ad a7       	std	Y+45, r26	; 0x2d
    206a:	be a7       	std	Y+46, r27	; 0x2e
    206c:	26 e6       	ldi	r18, 0x66	; 102
    206e:	36 e6       	ldi	r19, 0x66	; 102
    2070:	46 e6       	ldi	r20, 0x66	; 102
    2072:	55 e4       	ldi	r21, 0x45	; 69
    2074:	6b a5       	ldd	r22, Y+43	; 0x2b
    2076:	7c a5       	ldd	r23, Y+44	; 0x2c
    2078:	8d a5       	ldd	r24, Y+45	; 0x2d
    207a:	9e a5       	ldd	r25, Y+46	; 0x2e
    207c:	0e 94 63 18 	call	0x30c6	; 0x30c6 <__mulsf3>
    2080:	dc 01       	movw	r26, r24
    2082:	cb 01       	movw	r24, r22
    2084:	8f a7       	std	Y+47, r24	; 0x2f
    2086:	98 ab       	std	Y+48, r25	; 0x30
    2088:	a9 ab       	std	Y+49, r26	; 0x31
    208a:	ba ab       	std	Y+50, r27	; 0x32
    208c:	20 e0       	ldi	r18, 0x00	; 0
    208e:	30 e0       	ldi	r19, 0x00	; 0
    2090:	40 e8       	ldi	r20, 0x80	; 128
    2092:	5f e3       	ldi	r21, 0x3F	; 63
    2094:	6f a5       	ldd	r22, Y+47	; 0x2f
    2096:	78 a9       	ldd	r23, Y+48	; 0x30
    2098:	89 a9       	ldd	r24, Y+49	; 0x31
    209a:	9a a9       	ldd	r25, Y+50	; 0x32
    209c:	c6 d6       	rcall	.+3468   	; 0x2e2a <__cmpsf2>
    209e:	88 23       	and	r24, r24
    20a0:	2c f4       	brge	.+10     	; 0x20ac <forward_walls+0x39a>
    20a2:	81 e0       	ldi	r24, 0x01	; 1
    20a4:	90 e0       	ldi	r25, 0x00	; 0
    20a6:	9c ab       	std	Y+52, r25	; 0x34
    20a8:	8b ab       	std	Y+51, r24	; 0x33
    20aa:	3c c0       	rjmp	.+120    	; 0x2124 <forward_walls+0x412>
    20ac:	20 e0       	ldi	r18, 0x00	; 0
    20ae:	3f ef       	ldi	r19, 0xFF	; 255
    20b0:	4f e7       	ldi	r20, 0x7F	; 127
    20b2:	57 e4       	ldi	r21, 0x47	; 71
    20b4:	6f a5       	ldd	r22, Y+47	; 0x2f
    20b6:	78 a9       	ldd	r23, Y+48	; 0x30
    20b8:	89 a9       	ldd	r24, Y+49	; 0x31
    20ba:	9a a9       	ldd	r25, Y+50	; 0x32
    20bc:	0e 94 5f 18 	call	0x30be	; 0x30be <__gesf2>
    20c0:	18 16       	cp	r1, r24
    20c2:	3c f5       	brge	.+78     	; 0x2112 <forward_walls+0x400>
    20c4:	20 e0       	ldi	r18, 0x00	; 0
    20c6:	30 e0       	ldi	r19, 0x00	; 0
    20c8:	40 e2       	ldi	r20, 0x20	; 32
    20ca:	51 e4       	ldi	r21, 0x41	; 65
    20cc:	6b a5       	ldd	r22, Y+43	; 0x2b
    20ce:	7c a5       	ldd	r23, Y+44	; 0x2c
    20d0:	8d a5       	ldd	r24, Y+45	; 0x2d
    20d2:	9e a5       	ldd	r25, Y+46	; 0x2e
    20d4:	f8 d7       	rcall	.+4080   	; 0x30c6 <__mulsf3>
    20d6:	dc 01       	movw	r26, r24
    20d8:	cb 01       	movw	r24, r22
    20da:	bc 01       	movw	r22, r24
    20dc:	cd 01       	movw	r24, r26
    20de:	11 d7       	rcall	.+3618   	; 0x2f02 <__fixunssfsi>
    20e0:	dc 01       	movw	r26, r24
    20e2:	cb 01       	movw	r24, r22
    20e4:	9c ab       	std	Y+52, r25	; 0x34
    20e6:	8b ab       	std	Y+51, r24	; 0x33
    20e8:	0f c0       	rjmp	.+30     	; 0x2108 <forward_walls+0x3f6>
    20ea:	80 e7       	ldi	r24, 0x70	; 112
    20ec:	91 e0       	ldi	r25, 0x01	; 1
    20ee:	9e ab       	std	Y+54, r25	; 0x36
    20f0:	8d ab       	std	Y+53, r24	; 0x35
    20f2:	8d a9       	ldd	r24, Y+53	; 0x35
    20f4:	9e a9       	ldd	r25, Y+54	; 0x36
    20f6:	01 97       	sbiw	r24, 0x01	; 1
    20f8:	f1 f7       	brne	.-4      	; 0x20f6 <forward_walls+0x3e4>
    20fa:	9e ab       	std	Y+54, r25	; 0x36
    20fc:	8d ab       	std	Y+53, r24	; 0x35
    20fe:	8b a9       	ldd	r24, Y+51	; 0x33
    2100:	9c a9       	ldd	r25, Y+52	; 0x34
    2102:	01 97       	sbiw	r24, 0x01	; 1
    2104:	9c ab       	std	Y+52, r25	; 0x34
    2106:	8b ab       	std	Y+51, r24	; 0x33
    2108:	8b a9       	ldd	r24, Y+51	; 0x33
    210a:	9c a9       	ldd	r25, Y+52	; 0x34
    210c:	00 97       	sbiw	r24, 0x00	; 0
    210e:	69 f7       	brne	.-38     	; 0x20ea <forward_walls+0x3d8>
    2110:	19 c0       	rjmp	.+50     	; 0x2144 <forward_walls+0x432>
    2112:	6f a5       	ldd	r22, Y+47	; 0x2f
    2114:	78 a9       	ldd	r23, Y+48	; 0x30
    2116:	89 a9       	ldd	r24, Y+49	; 0x31
    2118:	9a a9       	ldd	r25, Y+50	; 0x32
    211a:	f3 d6       	rcall	.+3558   	; 0x2f02 <__fixunssfsi>
    211c:	dc 01       	movw	r26, r24
    211e:	cb 01       	movw	r24, r22
    2120:	9c ab       	std	Y+52, r25	; 0x34
    2122:	8b ab       	std	Y+51, r24	; 0x33
    2124:	8b a9       	ldd	r24, Y+51	; 0x33
    2126:	9c a9       	ldd	r25, Y+52	; 0x34
    2128:	98 af       	std	Y+56, r25	; 0x38
    212a:	8f ab       	std	Y+55, r24	; 0x37
    212c:	8f a9       	ldd	r24, Y+55	; 0x37
    212e:	98 ad       	ldd	r25, Y+56	; 0x38
    2130:	01 97       	sbiw	r24, 0x01	; 1
    2132:	f1 f7       	brne	.-4      	; 0x2130 <forward_walls+0x41e>
    2134:	98 af       	std	Y+56, r25	; 0x38
    2136:	8f ab       	std	Y+55, r24	; 0x37
    2138:	05 c0       	rjmp	.+10     	; 0x2144 <forward_walls+0x432>
    213a:	80 91 bf 02 	lds	r24, 0x02BF
    213e:	80 35       	cpi	r24, 0x50	; 80
    2140:	08 f4       	brcc	.+2      	; 0x2144 <forward_walls+0x432>
    2142:	01 c0       	rjmp	.+2      	; 0x2146 <forward_walls+0x434>
    2144:	6c ce       	rjmp	.-808    	; 0x1e1e <forward_walls+0x10c>
    2146:	61 e0       	ldi	r22, 0x01	; 1
    2148:	70 e0       	ldi	r23, 0x00	; 0
    214a:	80 e0       	ldi	r24, 0x00	; 0
    214c:	90 e0       	ldi	r25, 0x00	; 0
    214e:	09 d0       	rcall	.+18     	; 0x2162 <forward_wls>
    2150:	e8 96       	adiw	r28, 0x38	; 56
    2152:	0f b6       	in	r0, 0x3f	; 63
    2154:	f8 94       	cli
    2156:	de bf       	out	0x3e, r29	; 62
    2158:	0f be       	out	0x3f, r0	; 63
    215a:	cd bf       	out	0x3d, r28	; 61
    215c:	df 91       	pop	r29
    215e:	cf 91       	pop	r28
    2160:	08 95       	ret

00002162 <forward_wls>:
    2162:	cf 93       	push	r28
    2164:	df 93       	push	r29
    2166:	cd b7       	in	r28, 0x3d	; 61
    2168:	de b7       	in	r29, 0x3e	; 62
    216a:	e0 97       	sbiw	r28, 0x30	; 48
    216c:	0f b6       	in	r0, 0x3f	; 63
    216e:	f8 94       	cli
    2170:	de bf       	out	0x3e, r29	; 62
    2172:	0f be       	out	0x3f, r0	; 63
    2174:	cd bf       	out	0x3d, r28	; 61
    2176:	9e a7       	std	Y+46, r25	; 0x2e
    2178:	8d a7       	std	Y+45, r24	; 0x2d
    217a:	78 ab       	std	Y+48, r23	; 0x30
    217c:	6f a7       	std	Y+47, r22	; 0x2f
    217e:	81 e0       	ldi	r24, 0x01	; 1
    2180:	90 e0       	ldi	r25, 0x00	; 0
    2182:	9a 83       	std	Y+2, r25	; 0x02
    2184:	89 83       	std	Y+1, r24	; 0x01
    2186:	75 c2       	rjmp	.+1258   	; 0x2672 <__stack+0x473>
    2188:	81 e0       	ldi	r24, 0x01	; 1
    218a:	90 e0       	ldi	r25, 0x00	; 0
    218c:	4e dd       	rcall	.-1380   	; 0x1c2a <LCD_Function>
    218e:	c5 dc       	rcall	.-1654   	; 0x1b1a <forward>
    2190:	90 91 00 02 	lds	r25, 0x0200
    2194:	80 91 00 02 	lds	r24, 0x0200
    2198:	69 2f       	mov	r22, r25
    219a:	ec dc       	rcall	.-1576   	; 0x1b74 <velocity>
    219c:	81 e0       	ldi	r24, 0x01	; 1
    219e:	01 dd       	rcall	.-1534   	; 0x1ba2 <ADC_Conversion>
    21a0:	80 93 c0 02 	sts	0x02C0, r24
    21a4:	82 e0       	ldi	r24, 0x02	; 2
    21a6:	fd dc       	rcall	.-1542   	; 0x1ba2 <ADC_Conversion>
    21a8:	80 93 b5 02 	sts	0x02B5, r24
    21ac:	83 e0       	ldi	r24, 0x03	; 3
    21ae:	f9 dc       	rcall	.-1550   	; 0x1ba2 <ADC_Conversion>
    21b0:	80 93 b8 02 	sts	0x02B8, r24
    21b4:	8d a5       	ldd	r24, Y+45	; 0x2d
    21b6:	9e a5       	ldd	r25, Y+46	; 0x2e
    21b8:	82 30       	cpi	r24, 0x02	; 2
    21ba:	91 05       	cpc	r25, r1
    21bc:	09 f0       	breq	.+2      	; 0x21c0 <forward_wls+0x5e>
    21be:	82 c0       	rjmp	.+260    	; 0x22c4 <__stack+0xc5>
    21c0:	80 91 c0 02 	lds	r24, 0x02C0
    21c4:	28 2f       	mov	r18, r24
    21c6:	30 e0       	ldi	r19, 0x00	; 0
    21c8:	80 91 b5 02 	lds	r24, 0x02B5
    21cc:	88 2f       	mov	r24, r24
    21ce:	90 e0       	ldi	r25, 0x00	; 0
    21d0:	28 0f       	add	r18, r24
    21d2:	39 1f       	adc	r19, r25
    21d4:	80 91 b8 02 	lds	r24, 0x02B8
    21d8:	88 2f       	mov	r24, r24
    21da:	90 e0       	ldi	r25, 0x00	; 0
    21dc:	82 0f       	add	r24, r18
    21de:	93 1f       	adc	r25, r19
    21e0:	89 31       	cpi	r24, 0x19	; 25
    21e2:	21 e0       	ldi	r18, 0x01	; 1
    21e4:	92 07       	cpc	r25, r18
    21e6:	0c f4       	brge	.+2      	; 0x21ea <forward_wls+0x88>
    21e8:	6d c0       	rjmp	.+218    	; 0x22c4 <__stack+0xc5>
    21ea:	80 e0       	ldi	r24, 0x00	; 0
    21ec:	90 e0       	ldi	r25, 0x00	; 0
    21ee:	a0 ea       	ldi	r26, 0xA0	; 160
    21f0:	b2 e4       	ldi	r27, 0x42	; 66
    21f2:	8b 83       	std	Y+3, r24	; 0x03
    21f4:	9c 83       	std	Y+4, r25	; 0x04
    21f6:	ad 83       	std	Y+5, r26	; 0x05
    21f8:	be 83       	std	Y+6, r27	; 0x06
    21fa:	26 e6       	ldi	r18, 0x66	; 102
    21fc:	36 e6       	ldi	r19, 0x66	; 102
    21fe:	46 e6       	ldi	r20, 0x66	; 102
    2200:	55 e4       	ldi	r21, 0x45	; 69
    2202:	6b 81       	ldd	r22, Y+3	; 0x03
    2204:	7c 81       	ldd	r23, Y+4	; 0x04
    2206:	8d 81       	ldd	r24, Y+5	; 0x05
    2208:	9e 81       	ldd	r25, Y+6	; 0x06
    220a:	5d d7       	rcall	.+3770   	; 0x30c6 <__mulsf3>
    220c:	dc 01       	movw	r26, r24
    220e:	cb 01       	movw	r24, r22
    2210:	8f 83       	std	Y+7, r24	; 0x07
    2212:	98 87       	std	Y+8, r25	; 0x08
    2214:	a9 87       	std	Y+9, r26	; 0x09
    2216:	ba 87       	std	Y+10, r27	; 0x0a
    2218:	20 e0       	ldi	r18, 0x00	; 0
    221a:	30 e0       	ldi	r19, 0x00	; 0
    221c:	40 e8       	ldi	r20, 0x80	; 128
    221e:	5f e3       	ldi	r21, 0x3F	; 63
    2220:	6f 81       	ldd	r22, Y+7	; 0x07
    2222:	78 85       	ldd	r23, Y+8	; 0x08
    2224:	89 85       	ldd	r24, Y+9	; 0x09
    2226:	9a 85       	ldd	r25, Y+10	; 0x0a
    2228:	00 d6       	rcall	.+3072   	; 0x2e2a <__cmpsf2>
    222a:	88 23       	and	r24, r24
    222c:	2c f4       	brge	.+10     	; 0x2238 <__stack+0x39>
    222e:	81 e0       	ldi	r24, 0x01	; 1
    2230:	90 e0       	ldi	r25, 0x00	; 0
    2232:	9c 87       	std	Y+12, r25	; 0x0c
    2234:	8b 87       	std	Y+11, r24	; 0x0b
    2236:	3b c0       	rjmp	.+118    	; 0x22ae <__stack+0xaf>
    2238:	20 e0       	ldi	r18, 0x00	; 0
    223a:	3f ef       	ldi	r19, 0xFF	; 255
    223c:	4f e7       	ldi	r20, 0x7F	; 127
    223e:	57 e4       	ldi	r21, 0x47	; 71
    2240:	6f 81       	ldd	r22, Y+7	; 0x07
    2242:	78 85       	ldd	r23, Y+8	; 0x08
    2244:	89 85       	ldd	r24, Y+9	; 0x09
    2246:	9a 85       	ldd	r25, Y+10	; 0x0a
    2248:	3a d7       	rcall	.+3700   	; 0x30be <__gesf2>
    224a:	18 16       	cp	r1, r24
    224c:	3c f5       	brge	.+78     	; 0x229c <__stack+0x9d>
    224e:	20 e0       	ldi	r18, 0x00	; 0
    2250:	30 e0       	ldi	r19, 0x00	; 0
    2252:	40 e2       	ldi	r20, 0x20	; 32
    2254:	51 e4       	ldi	r21, 0x41	; 65
    2256:	6b 81       	ldd	r22, Y+3	; 0x03
    2258:	7c 81       	ldd	r23, Y+4	; 0x04
    225a:	8d 81       	ldd	r24, Y+5	; 0x05
    225c:	9e 81       	ldd	r25, Y+6	; 0x06
    225e:	33 d7       	rcall	.+3686   	; 0x30c6 <__mulsf3>
    2260:	dc 01       	movw	r26, r24
    2262:	cb 01       	movw	r24, r22
    2264:	bc 01       	movw	r22, r24
    2266:	cd 01       	movw	r24, r26
    2268:	4c d6       	rcall	.+3224   	; 0x2f02 <__fixunssfsi>
    226a:	dc 01       	movw	r26, r24
    226c:	cb 01       	movw	r24, r22
    226e:	9c 87       	std	Y+12, r25	; 0x0c
    2270:	8b 87       	std	Y+11, r24	; 0x0b
    2272:	0f c0       	rjmp	.+30     	; 0x2292 <__stack+0x93>
    2274:	80 e7       	ldi	r24, 0x70	; 112
    2276:	91 e0       	ldi	r25, 0x01	; 1
    2278:	9e 87       	std	Y+14, r25	; 0x0e
    227a:	8d 87       	std	Y+13, r24	; 0x0d
    227c:	8d 85       	ldd	r24, Y+13	; 0x0d
    227e:	9e 85       	ldd	r25, Y+14	; 0x0e
    2280:	01 97       	sbiw	r24, 0x01	; 1
    2282:	f1 f7       	brne	.-4      	; 0x2280 <__stack+0x81>
    2284:	9e 87       	std	Y+14, r25	; 0x0e
    2286:	8d 87       	std	Y+13, r24	; 0x0d
    2288:	8b 85       	ldd	r24, Y+11	; 0x0b
    228a:	9c 85       	ldd	r25, Y+12	; 0x0c
    228c:	01 97       	sbiw	r24, 0x01	; 1
    228e:	9c 87       	std	Y+12, r25	; 0x0c
    2290:	8b 87       	std	Y+11, r24	; 0x0b
    2292:	8b 85       	ldd	r24, Y+11	; 0x0b
    2294:	9c 85       	ldd	r25, Y+12	; 0x0c
    2296:	00 97       	sbiw	r24, 0x00	; 0
    2298:	69 f7       	brne	.-38     	; 0x2274 <__stack+0x75>
    229a:	da c1       	rjmp	.+948    	; 0x2650 <__stack+0x451>
    229c:	6f 81       	ldd	r22, Y+7	; 0x07
    229e:	78 85       	ldd	r23, Y+8	; 0x08
    22a0:	89 85       	ldd	r24, Y+9	; 0x09
    22a2:	9a 85       	ldd	r25, Y+10	; 0x0a
    22a4:	2e d6       	rcall	.+3164   	; 0x2f02 <__fixunssfsi>
    22a6:	dc 01       	movw	r26, r24
    22a8:	cb 01       	movw	r24, r22
    22aa:	9c 87       	std	Y+12, r25	; 0x0c
    22ac:	8b 87       	std	Y+11, r24	; 0x0b
    22ae:	8b 85       	ldd	r24, Y+11	; 0x0b
    22b0:	9c 85       	ldd	r25, Y+12	; 0x0c
    22b2:	98 8b       	std	Y+16, r25	; 0x10
    22b4:	8f 87       	std	Y+15, r24	; 0x0f
    22b6:	8f 85       	ldd	r24, Y+15	; 0x0f
    22b8:	98 89       	ldd	r25, Y+16	; 0x10
    22ba:	01 97       	sbiw	r24, 0x01	; 1
    22bc:	f1 f7       	brne	.-4      	; 0x22ba <__stack+0xbb>
    22be:	98 8b       	std	Y+16, r25	; 0x10
    22c0:	8f 87       	std	Y+15, r24	; 0x0f
    22c2:	c6 c1       	rjmp	.+908    	; 0x2650 <__stack+0x451>
    22c4:	8d a5       	ldd	r24, Y+45	; 0x2d
    22c6:	9e a5       	ldd	r25, Y+46	; 0x2e
    22c8:	83 30       	cpi	r24, 0x03	; 3
    22ca:	91 05       	cpc	r25, r1
    22cc:	09 f0       	breq	.+2      	; 0x22d0 <__stack+0xd1>
    22ce:	78 c0       	rjmp	.+240    	; 0x23c0 <__stack+0x1c1>
    22d0:	80 91 c0 02 	lds	r24, 0x02C0
    22d4:	89 37       	cpi	r24, 0x79	; 121
    22d6:	08 f4       	brcc	.+2      	; 0x22da <__stack+0xdb>
    22d8:	ba c1       	rjmp	.+884    	; 0x264e <__stack+0x44f>
    22da:	80 91 b8 02 	lds	r24, 0x02B8
    22de:	89 37       	cpi	r24, 0x79	; 121
    22e0:	08 f4       	brcc	.+2      	; 0x22e4 <__stack+0xe5>
    22e2:	b5 c1       	rjmp	.+874    	; 0x264e <__stack+0x44f>
    22e4:	3e dc       	rcall	.-1924   	; 0x1b62 <stop>
    22e6:	80 e0       	ldi	r24, 0x00	; 0
    22e8:	90 e0       	ldi	r25, 0x00	; 0
    22ea:	a8 ec       	ldi	r26, 0xC8	; 200
    22ec:	b2 e4       	ldi	r27, 0x42	; 66
    22ee:	89 8b       	std	Y+17, r24	; 0x11
    22f0:	9a 8b       	std	Y+18, r25	; 0x12
    22f2:	ab 8b       	std	Y+19, r26	; 0x13
    22f4:	bc 8b       	std	Y+20, r27	; 0x14
    22f6:	26 e6       	ldi	r18, 0x66	; 102
    22f8:	36 e6       	ldi	r19, 0x66	; 102
    22fa:	46 e6       	ldi	r20, 0x66	; 102
    22fc:	55 e4       	ldi	r21, 0x45	; 69
    22fe:	69 89       	ldd	r22, Y+17	; 0x11
    2300:	7a 89       	ldd	r23, Y+18	; 0x12
    2302:	8b 89       	ldd	r24, Y+19	; 0x13
    2304:	9c 89       	ldd	r25, Y+20	; 0x14
    2306:	df d6       	rcall	.+3518   	; 0x30c6 <__mulsf3>
    2308:	dc 01       	movw	r26, r24
    230a:	cb 01       	movw	r24, r22
    230c:	8d 8b       	std	Y+21, r24	; 0x15
    230e:	9e 8b       	std	Y+22, r25	; 0x16
    2310:	af 8b       	std	Y+23, r26	; 0x17
    2312:	b8 8f       	std	Y+24, r27	; 0x18
    2314:	20 e0       	ldi	r18, 0x00	; 0
    2316:	30 e0       	ldi	r19, 0x00	; 0
    2318:	40 e8       	ldi	r20, 0x80	; 128
    231a:	5f e3       	ldi	r21, 0x3F	; 63
    231c:	6d 89       	ldd	r22, Y+21	; 0x15
    231e:	7e 89       	ldd	r23, Y+22	; 0x16
    2320:	8f 89       	ldd	r24, Y+23	; 0x17
    2322:	98 8d       	ldd	r25, Y+24	; 0x18
    2324:	82 d5       	rcall	.+2820   	; 0x2e2a <__cmpsf2>
    2326:	88 23       	and	r24, r24
    2328:	2c f4       	brge	.+10     	; 0x2334 <__stack+0x135>
    232a:	81 e0       	ldi	r24, 0x01	; 1
    232c:	90 e0       	ldi	r25, 0x00	; 0
    232e:	9a 8f       	std	Y+26, r25	; 0x1a
    2330:	89 8f       	std	Y+25, r24	; 0x19
    2332:	3b c0       	rjmp	.+118    	; 0x23aa <__stack+0x1ab>
    2334:	20 e0       	ldi	r18, 0x00	; 0
    2336:	3f ef       	ldi	r19, 0xFF	; 255
    2338:	4f e7       	ldi	r20, 0x7F	; 127
    233a:	57 e4       	ldi	r21, 0x47	; 71
    233c:	6d 89       	ldd	r22, Y+21	; 0x15
    233e:	7e 89       	ldd	r23, Y+22	; 0x16
    2340:	8f 89       	ldd	r24, Y+23	; 0x17
    2342:	98 8d       	ldd	r25, Y+24	; 0x18
    2344:	bc d6       	rcall	.+3448   	; 0x30be <__gesf2>
    2346:	18 16       	cp	r1, r24
    2348:	3c f5       	brge	.+78     	; 0x2398 <__stack+0x199>
    234a:	20 e0       	ldi	r18, 0x00	; 0
    234c:	30 e0       	ldi	r19, 0x00	; 0
    234e:	40 e2       	ldi	r20, 0x20	; 32
    2350:	51 e4       	ldi	r21, 0x41	; 65
    2352:	69 89       	ldd	r22, Y+17	; 0x11
    2354:	7a 89       	ldd	r23, Y+18	; 0x12
    2356:	8b 89       	ldd	r24, Y+19	; 0x13
    2358:	9c 89       	ldd	r25, Y+20	; 0x14
    235a:	b5 d6       	rcall	.+3434   	; 0x30c6 <__mulsf3>
    235c:	dc 01       	movw	r26, r24
    235e:	cb 01       	movw	r24, r22
    2360:	bc 01       	movw	r22, r24
    2362:	cd 01       	movw	r24, r26
    2364:	ce d5       	rcall	.+2972   	; 0x2f02 <__fixunssfsi>
    2366:	dc 01       	movw	r26, r24
    2368:	cb 01       	movw	r24, r22
    236a:	9a 8f       	std	Y+26, r25	; 0x1a
    236c:	89 8f       	std	Y+25, r24	; 0x19
    236e:	0f c0       	rjmp	.+30     	; 0x238e <__stack+0x18f>
    2370:	80 e7       	ldi	r24, 0x70	; 112
    2372:	91 e0       	ldi	r25, 0x01	; 1
    2374:	9c 8f       	std	Y+28, r25	; 0x1c
    2376:	8b 8f       	std	Y+27, r24	; 0x1b
    2378:	8b 8d       	ldd	r24, Y+27	; 0x1b
    237a:	9c 8d       	ldd	r25, Y+28	; 0x1c
    237c:	01 97       	sbiw	r24, 0x01	; 1
    237e:	f1 f7       	brne	.-4      	; 0x237c <__stack+0x17d>
    2380:	9c 8f       	std	Y+28, r25	; 0x1c
    2382:	8b 8f       	std	Y+27, r24	; 0x1b
    2384:	89 8d       	ldd	r24, Y+25	; 0x19
    2386:	9a 8d       	ldd	r25, Y+26	; 0x1a
    2388:	01 97       	sbiw	r24, 0x01	; 1
    238a:	9a 8f       	std	Y+26, r25	; 0x1a
    238c:	89 8f       	std	Y+25, r24	; 0x19
    238e:	89 8d       	ldd	r24, Y+25	; 0x19
    2390:	9a 8d       	ldd	r25, Y+26	; 0x1a
    2392:	00 97       	sbiw	r24, 0x00	; 0
    2394:	69 f7       	brne	.-38     	; 0x2370 <__stack+0x171>
    2396:	5c c1       	rjmp	.+696    	; 0x2650 <__stack+0x451>
    2398:	6d 89       	ldd	r22, Y+21	; 0x15
    239a:	7e 89       	ldd	r23, Y+22	; 0x16
    239c:	8f 89       	ldd	r24, Y+23	; 0x17
    239e:	98 8d       	ldd	r25, Y+24	; 0x18
    23a0:	b0 d5       	rcall	.+2912   	; 0x2f02 <__fixunssfsi>
    23a2:	dc 01       	movw	r26, r24
    23a4:	cb 01       	movw	r24, r22
    23a6:	9a 8f       	std	Y+26, r25	; 0x1a
    23a8:	89 8f       	std	Y+25, r24	; 0x19
    23aa:	89 8d       	ldd	r24, Y+25	; 0x19
    23ac:	9a 8d       	ldd	r25, Y+26	; 0x1a
    23ae:	9e 8f       	std	Y+30, r25	; 0x1e
    23b0:	8d 8f       	std	Y+29, r24	; 0x1d
    23b2:	8d 8d       	ldd	r24, Y+29	; 0x1d
    23b4:	9e 8d       	ldd	r25, Y+30	; 0x1e
    23b6:	01 97       	sbiw	r24, 0x01	; 1
    23b8:	f1 f7       	brne	.-4      	; 0x23b6 <__stack+0x1b7>
    23ba:	9e 8f       	std	Y+30, r25	; 0x1e
    23bc:	8d 8f       	std	Y+29, r24	; 0x1d
    23be:	48 c1       	rjmp	.+656    	; 0x2650 <__stack+0x451>
    23c0:	8d a5       	ldd	r24, Y+45	; 0x2d
    23c2:	9e a5       	ldd	r25, Y+46	; 0x2e
    23c4:	81 30       	cpi	r24, 0x01	; 1
    23c6:	91 05       	cpc	r25, r1
    23c8:	09 f0       	breq	.+2      	; 0x23cc <__stack+0x1cd>
    23ca:	81 c0       	rjmp	.+258    	; 0x24ce <__stack+0x2cf>
    23cc:	8b e0       	ldi	r24, 0x0B	; 11
    23ce:	e9 db       	rcall	.-2094   	; 0x1ba2 <ADC_Conversion>
    23d0:	80 93 bf 02 	sts	0x02BF, r24
    23d4:	80 91 bf 02 	lds	r24, 0x02BF
    23d8:	8c 34       	cpi	r24, 0x4C	; 76
    23da:	08 f4       	brcc	.+2      	; 0x23de <__stack+0x1df>
    23dc:	38 c1       	rjmp	.+624    	; 0x264e <__stack+0x44f>
    23de:	80 91 c0 02 	lds	r24, 0x02C0
    23e2:	80 35       	cpi	r24, 0x50	; 80
    23e4:	08 f0       	brcs	.+2      	; 0x23e8 <__stack+0x1e9>
    23e6:	33 c1       	rjmp	.+614    	; 0x264e <__stack+0x44f>
    23e8:	80 91 b8 02 	lds	r24, 0x02B8
    23ec:	80 35       	cpi	r24, 0x50	; 80
    23ee:	08 f0       	brcs	.+2      	; 0x23f2 <__stack+0x1f3>
    23f0:	2e c1       	rjmp	.+604    	; 0x264e <__stack+0x44f>
    23f2:	b7 db       	rcall	.-2194   	; 0x1b62 <stop>
    23f4:	80 e0       	ldi	r24, 0x00	; 0
    23f6:	90 e0       	ldi	r25, 0x00	; 0
    23f8:	a8 ec       	ldi	r26, 0xC8	; 200
    23fa:	b2 e4       	ldi	r27, 0x42	; 66
    23fc:	8f 8f       	std	Y+31, r24	; 0x1f
    23fe:	98 a3       	std	Y+32, r25	; 0x20
    2400:	a9 a3       	std	Y+33, r26	; 0x21
    2402:	ba a3       	std	Y+34, r27	; 0x22
    2404:	26 e6       	ldi	r18, 0x66	; 102
    2406:	36 e6       	ldi	r19, 0x66	; 102
    2408:	46 e6       	ldi	r20, 0x66	; 102
    240a:	55 e4       	ldi	r21, 0x45	; 69
    240c:	6f 8d       	ldd	r22, Y+31	; 0x1f
    240e:	78 a1       	ldd	r23, Y+32	; 0x20
    2410:	89 a1       	ldd	r24, Y+33	; 0x21
    2412:	9a a1       	ldd	r25, Y+34	; 0x22
    2414:	58 d6       	rcall	.+3248   	; 0x30c6 <__mulsf3>
    2416:	dc 01       	movw	r26, r24
    2418:	cb 01       	movw	r24, r22
    241a:	8b a3       	std	Y+35, r24	; 0x23
    241c:	9c a3       	std	Y+36, r25	; 0x24
    241e:	ad a3       	std	Y+37, r26	; 0x25
    2420:	be a3       	std	Y+38, r27	; 0x26
    2422:	20 e0       	ldi	r18, 0x00	; 0
    2424:	30 e0       	ldi	r19, 0x00	; 0
    2426:	40 e8       	ldi	r20, 0x80	; 128
    2428:	5f e3       	ldi	r21, 0x3F	; 63
    242a:	6b a1       	ldd	r22, Y+35	; 0x23
    242c:	7c a1       	ldd	r23, Y+36	; 0x24
    242e:	8d a1       	ldd	r24, Y+37	; 0x25
    2430:	9e a1       	ldd	r25, Y+38	; 0x26
    2432:	fb d4       	rcall	.+2550   	; 0x2e2a <__cmpsf2>
    2434:	88 23       	and	r24, r24
    2436:	2c f4       	brge	.+10     	; 0x2442 <__stack+0x243>
    2438:	81 e0       	ldi	r24, 0x01	; 1
    243a:	90 e0       	ldi	r25, 0x00	; 0
    243c:	98 a7       	std	Y+40, r25	; 0x28
    243e:	8f a3       	std	Y+39, r24	; 0x27
    2440:	3b c0       	rjmp	.+118    	; 0x24b8 <__stack+0x2b9>
    2442:	20 e0       	ldi	r18, 0x00	; 0
    2444:	3f ef       	ldi	r19, 0xFF	; 255
    2446:	4f e7       	ldi	r20, 0x7F	; 127
    2448:	57 e4       	ldi	r21, 0x47	; 71
    244a:	6b a1       	ldd	r22, Y+35	; 0x23
    244c:	7c a1       	ldd	r23, Y+36	; 0x24
    244e:	8d a1       	ldd	r24, Y+37	; 0x25
    2450:	9e a1       	ldd	r25, Y+38	; 0x26
    2452:	35 d6       	rcall	.+3178   	; 0x30be <__gesf2>
    2454:	18 16       	cp	r1, r24
    2456:	3c f5       	brge	.+78     	; 0x24a6 <__stack+0x2a7>
    2458:	20 e0       	ldi	r18, 0x00	; 0
    245a:	30 e0       	ldi	r19, 0x00	; 0
    245c:	40 e2       	ldi	r20, 0x20	; 32
    245e:	51 e4       	ldi	r21, 0x41	; 65
    2460:	6f 8d       	ldd	r22, Y+31	; 0x1f
    2462:	78 a1       	ldd	r23, Y+32	; 0x20
    2464:	89 a1       	ldd	r24, Y+33	; 0x21
    2466:	9a a1       	ldd	r25, Y+34	; 0x22
    2468:	2e d6       	rcall	.+3164   	; 0x30c6 <__mulsf3>
    246a:	dc 01       	movw	r26, r24
    246c:	cb 01       	movw	r24, r22
    246e:	bc 01       	movw	r22, r24
    2470:	cd 01       	movw	r24, r26
    2472:	47 d5       	rcall	.+2702   	; 0x2f02 <__fixunssfsi>
    2474:	dc 01       	movw	r26, r24
    2476:	cb 01       	movw	r24, r22
    2478:	98 a7       	std	Y+40, r25	; 0x28
    247a:	8f a3       	std	Y+39, r24	; 0x27
    247c:	0f c0       	rjmp	.+30     	; 0x249c <__stack+0x29d>
    247e:	80 e7       	ldi	r24, 0x70	; 112
    2480:	91 e0       	ldi	r25, 0x01	; 1
    2482:	9a a7       	std	Y+42, r25	; 0x2a
    2484:	89 a7       	std	Y+41, r24	; 0x29
    2486:	89 a5       	ldd	r24, Y+41	; 0x29
    2488:	9a a5       	ldd	r25, Y+42	; 0x2a
    248a:	01 97       	sbiw	r24, 0x01	; 1
    248c:	f1 f7       	brne	.-4      	; 0x248a <__stack+0x28b>
    248e:	9a a7       	std	Y+42, r25	; 0x2a
    2490:	89 a7       	std	Y+41, r24	; 0x29
    2492:	8f a1       	ldd	r24, Y+39	; 0x27
    2494:	98 a5       	ldd	r25, Y+40	; 0x28
    2496:	01 97       	sbiw	r24, 0x01	; 1
    2498:	98 a7       	std	Y+40, r25	; 0x28
    249a:	8f a3       	std	Y+39, r24	; 0x27
    249c:	8f a1       	ldd	r24, Y+39	; 0x27
    249e:	98 a5       	ldd	r25, Y+40	; 0x28
    24a0:	00 97       	sbiw	r24, 0x00	; 0
    24a2:	69 f7       	brne	.-38     	; 0x247e <__stack+0x27f>
    24a4:	d5 c0       	rjmp	.+426    	; 0x2650 <__stack+0x451>
    24a6:	6b a1       	ldd	r22, Y+35	; 0x23
    24a8:	7c a1       	ldd	r23, Y+36	; 0x24
    24aa:	8d a1       	ldd	r24, Y+37	; 0x25
    24ac:	9e a1       	ldd	r25, Y+38	; 0x26
    24ae:	29 d5       	rcall	.+2642   	; 0x2f02 <__fixunssfsi>
    24b0:	dc 01       	movw	r26, r24
    24b2:	cb 01       	movw	r24, r22
    24b4:	98 a7       	std	Y+40, r25	; 0x28
    24b6:	8f a3       	std	Y+39, r24	; 0x27
    24b8:	8f a1       	ldd	r24, Y+39	; 0x27
    24ba:	98 a5       	ldd	r25, Y+40	; 0x28
    24bc:	9c a7       	std	Y+44, r25	; 0x2c
    24be:	8b a7       	std	Y+43, r24	; 0x2b
    24c0:	8b a5       	ldd	r24, Y+43	; 0x2b
    24c2:	9c a5       	ldd	r25, Y+44	; 0x2c
    24c4:	01 97       	sbiw	r24, 0x01	; 1
    24c6:	f1 f7       	brne	.-4      	; 0x24c4 <__stack+0x2c5>
    24c8:	9c a7       	std	Y+44, r25	; 0x2c
    24ca:	8b a7       	std	Y+43, r24	; 0x2b
    24cc:	c1 c0       	rjmp	.+386    	; 0x2650 <__stack+0x451>
    24ce:	8d a5       	ldd	r24, Y+45	; 0x2d
    24d0:	9e a5       	ldd	r25, Y+46	; 0x2e
    24d2:	00 97       	sbiw	r24, 0x00	; 0
    24d4:	a9 f4       	brne	.+42     	; 0x2500 <__stack+0x301>
    24d6:	80 91 c0 02 	lds	r24, 0x02C0
    24da:	28 2f       	mov	r18, r24
    24dc:	30 e0       	ldi	r19, 0x00	; 0
    24de:	80 91 b5 02 	lds	r24, 0x02B5
    24e2:	88 2f       	mov	r24, r24
    24e4:	90 e0       	ldi	r25, 0x00	; 0
    24e6:	28 0f       	add	r18, r24
    24e8:	39 1f       	adc	r19, r25
    24ea:	80 91 b8 02 	lds	r24, 0x02B8
    24ee:	88 2f       	mov	r24, r24
    24f0:	90 e0       	ldi	r25, 0x00	; 0
    24f2:	82 0f       	add	r24, r18
    24f4:	93 1f       	adc	r25, r19
    24f6:	81 39       	cpi	r24, 0x91	; 145
    24f8:	e1 e0       	ldi	r30, 0x01	; 1
    24fa:	9e 07       	cpc	r25, r30
    24fc:	0c f0       	brlt	.+2      	; 0x2500 <__stack+0x301>
    24fe:	a8 c0       	rjmp	.+336    	; 0x2650 <__stack+0x451>
    2500:	80 91 c0 02 	lds	r24, 0x02C0
    2504:	8c 33       	cpi	r24, 0x3C	; 60
    2506:	a8 f4       	brcc	.+42     	; 0x2532 <__stack+0x333>
    2508:	80 91 b5 02 	lds	r24, 0x02B5
    250c:	8d 37       	cpi	r24, 0x7D	; 125
    250e:	88 f0       	brcs	.+34     	; 0x2532 <__stack+0x333>
    2510:	80 91 b8 02 	lds	r24, 0x02B8
    2514:	8c 33       	cpi	r24, 0x3C	; 60
    2516:	68 f4       	brcc	.+26     	; 0x2532 <__stack+0x333>
    2518:	88 e2       	ldi	r24, 0x28	; 40
    251a:	91 e0       	ldi	r25, 0x01	; 1
    251c:	20 91 00 02 	lds	r18, 0x0200
    2520:	fc 01       	movw	r30, r24
    2522:	20 83       	st	Z, r18
    2524:	8a e2       	ldi	r24, 0x2A	; 42
    2526:	91 e0       	ldi	r25, 0x01	; 1
    2528:	20 91 00 02 	lds	r18, 0x0200
    252c:	fc 01       	movw	r30, r24
    252e:	20 83       	st	Z, r18
    2530:	8e c0       	rjmp	.+284    	; 0x264e <__stack+0x44f>
    2532:	80 91 c0 02 	lds	r24, 0x02C0
    2536:	88 32       	cpi	r24, 0x28	; 40
    2538:	a8 f4       	brcc	.+42     	; 0x2564 <__stack+0x365>
    253a:	80 91 b5 02 	lds	r24, 0x02B5
    253e:	8c 33       	cpi	r24, 0x3C	; 60
    2540:	88 f4       	brcc	.+34     	; 0x2564 <__stack+0x365>
    2542:	80 91 b8 02 	lds	r24, 0x02B8
    2546:	8d 38       	cpi	r24, 0x8D	; 141
    2548:	68 f0       	brcs	.+26     	; 0x2564 <__stack+0x365>
    254a:	88 e2       	ldi	r24, 0x28	; 40
    254c:	91 e0       	ldi	r25, 0x01	; 1
    254e:	20 91 00 02 	lds	r18, 0x0200
    2552:	fc 01       	movw	r30, r24
    2554:	20 83       	st	Z, r18
    2556:	8a e2       	ldi	r24, 0x2A	; 42
    2558:	91 e0       	ldi	r25, 0x01	; 1
    255a:	20 91 01 02 	lds	r18, 0x0201
    255e:	fc 01       	movw	r30, r24
    2560:	20 83       	st	Z, r18
    2562:	75 c0       	rjmp	.+234    	; 0x264e <__stack+0x44f>
    2564:	80 91 b8 02 	lds	r24, 0x02B8
    2568:	88 32       	cpi	r24, 0x28	; 40
    256a:	a8 f4       	brcc	.+42     	; 0x2596 <__stack+0x397>
    256c:	80 91 b5 02 	lds	r24, 0x02B5
    2570:	8c 33       	cpi	r24, 0x3C	; 60
    2572:	88 f4       	brcc	.+34     	; 0x2596 <__stack+0x397>
    2574:	80 91 c0 02 	lds	r24, 0x02C0
    2578:	8d 38       	cpi	r24, 0x8D	; 141
    257a:	68 f0       	brcs	.+26     	; 0x2596 <__stack+0x397>
    257c:	88 e2       	ldi	r24, 0x28	; 40
    257e:	91 e0       	ldi	r25, 0x01	; 1
    2580:	20 91 01 02 	lds	r18, 0x0201
    2584:	fc 01       	movw	r30, r24
    2586:	20 83       	st	Z, r18
    2588:	8a e2       	ldi	r24, 0x2A	; 42
    258a:	91 e0       	ldi	r25, 0x01	; 1
    258c:	20 91 00 02 	lds	r18, 0x0200
    2590:	fc 01       	movw	r30, r24
    2592:	20 83       	st	Z, r18
    2594:	5c c0       	rjmp	.+184    	; 0x264e <__stack+0x44f>
    2596:	80 91 c0 02 	lds	r24, 0x02C0
    259a:	28 2f       	mov	r18, r24
    259c:	30 e0       	ldi	r19, 0x00	; 0
    259e:	80 91 b5 02 	lds	r24, 0x02B5
    25a2:	88 2f       	mov	r24, r24
    25a4:	90 e0       	ldi	r25, 0x00	; 0
    25a6:	28 0f       	add	r18, r24
    25a8:	39 1f       	adc	r19, r25
    25aa:	80 91 b8 02 	lds	r24, 0x02B8
    25ae:	88 2f       	mov	r24, r24
    25b0:	90 e0       	ldi	r25, 0x00	; 0
    25b2:	82 0f       	add	r24, r18
    25b4:	93 1f       	adc	r25, r19
    25b6:	88 3c       	cpi	r24, 0xC8	; 200
    25b8:	91 05       	cpc	r25, r1
    25ba:	dc f4       	brge	.+54     	; 0x25f2 <__stack+0x3f3>
    25bc:	80 91 b5 02 	lds	r24, 0x02B5
    25c0:	83 33       	cpi	r24, 0x33	; 51
    25c2:	b8 f0       	brcs	.+46     	; 0x25f2 <__stack+0x3f3>
    25c4:	80 91 b5 02 	lds	r24, 0x02B5
    25c8:	84 36       	cpi	r24, 0x64	; 100
    25ca:	98 f4       	brcc	.+38     	; 0x25f2 <__stack+0x3f3>
    25cc:	90 91 c0 02 	lds	r25, 0x02C0
    25d0:	80 91 b8 02 	lds	r24, 0x02B8
    25d4:	89 17       	cp	r24, r25
    25d6:	68 f4       	brcc	.+26     	; 0x25f2 <__stack+0x3f3>
    25d8:	88 e2       	ldi	r24, 0x28	; 40
    25da:	91 e0       	ldi	r25, 0x01	; 1
    25dc:	20 91 02 02 	lds	r18, 0x0202
    25e0:	fc 01       	movw	r30, r24
    25e2:	20 83       	st	Z, r18
    25e4:	8a e2       	ldi	r24, 0x2A	; 42
    25e6:	91 e0       	ldi	r25, 0x01	; 1
    25e8:	20 91 00 02 	lds	r18, 0x0200
    25ec:	fc 01       	movw	r30, r24
    25ee:	20 83       	st	Z, r18
    25f0:	2e c0       	rjmp	.+92     	; 0x264e <__stack+0x44f>
    25f2:	80 91 c0 02 	lds	r24, 0x02C0
    25f6:	28 2f       	mov	r18, r24
    25f8:	30 e0       	ldi	r19, 0x00	; 0
    25fa:	80 91 b5 02 	lds	r24, 0x02B5
    25fe:	88 2f       	mov	r24, r24
    2600:	90 e0       	ldi	r25, 0x00	; 0
    2602:	28 0f       	add	r18, r24
    2604:	39 1f       	adc	r19, r25
    2606:	80 91 b8 02 	lds	r24, 0x02B8
    260a:	88 2f       	mov	r24, r24
    260c:	90 e0       	ldi	r25, 0x00	; 0
    260e:	82 0f       	add	r24, r18
    2610:	93 1f       	adc	r25, r19
    2612:	88 3c       	cpi	r24, 0xC8	; 200
    2614:	91 05       	cpc	r25, r1
    2616:	dc f4       	brge	.+54     	; 0x264e <__stack+0x44f>
    2618:	80 91 b5 02 	lds	r24, 0x02B5
    261c:	83 33       	cpi	r24, 0x33	; 51
    261e:	b8 f0       	brcs	.+46     	; 0x264e <__stack+0x44f>
    2620:	80 91 b5 02 	lds	r24, 0x02B5
    2624:	84 36       	cpi	r24, 0x64	; 100
    2626:	98 f4       	brcc	.+38     	; 0x264e <__stack+0x44f>
    2628:	90 91 c0 02 	lds	r25, 0x02C0
    262c:	80 91 b8 02 	lds	r24, 0x02B8
    2630:	98 17       	cp	r25, r24
    2632:	68 f4       	brcc	.+26     	; 0x264e <__stack+0x44f>
    2634:	88 e2       	ldi	r24, 0x28	; 40
    2636:	91 e0       	ldi	r25, 0x01	; 1
    2638:	20 91 00 02 	lds	r18, 0x0200
    263c:	fc 01       	movw	r30, r24
    263e:	20 83       	st	Z, r18
    2640:	8a e2       	ldi	r24, 0x2A	; 42
    2642:	91 e0       	ldi	r25, 0x01	; 1
    2644:	20 91 02 02 	lds	r18, 0x0202
    2648:	fc 01       	movw	r30, r24
    264a:	20 83       	st	Z, r18
    264c:	a7 cd       	rjmp	.-1202   	; 0x219c <forward_wls+0x3a>
    264e:	a6 cd       	rjmp	.-1204   	; 0x219c <forward_wls+0x3a>
    2650:	8d a5       	ldd	r24, Y+45	; 0x2d
    2652:	9e a5       	ldd	r25, Y+46	; 0x2e
    2654:	81 30       	cpi	r24, 0x01	; 1
    2656:	91 05       	cpc	r25, r1
    2658:	09 f4       	brne	.+2      	; 0x265c <__stack+0x45d>
    265a:	5b db       	rcall	.-2378   	; 0x1d12 <forward_walls>
    265c:	8d a5       	ldd	r24, Y+45	; 0x2d
    265e:	9e a5       	ldd	r25, Y+46	; 0x2e
    2660:	83 30       	cpi	r24, 0x03	; 3
    2662:	91 05       	cpc	r25, r1
    2664:	09 f4       	brne	.+2      	; 0x2668 <__stack+0x469>
    2666:	1b d0       	rcall	.+54     	; 0x269e <forward_inv>
    2668:	89 81       	ldd	r24, Y+1	; 0x01
    266a:	9a 81       	ldd	r25, Y+2	; 0x02
    266c:	01 96       	adiw	r24, 0x01	; 1
    266e:	9a 83       	std	Y+2, r25	; 0x02
    2670:	89 83       	std	Y+1, r24	; 0x01
    2672:	29 81       	ldd	r18, Y+1	; 0x01
    2674:	3a 81       	ldd	r19, Y+2	; 0x02
    2676:	8f a5       	ldd	r24, Y+47	; 0x2f
    2678:	98 a9       	ldd	r25, Y+48	; 0x30
    267a:	82 17       	cp	r24, r18
    267c:	93 07       	cpc	r25, r19
    267e:	0c f0       	brlt	.+2      	; 0x2682 <__stack+0x483>
    2680:	83 cd       	rjmp	.-1274   	; 0x2188 <forward_wls+0x26>
    2682:	82 e2       	ldi	r24, 0x22	; 34
    2684:	90 e0       	ldi	r25, 0x00	; 0
    2686:	fc 01       	movw	r30, r24
    2688:	10 82       	st	Z, r1
    268a:	6b da       	rcall	.-2858   	; 0x1b62 <stop>
    268c:	e0 96       	adiw	r28, 0x30	; 48
    268e:	0f b6       	in	r0, 0x3f	; 63
    2690:	f8 94       	cli
    2692:	de bf       	out	0x3e, r29	; 62
    2694:	0f be       	out	0x3f, r0	; 63
    2696:	cd bf       	out	0x3d, r28	; 61
    2698:	df 91       	pop	r29
    269a:	cf 91       	pop	r28
    269c:	08 95       	ret

0000269e <forward_inv>:
    269e:	cf 93       	push	r28
    26a0:	df 93       	push	r29
    26a2:	cd b7       	in	r28, 0x3d	; 61
    26a4:	de b7       	in	r29, 0x3e	; 62
    26a6:	e9 97       	sbiw	r28, 0x39	; 57
    26a8:	0f b6       	in	r0, 0x3f	; 63
    26aa:	f8 94       	cli
    26ac:	de bf       	out	0x3e, r29	; 62
    26ae:	0f be       	out	0x3f, r0	; 63
    26b0:	cd bf       	out	0x3d, r28	; 61
    26b2:	19 82       	std	Y+1, r1	; 0x01
    26b4:	8a e0       	ldi	r24, 0x0A	; 10
    26b6:	90 e0       	ldi	r25, 0x00	; 0
    26b8:	b8 da       	rcall	.-2704   	; 0x1c2a <LCD_Function>
    26ba:	89 81       	ldd	r24, Y+1	; 0x01
    26bc:	88 2f       	mov	r24, r24
    26be:	90 e0       	ldi	r25, 0x00	; 0
    26c0:	22 e0       	ldi	r18, 0x02	; 2
    26c2:	30 e0       	ldi	r19, 0x00	; 0
    26c4:	ac 01       	movw	r20, r24
    26c6:	67 e0       	ldi	r22, 0x07	; 7
    26c8:	82 e0       	ldi	r24, 0x02	; 2
    26ca:	0e 94 09 0a 	call	0x1412	; 0x1412 <lcd_print>
    26ce:	25 da       	rcall	.-2998   	; 0x1b1a <forward>
    26d0:	90 91 00 02 	lds	r25, 0x0200
    26d4:	80 91 00 02 	lds	r24, 0x0200
    26d8:	69 2f       	mov	r22, r25
    26da:	4c da       	rcall	.-2920   	; 0x1b74 <velocity>
    26dc:	81 e0       	ldi	r24, 0x01	; 1
    26de:	61 da       	rcall	.-2878   	; 0x1ba2 <ADC_Conversion>
    26e0:	80 93 c0 02 	sts	0x02C0, r24
    26e4:	82 e0       	ldi	r24, 0x02	; 2
    26e6:	5d da       	rcall	.-2886   	; 0x1ba2 <ADC_Conversion>
    26e8:	80 93 b5 02 	sts	0x02B5, r24
    26ec:	83 e0       	ldi	r24, 0x03	; 3
    26ee:	59 da       	rcall	.-2894   	; 0x1ba2 <ADC_Conversion>
    26f0:	80 93 b8 02 	sts	0x02B8, r24
    26f4:	80 91 c0 02 	lds	r24, 0x02C0
    26f8:	28 2f       	mov	r18, r24
    26fa:	30 e0       	ldi	r19, 0x00	; 0
    26fc:	80 91 b5 02 	lds	r24, 0x02B5
    2700:	88 2f       	mov	r24, r24
    2702:	90 e0       	ldi	r25, 0x00	; 0
    2704:	28 0f       	add	r18, r24
    2706:	39 1f       	adc	r19, r25
    2708:	80 91 b8 02 	lds	r24, 0x02B8
    270c:	88 2f       	mov	r24, r24
    270e:	90 e0       	ldi	r25, 0x00	; 0
    2710:	82 0f       	add	r24, r18
    2712:	93 1f       	adc	r25, r19
    2714:	8a 34       	cpi	r24, 0x4A	; 74
    2716:	21 e0       	ldi	r18, 0x01	; 1
    2718:	92 07       	cpc	r25, r18
    271a:	0c f0       	brlt	.+2      	; 0x271e <forward_inv+0x80>
    271c:	f0 c0       	rjmp	.+480    	; 0x28fe <forward_inv+0x260>
    271e:	80 91 b5 02 	lds	r24, 0x02B5
    2722:	8a 35       	cpi	r24, 0x5A	; 90
    2724:	08 f0       	brcs	.+2      	; 0x2728 <forward_inv+0x8a>
    2726:	eb c0       	rjmp	.+470    	; 0x28fe <forward_inv+0x260>
    2728:	89 81       	ldd	r24, Y+1	; 0x01
    272a:	88 23       	and	r24, r24
    272c:	09 f0       	breq	.+2      	; 0x2730 <forward_inv+0x92>
    272e:	e7 c0       	rjmp	.+462    	; 0x28fe <forward_inv+0x260>
    2730:	80 e0       	ldi	r24, 0x00	; 0
    2732:	90 e0       	ldi	r25, 0x00	; 0
    2734:	a8 ec       	ldi	r26, 0xC8	; 200
    2736:	b2 e4       	ldi	r27, 0x42	; 66
    2738:	8a 83       	std	Y+2, r24	; 0x02
    273a:	9b 83       	std	Y+3, r25	; 0x03
    273c:	ac 83       	std	Y+4, r26	; 0x04
    273e:	bd 83       	std	Y+5, r27	; 0x05
    2740:	26 e6       	ldi	r18, 0x66	; 102
    2742:	36 e6       	ldi	r19, 0x66	; 102
    2744:	46 e6       	ldi	r20, 0x66	; 102
    2746:	55 e4       	ldi	r21, 0x45	; 69
    2748:	6a 81       	ldd	r22, Y+2	; 0x02
    274a:	7b 81       	ldd	r23, Y+3	; 0x03
    274c:	8c 81       	ldd	r24, Y+4	; 0x04
    274e:	9d 81       	ldd	r25, Y+5	; 0x05
    2750:	ba d4       	rcall	.+2420   	; 0x30c6 <__mulsf3>
    2752:	dc 01       	movw	r26, r24
    2754:	cb 01       	movw	r24, r22
    2756:	8e 83       	std	Y+6, r24	; 0x06
    2758:	9f 83       	std	Y+7, r25	; 0x07
    275a:	a8 87       	std	Y+8, r26	; 0x08
    275c:	b9 87       	std	Y+9, r27	; 0x09
    275e:	20 e0       	ldi	r18, 0x00	; 0
    2760:	30 e0       	ldi	r19, 0x00	; 0
    2762:	40 e8       	ldi	r20, 0x80	; 128
    2764:	5f e3       	ldi	r21, 0x3F	; 63
    2766:	6e 81       	ldd	r22, Y+6	; 0x06
    2768:	7f 81       	ldd	r23, Y+7	; 0x07
    276a:	88 85       	ldd	r24, Y+8	; 0x08
    276c:	99 85       	ldd	r25, Y+9	; 0x09
    276e:	5d d3       	rcall	.+1722   	; 0x2e2a <__cmpsf2>
    2770:	88 23       	and	r24, r24
    2772:	2c f4       	brge	.+10     	; 0x277e <forward_inv+0xe0>
    2774:	81 e0       	ldi	r24, 0x01	; 1
    2776:	90 e0       	ldi	r25, 0x00	; 0
    2778:	9b 87       	std	Y+11, r25	; 0x0b
    277a:	8a 87       	std	Y+10, r24	; 0x0a
    277c:	3b c0       	rjmp	.+118    	; 0x27f4 <forward_inv+0x156>
    277e:	20 e0       	ldi	r18, 0x00	; 0
    2780:	3f ef       	ldi	r19, 0xFF	; 255
    2782:	4f e7       	ldi	r20, 0x7F	; 127
    2784:	57 e4       	ldi	r21, 0x47	; 71
    2786:	6e 81       	ldd	r22, Y+6	; 0x06
    2788:	7f 81       	ldd	r23, Y+7	; 0x07
    278a:	88 85       	ldd	r24, Y+8	; 0x08
    278c:	99 85       	ldd	r25, Y+9	; 0x09
    278e:	97 d4       	rcall	.+2350   	; 0x30be <__gesf2>
    2790:	18 16       	cp	r1, r24
    2792:	3c f5       	brge	.+78     	; 0x27e2 <forward_inv+0x144>
    2794:	20 e0       	ldi	r18, 0x00	; 0
    2796:	30 e0       	ldi	r19, 0x00	; 0
    2798:	40 e2       	ldi	r20, 0x20	; 32
    279a:	51 e4       	ldi	r21, 0x41	; 65
    279c:	6a 81       	ldd	r22, Y+2	; 0x02
    279e:	7b 81       	ldd	r23, Y+3	; 0x03
    27a0:	8c 81       	ldd	r24, Y+4	; 0x04
    27a2:	9d 81       	ldd	r25, Y+5	; 0x05
    27a4:	90 d4       	rcall	.+2336   	; 0x30c6 <__mulsf3>
    27a6:	dc 01       	movw	r26, r24
    27a8:	cb 01       	movw	r24, r22
    27aa:	bc 01       	movw	r22, r24
    27ac:	cd 01       	movw	r24, r26
    27ae:	a9 d3       	rcall	.+1874   	; 0x2f02 <__fixunssfsi>
    27b0:	dc 01       	movw	r26, r24
    27b2:	cb 01       	movw	r24, r22
    27b4:	9b 87       	std	Y+11, r25	; 0x0b
    27b6:	8a 87       	std	Y+10, r24	; 0x0a
    27b8:	0f c0       	rjmp	.+30     	; 0x27d8 <forward_inv+0x13a>
    27ba:	80 e7       	ldi	r24, 0x70	; 112
    27bc:	91 e0       	ldi	r25, 0x01	; 1
    27be:	9d 87       	std	Y+13, r25	; 0x0d
    27c0:	8c 87       	std	Y+12, r24	; 0x0c
    27c2:	8c 85       	ldd	r24, Y+12	; 0x0c
    27c4:	9d 85       	ldd	r25, Y+13	; 0x0d
    27c6:	01 97       	sbiw	r24, 0x01	; 1
    27c8:	f1 f7       	brne	.-4      	; 0x27c6 <forward_inv+0x128>
    27ca:	9d 87       	std	Y+13, r25	; 0x0d
    27cc:	8c 87       	std	Y+12, r24	; 0x0c
    27ce:	8a 85       	ldd	r24, Y+10	; 0x0a
    27d0:	9b 85       	ldd	r25, Y+11	; 0x0b
    27d2:	01 97       	sbiw	r24, 0x01	; 1
    27d4:	9b 87       	std	Y+11, r25	; 0x0b
    27d6:	8a 87       	std	Y+10, r24	; 0x0a
    27d8:	8a 85       	ldd	r24, Y+10	; 0x0a
    27da:	9b 85       	ldd	r25, Y+11	; 0x0b
    27dc:	00 97       	sbiw	r24, 0x00	; 0
    27de:	69 f7       	brne	.-38     	; 0x27ba <forward_inv+0x11c>
    27e0:	13 c0       	rjmp	.+38     	; 0x2808 <forward_inv+0x16a>
    27e2:	6e 81       	ldd	r22, Y+6	; 0x06
    27e4:	7f 81       	ldd	r23, Y+7	; 0x07
    27e6:	88 85       	ldd	r24, Y+8	; 0x08
    27e8:	99 85       	ldd	r25, Y+9	; 0x09
    27ea:	8b d3       	rcall	.+1814   	; 0x2f02 <__fixunssfsi>
    27ec:	dc 01       	movw	r26, r24
    27ee:	cb 01       	movw	r24, r22
    27f0:	9b 87       	std	Y+11, r25	; 0x0b
    27f2:	8a 87       	std	Y+10, r24	; 0x0a
    27f4:	8a 85       	ldd	r24, Y+10	; 0x0a
    27f6:	9b 85       	ldd	r25, Y+11	; 0x0b
    27f8:	9f 87       	std	Y+15, r25	; 0x0f
    27fa:	8e 87       	std	Y+14, r24	; 0x0e
    27fc:	8e 85       	ldd	r24, Y+14	; 0x0e
    27fe:	9f 85       	ldd	r25, Y+15	; 0x0f
    2800:	01 97       	sbiw	r24, 0x01	; 1
    2802:	f1 f7       	brne	.-4      	; 0x2800 <forward_inv+0x162>
    2804:	9f 87       	std	Y+15, r25	; 0x0f
    2806:	8e 87       	std	Y+14, r24	; 0x0e
    2808:	89 81       	ldd	r24, Y+1	; 0x01
    280a:	8f 5f       	subi	r24, 0xFF	; 255
    280c:	89 83       	std	Y+1, r24	; 0x01
    280e:	89 81       	ldd	r24, Y+1	; 0x01
    2810:	88 2f       	mov	r24, r24
    2812:	90 e0       	ldi	r25, 0x00	; 0
    2814:	22 e0       	ldi	r18, 0x02	; 2
    2816:	30 e0       	ldi	r19, 0x00	; 0
    2818:	ac 01       	movw	r20, r24
    281a:	67 e0       	ldi	r22, 0x07	; 7
    281c:	82 e0       	ldi	r24, 0x02	; 2
    281e:	0e 94 09 0a 	call	0x1412	; 0x1412 <lcd_print>
    2822:	7b d9       	rcall	.-3338   	; 0x1b1a <forward>
    2824:	80 e0       	ldi	r24, 0x00	; 0
    2826:	90 e0       	ldi	r25, 0x00	; 0
    2828:	a8 ec       	ldi	r26, 0xC8	; 200
    282a:	b2 e4       	ldi	r27, 0x42	; 66
    282c:	88 8b       	std	Y+16, r24	; 0x10
    282e:	99 8b       	std	Y+17, r25	; 0x11
    2830:	aa 8b       	std	Y+18, r26	; 0x12
    2832:	bb 8b       	std	Y+19, r27	; 0x13
    2834:	26 e6       	ldi	r18, 0x66	; 102
    2836:	36 e6       	ldi	r19, 0x66	; 102
    2838:	46 e6       	ldi	r20, 0x66	; 102
    283a:	55 e4       	ldi	r21, 0x45	; 69
    283c:	68 89       	ldd	r22, Y+16	; 0x10
    283e:	79 89       	ldd	r23, Y+17	; 0x11
    2840:	8a 89       	ldd	r24, Y+18	; 0x12
    2842:	9b 89       	ldd	r25, Y+19	; 0x13
    2844:	40 d4       	rcall	.+2176   	; 0x30c6 <__mulsf3>
    2846:	dc 01       	movw	r26, r24
    2848:	cb 01       	movw	r24, r22
    284a:	8c 8b       	std	Y+20, r24	; 0x14
    284c:	9d 8b       	std	Y+21, r25	; 0x15
    284e:	ae 8b       	std	Y+22, r26	; 0x16
    2850:	bf 8b       	std	Y+23, r27	; 0x17
    2852:	20 e0       	ldi	r18, 0x00	; 0
    2854:	30 e0       	ldi	r19, 0x00	; 0
    2856:	40 e8       	ldi	r20, 0x80	; 128
    2858:	5f e3       	ldi	r21, 0x3F	; 63
    285a:	6c 89       	ldd	r22, Y+20	; 0x14
    285c:	7d 89       	ldd	r23, Y+21	; 0x15
    285e:	8e 89       	ldd	r24, Y+22	; 0x16
    2860:	9f 89       	ldd	r25, Y+23	; 0x17
    2862:	e3 d2       	rcall	.+1478   	; 0x2e2a <__cmpsf2>
    2864:	88 23       	and	r24, r24
    2866:	2c f4       	brge	.+10     	; 0x2872 <forward_inv+0x1d4>
    2868:	81 e0       	ldi	r24, 0x01	; 1
    286a:	90 e0       	ldi	r25, 0x00	; 0
    286c:	99 8f       	std	Y+25, r25	; 0x19
    286e:	88 8f       	std	Y+24, r24	; 0x18
    2870:	3b c0       	rjmp	.+118    	; 0x28e8 <forward_inv+0x24a>
    2872:	20 e0       	ldi	r18, 0x00	; 0
    2874:	3f ef       	ldi	r19, 0xFF	; 255
    2876:	4f e7       	ldi	r20, 0x7F	; 127
    2878:	57 e4       	ldi	r21, 0x47	; 71
    287a:	6c 89       	ldd	r22, Y+20	; 0x14
    287c:	7d 89       	ldd	r23, Y+21	; 0x15
    287e:	8e 89       	ldd	r24, Y+22	; 0x16
    2880:	9f 89       	ldd	r25, Y+23	; 0x17
    2882:	1d d4       	rcall	.+2106   	; 0x30be <__gesf2>
    2884:	18 16       	cp	r1, r24
    2886:	3c f5       	brge	.+78     	; 0x28d6 <forward_inv+0x238>
    2888:	20 e0       	ldi	r18, 0x00	; 0
    288a:	30 e0       	ldi	r19, 0x00	; 0
    288c:	40 e2       	ldi	r20, 0x20	; 32
    288e:	51 e4       	ldi	r21, 0x41	; 65
    2890:	68 89       	ldd	r22, Y+16	; 0x10
    2892:	79 89       	ldd	r23, Y+17	; 0x11
    2894:	8a 89       	ldd	r24, Y+18	; 0x12
    2896:	9b 89       	ldd	r25, Y+19	; 0x13
    2898:	16 d4       	rcall	.+2092   	; 0x30c6 <__mulsf3>
    289a:	dc 01       	movw	r26, r24
    289c:	cb 01       	movw	r24, r22
    289e:	bc 01       	movw	r22, r24
    28a0:	cd 01       	movw	r24, r26
    28a2:	2f d3       	rcall	.+1630   	; 0x2f02 <__fixunssfsi>
    28a4:	dc 01       	movw	r26, r24
    28a6:	cb 01       	movw	r24, r22
    28a8:	99 8f       	std	Y+25, r25	; 0x19
    28aa:	88 8f       	std	Y+24, r24	; 0x18
    28ac:	0f c0       	rjmp	.+30     	; 0x28cc <forward_inv+0x22e>
    28ae:	80 e7       	ldi	r24, 0x70	; 112
    28b0:	91 e0       	ldi	r25, 0x01	; 1
    28b2:	9b 8f       	std	Y+27, r25	; 0x1b
    28b4:	8a 8f       	std	Y+26, r24	; 0x1a
    28b6:	8a 8d       	ldd	r24, Y+26	; 0x1a
    28b8:	9b 8d       	ldd	r25, Y+27	; 0x1b
    28ba:	01 97       	sbiw	r24, 0x01	; 1
    28bc:	f1 f7       	brne	.-4      	; 0x28ba <forward_inv+0x21c>
    28be:	9b 8f       	std	Y+27, r25	; 0x1b
    28c0:	8a 8f       	std	Y+26, r24	; 0x1a
    28c2:	88 8d       	ldd	r24, Y+24	; 0x18
    28c4:	99 8d       	ldd	r25, Y+25	; 0x19
    28c6:	01 97       	sbiw	r24, 0x01	; 1
    28c8:	99 8f       	std	Y+25, r25	; 0x19
    28ca:	88 8f       	std	Y+24, r24	; 0x18
    28cc:	88 8d       	ldd	r24, Y+24	; 0x18
    28ce:	99 8d       	ldd	r25, Y+25	; 0x19
    28d0:	00 97       	sbiw	r24, 0x00	; 0
    28d2:	69 f7       	brne	.-38     	; 0x28ae <forward_inv+0x210>
    28d4:	4e c1       	rjmp	.+668    	; 0x2b72 <forward_inv+0x4d4>
    28d6:	6c 89       	ldd	r22, Y+20	; 0x14
    28d8:	7d 89       	ldd	r23, Y+21	; 0x15
    28da:	8e 89       	ldd	r24, Y+22	; 0x16
    28dc:	9f 89       	ldd	r25, Y+23	; 0x17
    28de:	11 d3       	rcall	.+1570   	; 0x2f02 <__fixunssfsi>
    28e0:	dc 01       	movw	r26, r24
    28e2:	cb 01       	movw	r24, r22
    28e4:	99 8f       	std	Y+25, r25	; 0x19
    28e6:	88 8f       	std	Y+24, r24	; 0x18
    28e8:	88 8d       	ldd	r24, Y+24	; 0x18
    28ea:	99 8d       	ldd	r25, Y+25	; 0x19
    28ec:	9d 8f       	std	Y+29, r25	; 0x1d
    28ee:	8c 8f       	std	Y+28, r24	; 0x1c
    28f0:	8c 8d       	ldd	r24, Y+28	; 0x1c
    28f2:	9d 8d       	ldd	r25, Y+29	; 0x1d
    28f4:	01 97       	sbiw	r24, 0x01	; 1
    28f6:	f1 f7       	brne	.-4      	; 0x28f4 <forward_inv+0x256>
    28f8:	9d 8f       	std	Y+29, r25	; 0x1d
    28fa:	8c 8f       	std	Y+28, r24	; 0x1c
    28fc:	3a c1       	rjmp	.+628    	; 0x2b72 <forward_inv+0x4d4>
    28fe:	80 91 c0 02 	lds	r24, 0x02C0
    2902:	85 3b       	cpi	r24, 0xB5	; 181
    2904:	a8 f0       	brcs	.+42     	; 0x2930 <forward_inv+0x292>
    2906:	80 91 b5 02 	lds	r24, 0x02B5
    290a:	82 38       	cpi	r24, 0x82	; 130
    290c:	88 f4       	brcc	.+34     	; 0x2930 <forward_inv+0x292>
    290e:	80 91 b8 02 	lds	r24, 0x02B8
    2912:	85 3b       	cpi	r24, 0xB5	; 181
    2914:	68 f0       	brcs	.+26     	; 0x2930 <forward_inv+0x292>
    2916:	88 e2       	ldi	r24, 0x28	; 40
    2918:	91 e0       	ldi	r25, 0x01	; 1
    291a:	20 91 00 02 	lds	r18, 0x0200
    291e:	fc 01       	movw	r30, r24
    2920:	20 83       	st	Z, r18
    2922:	8a e2       	ldi	r24, 0x2A	; 42
    2924:	91 e0       	ldi	r25, 0x01	; 1
    2926:	20 91 00 02 	lds	r18, 0x0200
    292a:	fc 01       	movw	r30, r24
    292c:	20 83       	st	Z, r18
    292e:	21 c1       	rjmp	.+578    	; 0x2b72 <forward_inv+0x4d4>
    2930:	80 91 c0 02 	lds	r24, 0x02C0
    2934:	80 35       	cpi	r24, 0x50	; 80
    2936:	08 f0       	brcs	.+2      	; 0x293a <forward_inv+0x29c>
    2938:	85 c0       	rjmp	.+266    	; 0x2a44 <forward_inv+0x3a6>
    293a:	80 91 b5 02 	lds	r24, 0x02B5
    293e:	83 38       	cpi	r24, 0x83	; 131
    2940:	08 f4       	brcc	.+2      	; 0x2944 <forward_inv+0x2a6>
    2942:	80 c0       	rjmp	.+256    	; 0x2a44 <forward_inv+0x3a6>
    2944:	80 91 b8 02 	lds	r24, 0x02B8
    2948:	87 39       	cpi	r24, 0x97	; 151
    294a:	08 f4       	brcc	.+2      	; 0x294e <forward_inv+0x2b0>
    294c:	7b c0       	rjmp	.+246    	; 0x2a44 <forward_inv+0x3a6>
    294e:	00 d9       	rcall	.-3584   	; 0x1b50 <soft_left>
    2950:	88 e2       	ldi	r24, 0x28	; 40
    2952:	91 e0       	ldi	r25, 0x01	; 1
    2954:	20 91 01 02 	lds	r18, 0x0201
    2958:	22 53       	subi	r18, 0x32	; 50
    295a:	fc 01       	movw	r30, r24
    295c:	20 83       	st	Z, r18
    295e:	8a e2       	ldi	r24, 0x2A	; 42
    2960:	91 e0       	ldi	r25, 0x01	; 1
    2962:	20 91 00 02 	lds	r18, 0x0200
    2966:	fc 01       	movw	r30, r24
    2968:	20 83       	st	Z, r18
    296a:	80 e0       	ldi	r24, 0x00	; 0
    296c:	90 e0       	ldi	r25, 0x00	; 0
    296e:	a0 e8       	ldi	r26, 0x80	; 128
    2970:	bf e3       	ldi	r27, 0x3F	; 63
    2972:	8e 8f       	std	Y+30, r24	; 0x1e
    2974:	9f 8f       	std	Y+31, r25	; 0x1f
    2976:	a8 a3       	std	Y+32, r26	; 0x20
    2978:	b9 a3       	std	Y+33, r27	; 0x21
    297a:	26 e6       	ldi	r18, 0x66	; 102
    297c:	36 e6       	ldi	r19, 0x66	; 102
    297e:	46 e6       	ldi	r20, 0x66	; 102
    2980:	55 e4       	ldi	r21, 0x45	; 69
    2982:	6e 8d       	ldd	r22, Y+30	; 0x1e
    2984:	7f 8d       	ldd	r23, Y+31	; 0x1f
    2986:	88 a1       	ldd	r24, Y+32	; 0x20
    2988:	99 a1       	ldd	r25, Y+33	; 0x21
    298a:	9d d3       	rcall	.+1850   	; 0x30c6 <__mulsf3>
    298c:	dc 01       	movw	r26, r24
    298e:	cb 01       	movw	r24, r22
    2990:	8a a3       	std	Y+34, r24	; 0x22
    2992:	9b a3       	std	Y+35, r25	; 0x23
    2994:	ac a3       	std	Y+36, r26	; 0x24
    2996:	bd a3       	std	Y+37, r27	; 0x25
    2998:	20 e0       	ldi	r18, 0x00	; 0
    299a:	30 e0       	ldi	r19, 0x00	; 0
    299c:	40 e8       	ldi	r20, 0x80	; 128
    299e:	5f e3       	ldi	r21, 0x3F	; 63
    29a0:	6a a1       	ldd	r22, Y+34	; 0x22
    29a2:	7b a1       	ldd	r23, Y+35	; 0x23
    29a4:	8c a1       	ldd	r24, Y+36	; 0x24
    29a6:	9d a1       	ldd	r25, Y+37	; 0x25
    29a8:	40 d2       	rcall	.+1152   	; 0x2e2a <__cmpsf2>
    29aa:	88 23       	and	r24, r24
    29ac:	2c f4       	brge	.+10     	; 0x29b8 <forward_inv+0x31a>
    29ae:	81 e0       	ldi	r24, 0x01	; 1
    29b0:	90 e0       	ldi	r25, 0x00	; 0
    29b2:	9f a3       	std	Y+39, r25	; 0x27
    29b4:	8e a3       	std	Y+38, r24	; 0x26
    29b6:	3b c0       	rjmp	.+118    	; 0x2a2e <forward_inv+0x390>
    29b8:	20 e0       	ldi	r18, 0x00	; 0
    29ba:	3f ef       	ldi	r19, 0xFF	; 255
    29bc:	4f e7       	ldi	r20, 0x7F	; 127
    29be:	57 e4       	ldi	r21, 0x47	; 71
    29c0:	6a a1       	ldd	r22, Y+34	; 0x22
    29c2:	7b a1       	ldd	r23, Y+35	; 0x23
    29c4:	8c a1       	ldd	r24, Y+36	; 0x24
    29c6:	9d a1       	ldd	r25, Y+37	; 0x25
    29c8:	7a d3       	rcall	.+1780   	; 0x30be <__gesf2>
    29ca:	18 16       	cp	r1, r24
    29cc:	3c f5       	brge	.+78     	; 0x2a1c <forward_inv+0x37e>
    29ce:	20 e0       	ldi	r18, 0x00	; 0
    29d0:	30 e0       	ldi	r19, 0x00	; 0
    29d2:	40 e2       	ldi	r20, 0x20	; 32
    29d4:	51 e4       	ldi	r21, 0x41	; 65
    29d6:	6e 8d       	ldd	r22, Y+30	; 0x1e
    29d8:	7f 8d       	ldd	r23, Y+31	; 0x1f
    29da:	88 a1       	ldd	r24, Y+32	; 0x20
    29dc:	99 a1       	ldd	r25, Y+33	; 0x21
    29de:	73 d3       	rcall	.+1766   	; 0x30c6 <__mulsf3>
    29e0:	dc 01       	movw	r26, r24
    29e2:	cb 01       	movw	r24, r22
    29e4:	bc 01       	movw	r22, r24
    29e6:	cd 01       	movw	r24, r26
    29e8:	8c d2       	rcall	.+1304   	; 0x2f02 <__fixunssfsi>
    29ea:	dc 01       	movw	r26, r24
    29ec:	cb 01       	movw	r24, r22
    29ee:	9f a3       	std	Y+39, r25	; 0x27
    29f0:	8e a3       	std	Y+38, r24	; 0x26
    29f2:	0f c0       	rjmp	.+30     	; 0x2a12 <forward_inv+0x374>
    29f4:	80 e7       	ldi	r24, 0x70	; 112
    29f6:	91 e0       	ldi	r25, 0x01	; 1
    29f8:	99 a7       	std	Y+41, r25	; 0x29
    29fa:	88 a7       	std	Y+40, r24	; 0x28
    29fc:	88 a5       	ldd	r24, Y+40	; 0x28
    29fe:	99 a5       	ldd	r25, Y+41	; 0x29
    2a00:	01 97       	sbiw	r24, 0x01	; 1
    2a02:	f1 f7       	brne	.-4      	; 0x2a00 <forward_inv+0x362>
    2a04:	99 a7       	std	Y+41, r25	; 0x29
    2a06:	88 a7       	std	Y+40, r24	; 0x28
    2a08:	8e a1       	ldd	r24, Y+38	; 0x26
    2a0a:	9f a1       	ldd	r25, Y+39	; 0x27
    2a0c:	01 97       	sbiw	r24, 0x01	; 1
    2a0e:	9f a3       	std	Y+39, r25	; 0x27
    2a10:	8e a3       	std	Y+38, r24	; 0x26
    2a12:	8e a1       	ldd	r24, Y+38	; 0x26
    2a14:	9f a1       	ldd	r25, Y+39	; 0x27
    2a16:	00 97       	sbiw	r24, 0x00	; 0
    2a18:	69 f7       	brne	.-38     	; 0x29f4 <forward_inv+0x356>
    2a1a:	ab c0       	rjmp	.+342    	; 0x2b72 <forward_inv+0x4d4>
    2a1c:	6a a1       	ldd	r22, Y+34	; 0x22
    2a1e:	7b a1       	ldd	r23, Y+35	; 0x23
    2a20:	8c a1       	ldd	r24, Y+36	; 0x24
    2a22:	9d a1       	ldd	r25, Y+37	; 0x25
    2a24:	6e d2       	rcall	.+1244   	; 0x2f02 <__fixunssfsi>
    2a26:	dc 01       	movw	r26, r24
    2a28:	cb 01       	movw	r24, r22
    2a2a:	9f a3       	std	Y+39, r25	; 0x27
    2a2c:	8e a3       	std	Y+38, r24	; 0x26
    2a2e:	8e a1       	ldd	r24, Y+38	; 0x26
    2a30:	9f a1       	ldd	r25, Y+39	; 0x27
    2a32:	9b a7       	std	Y+43, r25	; 0x2b
    2a34:	8a a7       	std	Y+42, r24	; 0x2a
    2a36:	8a a5       	ldd	r24, Y+42	; 0x2a
    2a38:	9b a5       	ldd	r25, Y+43	; 0x2b
    2a3a:	01 97       	sbiw	r24, 0x01	; 1
    2a3c:	f1 f7       	brne	.-4      	; 0x2a3a <forward_inv+0x39c>
    2a3e:	9b a7       	std	Y+43, r25	; 0x2b
    2a40:	8a a7       	std	Y+42, r24	; 0x2a
    2a42:	97 c0       	rjmp	.+302    	; 0x2b72 <forward_inv+0x4d4>
    2a44:	80 91 b8 02 	lds	r24, 0x02B8
    2a48:	86 39       	cpi	r24, 0x96	; 150
    2a4a:	08 f0       	brcs	.+2      	; 0x2a4e <forward_inv+0x3b0>
    2a4c:	85 c0       	rjmp	.+266    	; 0x2b58 <forward_inv+0x4ba>
    2a4e:	80 91 b5 02 	lds	r24, 0x02B5
    2a52:	83 38       	cpi	r24, 0x83	; 131
    2a54:	08 f4       	brcc	.+2      	; 0x2a58 <forward_inv+0x3ba>
    2a56:	80 c0       	rjmp	.+256    	; 0x2b58 <forward_inv+0x4ba>
    2a58:	80 91 c0 02 	lds	r24, 0x02C0
    2a5c:	81 35       	cpi	r24, 0x51	; 81
    2a5e:	08 f4       	brcc	.+2      	; 0x2a62 <forward_inv+0x3c4>
    2a60:	7b c0       	rjmp	.+246    	; 0x2b58 <forward_inv+0x4ba>
    2a62:	6d d8       	rcall	.-3878   	; 0x1b3e <soft_right>
    2a64:	88 e2       	ldi	r24, 0x28	; 40
    2a66:	91 e0       	ldi	r25, 0x01	; 1
    2a68:	20 91 00 02 	lds	r18, 0x0200
    2a6c:	fc 01       	movw	r30, r24
    2a6e:	20 83       	st	Z, r18
    2a70:	8a e2       	ldi	r24, 0x2A	; 42
    2a72:	91 e0       	ldi	r25, 0x01	; 1
    2a74:	20 91 01 02 	lds	r18, 0x0201
    2a78:	22 53       	subi	r18, 0x32	; 50
    2a7a:	fc 01       	movw	r30, r24
    2a7c:	20 83       	st	Z, r18
    2a7e:	80 e0       	ldi	r24, 0x00	; 0
    2a80:	90 e0       	ldi	r25, 0x00	; 0
    2a82:	a0 e8       	ldi	r26, 0x80	; 128
    2a84:	bf e3       	ldi	r27, 0x3F	; 63
    2a86:	8c a7       	std	Y+44, r24	; 0x2c
    2a88:	9d a7       	std	Y+45, r25	; 0x2d
    2a8a:	ae a7       	std	Y+46, r26	; 0x2e
    2a8c:	bf a7       	std	Y+47, r27	; 0x2f
    2a8e:	26 e6       	ldi	r18, 0x66	; 102
    2a90:	36 e6       	ldi	r19, 0x66	; 102
    2a92:	46 e6       	ldi	r20, 0x66	; 102
    2a94:	55 e4       	ldi	r21, 0x45	; 69
    2a96:	6c a5       	ldd	r22, Y+44	; 0x2c
    2a98:	7d a5       	ldd	r23, Y+45	; 0x2d
    2a9a:	8e a5       	ldd	r24, Y+46	; 0x2e
    2a9c:	9f a5       	ldd	r25, Y+47	; 0x2f
    2a9e:	13 d3       	rcall	.+1574   	; 0x30c6 <__mulsf3>
    2aa0:	dc 01       	movw	r26, r24
    2aa2:	cb 01       	movw	r24, r22
    2aa4:	88 ab       	std	Y+48, r24	; 0x30
    2aa6:	99 ab       	std	Y+49, r25	; 0x31
    2aa8:	aa ab       	std	Y+50, r26	; 0x32
    2aaa:	bb ab       	std	Y+51, r27	; 0x33
    2aac:	20 e0       	ldi	r18, 0x00	; 0
    2aae:	30 e0       	ldi	r19, 0x00	; 0
    2ab0:	40 e8       	ldi	r20, 0x80	; 128
    2ab2:	5f e3       	ldi	r21, 0x3F	; 63
    2ab4:	68 a9       	ldd	r22, Y+48	; 0x30
    2ab6:	79 a9       	ldd	r23, Y+49	; 0x31
    2ab8:	8a a9       	ldd	r24, Y+50	; 0x32
    2aba:	9b a9       	ldd	r25, Y+51	; 0x33
    2abc:	b6 d1       	rcall	.+876    	; 0x2e2a <__cmpsf2>
    2abe:	88 23       	and	r24, r24
    2ac0:	2c f4       	brge	.+10     	; 0x2acc <forward_inv+0x42e>
    2ac2:	81 e0       	ldi	r24, 0x01	; 1
    2ac4:	90 e0       	ldi	r25, 0x00	; 0
    2ac6:	9d ab       	std	Y+53, r25	; 0x35
    2ac8:	8c ab       	std	Y+52, r24	; 0x34
    2aca:	3b c0       	rjmp	.+118    	; 0x2b42 <forward_inv+0x4a4>
    2acc:	20 e0       	ldi	r18, 0x00	; 0
    2ace:	3f ef       	ldi	r19, 0xFF	; 255
    2ad0:	4f e7       	ldi	r20, 0x7F	; 127
    2ad2:	57 e4       	ldi	r21, 0x47	; 71
    2ad4:	68 a9       	ldd	r22, Y+48	; 0x30
    2ad6:	79 a9       	ldd	r23, Y+49	; 0x31
    2ad8:	8a a9       	ldd	r24, Y+50	; 0x32
    2ada:	9b a9       	ldd	r25, Y+51	; 0x33
    2adc:	f0 d2       	rcall	.+1504   	; 0x30be <__gesf2>
    2ade:	18 16       	cp	r1, r24
    2ae0:	3c f5       	brge	.+78     	; 0x2b30 <forward_inv+0x492>
    2ae2:	20 e0       	ldi	r18, 0x00	; 0
    2ae4:	30 e0       	ldi	r19, 0x00	; 0
    2ae6:	40 e2       	ldi	r20, 0x20	; 32
    2ae8:	51 e4       	ldi	r21, 0x41	; 65
    2aea:	6c a5       	ldd	r22, Y+44	; 0x2c
    2aec:	7d a5       	ldd	r23, Y+45	; 0x2d
    2aee:	8e a5       	ldd	r24, Y+46	; 0x2e
    2af0:	9f a5       	ldd	r25, Y+47	; 0x2f
    2af2:	e9 d2       	rcall	.+1490   	; 0x30c6 <__mulsf3>
    2af4:	dc 01       	movw	r26, r24
    2af6:	cb 01       	movw	r24, r22
    2af8:	bc 01       	movw	r22, r24
    2afa:	cd 01       	movw	r24, r26
    2afc:	02 d2       	rcall	.+1028   	; 0x2f02 <__fixunssfsi>
    2afe:	dc 01       	movw	r26, r24
    2b00:	cb 01       	movw	r24, r22
    2b02:	9d ab       	std	Y+53, r25	; 0x35
    2b04:	8c ab       	std	Y+52, r24	; 0x34
    2b06:	0f c0       	rjmp	.+30     	; 0x2b26 <forward_inv+0x488>
    2b08:	80 e7       	ldi	r24, 0x70	; 112
    2b0a:	91 e0       	ldi	r25, 0x01	; 1
    2b0c:	9f ab       	std	Y+55, r25	; 0x37
    2b0e:	8e ab       	std	Y+54, r24	; 0x36
    2b10:	8e a9       	ldd	r24, Y+54	; 0x36
    2b12:	9f a9       	ldd	r25, Y+55	; 0x37
    2b14:	01 97       	sbiw	r24, 0x01	; 1
    2b16:	f1 f7       	brne	.-4      	; 0x2b14 <forward_inv+0x476>
    2b18:	9f ab       	std	Y+55, r25	; 0x37
    2b1a:	8e ab       	std	Y+54, r24	; 0x36
    2b1c:	8c a9       	ldd	r24, Y+52	; 0x34
    2b1e:	9d a9       	ldd	r25, Y+53	; 0x35
    2b20:	01 97       	sbiw	r24, 0x01	; 1
    2b22:	9d ab       	std	Y+53, r25	; 0x35
    2b24:	8c ab       	std	Y+52, r24	; 0x34
    2b26:	8c a9       	ldd	r24, Y+52	; 0x34
    2b28:	9d a9       	ldd	r25, Y+53	; 0x35
    2b2a:	00 97       	sbiw	r24, 0x00	; 0
    2b2c:	69 f7       	brne	.-38     	; 0x2b08 <forward_inv+0x46a>
    2b2e:	21 c0       	rjmp	.+66     	; 0x2b72 <forward_inv+0x4d4>
    2b30:	68 a9       	ldd	r22, Y+48	; 0x30
    2b32:	79 a9       	ldd	r23, Y+49	; 0x31
    2b34:	8a a9       	ldd	r24, Y+50	; 0x32
    2b36:	9b a9       	ldd	r25, Y+51	; 0x33
    2b38:	e4 d1       	rcall	.+968    	; 0x2f02 <__fixunssfsi>
    2b3a:	dc 01       	movw	r26, r24
    2b3c:	cb 01       	movw	r24, r22
    2b3e:	9d ab       	std	Y+53, r25	; 0x35
    2b40:	8c ab       	std	Y+52, r24	; 0x34
    2b42:	8c a9       	ldd	r24, Y+52	; 0x34
    2b44:	9d a9       	ldd	r25, Y+53	; 0x35
    2b46:	99 af       	std	Y+57, r25	; 0x39
    2b48:	88 af       	std	Y+56, r24	; 0x38
    2b4a:	88 ad       	ldd	r24, Y+56	; 0x38
    2b4c:	99 ad       	ldd	r25, Y+57	; 0x39
    2b4e:	01 97       	sbiw	r24, 0x01	; 1
    2b50:	f1 f7       	brne	.-4      	; 0x2b4e <forward_inv+0x4b0>
    2b52:	99 af       	std	Y+57, r25	; 0x39
    2b54:	88 af       	std	Y+56, r24	; 0x38
    2b56:	0d c0       	rjmp	.+26     	; 0x2b72 <forward_inv+0x4d4>
    2b58:	80 91 b8 02 	lds	r24, 0x02B8
    2b5c:	84 36       	cpi	r24, 0x64	; 100
    2b5e:	48 f4       	brcc	.+18     	; 0x2b72 <forward_inv+0x4d4>
    2b60:	80 91 b5 02 	lds	r24, 0x02B5
    2b64:	85 36       	cpi	r24, 0x65	; 101
    2b66:	28 f0       	brcs	.+10     	; 0x2b72 <forward_inv+0x4d4>
    2b68:	80 91 c0 02 	lds	r24, 0x02C0
    2b6c:	84 36       	cpi	r24, 0x64	; 100
    2b6e:	08 f4       	brcc	.+2      	; 0x2b72 <forward_inv+0x4d4>
    2b70:	01 c0       	rjmp	.+2      	; 0x2b74 <forward_inv+0x4d6>
    2b72:	ad cd       	rjmp	.-1190   	; 0x26ce <forward_inv+0x30>
    2b74:	61 e0       	ldi	r22, 0x01	; 1
    2b76:	70 e0       	ldi	r23, 0x00	; 0
    2b78:	82 e0       	ldi	r24, 0x02	; 2
    2b7a:	90 e0       	ldi	r25, 0x00	; 0
    2b7c:	f2 da       	rcall	.-2588   	; 0x2162 <forward_wls>
    2b7e:	e9 96       	adiw	r28, 0x39	; 57
    2b80:	0f b6       	in	r0, 0x3f	; 63
    2b82:	f8 94       	cli
    2b84:	de bf       	out	0x3e, r29	; 62
    2b86:	0f be       	out	0x3f, r0	; 63
    2b88:	cd bf       	out	0x3d, r28	; 61
    2b8a:	df 91       	pop	r29
    2b8c:	cf 91       	pop	r28
    2b8e:	08 95       	ret

00002b90 <linear_distance_mm>:
    2b90:	cf 93       	push	r28
    2b92:	df 93       	push	r29
    2b94:	cd b7       	in	r28, 0x3d	; 61
    2b96:	de b7       	in	r29, 0x3e	; 62
    2b98:	2a 97       	sbiw	r28, 0x0a	; 10
    2b9a:	0f b6       	in	r0, 0x3f	; 63
    2b9c:	f8 94       	cli
    2b9e:	de bf       	out	0x3e, r29	; 62
    2ba0:	0f be       	out	0x3f, r0	; 63
    2ba2:	cd bf       	out	0x3d, r28	; 61
    2ba4:	9a 87       	std	Y+10, r25	; 0x0a
    2ba6:	89 87       	std	Y+9, r24	; 0x09
    2ba8:	19 82       	std	Y+1, r1	; 0x01
    2baa:	1a 82       	std	Y+2, r1	; 0x02
    2bac:	1b 82       	std	Y+3, r1	; 0x03
    2bae:	1c 82       	std	Y+4, r1	; 0x04
    2bb0:	1d 82       	std	Y+5, r1	; 0x05
    2bb2:	1e 82       	std	Y+6, r1	; 0x06
    2bb4:	1f 82       	std	Y+7, r1	; 0x07
    2bb6:	18 86       	std	Y+8, r1	; 0x08
    2bb8:	89 85       	ldd	r24, Y+9	; 0x09
    2bba:	9a 85       	ldd	r25, Y+10	; 0x0a
    2bbc:	cc 01       	movw	r24, r24
    2bbe:	a0 e0       	ldi	r26, 0x00	; 0
    2bc0:	b0 e0       	ldi	r27, 0x00	; 0
    2bc2:	bc 01       	movw	r22, r24
    2bc4:	cd 01       	movw	r24, r26
    2bc6:	c9 d1       	rcall	.+914    	; 0x2f5a <__floatunsisf>
    2bc8:	dc 01       	movw	r26, r24
    2bca:	cb 01       	movw	r24, r22
    2bcc:	2d e4       	ldi	r18, 0x4D	; 77
    2bce:	35 e1       	ldi	r19, 0x15	; 21
    2bd0:	4c e0       	ldi	r20, 0x0C	; 12
    2bd2:	50 e4       	ldi	r21, 0x40	; 64
    2bd4:	bc 01       	movw	r22, r24
    2bd6:	cd 01       	movw	r24, r26
    2bd8:	76 d2       	rcall	.+1260   	; 0x30c6 <__mulsf3>
    2bda:	dc 01       	movw	r26, r24
    2bdc:	cb 01       	movw	r24, r22
    2bde:	89 83       	std	Y+1, r24	; 0x01
    2be0:	9a 83       	std	Y+2, r25	; 0x02
    2be2:	ab 83       	std	Y+3, r26	; 0x03
    2be4:	bc 83       	std	Y+4, r27	; 0x04
    2be6:	69 81       	ldd	r22, Y+1	; 0x01
    2be8:	7a 81       	ldd	r23, Y+2	; 0x02
    2bea:	8b 81       	ldd	r24, Y+3	; 0x03
    2bec:	9c 81       	ldd	r25, Y+4	; 0x04
    2bee:	89 d1       	rcall	.+786    	; 0x2f02 <__fixunssfsi>
    2bf0:	dc 01       	movw	r26, r24
    2bf2:	cb 01       	movw	r24, r22
    2bf4:	8d 83       	std	Y+5, r24	; 0x05
    2bf6:	9e 83       	std	Y+6, r25	; 0x06
    2bf8:	af 83       	std	Y+7, r26	; 0x07
    2bfa:	b8 87       	std	Y+8, r27	; 0x08
    2bfc:	10 92 ac 02 	sts	0x02AC, r1
    2c00:	10 92 ad 02 	sts	0x02AD, r1
    2c04:	10 92 ae 02 	sts	0x02AE, r1
    2c08:	10 92 af 02 	sts	0x02AF, r1
    2c0c:	20 91 ac 02 	lds	r18, 0x02AC
    2c10:	30 91 ad 02 	lds	r19, 0x02AD
    2c14:	40 91 ae 02 	lds	r20, 0x02AE
    2c18:	50 91 af 02 	lds	r21, 0x02AF
    2c1c:	8d 81       	ldd	r24, Y+5	; 0x05
    2c1e:	9e 81       	ldd	r25, Y+6	; 0x06
    2c20:	af 81       	ldd	r26, Y+7	; 0x07
    2c22:	b8 85       	ldd	r27, Y+8	; 0x08
    2c24:	82 17       	cp	r24, r18
    2c26:	93 07       	cpc	r25, r19
    2c28:	a4 07       	cpc	r26, r20
    2c2a:	b5 07       	cpc	r27, r21
    2c2c:	08 f4       	brcc	.+2      	; 0x2c30 <linear_distance_mm+0xa0>
    2c2e:	01 c0       	rjmp	.+2      	; 0x2c32 <linear_distance_mm+0xa2>
    2c30:	ed cf       	rjmp	.-38     	; 0x2c0c <linear_distance_mm+0x7c>
    2c32:	0e 94 b1 0d 	call	0x1b62	; 0x1b62 <stop>
    2c36:	2a 96       	adiw	r28, 0x0a	; 10
    2c38:	0f b6       	in	r0, 0x3f	; 63
    2c3a:	f8 94       	cli
    2c3c:	de bf       	out	0x3e, r29	; 62
    2c3e:	0f be       	out	0x3f, r0	; 63
    2c40:	cd bf       	out	0x3d, r28	; 61
    2c42:	df 91       	pop	r29
    2c44:	cf 91       	pop	r28
    2c46:	08 95       	ret

00002c48 <forward_mm>:
    2c48:	cf 93       	push	r28
    2c4a:	df 93       	push	r29
    2c4c:	1f 92       	push	r1
    2c4e:	1f 92       	push	r1
    2c50:	cd b7       	in	r28, 0x3d	; 61
    2c52:	de b7       	in	r29, 0x3e	; 62
    2c54:	9a 83       	std	Y+2, r25	; 0x02
    2c56:	89 83       	std	Y+1, r24	; 0x01
    2c58:	0e 94 8d 0d 	call	0x1b1a	; 0x1b1a <forward>
    2c5c:	89 81       	ldd	r24, Y+1	; 0x01
    2c5e:	9a 81       	ldd	r25, Y+2	; 0x02
    2c60:	97 df       	rcall	.-210    	; 0x2b90 <linear_distance_mm>
    2c62:	0f 90       	pop	r0
    2c64:	0f 90       	pop	r0
    2c66:	df 91       	pop	r29
    2c68:	cf 91       	pop	r28
    2c6a:	08 95       	ret

00002c6c <left_turn>:
void left_turn(void)
{
    2c6c:	cf 93       	push	r28
    2c6e:	df 93       	push	r29
    2c70:	cd b7       	in	r28, 0x3d	; 61
    2c72:	de b7       	in	r29, 0x3e	; 62
    2c74:	28 97       	sbiw	r28, 0x08	; 8
    2c76:	0f b6       	in	r0, 0x3f	; 63
    2c78:	f8 94       	cli
    2c7a:	de bf       	out	0x3e, r29	; 62
    2c7c:	0f be       	out	0x3f, r0	; 63
    2c7e:	cd bf       	out	0x3d, r28	; 61
	forward_mm(95);
    2c80:	8f e5       	ldi	r24, 0x5F	; 95
    2c82:	90 e0       	ldi	r25, 0x00	; 0
    2c84:	e1 df       	rcall	.-62     	; 0x2c48 <forward_mm>
	stop();
    2c86:	0e 94 b1 0d 	call	0x1b62	; 0x1b62 <stop>
    left();
    2c8a:	0e 94 96 0d 	call	0x1b2c	; 0x1b2c <left>
	velocity(120,120);
    2c8e:	68 e7       	ldi	r22, 0x78	; 120
    2c90:	88 e7       	ldi	r24, 0x78	; 120
    2c92:	0e 94 ba 0d 	call	0x1b74	; 0x1b74 <velocity>
	float ReqdShaftCount = 0;
    2c96:	19 82       	std	Y+1, r1	; 0x01
    2c98:	1a 82       	std	Y+2, r1	; 0x02
    2c9a:	1b 82       	std	Y+3, r1	; 0x03
    2c9c:	1c 82       	std	Y+4, r1	; 0x04
	unsigned long int ReqdShaftCountInt = 0;
    2c9e:	1d 82       	std	Y+5, r1	; 0x05
    2ca0:	1e 82       	std	Y+6, r1	; 0x06
    2ca2:	1f 82       	std	Y+7, r1	; 0x07
    2ca4:	18 86       	std	Y+8, r1	; 0x08

	ReqdShaftCount = (float) Degrees /4.090; // division by resolution to get shaft count
    2ca6:	80 91 b0 02 	lds	r24, 0x02B0
    2caa:	90 91 b1 02 	lds	r25, 0x02B1
    2cae:	cc 01       	movw	r24, r24
    2cb0:	a0 e0       	ldi	r26, 0x00	; 0
    2cb2:	b0 e0       	ldi	r27, 0x00	; 0
    2cb4:	bc 01       	movw	r22, r24
    2cb6:	cd 01       	movw	r24, r26
    2cb8:	50 d1       	rcall	.+672    	; 0x2f5a <__floatunsisf>
    2cba:	dc 01       	movw	r26, r24
    2cbc:	cb 01       	movw	r24, r22
    2cbe:	28 e4       	ldi	r18, 0x48	; 72
    2cc0:	31 ee       	ldi	r19, 0xE1	; 225
    2cc2:	42 e8       	ldi	r20, 0x82	; 130
    2cc4:	50 e4       	ldi	r21, 0x40	; 64
    2cc6:	bc 01       	movw	r22, r24
    2cc8:	cd 01       	movw	r24, r26
    2cca:	b3 d0       	rcall	.+358    	; 0x2e32 <__divsf3>
    2ccc:	dc 01       	movw	r26, r24
    2cce:	cb 01       	movw	r24, r22
    2cd0:	89 83       	std	Y+1, r24	; 0x01
    2cd2:	9a 83       	std	Y+2, r25	; 0x02
    2cd4:	ab 83       	std	Y+3, r26	; 0x03
    2cd6:	bc 83       	std	Y+4, r27	; 0x04
	ReqdShaftCountInt = (unsigned int) ReqdShaftCount;
    2cd8:	69 81       	ldd	r22, Y+1	; 0x01
    2cda:	7a 81       	ldd	r23, Y+2	; 0x02
    2cdc:	8b 81       	ldd	r24, Y+3	; 0x03
    2cde:	9c 81       	ldd	r25, Y+4	; 0x04
    2ce0:	10 d1       	rcall	.+544    	; 0x2f02 <__fixunssfsi>
    2ce2:	dc 01       	movw	r26, r24
    2ce4:	cb 01       	movw	r24, r22
    2ce6:	cc 01       	movw	r24, r24
    2ce8:	a0 e0       	ldi	r26, 0x00	; 0
    2cea:	b0 e0       	ldi	r27, 0x00	; 0
    2cec:	8d 83       	std	Y+5, r24	; 0x05
    2cee:	9e 83       	std	Y+6, r25	; 0x06
    2cf0:	af 83       	std	Y+7, r26	; 0x07
    2cf2:	b8 87       	std	Y+8, r27	; 0x08
	ShaftCountRight = 0;
    2cf4:	10 92 ac 02 	sts	0x02AC, r1
    2cf8:	10 92 ad 02 	sts	0x02AD, r1
    2cfc:	10 92 ae 02 	sts	0x02AE, r1
    2d00:	10 92 af 02 	sts	0x02AF, r1
	ShaftCountLeft = 0;
    2d04:	10 92 a8 02 	sts	0x02A8, r1
    2d08:	10 92 a9 02 	sts	0x02A9, r1
    2d0c:	10 92 aa 02 	sts	0x02AA, r1
    2d10:	10 92 ab 02 	sts	0x02AB, r1

	while (1)
	{
		if((ShaftCountRight >= ReqdShaftCountInt) | (ShaftCountLeft >= ReqdShaftCountInt))
    2d14:	20 91 ac 02 	lds	r18, 0x02AC
    2d18:	30 91 ad 02 	lds	r19, 0x02AD
    2d1c:	40 91 ae 02 	lds	r20, 0x02AE
    2d20:	50 91 af 02 	lds	r21, 0x02AF
    2d24:	71 e0       	ldi	r23, 0x01	; 1
    2d26:	8d 81       	ldd	r24, Y+5	; 0x05
    2d28:	9e 81       	ldd	r25, Y+6	; 0x06
    2d2a:	af 81       	ldd	r26, Y+7	; 0x07
    2d2c:	b8 85       	ldd	r27, Y+8	; 0x08
    2d2e:	28 17       	cp	r18, r24
    2d30:	39 07       	cpc	r19, r25
    2d32:	4a 07       	cpc	r20, r26
    2d34:	5b 07       	cpc	r21, r27
    2d36:	08 f4       	brcc	.+2      	; 0x2d3a <left_turn+0xce>
    2d38:	70 e0       	ldi	r23, 0x00	; 0
    2d3a:	20 91 a8 02 	lds	r18, 0x02A8
    2d3e:	30 91 a9 02 	lds	r19, 0x02A9
    2d42:	40 91 aa 02 	lds	r20, 0x02AA
    2d46:	50 91 ab 02 	lds	r21, 0x02AB
    2d4a:	61 e0       	ldi	r22, 0x01	; 1
    2d4c:	8d 81       	ldd	r24, Y+5	; 0x05
    2d4e:	9e 81       	ldd	r25, Y+6	; 0x06
    2d50:	af 81       	ldd	r26, Y+7	; 0x07
    2d52:	b8 85       	ldd	r27, Y+8	; 0x08
    2d54:	28 17       	cp	r18, r24
    2d56:	39 07       	cpc	r19, r25
    2d58:	4a 07       	cpc	r20, r26
    2d5a:	5b 07       	cpc	r21, r27
    2d5c:	08 f4       	brcc	.+2      	; 0x2d60 <left_turn+0xf4>
    2d5e:	60 e0       	ldi	r22, 0x00	; 0
    2d60:	87 2f       	mov	r24, r23
    2d62:	86 2b       	or	r24, r22
    2d64:	88 23       	and	r24, r24
    2d66:	51 f0       	breq	.+20     	; 0x2d7c <left_turn+0x110>
		{
			ls = ADC_Conversion(1);
    2d68:	81 e0       	ldi	r24, 0x01	; 1
    2d6a:	0e 94 d1 0d 	call	0x1ba2	; 0x1ba2 <ADC_Conversion>
    2d6e:	80 93 c0 02 	sts	0x02C0, r24
			if (ls > 80)
    2d72:	80 91 c0 02 	lds	r24, 0x02C0
    2d76:	81 35       	cpi	r24, 0x51	; 81
    2d78:	08 f0       	brcs	.+2      	; 0x2d7c <left_turn+0x110>
			{
			break;
    2d7a:	01 c0       	rjmp	.+2      	; 0x2d7e <left_turn+0x112>
			}
		}
		
	}
    2d7c:	cb cf       	rjmp	.-106    	; 0x2d14 <left_turn+0xa8>
	stop(); //Stop robot
    2d7e:	0e 94 b1 0d 	call	0x1b62	; 0x1b62 <stop>

}
    2d82:	28 96       	adiw	r28, 0x08	; 8
    2d84:	0f b6       	in	r0, 0x3f	; 63
    2d86:	f8 94       	cli
    2d88:	de bf       	out	0x3e, r29	; 62
    2d8a:	0f be       	out	0x3f, r0	; 63
    2d8c:	cd bf       	out	0x3d, r28	; 61
    2d8e:	df 91       	pop	r29
    2d90:	cf 91       	pop	r28
    2d92:	08 95       	ret

00002d94 <adc_init>:

/* -------------------------------------------------------------*/

//Devices Initialization Function ->
//Function to Initialize ADC
void adc_init() {
    2d94:	cf 93       	push	r28
    2d96:	df 93       	push	r29
    2d98:	cd b7       	in	r28, 0x3d	; 61
    2d9a:	de b7       	in	r29, 0x3e	; 62
  ADCSRA = 0x00;
    2d9c:	8a e7       	ldi	r24, 0x7A	; 122
    2d9e:	90 e0       	ldi	r25, 0x00	; 0
    2da0:	fc 01       	movw	r30, r24
    2da2:	10 82       	st	Z, r1
  ADCSRB = 0x00; //MUX5 = 0
    2da4:	8b e7       	ldi	r24, 0x7B	; 123
    2da6:	90 e0       	ldi	r25, 0x00	; 0
    2da8:	fc 01       	movw	r30, r24
    2daa:	10 82       	st	Z, r1
  ADMUX = 0x20; //Vref=5V external --- ADLAR=1 --- MUX4:0 = 0000
    2dac:	8c e7       	ldi	r24, 0x7C	; 124
    2dae:	90 e0       	ldi	r25, 0x00	; 0
    2db0:	20 e2       	ldi	r18, 0x20	; 32
    2db2:	fc 01       	movw	r30, r24
    2db4:	20 83       	st	Z, r18
  ACSR = 0x80;
    2db6:	80 e5       	ldi	r24, 0x50	; 80
    2db8:	90 e0       	ldi	r25, 0x00	; 0
    2dba:	20 e8       	ldi	r18, 0x80	; 128
    2dbc:	fc 01       	movw	r30, r24
    2dbe:	20 83       	st	Z, r18
  ADCSRA = 0x86; //ADEN=1 --- ADIE=1 --- ADPS2:0 = 1 1 0
    2dc0:	8a e7       	ldi	r24, 0x7A	; 122
    2dc2:	90 e0       	ldi	r25, 0x00	; 0
    2dc4:	26 e8       	ldi	r18, 0x86	; 134
    2dc6:	fc 01       	movw	r30, r24
    2dc8:	20 83       	st	Z, r18
}
    2dca:	df 91       	pop	r29
    2dcc:	cf 91       	pop	r28
    2dce:	08 95       	ret

00002dd0 <init_devices>:

void init_devices(void) {
    2dd0:	cf 93       	push	r28
    2dd2:	df 93       	push	r29
    2dd4:	cd b7       	in	r28, 0x3d	; 61
    2dd6:	de b7       	in	r29, 0x3e	; 62
  cli(); //Clears the global interrupts
    2dd8:	f8 94       	cli
  port_init();
    2dda:	0e 94 fe 0c 	call	0x19fc	; 0x19fc <port_init>
  adc_init();
    2dde:	da df       	rcall	.-76     	; 0x2d94 <adc_init>
  timer5_init();
    2de0:	0e 94 9d 0b 	call	0x173a	; 0x173a <timer5_init>
  timer1_init();
    2de4:	0e 94 52 0b 	call	0x16a4	; 0x16a4 <timer1_init>
  sei(); //Enables the global interrupts
    2de8:	78 94       	sei
  lcd_set_4bit(); //These functions need not to be inside interrupt blocked code
    2dea:	0e 94 b7 00 	call	0x16e	; 0x16e <lcd_set_4bit>
  lcd_init();
    2dee:	0e 94 3d 06 	call	0xc7a	; 0xc7a <lcd_init>
}
    2df2:	df 91       	pop	r29
    2df4:	cf 91       	pop	r28
    2df6:	08 95       	ret

00002df8 <main>:
/* --------------------------------------------------------------*/

//Main Function ->
int main() 
{
    2df8:	cf 93       	push	r28
    2dfa:	df 93       	push	r29
    2dfc:	cd b7       	in	r28, 0x3d	; 61
    2dfe:	de b7       	in	r29, 0x3e	; 62
  init_devices();
    2e00:	e7 df       	rcall	.-50     	; 0x2dd0 <init_devices>
  forward_wls(3,1);
    2e02:	61 e0       	ldi	r22, 0x01	; 1
    2e04:	70 e0       	ldi	r23, 0x00	; 0
    2e06:	83 e0       	ldi	r24, 0x03	; 3
    2e08:	90 e0       	ldi	r25, 0x00	; 0
    2e0a:	ab d9       	rcall	.-3242   	; 0x2162 <forward_wls>
  stop();
    2e0c:	0e 94 b1 0d 	call	0x1b62	; 0x1b62 <stop>
  left_turn();
    2e10:	2d df       	rcall	.-422    	; 0x2c6c <left_turn>
  forward_wls(0,5);
    2e12:	65 e0       	ldi	r22, 0x05	; 5
    2e14:	70 e0       	ldi	r23, 0x00	; 0
    2e16:	80 e0       	ldi	r24, 0x00	; 0
    2e18:	90 e0       	ldi	r25, 0x00	; 0
    2e1a:	a3 d9       	rcall	.-3258   	; 0x2162 <forward_wls>
  stop();
    2e1c:	0e 94 b1 0d 	call	0x1b62	; 0x1b62 <stop>
    2e20:	80 e0       	ldi	r24, 0x00	; 0
    2e22:	90 e0       	ldi	r25, 0x00	; 0
  
  
  
  
}
    2e24:	df 91       	pop	r29
    2e26:	cf 91       	pop	r28
    2e28:	08 95       	ret

00002e2a <__cmpsf2>:
    2e2a:	d4 d0       	rcall	.+424    	; 0x2fd4 <__fp_cmp>
    2e2c:	08 f4       	brcc	.+2      	; 0x2e30 <__cmpsf2+0x6>
    2e2e:	81 e0       	ldi	r24, 0x01	; 1
    2e30:	08 95       	ret

00002e32 <__divsf3>:
    2e32:	0c d0       	rcall	.+24     	; 0x2e4c <__divsf3x>
    2e34:	0a c1       	rjmp	.+532    	; 0x304a <__fp_round>
    2e36:	02 d1       	rcall	.+516    	; 0x303c <__fp_pscB>
    2e38:	40 f0       	brcs	.+16     	; 0x2e4a <__divsf3+0x18>
    2e3a:	f9 d0       	rcall	.+498    	; 0x302e <__fp_pscA>
    2e3c:	30 f0       	brcs	.+12     	; 0x2e4a <__divsf3+0x18>
    2e3e:	21 f4       	brne	.+8      	; 0x2e48 <__divsf3+0x16>
    2e40:	5f 3f       	cpi	r21, 0xFF	; 255
    2e42:	19 f0       	breq	.+6      	; 0x2e4a <__divsf3+0x18>
    2e44:	eb c0       	rjmp	.+470    	; 0x301c <__fp_inf>
    2e46:	51 11       	cpse	r21, r1
    2e48:	34 c1       	rjmp	.+616    	; 0x30b2 <__fp_szero>
    2e4a:	ee c0       	rjmp	.+476    	; 0x3028 <__fp_nan>

00002e4c <__divsf3x>:
    2e4c:	0f d1       	rcall	.+542    	; 0x306c <__fp_split3>
    2e4e:	98 f3       	brcs	.-26     	; 0x2e36 <__divsf3+0x4>

00002e50 <__divsf3_pse>:
    2e50:	99 23       	and	r25, r25
    2e52:	c9 f3       	breq	.-14     	; 0x2e46 <__divsf3+0x14>
    2e54:	55 23       	and	r21, r21
    2e56:	b1 f3       	breq	.-20     	; 0x2e44 <__divsf3+0x12>
    2e58:	95 1b       	sub	r25, r21
    2e5a:	55 0b       	sbc	r21, r21
    2e5c:	bb 27       	eor	r27, r27
    2e5e:	aa 27       	eor	r26, r26
    2e60:	62 17       	cp	r22, r18
    2e62:	73 07       	cpc	r23, r19
    2e64:	84 07       	cpc	r24, r20
    2e66:	38 f0       	brcs	.+14     	; 0x2e76 <__divsf3_pse+0x26>
    2e68:	9f 5f       	subi	r25, 0xFF	; 255
    2e6a:	5f 4f       	sbci	r21, 0xFF	; 255
    2e6c:	22 0f       	add	r18, r18
    2e6e:	33 1f       	adc	r19, r19
    2e70:	44 1f       	adc	r20, r20
    2e72:	aa 1f       	adc	r26, r26
    2e74:	a9 f3       	breq	.-22     	; 0x2e60 <__divsf3_pse+0x10>
    2e76:	33 d0       	rcall	.+102    	; 0x2ede <__divsf3_pse+0x8e>
    2e78:	0e 2e       	mov	r0, r30
    2e7a:	3a f0       	brmi	.+14     	; 0x2e8a <__divsf3_pse+0x3a>
    2e7c:	e0 e8       	ldi	r30, 0x80	; 128
    2e7e:	30 d0       	rcall	.+96     	; 0x2ee0 <__divsf3_pse+0x90>
    2e80:	91 50       	subi	r25, 0x01	; 1
    2e82:	50 40       	sbci	r21, 0x00	; 0
    2e84:	e6 95       	lsr	r30
    2e86:	00 1c       	adc	r0, r0
    2e88:	ca f7       	brpl	.-14     	; 0x2e7c <__divsf3_pse+0x2c>
    2e8a:	29 d0       	rcall	.+82     	; 0x2ede <__divsf3_pse+0x8e>
    2e8c:	fe 2f       	mov	r31, r30
    2e8e:	27 d0       	rcall	.+78     	; 0x2ede <__divsf3_pse+0x8e>
    2e90:	66 0f       	add	r22, r22
    2e92:	77 1f       	adc	r23, r23
    2e94:	88 1f       	adc	r24, r24
    2e96:	bb 1f       	adc	r27, r27
    2e98:	26 17       	cp	r18, r22
    2e9a:	37 07       	cpc	r19, r23
    2e9c:	48 07       	cpc	r20, r24
    2e9e:	ab 07       	cpc	r26, r27
    2ea0:	b0 e8       	ldi	r27, 0x80	; 128
    2ea2:	09 f0       	breq	.+2      	; 0x2ea6 <__divsf3_pse+0x56>
    2ea4:	bb 0b       	sbc	r27, r27
    2ea6:	80 2d       	mov	r24, r0
    2ea8:	bf 01       	movw	r22, r30
    2eaa:	ff 27       	eor	r31, r31
    2eac:	93 58       	subi	r25, 0x83	; 131
    2eae:	5f 4f       	sbci	r21, 0xFF	; 255
    2eb0:	2a f0       	brmi	.+10     	; 0x2ebc <__divsf3_pse+0x6c>
    2eb2:	9e 3f       	cpi	r25, 0xFE	; 254
    2eb4:	51 05       	cpc	r21, r1
    2eb6:	68 f0       	brcs	.+26     	; 0x2ed2 <__divsf3_pse+0x82>
    2eb8:	b1 c0       	rjmp	.+354    	; 0x301c <__fp_inf>
    2eba:	fb c0       	rjmp	.+502    	; 0x30b2 <__fp_szero>
    2ebc:	5f 3f       	cpi	r21, 0xFF	; 255
    2ebe:	ec f3       	brlt	.-6      	; 0x2eba <__divsf3_pse+0x6a>
    2ec0:	98 3e       	cpi	r25, 0xE8	; 232
    2ec2:	dc f3       	brlt	.-10     	; 0x2eba <__divsf3_pse+0x6a>
    2ec4:	86 95       	lsr	r24
    2ec6:	77 95       	ror	r23
    2ec8:	67 95       	ror	r22
    2eca:	b7 95       	ror	r27
    2ecc:	f7 95       	ror	r31
    2ece:	9f 5f       	subi	r25, 0xFF	; 255
    2ed0:	c9 f7       	brne	.-14     	; 0x2ec4 <__divsf3_pse+0x74>
    2ed2:	88 0f       	add	r24, r24
    2ed4:	91 1d       	adc	r25, r1
    2ed6:	96 95       	lsr	r25
    2ed8:	87 95       	ror	r24
    2eda:	97 f9       	bld	r25, 7
    2edc:	08 95       	ret
    2ede:	e1 e0       	ldi	r30, 0x01	; 1
    2ee0:	66 0f       	add	r22, r22
    2ee2:	77 1f       	adc	r23, r23
    2ee4:	88 1f       	adc	r24, r24
    2ee6:	bb 1f       	adc	r27, r27
    2ee8:	62 17       	cp	r22, r18
    2eea:	73 07       	cpc	r23, r19
    2eec:	84 07       	cpc	r24, r20
    2eee:	ba 07       	cpc	r27, r26
    2ef0:	20 f0       	brcs	.+8      	; 0x2efa <__divsf3_pse+0xaa>
    2ef2:	62 1b       	sub	r22, r18
    2ef4:	73 0b       	sbc	r23, r19
    2ef6:	84 0b       	sbc	r24, r20
    2ef8:	ba 0b       	sbc	r27, r26
    2efa:	ee 1f       	adc	r30, r30
    2efc:	88 f7       	brcc	.-30     	; 0x2ee0 <__divsf3_pse+0x90>
    2efe:	e0 95       	com	r30
    2f00:	08 95       	ret

00002f02 <__fixunssfsi>:
    2f02:	bc d0       	rcall	.+376    	; 0x307c <__fp_splitA>
    2f04:	88 f0       	brcs	.+34     	; 0x2f28 <__fixunssfsi+0x26>
    2f06:	9f 57       	subi	r25, 0x7F	; 127
    2f08:	90 f0       	brcs	.+36     	; 0x2f2e <__fixunssfsi+0x2c>
    2f0a:	b9 2f       	mov	r27, r25
    2f0c:	99 27       	eor	r25, r25
    2f0e:	b7 51       	subi	r27, 0x17	; 23
    2f10:	a0 f0       	brcs	.+40     	; 0x2f3a <__fixunssfsi+0x38>
    2f12:	d1 f0       	breq	.+52     	; 0x2f48 <__fixunssfsi+0x46>
    2f14:	66 0f       	add	r22, r22
    2f16:	77 1f       	adc	r23, r23
    2f18:	88 1f       	adc	r24, r24
    2f1a:	99 1f       	adc	r25, r25
    2f1c:	1a f0       	brmi	.+6      	; 0x2f24 <__fixunssfsi+0x22>
    2f1e:	ba 95       	dec	r27
    2f20:	c9 f7       	brne	.-14     	; 0x2f14 <__fixunssfsi+0x12>
    2f22:	12 c0       	rjmp	.+36     	; 0x2f48 <__fixunssfsi+0x46>
    2f24:	b1 30       	cpi	r27, 0x01	; 1
    2f26:	81 f0       	breq	.+32     	; 0x2f48 <__fixunssfsi+0x46>
    2f28:	c3 d0       	rcall	.+390    	; 0x30b0 <__fp_zero>
    2f2a:	b1 e0       	ldi	r27, 0x01	; 1
    2f2c:	08 95       	ret
    2f2e:	c0 c0       	rjmp	.+384    	; 0x30b0 <__fp_zero>
    2f30:	67 2f       	mov	r22, r23
    2f32:	78 2f       	mov	r23, r24
    2f34:	88 27       	eor	r24, r24
    2f36:	b8 5f       	subi	r27, 0xF8	; 248
    2f38:	39 f0       	breq	.+14     	; 0x2f48 <__fixunssfsi+0x46>
    2f3a:	b9 3f       	cpi	r27, 0xF9	; 249
    2f3c:	cc f3       	brlt	.-14     	; 0x2f30 <__fixunssfsi+0x2e>
    2f3e:	86 95       	lsr	r24
    2f40:	77 95       	ror	r23
    2f42:	67 95       	ror	r22
    2f44:	b3 95       	inc	r27
    2f46:	d9 f7       	brne	.-10     	; 0x2f3e <__fixunssfsi+0x3c>
    2f48:	3e f4       	brtc	.+14     	; 0x2f58 <__fixunssfsi+0x56>
    2f4a:	90 95       	com	r25
    2f4c:	80 95       	com	r24
    2f4e:	70 95       	com	r23
    2f50:	61 95       	neg	r22
    2f52:	7f 4f       	sbci	r23, 0xFF	; 255
    2f54:	8f 4f       	sbci	r24, 0xFF	; 255
    2f56:	9f 4f       	sbci	r25, 0xFF	; 255
    2f58:	08 95       	ret

00002f5a <__floatunsisf>:
    2f5a:	e8 94       	clt
    2f5c:	09 c0       	rjmp	.+18     	; 0x2f70 <__floatsisf+0x12>

00002f5e <__floatsisf>:
    2f5e:	97 fb       	bst	r25, 7
    2f60:	3e f4       	brtc	.+14     	; 0x2f70 <__floatsisf+0x12>
    2f62:	90 95       	com	r25
    2f64:	80 95       	com	r24
    2f66:	70 95       	com	r23
    2f68:	61 95       	neg	r22
    2f6a:	7f 4f       	sbci	r23, 0xFF	; 255
    2f6c:	8f 4f       	sbci	r24, 0xFF	; 255
    2f6e:	9f 4f       	sbci	r25, 0xFF	; 255
    2f70:	99 23       	and	r25, r25
    2f72:	a9 f0       	breq	.+42     	; 0x2f9e <__floatsisf+0x40>
    2f74:	f9 2f       	mov	r31, r25
    2f76:	96 e9       	ldi	r25, 0x96	; 150
    2f78:	bb 27       	eor	r27, r27
    2f7a:	93 95       	inc	r25
    2f7c:	f6 95       	lsr	r31
    2f7e:	87 95       	ror	r24
    2f80:	77 95       	ror	r23
    2f82:	67 95       	ror	r22
    2f84:	b7 95       	ror	r27
    2f86:	f1 11       	cpse	r31, r1
    2f88:	f8 cf       	rjmp	.-16     	; 0x2f7a <__floatsisf+0x1c>
    2f8a:	fa f4       	brpl	.+62     	; 0x2fca <__floatsisf+0x6c>
    2f8c:	bb 0f       	add	r27, r27
    2f8e:	11 f4       	brne	.+4      	; 0x2f94 <__floatsisf+0x36>
    2f90:	60 ff       	sbrs	r22, 0
    2f92:	1b c0       	rjmp	.+54     	; 0x2fca <__floatsisf+0x6c>
    2f94:	6f 5f       	subi	r22, 0xFF	; 255
    2f96:	7f 4f       	sbci	r23, 0xFF	; 255
    2f98:	8f 4f       	sbci	r24, 0xFF	; 255
    2f9a:	9f 4f       	sbci	r25, 0xFF	; 255
    2f9c:	16 c0       	rjmp	.+44     	; 0x2fca <__floatsisf+0x6c>
    2f9e:	88 23       	and	r24, r24
    2fa0:	11 f0       	breq	.+4      	; 0x2fa6 <__floatsisf+0x48>
    2fa2:	96 e9       	ldi	r25, 0x96	; 150
    2fa4:	11 c0       	rjmp	.+34     	; 0x2fc8 <__floatsisf+0x6a>
    2fa6:	77 23       	and	r23, r23
    2fa8:	21 f0       	breq	.+8      	; 0x2fb2 <__floatsisf+0x54>
    2faa:	9e e8       	ldi	r25, 0x8E	; 142
    2fac:	87 2f       	mov	r24, r23
    2fae:	76 2f       	mov	r23, r22
    2fb0:	05 c0       	rjmp	.+10     	; 0x2fbc <__floatsisf+0x5e>
    2fb2:	66 23       	and	r22, r22
    2fb4:	71 f0       	breq	.+28     	; 0x2fd2 <__floatsisf+0x74>
    2fb6:	96 e8       	ldi	r25, 0x86	; 134
    2fb8:	86 2f       	mov	r24, r22
    2fba:	70 e0       	ldi	r23, 0x00	; 0
    2fbc:	60 e0       	ldi	r22, 0x00	; 0
    2fbe:	2a f0       	brmi	.+10     	; 0x2fca <__floatsisf+0x6c>
    2fc0:	9a 95       	dec	r25
    2fc2:	66 0f       	add	r22, r22
    2fc4:	77 1f       	adc	r23, r23
    2fc6:	88 1f       	adc	r24, r24
    2fc8:	da f7       	brpl	.-10     	; 0x2fc0 <__floatsisf+0x62>
    2fca:	88 0f       	add	r24, r24
    2fcc:	96 95       	lsr	r25
    2fce:	87 95       	ror	r24
    2fd0:	97 f9       	bld	r25, 7
    2fd2:	08 95       	ret

00002fd4 <__fp_cmp>:
    2fd4:	99 0f       	add	r25, r25
    2fd6:	00 08       	sbc	r0, r0
    2fd8:	55 0f       	add	r21, r21
    2fda:	aa 0b       	sbc	r26, r26
    2fdc:	e0 e8       	ldi	r30, 0x80	; 128
    2fde:	fe ef       	ldi	r31, 0xFE	; 254
    2fe0:	16 16       	cp	r1, r22
    2fe2:	17 06       	cpc	r1, r23
    2fe4:	e8 07       	cpc	r30, r24
    2fe6:	f9 07       	cpc	r31, r25
    2fe8:	c0 f0       	brcs	.+48     	; 0x301a <__fp_cmp+0x46>
    2fea:	12 16       	cp	r1, r18
    2fec:	13 06       	cpc	r1, r19
    2fee:	e4 07       	cpc	r30, r20
    2ff0:	f5 07       	cpc	r31, r21
    2ff2:	98 f0       	brcs	.+38     	; 0x301a <__fp_cmp+0x46>
    2ff4:	62 1b       	sub	r22, r18
    2ff6:	73 0b       	sbc	r23, r19
    2ff8:	84 0b       	sbc	r24, r20
    2ffa:	95 0b       	sbc	r25, r21
    2ffc:	39 f4       	brne	.+14     	; 0x300c <__fp_cmp+0x38>
    2ffe:	0a 26       	eor	r0, r26
    3000:	61 f0       	breq	.+24     	; 0x301a <__fp_cmp+0x46>
    3002:	23 2b       	or	r18, r19
    3004:	24 2b       	or	r18, r20
    3006:	25 2b       	or	r18, r21
    3008:	21 f4       	brne	.+8      	; 0x3012 <__fp_cmp+0x3e>
    300a:	08 95       	ret
    300c:	0a 26       	eor	r0, r26
    300e:	09 f4       	brne	.+2      	; 0x3012 <__fp_cmp+0x3e>
    3010:	a1 40       	sbci	r26, 0x01	; 1
    3012:	a6 95       	lsr	r26
    3014:	8f ef       	ldi	r24, 0xFF	; 255
    3016:	81 1d       	adc	r24, r1
    3018:	81 1d       	adc	r24, r1
    301a:	08 95       	ret

0000301c <__fp_inf>:
    301c:	97 f9       	bld	r25, 7
    301e:	9f 67       	ori	r25, 0x7F	; 127
    3020:	80 e8       	ldi	r24, 0x80	; 128
    3022:	70 e0       	ldi	r23, 0x00	; 0
    3024:	60 e0       	ldi	r22, 0x00	; 0
    3026:	08 95       	ret

00003028 <__fp_nan>:
    3028:	9f ef       	ldi	r25, 0xFF	; 255
    302a:	80 ec       	ldi	r24, 0xC0	; 192
    302c:	08 95       	ret

0000302e <__fp_pscA>:
    302e:	00 24       	eor	r0, r0
    3030:	0a 94       	dec	r0
    3032:	16 16       	cp	r1, r22
    3034:	17 06       	cpc	r1, r23
    3036:	18 06       	cpc	r1, r24
    3038:	09 06       	cpc	r0, r25
    303a:	08 95       	ret

0000303c <__fp_pscB>:
    303c:	00 24       	eor	r0, r0
    303e:	0a 94       	dec	r0
    3040:	12 16       	cp	r1, r18
    3042:	13 06       	cpc	r1, r19
    3044:	14 06       	cpc	r1, r20
    3046:	05 06       	cpc	r0, r21
    3048:	08 95       	ret

0000304a <__fp_round>:
    304a:	09 2e       	mov	r0, r25
    304c:	03 94       	inc	r0
    304e:	00 0c       	add	r0, r0
    3050:	11 f4       	brne	.+4      	; 0x3056 <__fp_round+0xc>
    3052:	88 23       	and	r24, r24
    3054:	52 f0       	brmi	.+20     	; 0x306a <__fp_round+0x20>
    3056:	bb 0f       	add	r27, r27
    3058:	40 f4       	brcc	.+16     	; 0x306a <__fp_round+0x20>
    305a:	bf 2b       	or	r27, r31
    305c:	11 f4       	brne	.+4      	; 0x3062 <__fp_round+0x18>
    305e:	60 ff       	sbrs	r22, 0
    3060:	04 c0       	rjmp	.+8      	; 0x306a <__fp_round+0x20>
    3062:	6f 5f       	subi	r22, 0xFF	; 255
    3064:	7f 4f       	sbci	r23, 0xFF	; 255
    3066:	8f 4f       	sbci	r24, 0xFF	; 255
    3068:	9f 4f       	sbci	r25, 0xFF	; 255
    306a:	08 95       	ret

0000306c <__fp_split3>:
    306c:	57 fd       	sbrc	r21, 7
    306e:	90 58       	subi	r25, 0x80	; 128
    3070:	44 0f       	add	r20, r20
    3072:	55 1f       	adc	r21, r21
    3074:	59 f0       	breq	.+22     	; 0x308c <__fp_splitA+0x10>
    3076:	5f 3f       	cpi	r21, 0xFF	; 255
    3078:	71 f0       	breq	.+28     	; 0x3096 <__fp_splitA+0x1a>
    307a:	47 95       	ror	r20

0000307c <__fp_splitA>:
    307c:	88 0f       	add	r24, r24
    307e:	97 fb       	bst	r25, 7
    3080:	99 1f       	adc	r25, r25
    3082:	61 f0       	breq	.+24     	; 0x309c <__fp_splitA+0x20>
    3084:	9f 3f       	cpi	r25, 0xFF	; 255
    3086:	79 f0       	breq	.+30     	; 0x30a6 <__fp_splitA+0x2a>
    3088:	87 95       	ror	r24
    308a:	08 95       	ret
    308c:	12 16       	cp	r1, r18
    308e:	13 06       	cpc	r1, r19
    3090:	14 06       	cpc	r1, r20
    3092:	55 1f       	adc	r21, r21
    3094:	f2 cf       	rjmp	.-28     	; 0x307a <__fp_split3+0xe>
    3096:	46 95       	lsr	r20
    3098:	f1 df       	rcall	.-30     	; 0x307c <__fp_splitA>
    309a:	08 c0       	rjmp	.+16     	; 0x30ac <__fp_splitA+0x30>
    309c:	16 16       	cp	r1, r22
    309e:	17 06       	cpc	r1, r23
    30a0:	18 06       	cpc	r1, r24
    30a2:	99 1f       	adc	r25, r25
    30a4:	f1 cf       	rjmp	.-30     	; 0x3088 <__fp_splitA+0xc>
    30a6:	86 95       	lsr	r24
    30a8:	71 05       	cpc	r23, r1
    30aa:	61 05       	cpc	r22, r1
    30ac:	08 94       	sec
    30ae:	08 95       	ret

000030b0 <__fp_zero>:
    30b0:	e8 94       	clt

000030b2 <__fp_szero>:
    30b2:	bb 27       	eor	r27, r27
    30b4:	66 27       	eor	r22, r22
    30b6:	77 27       	eor	r23, r23
    30b8:	cb 01       	movw	r24, r22
    30ba:	97 f9       	bld	r25, 7
    30bc:	08 95       	ret

000030be <__gesf2>:
    30be:	8a df       	rcall	.-236    	; 0x2fd4 <__fp_cmp>
    30c0:	08 f4       	brcc	.+2      	; 0x30c4 <__gesf2+0x6>
    30c2:	8f ef       	ldi	r24, 0xFF	; 255
    30c4:	08 95       	ret

000030c6 <__mulsf3>:
    30c6:	0b d0       	rcall	.+22     	; 0x30de <__mulsf3x>
    30c8:	c0 cf       	rjmp	.-128    	; 0x304a <__fp_round>
    30ca:	b1 df       	rcall	.-158    	; 0x302e <__fp_pscA>
    30cc:	28 f0       	brcs	.+10     	; 0x30d8 <__mulsf3+0x12>
    30ce:	b6 df       	rcall	.-148    	; 0x303c <__fp_pscB>
    30d0:	18 f0       	brcs	.+6      	; 0x30d8 <__mulsf3+0x12>
    30d2:	95 23       	and	r25, r21
    30d4:	09 f0       	breq	.+2      	; 0x30d8 <__mulsf3+0x12>
    30d6:	a2 cf       	rjmp	.-188    	; 0x301c <__fp_inf>
    30d8:	a7 cf       	rjmp	.-178    	; 0x3028 <__fp_nan>
    30da:	11 24       	eor	r1, r1
    30dc:	ea cf       	rjmp	.-44     	; 0x30b2 <__fp_szero>

000030de <__mulsf3x>:
    30de:	c6 df       	rcall	.-116    	; 0x306c <__fp_split3>
    30e0:	a0 f3       	brcs	.-24     	; 0x30ca <__mulsf3+0x4>

000030e2 <__mulsf3_pse>:
    30e2:	95 9f       	mul	r25, r21
    30e4:	d1 f3       	breq	.-12     	; 0x30da <__mulsf3+0x14>
    30e6:	95 0f       	add	r25, r21
    30e8:	50 e0       	ldi	r21, 0x00	; 0
    30ea:	55 1f       	adc	r21, r21
    30ec:	62 9f       	mul	r22, r18
    30ee:	f0 01       	movw	r30, r0
    30f0:	72 9f       	mul	r23, r18
    30f2:	bb 27       	eor	r27, r27
    30f4:	f0 0d       	add	r31, r0
    30f6:	b1 1d       	adc	r27, r1
    30f8:	63 9f       	mul	r22, r19
    30fa:	aa 27       	eor	r26, r26
    30fc:	f0 0d       	add	r31, r0
    30fe:	b1 1d       	adc	r27, r1
    3100:	aa 1f       	adc	r26, r26
    3102:	64 9f       	mul	r22, r20
    3104:	66 27       	eor	r22, r22
    3106:	b0 0d       	add	r27, r0
    3108:	a1 1d       	adc	r26, r1
    310a:	66 1f       	adc	r22, r22
    310c:	82 9f       	mul	r24, r18
    310e:	22 27       	eor	r18, r18
    3110:	b0 0d       	add	r27, r0
    3112:	a1 1d       	adc	r26, r1
    3114:	62 1f       	adc	r22, r18
    3116:	73 9f       	mul	r23, r19
    3118:	b0 0d       	add	r27, r0
    311a:	a1 1d       	adc	r26, r1
    311c:	62 1f       	adc	r22, r18
    311e:	83 9f       	mul	r24, r19
    3120:	a0 0d       	add	r26, r0
    3122:	61 1d       	adc	r22, r1
    3124:	22 1f       	adc	r18, r18
    3126:	74 9f       	mul	r23, r20
    3128:	33 27       	eor	r19, r19
    312a:	a0 0d       	add	r26, r0
    312c:	61 1d       	adc	r22, r1
    312e:	23 1f       	adc	r18, r19
    3130:	84 9f       	mul	r24, r20
    3132:	60 0d       	add	r22, r0
    3134:	21 1d       	adc	r18, r1
    3136:	82 2f       	mov	r24, r18
    3138:	76 2f       	mov	r23, r22
    313a:	6a 2f       	mov	r22, r26
    313c:	11 24       	eor	r1, r1
    313e:	9f 57       	subi	r25, 0x7F	; 127
    3140:	50 40       	sbci	r21, 0x00	; 0
    3142:	8a f0       	brmi	.+34     	; 0x3166 <__mulsf3_pse+0x84>
    3144:	e1 f0       	breq	.+56     	; 0x317e <__mulsf3_pse+0x9c>
    3146:	88 23       	and	r24, r24
    3148:	4a f0       	brmi	.+18     	; 0x315c <__mulsf3_pse+0x7a>
    314a:	ee 0f       	add	r30, r30
    314c:	ff 1f       	adc	r31, r31
    314e:	bb 1f       	adc	r27, r27
    3150:	66 1f       	adc	r22, r22
    3152:	77 1f       	adc	r23, r23
    3154:	88 1f       	adc	r24, r24
    3156:	91 50       	subi	r25, 0x01	; 1
    3158:	50 40       	sbci	r21, 0x00	; 0
    315a:	a9 f7       	brne	.-22     	; 0x3146 <__mulsf3_pse+0x64>
    315c:	9e 3f       	cpi	r25, 0xFE	; 254
    315e:	51 05       	cpc	r21, r1
    3160:	70 f0       	brcs	.+28     	; 0x317e <__mulsf3_pse+0x9c>
    3162:	5c cf       	rjmp	.-328    	; 0x301c <__fp_inf>
    3164:	a6 cf       	rjmp	.-180    	; 0x30b2 <__fp_szero>
    3166:	5f 3f       	cpi	r21, 0xFF	; 255
    3168:	ec f3       	brlt	.-6      	; 0x3164 <__mulsf3_pse+0x82>
    316a:	98 3e       	cpi	r25, 0xE8	; 232
    316c:	dc f3       	brlt	.-10     	; 0x3164 <__mulsf3_pse+0x82>
    316e:	86 95       	lsr	r24
    3170:	77 95       	ror	r23
    3172:	67 95       	ror	r22
    3174:	b7 95       	ror	r27
    3176:	f7 95       	ror	r31
    3178:	e7 95       	ror	r30
    317a:	9f 5f       	subi	r25, 0xFF	; 255
    317c:	c1 f7       	brne	.-16     	; 0x316e <__mulsf3_pse+0x8c>
    317e:	fe 2b       	or	r31, r30
    3180:	88 0f       	add	r24, r24
    3182:	91 1d       	adc	r25, r1
    3184:	96 95       	lsr	r25
    3186:	87 95       	ror	r24
    3188:	97 f9       	bld	r25, 7
    318a:	08 95       	ret

0000318c <__tablejump2__>:
    318c:	ee 0f       	add	r30, r30
    318e:	ff 1f       	adc	r31, r31

00003190 <__tablejump__>:
    3190:	05 90       	lpm	r0, Z+
    3192:	f4 91       	lpm	r31, Z
    3194:	e0 2d       	mov	r30, r0
    3196:	19 94       	eijmp

00003198 <__umulhisi3>:
    3198:	a2 9f       	mul	r26, r18
    319a:	b0 01       	movw	r22, r0
    319c:	b3 9f       	mul	r27, r19
    319e:	c0 01       	movw	r24, r0
    31a0:	a3 9f       	mul	r26, r19
    31a2:	70 0d       	add	r23, r0
    31a4:	81 1d       	adc	r24, r1
    31a6:	11 24       	eor	r1, r1
    31a8:	91 1d       	adc	r25, r1
    31aa:	b2 9f       	mul	r27, r18
    31ac:	70 0d       	add	r23, r0
    31ae:	81 1d       	adc	r24, r1
    31b0:	11 24       	eor	r1, r1
    31b2:	91 1d       	adc	r25, r1
    31b4:	08 95       	ret

000031b6 <_exit>:
    31b6:	f8 94       	cli

000031b8 <__stop_program>:
    31b8:	ff cf       	rjmp	.-2      	; 0x31b8 <__stop_program>
